Component: ARM Compiler 5.06 update 5 (build 528) Tool: armlink [4d35e2]

==============================================================================

Section Cross References

    system_stm32f7xx.o(i.SystemCoreClockUpdate) refers to system_stm32f7xx.o(.data) for .data
    system_stm32f7xx.o(i.SystemCoreClockUpdate) refers to system_stm32f7xx.o(.constdata) for .constdata
    channelcontrolpanel.o(i._ZN19ChannelControlPanel13buttonClickedERKN8touchgfx14AbstractButtonE) refers to channelcontrolpanel.o(i._ZN19ChannelControlPanel18slideHorizotalTextENS_14SlideDirectionE) for ChannelControlPanel::slideHorizotalText(ChannelControlPanel::SlideDirection)
    channelcontrolpanel.o(i._ZN19ChannelControlPanel13buttonClickedERKN8touchgfx14AbstractButtonE) refers to channelcontrolpanel.o(i._ZN19ChannelControlPanel17slideVerticalTextENS_14SlideDirectionE) for ChannelControlPanel::slideVerticalText(ChannelControlPanel::SlideDirection)
    channelcontrolpanel.o(i._ZN19ChannelControlPanel17SetMarkerButtonOnEv) refers to togglebutton.o(i._ZN8touchgfx12ToggleButton10forceStateEb) for touchgfx::ToggleButton::forceState(bool)
    channelcontrolpanel.o(i._ZN19ChannelControlPanel17slideVerticalTextENS_14SlideDirectionE) refers to channelcontrolpanel.o(t._ZN8touchgfx12MoveAnimatorINS_8TextAreaEE18startMoveAnimationEsstPFstsstES4_) for touchgfx::MoveAnimator<touchgfx::TextArea>::startMoveAnimation(short, short, unsigned short, short(*)(unsigned short, short, short, unsigned short), short(*)(unsigned short, short, short, unsigned short))
    channelcontrolpanel.o(i._ZN19ChannelControlPanel17slideVerticalTextENS_14SlideDirectionE) refers to channelcontrolpanel.o(i._ZN8touchgfx8Drawable6moveToEss) for touchgfx::Drawable::moveTo(short, short)
    channelcontrolpanel.o(i._ZN19ChannelControlPanel17slideVerticalTextENS_14SlideDirectionE) refers to easingequations.o(i._ZN8touchgfx15EasingEquations14linearEaseNoneEtsst) for touchgfx::EasingEquations::linearEaseNone(unsigned short, short, short, unsigned short)
    channelcontrolpanel.o(i._ZN19ChannelControlPanel17slideVerticalTextENS_14SlideDirectionE) refers to easingequations.o(i._ZN8touchgfx15EasingEquations12cubicEaseOutEtsst) for touchgfx::EasingEquations::cubicEaseOut(unsigned short, short, short, unsigned short)
    channelcontrolpanel.o(i._ZN19ChannelControlPanel18SetTriggerButtonOnEv) refers to togglebutton.o(i._ZN8touchgfx12ToggleButton10forceStateEb) for touchgfx::ToggleButton::forceState(bool)
    channelcontrolpanel.o(i._ZN19ChannelControlPanel18slideHorizotalTextENS_14SlideDirectionE) refers to channelcontrolpanel.o(t._ZN8touchgfx12MoveAnimatorINS_8TextAreaEE18startMoveAnimationEsstPFstsstES4_) for touchgfx::MoveAnimator<touchgfx::TextArea>::startMoveAnimation(short, short, unsigned short, short(*)(unsigned short, short, short, unsigned short), short(*)(unsigned short, short, short, unsigned short))
    channelcontrolpanel.o(i._ZN19ChannelControlPanel18slideHorizotalTextENS_14SlideDirectionE) refers to channelcontrolpanel.o(i._ZN8touchgfx8Drawable6moveToEss) for touchgfx::Drawable::moveTo(short, short)
    channelcontrolpanel.o(i._ZN19ChannelControlPanel18slideHorizotalTextENS_14SlideDirectionE) refers to easingequations.o(i._ZN8touchgfx15EasingEquations14linearEaseNoneEtsst) for touchgfx::EasingEquations::linearEaseNone(unsigned short, short, short, unsigned short)
    channelcontrolpanel.o(i._ZN19ChannelControlPanel18slideHorizotalTextENS_14SlideDirectionE) refers to easingequations.o(i._ZN8touchgfx15EasingEquations12cubicEaseOutEtsst) for touchgfx::EasingEquations::cubicEaseOut(unsigned short, short, short, unsigned short)
    channelcontrolpanel.o(i._ZN19ChannelControlPanel5setupEiitttttt) refers to image.o(i._ZN8touchgfx5Image9setBitmapERKNS_6BitmapE) for touchgfx::Image::setBitmap(const touchgfx::Bitmap&)
    channelcontrolpanel.o(i._ZN19ChannelControlPanel5setupEiitttttt) refers to channelcontrolpanel.o(i._ZN8touchgfx8Drawable5setXYEss) for touchgfx::Drawable::setXY(short, short)
    channelcontrolpanel.o(i._ZN19ChannelControlPanel5setupEiitttttt) refers to channelcontrolpanel.o(i._ZN8touchgfx8Drawable11setPositionEssss) for touchgfx::Drawable::setPosition(short, short, short, short)
    channelcontrolpanel.o(i._ZN19ChannelControlPanel5setupEiitttttt) refers to textarea.o(i._ZN8touchgfx8TextArea12setTypedTextENS_9TypedTextE) for touchgfx::TextArea::setTypedText(touchgfx::TypedText)
    channelcontrolpanel.o(i._ZN19ChannelControlPanel5setupEiitttttt) refers to color.o(i._ZN8touchgfx5Color20getColorFrom24BitRGBEhhh) for touchgfx::Color::getColorFrom24BitRGB(unsigned char, unsigned char, unsigned char)
    channelcontrolpanel.o(i._ZN19ChannelControlPanel5setupEiitttttt) refers to container.o(i._ZN8touchgfx9Container3addERNS_8DrawableE) for touchgfx::Container::add(touchgfx::Drawable&)
    channelcontrolpanel.o(i._ZN19ChannelControlPanel5setupEiitttttt) refers to channelcontrolpanel.o(i._ZN19ChannelControlPanel18slideHorizotalTextENS_14SlideDirectionE) for ChannelControlPanel::slideHorizotalText(ChannelControlPanel::SlideDirection)
    channelcontrolpanel.o(i._ZN19ChannelControlPanel5setupEiitttttt) refers to channelcontrolpanel.o(i._ZN19ChannelControlPanel17slideVerticalTextENS_14SlideDirectionE) for ChannelControlPanel::slideVerticalText(ChannelControlPanel::SlideDirection)
    channelcontrolpanel.o(i._ZN19ChannelControlPanel5setupEiitttttt) refers to channelcontrolpanel.o(i._ZN8touchgfx12ToggleButton10setBitmapsERKNS_6BitmapES3_) for touchgfx::ToggleButton::setBitmaps(const touchgfx::Bitmap&, const touchgfx::Bitmap&)
    channelcontrolpanel.o(i._ZN19ChannelControlPanel5setupEiitttttt) refers to button.o(i._ZN8touchgfx6Button10setBitmapsERKNS_6BitmapES3_) for touchgfx::Button::setBitmaps(const touchgfx::Bitmap&, const touchgfx::Bitmap&)
    channelcontrolpanel.o(i._ZN19ChannelControlPanel5setupEiitttttt) refers to painterrgb565.o(i._ZN8touchgfx13PainterRGB5658setColorENS_9colortypeEh) for touchgfx::PainterRGB565::setColor(touchgfx::colortype, unsigned char)
    channelcontrolpanel.o(i._ZN19ChannelControlPanel5setupEiitttttt) refers to channelcontrolpanel.o(t._ZN8touchgfx4Line12setLineWidthIiEEvT_) for void touchgfx::Line::setLineWidth<int>(T1)
    channelcontrolpanel.o(i._ZN19ChannelControlPanel5setupEiitttttt) refers to channelcontrolpanel.o(t._ZN8touchgfx4Line8setStartIiEEvT_S2_) for void touchgfx::Line::setStart<int>(T1, T1)
    channelcontrolpanel.o(i._ZN19ChannelControlPanel5setupEiitttttt) refers to channelcontrolpanel.o(t._ZN8touchgfx4Line6setEndIiEEvT_S2_) for void touchgfx::Line::setEnd<int>(T1, T1)
    channelcontrolpanel.o(i._ZN19ChannelControlPanel5setupEiitttttt) refers to canvaswidget.o(i._ZN8touchgfx12CanvasWidget10setPainterERNS_15AbstractPainterE) for touchgfx::CanvasWidget::setPainter(touchgfx::AbstractPainter&)
    channelcontrolpanel.o(i._ZN19ChannelControlPanel5setupEiitttttt) refers to repeatbutton.o(i._ZN8touchgfx12RepeatButton8setDelayEi) for touchgfx::RepeatButton::setDelay(int)
    channelcontrolpanel.o(i._ZN19ChannelControlPanel5setupEiitttttt) refers to scrollablecontainer.o(i._ZN8touchgfx19ScrollableContainer3addERNS_8DrawableE) for touchgfx::ScrollableContainer::add(touchgfx::Drawable&)
    channelcontrolpanel.o(i._ZN19ChannelControlPanelC1Ev) refers to channelcontrolpanel.o(i._ZN8touchgfx9ContainerC1Ev) for touchgfx::Container::Container()
    channelcontrolpanel.o(i._ZN19ChannelControlPanelC1Ev) refers to scrollablecontainer.o(i._ZN8touchgfx19ScrollableContainerC1Ev) for touchgfx::ScrollableContainer::ScrollableContainer()
    channelcontrolpanel.o(i._ZN19ChannelControlPanelC1Ev) refers to channelcontrolpanel.o(i._ZN8touchgfx5ImageC1ERKNS_6BitmapE) for touchgfx::Image::Image(const touchgfx::Bitmap&)
    channelcontrolpanel.o(i._ZN19ChannelControlPanelC1Ev) refers to togglebutton.o(i._ZN8touchgfx12ToggleButtonC1Ev) for touchgfx::ToggleButton::ToggleButton()
    channelcontrolpanel.o(i._ZN19ChannelControlPanelC1Ev) refers to channelcontrolpanel.o(i._ZN8touchgfx6ButtonC1Ev) for touchgfx::Button::Button()
    channelcontrolpanel.o(i._ZN19ChannelControlPanelC1Ev) refers to repeatbutton.o(i._ZN8touchgfx12RepeatButtonC1Ev) for touchgfx::RepeatButton::RepeatButton()
    channelcontrolpanel.o(i._ZN19ChannelControlPanelC1Ev) refers to channelcontrolpanel.o(i._ZN8touchgfx8TextAreaC1Ev) for touchgfx::TextArea::TextArea()
    channelcontrolpanel.o(i._ZN19ChannelControlPanelC1Ev) refers to aeabi_vec_ctor_nocookie_nodtor.o(i.__aeabi_vec_ctor_nocookie_nodtor) for __aeabi_vec_ctor_nocookie_nodtor
    channelcontrolpanel.o(i._ZN19ChannelControlPanelC1Ev) refers to line.o(i._ZN8touchgfx4LineC1Ev) for touchgfx::Line::Line()
    channelcontrolpanel.o(i._ZN19ChannelControlPanelC1Ev) refers to painterrgb565.o(i._ZN8touchgfx13PainterRGB565C1ENS_9colortypeEh) for touchgfx::PainterRGB565::PainterRGB565(touchgfx::colortype, unsigned char)
    channelcontrolpanel.o(i._ZN19ChannelControlPanelC1Ev) refers to channelcontrolpanel.o(.constdata__ZTV19ChannelControlPanel) for vtable for ChannelControlPanel
    channelcontrolpanel.o(i._ZN19ChannelControlPanelC1Ev) refers to channelcontrolpanel.o(t._ZN8touchgfx12MoveAnimatorINS_8TextAreaEEC1Ev) for touchgfx::MoveAnimator<touchgfx::TextArea>::MoveAnimator()
    channelcontrolpanel.o(i._ZN19ChannelControlPanelC1Ev) refers to channelcontrolpanel.o(.constdata) for .constdata
    channelcontrolpanel.o(i._ZN19ChannelControlPanelC1Ev) refers to channelcontrolpanel.o(.constdata__ZTVN8touchgfx8CallbackI19ChannelControlPanelRKNS_14AbstractButtonEvEE) for vtable for touchgfx::Callback<ChannelControlPanel, const touchgfx::AbstractButton&, void>
    channelcontrolpanel.o(i._ZN19ChannelControlPanelD0Ev) refers to channelcontrolpanel.o(i._ZN19ChannelControlPanelD1Ev) for ChannelControlPanel::~ChannelControlPanel()
    channelcontrolpanel.o(i._ZN19ChannelControlPanelD0Ev) refers to delete.o(i._ZdlPv) for operator delete (void*)
    channelcontrolpanel.o(i._ZN19ChannelControlPanelD1Ev) refers to abstractpainter.o(i._ZN8touchgfx15AbstractPainterD2Ev) for touchgfx::AbstractPainter::~AbstractPainter__sub_object()
    channelcontrolpanel.o(i._ZN19ChannelControlPanelD1Ev) refers to canvaswidget.o(i._ZN8touchgfx12CanvasWidgetD2Ev) for touchgfx::CanvasWidget::~CanvasWidget__sub_object()
    channelcontrolpanel.o(i._ZN19ChannelControlPanelD1Ev) refers to aeabi_vec_dtor_noexceptions.o(.text) for __aeabi_vec_dtor
    channelcontrolpanel.o(i._ZN19ChannelControlPanelD1Ev) refers to channelcontrolpanel.o(.constdata__ZTV19ChannelControlPanel) for vtable for ChannelControlPanel
    channelcontrolpanel.o(i._ZN19ChannelControlPanelD1Ev) refers to channelcontrolpanel.o(t._ZN8touchgfx12MoveAnimatorINS_8TextAreaEED1Ev) for touchgfx::MoveAnimator<touchgfx::TextArea>::~MoveAnimator()
    channelcontrolpanel.o(i._ZN19ChannelControlPanelD1Ev) refers to scrollablecontainer.o(.constdata__ZTVN8touchgfx19ScrollableContainerE) for vtable for touchgfx::ScrollableContainer
    channelcontrolpanel.o(i._ZThn44_N19ChannelControlPanelD0Ev) refers to channelcontrolpanel.o(i._ZN19ChannelControlPanelD0Ev) for ChannelControlPanel::~ChannelControlPanel__deallocating()
    channelcontrolpanel.o(i._ZThn44_N19ChannelControlPanelD1Ev) refers to channelcontrolpanel.o(i._ZN19ChannelControlPanelD1Ev) for ChannelControlPanel::~ChannelControlPanel()
    channelcontrolpanel.o(.ARM.exidx) refers to channelcontrolpanel.o(i._ZN19ChannelControlPanelC1Ev) for i._ZN19ChannelControlPanelC1Ev
    channelcontrolpanel.o(.ARM.exidx) refers to channelcontrolpanel.o(i._ZN19ChannelControlPanelD1Ev) for i._ZN19ChannelControlPanelD1Ev
    channelcontrolpanel.o(.ARM.exidx) refers to channelcontrolpanel.o(i._ZN19ChannelControlPanelD0Ev) for i._ZN19ChannelControlPanelD0Ev
    channelcontrolpanel.o(.ARM.exidx) refers to channelcontrolpanel.o(i._ZThn44_N19ChannelControlPanelD0Ev) for i._ZThn44_N19ChannelControlPanelD0Ev
    channelcontrolpanel.o(.ARM.exidx) refers to channelcontrolpanel.o(i._ZThn44_N19ChannelControlPanelD1Ev) for i._ZThn44_N19ChannelControlPanelD1Ev
    channelcontrolpanel.o(.ARM.exidx) refers to channelcontrolpanel.o(i._ZN19ChannelControlPanel17slideVerticalTextENS_14SlideDirectionE) for i._ZN19ChannelControlPanel17slideVerticalTextENS_14SlideDirectionE
    channelcontrolpanel.o(.ARM.exidx) refers to channelcontrolpanel.o(i._ZN19ChannelControlPanel18slideHorizotalTextENS_14SlideDirectionE) for i._ZN19ChannelControlPanel18slideHorizotalTextENS_14SlideDirectionE
    channelcontrolpanel.o(.ARM.exidx) refers to channelcontrolpanel.o(i._ZN19ChannelControlPanel13buttonClickedERKN8touchgfx14AbstractButtonE) for i._ZN19ChannelControlPanel13buttonClickedERKN8touchgfx14AbstractButtonE
    channelcontrolpanel.o(.ARM.exidx) refers to channelcontrolpanel.o(i._ZN19ChannelControlPanel23SetChannelPanelCallbackERN8touchgfx15GenericCallbackIKhvEE) for i._ZN19ChannelControlPanel23SetChannelPanelCallbackERN8touchgfx15GenericCallbackIKhvEE
    channelcontrolpanel.o(.ARM.exidx) refers to channelcontrolpanel.o(i._ZN19ChannelControlPanel5setupEiitttttt) for i._ZN19ChannelControlPanel5setupEiitttttt
    channelcontrolpanel.o(.ARM.exidx) refers to channelcontrolpanel.o(i._ZN19ChannelControlPanel18SetTriggerButtonOnEv) for i._ZN19ChannelControlPanel18SetTriggerButtonOnEv
    channelcontrolpanel.o(.ARM.exidx) refers to channelcontrolpanel.o(i._ZN19ChannelControlPanel17SetMarkerButtonOnEv) for i._ZN19ChannelControlPanel17SetMarkerButtonOnEv
    channelcontrolpanel.o(.ARM.exidx) refers to channelcontrolpanel.o(i._ZN19ChannelControlPanel22isTriggerButtonClickedEv) for i._ZN19ChannelControlPanel22isTriggerButtonClickedEv
    channelcontrolpanel.o(.ARM.exidx) refers to channelcontrolpanel.o(i._ZN19ChannelControlPanel22isFallingButtonClickedEv) for i._ZN19ChannelControlPanel22isFallingButtonClickedEv
    channelcontrolpanel.o(.ARM.exidx) refers to channelcontrolpanel.o(i._ZN19ChannelControlPanel21isMarkerButtonClickedEv) for i._ZN19ChannelControlPanel21isMarkerButtonClickedEv
    channelcontrolpanel.o(.ARM.exidx) refers to channelcontrolpanel.o(i._ZN19ChannelControlPanel22isMarkerAButtonClickedEv) for i._ZN19ChannelControlPanel22isMarkerAButtonClickedEv
    channelcontrolpanel.o(.ARM.exidx) refers to channelcontrolpanel.o(i._ZN19ChannelControlPanel22isMarkerBButtonClickedEv) for i._ZN19ChannelControlPanel22isMarkerBButtonClickedEv
    channelcontrolpanel.o(.ARM.exidx) refers to channelcontrolpanel.o(i._ZN19ChannelControlPanel16GetTimeBaseIndexEv) for i._ZN19ChannelControlPanel16GetTimeBaseIndexEv
    channelcontrolpanel.o(.ARM.exidx) refers to channelcontrolpanel.o(i._ZN19ChannelControlPanel16GetVoltBaseIndexEv) for i._ZN19ChannelControlPanel16GetVoltBaseIndexEv
    channelcontrolpanel.o(.ARM.exidx) refers to channelcontrolpanel.o(i._ZN19ChannelControlPanel16SetUpButtonImageEtttttttt) for i._ZN19ChannelControlPanel16SetUpButtonImageEtttttttt
    channelcontrolpanel.o(.ARM.exidx) refers to channelcontrolpanel.o(i._ZN19ChannelControlPanel10GetYOffsetEv) for i._ZN19ChannelControlPanel10GetYOffsetEv
    channelcontrolpanel.o(.ARM.exidx) refers to channelcontrolpanel.o(i._ZN19ChannelControlPanel10GetXOffsetEv) for i._ZN19ChannelControlPanel10GetXOffsetEv
    channelcontrolpanel.o(.constdata) refers to channelcontrolpanel.o(i._ZN19ChannelControlPanel13buttonClickedERKN8touchgfx14AbstractButtonE) for ChannelControlPanel::buttonClicked(const touchgfx::AbstractButton&)
    customlistelement.o(i._ZN17CustomListElementC1Ev) refers to customlistelement.o(i._ZN8touchgfx8DrawableC2Ev) for touchgfx::Drawable::Drawable__sub_object()
    customlistelement.o(i._ZN17CustomListElementC1Ev) refers to customlistelement.o(.constdata__ZTV17CustomListElement) for vtable for CustomListElement
    customlistelement.o(i._ZN17CustomListElementC1Ev) refers to button.o(.constdata__ZTVN8touchgfx6ButtonE) for vtable for touchgfx::Button
    customlistelement.o(i._ZN17CustomListElementC1Ev) refers to customlistelement.o(.constdata) for .constdata
    customlistelement.o(i._ZN17CustomListElementC1Ev) refers to customlistelement.o(.constdata__ZTVN8touchgfx8CallbackI17CustomListElementRKNS_14AbstractButtonEvEE) for vtable for touchgfx::Callback<CustomListElement, const touchgfx::AbstractButton&, void>
    customlistelement.o(.ARM.exidx) refers to customlistelement.o(i._ZN17CustomListElementC1Ev) for i._ZN17CustomListElementC1Ev
    customlistelement.o(.ARM.exidx) refers to customlistelement.o(i._ZN17CustomListElement16setupListElementERKN8touchgfx6BitmapE) for i._ZN17CustomListElement16setupListElementERKN8touchgfx6BitmapE
    customlistelement.o(.ARM.exidx) refers to customlistelement.o(i._ZN17CustomListElement13buttonClickedERKN8touchgfx14AbstractButtonE) for i._ZN17CustomListElement13buttonClickedERKN8touchgfx14AbstractButtonE
    customlistelement.o(.constdata) refers to customlistelement.o(i._ZN17CustomListElement13buttonClickedERKN8touchgfx14AbstractButtonE) for CustomListElement::buttonClicked(const touchgfx::AbstractButton&)
    frontendapplication.o(i._ZN19FrontendApplication14gotoMainScreenEv) refers to frontendapplication.o(.constdata) for .constdata
    frontendapplication.o(i._ZN19FrontendApplication18gotoMainScreenImplEv) refers to frontendapplication.o(t._ZN8touchgfx14makeTransitionI8MainView13MainPresenterNS_12NoTransitionE5ModelEEPT0_PPNS_6ScreenEPPNS_9PresenterERNS_7MVPHeapEPPNS_10TransitionEPT2_) for T2* touchgfx::makeTransition<MainView, MainPresenter, touchgfx::NoTransition, Model>(touchgfx::Screen**, touchgfx::Presenter**, touchgfx::MVPHeap&, touchgfx::Transition**, T4*)
    frontendapplication.o(i._ZN19FrontendApplication18gotoMainScreenImplEv) refers to application.o(.data) for touchgfx::Application::currentTransition
    frontendapplication.o(i._ZN19FrontendApplicationC1ER5ModelR12FrontendHeap) refers to application.o(i._ZN8touchgfx11ApplicationC1Ev) for touchgfx::Application::Application()
    frontendapplication.o(i._ZN19FrontendApplicationC1ER5ModelR12FrontendHeap) refers to frontendapplication.o(.constdata__ZTVN8touchgfx14MVPApplicationE) for vtable for touchgfx::MVPApplication
    frontendapplication.o(i._ZN19FrontendApplicationC1ER5ModelR12FrontendHeap) refers to application.o(.data) for touchgfx::Application::instance
    frontendapplication.o(i._ZN19FrontendApplicationC1ER5ModelR12FrontendHeap) refers to frontendapplication.o(.constdata__ZTV19FrontendApplication) for vtable for FrontendApplication
    frontendapplication.o(i._ZN19FrontendApplicationC1ER5ModelR12FrontendHeap) refers to frontendapplication.o(.constdata__ZTVN8touchgfx8CallbackI19FrontendApplicationvvEE) for vtable for touchgfx::Callback<FrontendApplication, void, void>
    frontendapplication.o(i._ZN19FrontendApplicationC1ER5ModelR12FrontendHeap) refers to frontendapplication.o(.constdata) for .constdata
    frontendapplication.o(.ARM.exidx) refers to frontendapplication.o(i._ZN19FrontendApplicationC1ER5ModelR12FrontendHeap) for i._ZN19FrontendApplicationC1ER5ModelR12FrontendHeap
    frontendapplication.o(.ARM.exidx) refers to frontendapplication.o(i._ZN19FrontendApplication14gotoMainScreenEv) for i._ZN19FrontendApplication14gotoMainScreenEv
    frontendapplication.o(.ARM.exidx) refers to frontendapplication.o(i._ZN19FrontendApplication18gotoMainScreenImplEv) for i._ZN19FrontendApplication18gotoMainScreenImplEv
    frontendapplication.o(.constdata) refers to frontendapplication.o(i._ZN19FrontendApplication18gotoMainScreenImplEv) for FrontendApplication::gotoMainScreenImpl()
    frontendapplication.o(.constdata) refers to mainview.o(i._ZN8MainView13buttonClickedERKN8touchgfx14AbstractButtonE) for MainView::buttonClicked(const touchgfx::AbstractButton&)
    frontendapplication.o(.constdata) refers to mainview.o(i._ZN8MainView19CtrlPanelBtnPressedEh) for MainView::CtrlPanelBtnPressed(unsigned char)
    graph.o(i._ZN5Graph11setPositionEssss) refers to channelcontrolpanel.o(i._ZN8touchgfx8Drawable11setPositionEssss) for touchgfx::Drawable::setPosition(short, short, short, short)
    graph.o(i._ZN5Graph15handleTickEventEv) refers to graph.o(i._ZN5Graph9calculateEv) for Graph::calculate()
    graph.o(i._ZN5Graph15handleTickEventEv) refers to graph.o(.data) for .data
    graph.o(i._ZN5Graph26calculateRightCurveSegmentEv) refers to memcpya.o(.text) for __aeabi_memcpy
    graph.o(i._ZN5Graph26calculateRightCurveSegmentEv) refers to graph.o(i._ZNK5Graph7valueAtEt) for Graph::valueAt(unsigned short) const
    graph.o(i._ZN5Graph26calculateRightCurveSegmentEv) refers to floorf.o(i.__hardfp_floorf) for __hardfp_floorf
    graph.o(i._ZN5Graph26calculateRightCurveSegmentEv) refers to sqrtf.o(i.__hardfp_sqrtf) for __hardfp_sqrtf
    graph.o(i._ZN5Graph26calculateRightCurveSegmentEv) refers to graph.o(.data) for .data
    graph.o(i._ZN5Graph9calculateEv) refers to graph.o(i._ZN5Graph26calculateRightCurveSegmentEv) for Graph::calculateRightCurveSegment()
    graph.o(i._ZN5Graph9calculateEv) refers to graph.o(.data) for .data
    graph.o(i._ZN5GraphC1Ev) refers to channelcontrolpanel.o(i._ZN8touchgfx4RectC1Essss) for touchgfx::Rect::Rect(short, short, short, short)
    graph.o(i._ZN5GraphC1Ev) refers to color.o(i._ZN8touchgfx5Color20getColorFrom24BitRGBEhhh) for touchgfx::Color::getColorFrom24BitRGB(unsigned char, unsigned char, unsigned char)
    graph.o(i._ZN5GraphC1Ev) refers to drawable.o(.constdata__ZTVN8touchgfx8DrawableE) for vtable for touchgfx::Drawable
    graph.o(i._ZN5GraphC1Ev) refers to graph.o(.constdata__ZTV5Graph) for vtable for Graph
    graph.o(i._ZN5GraphC1Ev) refers to graph.o(.data) for .data
    graph.o(i._ZNK5Graph14getYCoordinateEs) refers to graph.o(i._ZNK5Graph18withinCurrentCurveEs) for Graph::withinCurrentCurve(short) const
    graph.o(i._ZNK5Graph4drawERKN8touchgfx4RectE) refers to graph.o(i._ZNK5Graph9drawCurveEPtRKN8touchgfx4RectE) for Graph::drawCurve(unsigned short*, const touchgfx::Rect&) const
    graph.o(i._ZNK5Graph4drawERKN8touchgfx4RectE) refers to hal.o(.data) for touchgfx::HAL::instance
    graph.o(i._ZNK5Graph9drawCurveEPtRKN8touchgfx4RectE) refers to memcpya.o(.text) for __aeabi_memcpy
    graph.o(i._ZNK5Graph9drawCurveEPtRKN8touchgfx4RectE) refers to hal.o(.data) for touchgfx::HAL::DISPLAY_WIDTH
    graph.o(i._ZNK5Graph9getYValueEs) refers to graph.o(i._ZNK5Graph18withinCurrentCurveEs) for Graph::withinCurrentCurve(short) const
    graph.o(i._ZNK5Graph9getYValueEs) refers to graph.o(i._ZNK5Graph14getYCoordinateEs) for Graph::getYCoordinate(short) const
    graph.o(.ARM.exidx) refers to graph.o(i._ZN5GraphC1Ev) for i._ZN5GraphC1Ev
    graph.o(.ARM.exidx) refers to graph.o(i._ZNK5Graph9drawCurveEPtRKN8touchgfx4RectE) for i._ZNK5Graph9drawCurveEPtRKN8touchgfx4RectE
    graph.o(.ARM.exidx) refers to graph.o(i._ZNK5Graph4drawERKN8touchgfx4RectE) for i._ZNK5Graph4drawERKN8touchgfx4RectE
    graph.o(.ARM.exidx) refers to graph.o(i._ZNK5Graph7valueAtEt) for i._ZNK5Graph7valueAtEt
    graph.o(.ARM.exidx) refers to graph.o(i._ZN5Graph26calculateRightCurveSegmentEv) for i._ZN5Graph26calculateRightCurveSegmentEv
    graph.o(.ARM.exidx) refers to graph.o(i._ZN5Graph9calculateEv) for i._ZN5Graph9calculateEv
    graph.o(.ARM.exidx) refers to graph.o(i._ZN5Graph15handleTickEventEv) for i._ZN5Graph15handleTickEventEv
    graph.o(.ARM.exidx) refers to graph.o(i._ZN5Graph11setPositionEssss) for i._ZN5Graph11setPositionEssss
    graph.o(.ARM.exidx) refers to graph.o(i._ZNK5Graph12getSolidRectEv) for i._ZNK5Graph12getSolidRectEv
    graph.o(.ARM.exidx) refers to graph.o(i._ZNK5Graph11isScrollingEv) for i._ZNK5Graph11isScrollingEv
    graph.o(.ARM.exidx) refers to graph.o(i._ZNK5Graph18withinCurrentCurveEs) for i._ZNK5Graph18withinCurrentCurveEs
    graph.o(.ARM.exidx) refers to graph.o(i._ZNK5Graph14getYCoordinateEs) for i._ZNK5Graph14getYCoordinateEs
    graph.o(.ARM.exidx) refers to graph.o(i._ZNK5Graph9getYValueEs) for i._ZNK5Graph9getYValueEs
    graph.o(.ARM.exidx) refers to graph.o(i._ZN5Graph13SetGraphColorEN8touchgfx9colortypeE) for i._ZN5Graph13SetGraphColorEN8touchgfx9colortypeE
    graph.o(.ARM.exidx) refers to graph.o(i._ZN5Graph12SetGraphDataEPi) for i._ZN5Graph12SetGraphDataEPi
    marker.o(i._ZN6Marker10EnableLineEb) refers to canvaswidget.o(i._ZNK8touchgfx12CanvasWidget10invalidateEv) for touchgfx::CanvasWidget::invalidate() const
    marker.o(i._ZN6Marker21handleMarkerDragEventERKN8touchgfx9DragEventE) refers to canvaswidget.o(i._ZNK8touchgfx12CanvasWidget10invalidateEv) for touchgfx::CanvasWidget::invalidate() const
    marker.o(i._ZN6Marker5setupEiiit) refers to painterrgb565.o(i._ZN8touchgfx13PainterRGB5658setColorENS_9colortypeEh) for touchgfx::PainterRGB565::setColor(touchgfx::colortype, unsigned char)
    marker.o(i._ZN6Marker5setupEiiit) refers to line.o(i._ZN8touchgfx4Line17updateCachedShapeEv) for touchgfx::Line::updateCachedShape()
    marker.o(i._ZN6Marker5setupEiiit) refers to channelcontrolpanel.o(i._ZN8touchgfx8Drawable11setPositionEssss) for touchgfx::Drawable::setPosition(short, short, short, short)
    marker.o(i._ZN6Marker5setupEiiit) refers to line.o(i._ZN8touchgfx4Line8setStartENS_7CWRUtil2Q5ES2_) for touchgfx::Line::setStart(touchgfx::CWRUtil::Q5, touchgfx::CWRUtil::Q5)
    marker.o(i._ZN6Marker5setupEiiit) refers to line.o(i._ZN8touchgfx4Line6setEndENS_7CWRUtil2Q5ES2_) for touchgfx::Line::setEnd(touchgfx::CWRUtil::Q5, touchgfx::CWRUtil::Q5)
    marker.o(i._ZN6Marker5setupEiiit) refers to canvaswidget.o(i._ZN8touchgfx12CanvasWidget10setPainterERNS_15AbstractPainterE) for touchgfx::CanvasWidget::setPainter(touchgfx::AbstractPainter&)
    marker.o(i._ZN6MarkerC1Ev) refers to line.o(i._ZN8touchgfx4LineC1Ev) for touchgfx::Line::Line()
    marker.o(i._ZN6MarkerC1Ev) refers to painterrgb565.o(i._ZN8touchgfx13PainterRGB565C1ENS_9colortypeEh) for touchgfx::PainterRGB565::PainterRGB565(touchgfx::colortype, unsigned char)
    marker.o(i._ZN6MarkerC1Ev) refers to marker.o(.constdata__ZTV6Marker) for vtable for Marker
    marker.o(i._ZN6MarkerC1Ev) refers to marker.o(.constdata__ZTVN8touchgfx7SnapperINS_4LineEEE) for vtable for touchgfx::Snapper<touchgfx::Line>
    marker.o(i._ZN6MarkerC1Ev) refers to marker.o(.constdata) for .constdata
    marker.o(i._ZN6MarkerC1Ev) refers to marker.o(.constdata__ZTVN8touchgfx8CallbackI6MarkerRKNS_9DragEventEvEE) for vtable for touchgfx::Callback<Marker, const touchgfx::DragEvent&, void>
    marker.o(i._ZN6MarkerD0Ev) refers to marker.o(i._ZN6MarkerD1Ev) for Marker::~Marker()
    marker.o(i._ZN6MarkerD0Ev) refers to delete.o(i._ZdlPv) for operator delete (void*)
    marker.o(i._ZN6MarkerD1Ev) refers to abstractpainter.o(i._ZN8touchgfx15AbstractPainterD2Ev) for touchgfx::AbstractPainter::~AbstractPainter__sub_object()
    marker.o(i._ZN6MarkerD1Ev) refers to canvaswidget.o(i._ZN8touchgfx12CanvasWidgetD2Ev) for touchgfx::CanvasWidget::~CanvasWidget__sub_object()
    marker.o(i._ZN6MarkerD1Ev) refers to marker.o(.constdata__ZTV6Marker) for vtable for Marker
    marker.o(.ARM.exidx) refers to marker.o(i._ZN6MarkerC1Ev) for i._ZN6MarkerC1Ev
    marker.o(.ARM.exidx) refers to marker.o(i._ZN6MarkerD1Ev) for i._ZN6MarkerD1Ev
    marker.o(.ARM.exidx) refers to marker.o(i._ZN6MarkerD0Ev) for i._ZN6MarkerD0Ev
    marker.o(.ARM.exidx) refers to marker.o(i._ZN6Marker5setupEiiit) for i._ZN6Marker5setupEiiit
    marker.o(.ARM.exidx) refers to marker.o(i._ZN6Marker21handleMarkerDragEventERKN8touchgfx9DragEventE) for i._ZN6Marker21handleMarkerDragEventERKN8touchgfx9DragEventE
    marker.o(.ARM.exidx) refers to marker.o(i._ZN6Marker10EnableLineEb) for i._ZN6Marker10EnableLineEb
    marker.o(.ARM.exidx) refers to marker.o(i._ZN6Marker14MarkerPositionEv) for i._ZN6Marker14MarkerPositionEv
    marker.o(.constdata) refers to marker.o(i._ZN6Marker21handleMarkerDragEventERKN8touchgfx9DragEventE) for Marker::handleMarkerDragEvent(const touchgfx::DragEvent&)
    triggerline.o(i._ZN11TriggerLine10EnableLineEb) refers to canvaswidget.o(i._ZNK8touchgfx12CanvasWidget10invalidateEv) for touchgfx::CanvasWidget::invalidate() const
    triggerline.o(i._ZN11TriggerLine21handleMarkerDragEventERKN8touchgfx9DragEventE) refers to canvaswidget.o(i._ZNK8touchgfx12CanvasWidget10invalidateEv) for touchgfx::CanvasWidget::invalidate() const
    triggerline.o(i._ZN11TriggerLine5setupEiiit) refers to painterrgb565.o(i._ZN8touchgfx13PainterRGB5658setColorENS_9colortypeEh) for touchgfx::PainterRGB565::setColor(touchgfx::colortype, unsigned char)
    triggerline.o(i._ZN11TriggerLine5setupEiiit) refers to line.o(i._ZN8touchgfx4Line17updateCachedShapeEv) for touchgfx::Line::updateCachedShape()
    triggerline.o(i._ZN11TriggerLine5setupEiiit) refers to channelcontrolpanel.o(i._ZN8touchgfx8Drawable11setPositionEssss) for touchgfx::Drawable::setPosition(short, short, short, short)
    triggerline.o(i._ZN11TriggerLine5setupEiiit) refers to line.o(i._ZN8touchgfx4Line8setStartENS_7CWRUtil2Q5ES2_) for touchgfx::Line::setStart(touchgfx::CWRUtil::Q5, touchgfx::CWRUtil::Q5)
    triggerline.o(i._ZN11TriggerLine5setupEiiit) refers to line.o(i._ZN8touchgfx4Line6setEndENS_7CWRUtil2Q5ES2_) for touchgfx::Line::setEnd(touchgfx::CWRUtil::Q5, touchgfx::CWRUtil::Q5)
    triggerline.o(i._ZN11TriggerLine5setupEiiit) refers to canvaswidget.o(i._ZN8touchgfx12CanvasWidget10setPainterERNS_15AbstractPainterE) for touchgfx::CanvasWidget::setPainter(touchgfx::AbstractPainter&)
    triggerline.o(i._ZN11TriggerLineC1Ev) refers to line.o(i._ZN8touchgfx4LineC1Ev) for touchgfx::Line::Line()
    triggerline.o(i._ZN11TriggerLineC1Ev) refers to painterrgb565.o(i._ZN8touchgfx13PainterRGB565C1ENS_9colortypeEh) for touchgfx::PainterRGB565::PainterRGB565(touchgfx::colortype, unsigned char)
    triggerline.o(i._ZN11TriggerLineC1Ev) refers to triggerline.o(.constdata__ZTV11TriggerLine) for vtable for TriggerLine
    triggerline.o(i._ZN11TriggerLineC1Ev) refers to marker.o(.constdata__ZTVN8touchgfx7SnapperINS_4LineEEE) for vtable for touchgfx::Snapper<touchgfx::Line>
    triggerline.o(i._ZN11TriggerLineC1Ev) refers to triggerline.o(.constdata) for .constdata
    triggerline.o(i._ZN11TriggerLineC1Ev) refers to triggerline.o(.constdata__ZTVN8touchgfx8CallbackI11TriggerLineRKNS_9DragEventEvEE) for vtable for touchgfx::Callback<TriggerLine, const touchgfx::DragEvent&, void>
    triggerline.o(i._ZN11TriggerLineD0Ev) refers to triggerline.o(i._ZN11TriggerLineD1Ev) for TriggerLine::~TriggerLine()
    triggerline.o(i._ZN11TriggerLineD0Ev) refers to delete.o(i._ZdlPv) for operator delete (void*)
    triggerline.o(i._ZN11TriggerLineD1Ev) refers to abstractpainter.o(i._ZN8touchgfx15AbstractPainterD2Ev) for touchgfx::AbstractPainter::~AbstractPainter__sub_object()
    triggerline.o(i._ZN11TriggerLineD1Ev) refers to canvaswidget.o(i._ZN8touchgfx12CanvasWidgetD2Ev) for touchgfx::CanvasWidget::~CanvasWidget__sub_object()
    triggerline.o(i._ZN11TriggerLineD1Ev) refers to triggerline.o(.constdata__ZTV11TriggerLine) for vtable for TriggerLine
    triggerline.o(.ARM.exidx) refers to triggerline.o(i._ZN11TriggerLineC1Ev) for i._ZN11TriggerLineC1Ev
    triggerline.o(.ARM.exidx) refers to triggerline.o(i._ZN11TriggerLineD1Ev) for i._ZN11TriggerLineD1Ev
    triggerline.o(.ARM.exidx) refers to triggerline.o(i._ZN11TriggerLineD0Ev) for i._ZN11TriggerLineD0Ev
    triggerline.o(.ARM.exidx) refers to triggerline.o(i._ZN11TriggerLine5setupEiiit) for i._ZN11TriggerLine5setupEiiit
    triggerline.o(.ARM.exidx) refers to triggerline.o(i._ZN11TriggerLine21handleMarkerDragEventERKN8touchgfx9DragEventE) for i._ZN11TriggerLine21handleMarkerDragEventERKN8touchgfx9DragEventE
    triggerline.o(.ARM.exidx) refers to triggerline.o(i._ZN11TriggerLine10EnableLineEb) for i._ZN11TriggerLine10EnableLineEb
    triggerline.o(.ARM.exidx) refers to triggerline.o(i._ZN11TriggerLine15TriggerPositionEv) for i._ZN11TriggerLine15TriggerPositionEv
    triggerline.o(.ARM.exidx) refers to triggerline.o(i._ZN11TriggerLine10SetYOffsetEi) for i._ZN11TriggerLine10SetYOffsetEi
    triggerline.o(.ARM.exidx) refers to triggerline.o(i._ZN11TriggerLine13SetVoltOffsetEi) for i._ZN11TriggerLine13SetVoltOffsetEi
    triggerline.o(.constdata) refers to triggerline.o(i._ZN11TriggerLine21handleMarkerDragEventERKN8touchgfx9DragEventE) for TriggerLine::handleMarkerDragEvent(const touchgfx::DragEvent&)
    mainpresenter.o(i._ZN13MainPresenter12p_GetTriggerEi) refers to model.o(i._ZN5Model10GetTriggerEi) for Model::GetTrigger(int)
    mainpresenter.o(i._ZN13MainPresenter12p_GetXOffsetEi) refers to model.o(i._ZN5Model10GetXOffsetEi) for Model::GetXOffset(int)
    mainpresenter.o(i._ZN13MainPresenter12p_GetYOffsetEi) refers to model.o(i._ZN5Model10GetYOffsetEi) for Model::GetYOffset(int)
    mainpresenter.o(i._ZN13MainPresenter12p_SetRawDataEi) refers to main.o(i._Z17PushDaTaToModel_2v) for PushDaTaToModel_2()
    mainpresenter.o(i._ZN13MainPresenter12p_SetRawDataEi) refers to model.o(i._ZN5Model10SetRawDataEiPt) for Model::SetRawData(int, unsigned short*)
    mainpresenter.o(i._ZN13MainPresenter12p_SetRawDataEi) refers to model.o(i._ZN5Model20ConvertToTriggerDataEi) for Model::ConvertToTriggerData(int)
    mainpresenter.o(i._ZN13MainPresenter12p_SetRawDataEi) refers to main.o(i._Z17PushDaTaToModel_1v) for PushDaTaToModel_1()
    mainpresenter.o(i._ZN13MainPresenter12p_SetTriggerEib) refers to model.o(i._ZN5Model10SetTriggerEib) for Model::SetTrigger(int, bool)
    mainpresenter.o(i._ZN13MainPresenter12p_SetXOffsetEii) refers to model.o(i._ZN5Model10SetXOffsetEii) for Model::SetXOffset(int, int)
    mainpresenter.o(i._ZN13MainPresenter12p_SetYOffsetEii) refers to model.o(i._ZN5Model10SetYOffsetEii) for Model::SetYOffset(int, int)
    mainpresenter.o(i._ZN13MainPresenter14p_GetTimeScaleEi) refers to model.o(i._ZN5Model12GetTimeScaleEi) for Model::GetTimeScale(int)
    mainpresenter.o(i._ZN13MainPresenter14p_GetTimeScaleEi) refers to main.o(i._Z18GetDataFromModel_2i) for GetDataFromModel_2(int)
    mainpresenter.o(i._ZN13MainPresenter14p_GetTimeScaleEi) refers to main.o(i._Z18GetDataFromModel_1i) for GetDataFromModel_1(int)
    mainpresenter.o(i._ZN13MainPresenter14p_SetTimeScaleEii) refers to model.o(i._ZN5Model12SetTimeScaleEii) for Model::SetTimeScale(int, int)
    mainpresenter.o(i._ZN13MainPresenter15p_GetTimeOffsetEi) refers to model.o(i._ZN5Model13GetTimeOffsetEi) for Model::GetTimeOffset(int)
    mainpresenter.o(i._ZN13MainPresenter15p_GetVoltOffsetEi) refers to model.o(i._ZN5Model16GetVoltageOffsetEi) for Model::GetVoltageOffset(int)
    mainpresenter.o(i._ZN13MainPresenter16p_GetTriggerDataEi) refers to model.o(i._ZN5Model14GetTriggerDataEi) for Model::GetTriggerData(int)
    mainpresenter.o(i._ZN13MainPresenter16p_GetTriggerTypeEi) refers to model.o(i._ZN5Model14GetTriggerTypeEi) for Model::GetTriggerType(int)
    mainpresenter.o(i._ZN13MainPresenter16p_SetTriggerDataEii) refers to model.o(i._ZN5Model15SetTriggerValueEii) for Model::SetTriggerValue(int, int)
    mainpresenter.o(i._ZN13MainPresenter16p_SetTriggerTypeEib) refers to model.o(i._ZN5Model14SetTriggerTypeEib) for Model::SetTriggerType(int, bool)
    mainpresenter.o(i._ZN13MainPresenter17p_GetTriggerValueEi) refers to model.o(i._ZN5Model15GetTriggerValueEi) for Model::GetTriggerValue(int)
    mainpresenter.o(i._ZN13MainPresenter17p_GetVoltageScaleEi) refers to model.o(i._ZN5Model15GetVoltageScaleEi) for Model::GetVoltageScale(int)
    mainpresenter.o(i._ZN13MainPresenter17p_SetTriggerValueEii) refers to model.o(i._ZN5Model15SetTriggerValueEii) for Model::SetTriggerValue(int, int)
    mainpresenter.o(i._ZN13MainPresenter17p_SetVoltageScaleEii) refers to model.o(i._ZN5Model15SetVoltageScaleEii) for Model::SetVoltageScale(int, int)
    mainpresenter.o(i._ZN13MainPresenter17p_VoltagePerPixelEi) refers to model.o(i._ZN5Model15GetVoltageScaleEi) for Model::GetVoltageScale(int)
    mainpresenter.o(i._ZN13MainPresenterC1ER8MainView) refers to mainpresenter.o(.constdata__ZTV13MainPresenter) for vtable for MainPresenter
    mainpresenter.o(.ARM.exidx) refers to mainpresenter.o(i._ZN13MainPresenterC1ER8MainView) for i._ZN13MainPresenterC1ER8MainView
    mainpresenter.o(.ARM.exidx) refers to mainpresenter.o(i._ZN13MainPresenter8activateEv) for i._ZN13MainPresenter8activateEv
    mainpresenter.o(.ARM.exidx) refers to mainpresenter.o(i._ZN13MainPresenter10deactivateEv) for i._ZN13MainPresenter10deactivateEv
    mainpresenter.o(.ARM.exidx) refers to mainpresenter.o(i._ZN13MainPresenter12p_SetRawDataEi) for i._ZN13MainPresenter12p_SetRawDataEi
    mainpresenter.o(.ARM.exidx) refers to mainpresenter.o(i._ZN13MainPresenter16p_GetTriggerDataEi) for i._ZN13MainPresenter16p_GetTriggerDataEi
    mainpresenter.o(.ARM.exidx) refers to mainpresenter.o(i._ZN13MainPresenter16p_SetTriggerDataEii) for i._ZN13MainPresenter16p_SetTriggerDataEii
    mainpresenter.o(.ARM.exidx) refers to mainpresenter.o(i._ZN13MainPresenter12p_SetYOffsetEii) for i._ZN13MainPresenter12p_SetYOffsetEii
    mainpresenter.o(.ARM.exidx) refers to mainpresenter.o(i._ZN13MainPresenter12p_GetYOffsetEi) for i._ZN13MainPresenter12p_GetYOffsetEi
    mainpresenter.o(.ARM.exidx) refers to mainpresenter.o(i._ZN13MainPresenter17p_GetTriggerValueEi) for i._ZN13MainPresenter17p_GetTriggerValueEi
    mainpresenter.o(.ARM.exidx) refers to mainpresenter.o(i._ZN13MainPresenter17p_SetTriggerValueEii) for i._ZN13MainPresenter17p_SetTriggerValueEii
    mainpresenter.o(.ARM.exidx) refers to mainpresenter.o(i._ZN13MainPresenter12p_GetTriggerEi) for i._ZN13MainPresenter12p_GetTriggerEi
    mainpresenter.o(.ARM.exidx) refers to mainpresenter.o(i._ZN13MainPresenter12p_SetTriggerEib) for i._ZN13MainPresenter12p_SetTriggerEib
    mainpresenter.o(.ARM.exidx) refers to mainpresenter.o(i._ZN13MainPresenter16p_GetTriggerTypeEi) for i._ZN13MainPresenter16p_GetTriggerTypeEi
    mainpresenter.o(.ARM.exidx) refers to mainpresenter.o(i._ZN13MainPresenter16p_SetTriggerTypeEib) for i._ZN13MainPresenter16p_SetTriggerTypeEib
    mainpresenter.o(.ARM.exidx) refers to mainpresenter.o(i._ZN13MainPresenter14p_GetTimeScaleEi) for i._ZN13MainPresenter14p_GetTimeScaleEi
    mainpresenter.o(.ARM.exidx) refers to mainpresenter.o(i._ZN13MainPresenter14p_SetTimeScaleEii) for i._ZN13MainPresenter14p_SetTimeScaleEii
    mainpresenter.o(.ARM.exidx) refers to mainpresenter.o(i._ZN13MainPresenter17p_GetVoltageScaleEi) for i._ZN13MainPresenter17p_GetVoltageScaleEi
    mainpresenter.o(.ARM.exidx) refers to mainpresenter.o(i._ZN13MainPresenter17p_SetVoltageScaleEii) for i._ZN13MainPresenter17p_SetVoltageScaleEii
    mainpresenter.o(.ARM.exidx) refers to mainpresenter.o(i._ZN13MainPresenter15p_GetTimeOffsetEi) for i._ZN13MainPresenter15p_GetTimeOffsetEi
    mainpresenter.o(.ARM.exidx) refers to mainpresenter.o(i._ZN13MainPresenter15p_GetVoltOffsetEi) for i._ZN13MainPresenter15p_GetVoltOffsetEi
    mainpresenter.o(.ARM.exidx) refers to mainpresenter.o(i._ZN13MainPresenter17p_VoltagePerPixelEi) for i._ZN13MainPresenter17p_VoltagePerPixelEi
    mainpresenter.o(.ARM.exidx) refers to mainpresenter.o(i._ZN13MainPresenter12p_SetXOffsetEii) for i._ZN13MainPresenter12p_SetXOffsetEii
    mainpresenter.o(.ARM.exidx) refers to mainpresenter.o(i._ZN13MainPresenter12p_GetXOffsetEi) for i._ZN13MainPresenter12p_GetXOffsetEi
    mainview.o(i._ZN8MainView10slideTextsENS_14SlideDirectionE) refers to channelcontrolpanel.o(t._ZN8touchgfx12MoveAnimatorINS_8TextAreaEE18startMoveAnimationEsstPFstsstES4_) for touchgfx::MoveAnimator<touchgfx::TextArea>::startMoveAnimation(short, short, unsigned short, short(*)(unsigned short, short, short, unsigned short), short(*)(unsigned short, short, short, unsigned short))
    mainview.o(i._ZN8MainView10slideTextsENS_14SlideDirectionE) refers to mainview.o(t._ZN8touchgfx12MoveAnimatorI19ChannelControlPanelE18startMoveAnimationEsstPFstsstES4_) for touchgfx::MoveAnimator<ChannelControlPanel>::startMoveAnimation(short, short, unsigned short, short(*)(unsigned short, short, short, unsigned short), short(*)(unsigned short, short, short, unsigned short))
    mainview.o(i._ZN8MainView10slideTextsENS_14SlideDirectionE) refers to channelcontrolpanel.o(i._ZN8touchgfx8Drawable6moveToEss) for touchgfx::Drawable::moveTo(short, short)
    mainview.o(i._ZN8MainView10slideTextsENS_14SlideDirectionE) refers to easingequations.o(i._ZN8touchgfx15EasingEquations14linearEaseNoneEtsst) for touchgfx::EasingEquations::linearEaseNone(unsigned short, short, short, unsigned short)
    mainview.o(i._ZN8MainView10slideTextsENS_14SlideDirectionE) refers to easingequations.o(i._ZN8touchgfx15EasingEquations14cubicEaseInOutEtsst) for touchgfx::EasingEquations::cubicEaseInOut(unsigned short, short, short, unsigned short)
    mainview.o(i._ZN8MainView10slideTextsENS_14SlideDirectionE) refers to easingequations.o(i._ZN8touchgfx15EasingEquations12cubicEaseOutEtsst) for touchgfx::EasingEquations::cubicEaseOut(unsigned short, short, short, unsigned short)
    mainview.o(i._ZN8MainView11setupScreenEv) refers to image.o(i._ZN8touchgfx5Image9setBitmapERKNS_6BitmapE) for touchgfx::Image::setBitmap(const touchgfx::Bitmap&)
    mainview.o(i._ZN8MainView11setupScreenEv) refers to channelcontrolpanel.o(i._ZN8touchgfx8Drawable5setXYEss) for touchgfx::Drawable::setXY(short, short)
    mainview.o(i._ZN8MainView11setupScreenEv) refers to mainview.o(i._ZN8touchgfx6Screen3addERNS_8DrawableE) for touchgfx::Screen::add(touchgfx::Drawable&)
    mainview.o(i._ZN8MainView11setupScreenEv) refers to button.o(i._ZN8touchgfx6Button10setBitmapsERKNS_6BitmapES3_) for touchgfx::Button::setBitmaps(const touchgfx::Bitmap&, const touchgfx::Bitmap&)
    mainview.o(i._ZN8MainView11setupScreenEv) refers to textarea.o(i._ZN8touchgfx8TextArea12setTypedTextENS_9TypedTextE) for touchgfx::TextArea::setTypedText(touchgfx::TypedText)
    mainview.o(i._ZN8MainView11setupScreenEv) refers to color.o(i._ZN8touchgfx5Color20getColorFrom24BitRGBEhhh) for touchgfx::Color::getColorFrom24BitRGB(unsigned char, unsigned char, unsigned char)
    mainview.o(i._ZN8MainView11setupScreenEv) refers to channelcontrolpanel.o(i._ZN19ChannelControlPanel16SetUpButtonImageEtttttttt) for ChannelControlPanel::SetUpButtonImage(unsigned short, unsigned short, unsigned short, unsigned short, unsigned short, unsigned short, unsigned short, unsigned short)
    mainview.o(i._ZN8MainView11setupScreenEv) refers to channelcontrolpanel.o(i._ZN19ChannelControlPanel5setupEiitttttt) for ChannelControlPanel::setup(int, int, unsigned short, unsigned short, unsigned short, unsigned short, unsigned short, unsigned short)
    mainview.o(i._ZN8MainView11setupScreenEv) refers to channelcontrolpanel.o(i._ZN19ChannelControlPanel23SetChannelPanelCallbackERN8touchgfx15GenericCallbackIKhvEE) for ChannelControlPanel::SetChannelPanelCallback(touchgfx::GenericCallback<const unsigned char, void>&)
    mainview.o(i._ZN8MainView11setupScreenEv) refers to channelcontrolpanel.o(i._ZN19ChannelControlPanel17SetMarkerButtonOnEv) for ChannelControlPanel::SetMarkerButtonOn()
    mainview.o(i._ZN8MainView11setupScreenEv) refers to channelcontrolpanel.o(i._ZN19ChannelControlPanel18SetTriggerButtonOnEv) for ChannelControlPanel::SetTriggerButtonOn()
    mainview.o(i._ZN8MainView11setupScreenEv) refers to channelcontrolpanel.o(i._ZN8touchgfx8Drawable11setPositionEssss) for touchgfx::Drawable::setPosition(short, short, short, short)
    mainview.o(i._ZN8MainView11setupScreenEv) refers to container.o(i._ZN8touchgfx9Container3addERNS_8DrawableE) for touchgfx::Container::add(touchgfx::Drawable&)
    mainview.o(i._ZN8MainView11setupScreenEv) refers to mainview.o(i._ZN8MainView10slideTextsENS_14SlideDirectionE) for MainView::slideTexts(MainView::SlideDirection)
    mainview.o(i._ZN8MainView11setupScreenEv) refers to mainpresenter.o(i._ZN13MainPresenter12p_GetYOffsetEi) for MainPresenter::p_GetYOffset(int)
    mainview.o(i._ZN8MainView11setupScreenEv) refers to graph.o(i._ZN5Graph11setPositionEssss) for Graph::setPosition(short, short, short, short)
    mainview.o(i._ZN8MainView11setupScreenEv) refers to graph.o(i._ZN5Graph13SetGraphColorEN8touchgfx9colortypeE) for Graph::SetGraphColor(touchgfx::colortype)
    mainview.o(i._ZN8MainView11setupScreenEv) refers to mainpresenter.o(i._ZN13MainPresenter16p_GetTriggerDataEi) for MainPresenter::p_GetTriggerData(int)
    mainview.o(i._ZN8MainView11setupScreenEv) refers to graph.o(i._ZN5Graph12SetGraphDataEPi) for Graph::SetGraphData(int*)
    mainview.o(i._ZN8MainView11setupScreenEv) refers to application.o(i._ZN8touchgfx11Application11getInstanceEv) for touchgfx::Application::getInstance()
    mainview.o(i._ZN8MainView11setupScreenEv) refers to application.o(i._ZN8touchgfx11Application19registerTimerWidgetEPNS_8DrawableE) for touchgfx::Application::registerTimerWidget(touchgfx::Drawable*)
    mainview.o(i._ZN8MainView11setupScreenEv) refers to marker.o(i._ZN6Marker5setupEiiit) for Marker::setup(int, int, int, unsigned short)
    mainview.o(i._ZN8MainView11setupScreenEv) refers to triggerline.o(i._ZN11TriggerLine5setupEiiit) for TriggerLine::setup(int, int, int, unsigned short)
    mainview.o(i._ZN8MainView11setupScreenEv) refers to mainpresenter.o(i._ZN13MainPresenter15p_GetVoltOffsetEi) for MainPresenter::p_GetVoltOffset(int)
    mainview.o(i._ZN8MainView11setupScreenEv) refers to triggerline.o(i._ZN11TriggerLine15TriggerPositionEv) for TriggerLine::TriggerPosition()
    mainview.o(i._ZN8MainView11setupScreenEv) refers to mainpresenter.o(i._ZN13MainPresenter17p_SetTriggerValueEii) for MainPresenter::p_SetTriggerValue(int, int)
    mainview.o(i._ZN8MainView11setupScreenEv) refers to unicode.o(i._ZN8touchgfx7Unicode8snprintfEPttPKcz) for touchgfx::Unicode::snprintf(unsigned short*, unsigned short, const char*, ...)
    mainview.o(i._ZN8MainView11setupScreenEv) refers to drawable.o(i._ZNK8touchgfx8Drawable10invalidateEv) for touchgfx::Drawable::invalidate() const
    mainview.o(i._ZN8MainView11setupScreenEv) refers to slidemenu.o(i._ZN8touchgfx9SlideMenu5setupENS0_15ExpandDirectionERKNS_6BitmapES4_S4_ssss) for touchgfx::SlideMenu::setup(touchgfx::SlideMenu::ExpandDirection, const touchgfx::Bitmap&, const touchgfx::Bitmap&, const touchgfx::Bitmap&, short, short, short, short)
    mainview.o(i._ZN8MainView11setupScreenEv) refers to slidemenu.o(i._ZN8touchgfx9SlideMenu29setVisiblePixelsWhenCollapsedEs) for touchgfx::SlideMenu::setVisiblePixelsWhenCollapsed(short)
    mainview.o(i._ZN8MainView11setupScreenEv) refers to slidemenu.o(i._ZN8touchgfx9SlideMenu3addERNS_8DrawableE) for touchgfx::SlideMenu::add(touchgfx::Drawable&)
    mainview.o(i._ZN8MainView11setupScreenEv) refers to channelcontrolpanel.o(i._ZN8touchgfx12ToggleButton10setBitmapsERKNS_6BitmapES3_) for touchgfx::ToggleButton::setBitmaps(const touchgfx::Bitmap&, const touchgfx::Bitmap&)
    mainview.o(i._ZN8MainView11setupScreenEv) refers to togglebutton.o(i._ZN8touchgfx12ToggleButton10forceStateEb) for touchgfx::ToggleButton::forceState(bool)
    mainview.o(i._ZN8MainView11setupScreenEv) refers to mainview.o(i._ZN8MainView5IntroEv) for MainView::Intro()
    mainview.o(i._ZN8MainView13buttonClickedERKN8touchgfx14AbstractButtonE) refers to mainview.o(i._ZN8MainView10slideTextsENS_14SlideDirectionE) for MainView::slideTexts(MainView::SlideDirection)
    mainview.o(i._ZN8MainView13buttonClickedERKN8touchgfx14AbstractButtonE) refers to slidemenu.o(i._ZN8touchgfx9SlideMenu23resetExpandedStateTimerEv) for touchgfx::SlideMenu::resetExpandedStateTimer()
    mainview.o(i._ZN8MainView13buttonClickedERKN8touchgfx14AbstractButtonE) refers to mainview.o(i._ZNK8touchgfx12ToggleButton8getStateEv) for touchgfx::ToggleButton::getState() const
    mainview.o(i._ZN8MainView13buttonClickedERKN8touchgfx14AbstractButtonE) refers to container.o(i._ZN8touchgfx9Container3addERNS_8DrawableE) for touchgfx::Container::add(touchgfx::Drawable&)
    mainview.o(i._ZN8MainView13buttonClickedERKN8touchgfx14AbstractButtonE) refers to container.o(i._ZN8touchgfx9Container6removeERNS_8DrawableE) for touchgfx::Container::remove(touchgfx::Drawable&)
    mainview.o(i._ZN8MainView15handleTickEventEv) refers to mainpresenter.o(i._ZN13MainPresenter12p_SetRawDataEi) for MainPresenter::p_SetRawData(int)
    mainview.o(i._ZN8MainView15handleTickEventEv) refers to channelcontrolpanel.o(i._ZN19ChannelControlPanel21isMarkerButtonClickedEv) for ChannelControlPanel::isMarkerButtonClicked()
    mainview.o(i._ZN8MainView15handleTickEventEv) refers to triggerline.o(i._ZN11TriggerLine10EnableLineEb) for TriggerLine::EnableLine(bool)
    mainview.o(i._ZN8MainView15handleTickEventEv) refers to channelcontrolpanel.o(i._ZN19ChannelControlPanel22isMarkerAButtonClickedEv) for ChannelControlPanel::isMarkerAButtonClicked()
    mainview.o(i._ZN8MainView15handleTickEventEv) refers to marker.o(i._ZN6Marker10EnableLineEb) for Marker::EnableLine(bool)
    mainview.o(i._ZN8MainView15handleTickEventEv) refers to channelcontrolpanel.o(i._ZN19ChannelControlPanel22isMarkerBButtonClickedEv) for ChannelControlPanel::isMarkerBButtonClicked()
    mainview.o(i._ZN8MainView15handleTickEventEv) refers to channelcontrolpanel.o(i._ZN19ChannelControlPanel22isTriggerButtonClickedEv) for ChannelControlPanel::isTriggerButtonClicked()
    mainview.o(i._ZN8MainView15handleTickEventEv) refers to mainpresenter.o(i._ZN13MainPresenter12p_SetTriggerEib) for MainPresenter::p_SetTrigger(int, bool)
    mainview.o(i._ZN8MainView15handleTickEventEv) refers to channelcontrolpanel.o(i._ZN19ChannelControlPanel22isFallingButtonClickedEv) for ChannelControlPanel::isFallingButtonClicked()
    mainview.o(i._ZN8MainView15handleTickEventEv) refers to mainpresenter.o(i._ZN13MainPresenter16p_SetTriggerTypeEib) for MainPresenter::p_SetTriggerType(int, bool)
    mainview.o(i._ZN8MainView15handleTickEventEv) refers to marker.o(i._ZN6Marker14MarkerPositionEv) for Marker::MarkerPosition()
    mainview.o(i._ZN8MainView15handleTickEventEv) refers to mainpresenter.o(i._ZN13MainPresenter15p_GetTimeOffsetEi) for MainPresenter::p_GetTimeOffset(int)
    mainview.o(i._ZN8MainView15handleTickEventEv) refers to mainpresenter.o(i._ZN13MainPresenter14p_GetTimeScaleEi) for MainPresenter::p_GetTimeScale(int)
    mainview.o(i._ZN8MainView15handleTickEventEv) refers to mainview.o(i._ZN8touchgfx7Unicode13snprintfFloatEPttPKcf) for touchgfx::Unicode::snprintfFloat(unsigned short*, unsigned short, const char*, float)
    mainview.o(i._ZN8MainView15handleTickEventEv) refers to drawable.o(i._ZNK8touchgfx8Drawable10invalidateEv) for touchgfx::Drawable::invalidate() const
    mainview.o(i._ZN8MainView15handleTickEventEv) refers to mainpresenter.o(i._ZN13MainPresenter17p_GetTriggerValueEi) for MainPresenter::p_GetTriggerValue(int)
    mainview.o(i._ZN8MainView15handleTickEventEv) refers to mainpresenter.o(i._ZN13MainPresenter17p_VoltagePerPixelEi) for MainPresenter::p_VoltagePerPixel(int)
    mainview.o(i._ZN8MainView15handleTickEventEv) refers to mainpresenter.o(i._ZN13MainPresenter17p_GetVoltageScaleEi) for MainPresenter::p_GetVoltageScale(int)
    mainview.o(i._ZN8MainView15handleTickEventEv) refers to mainpresenter.o(i._ZN13MainPresenter15p_GetVoltOffsetEi) for MainPresenter::p_GetVoltOffset(int)
    mainview.o(i._ZN8MainView15handleTickEventEv) refers to triggerline.o(i._ZN11TriggerLine15TriggerPositionEv) for TriggerLine::TriggerPosition()
    mainview.o(i._ZN8MainView15handleTickEventEv) refers to mainpresenter.o(i._ZN13MainPresenter17p_SetTriggerValueEii) for MainPresenter::p_SetTriggerValue(int, int)
    mainview.o(i._ZN8MainView15handleTickEventEv) refers to channelcontrolpanel.o(i._ZN19ChannelControlPanel10GetYOffsetEv) for ChannelControlPanel::GetYOffset()
    mainview.o(i._ZN8MainView15handleTickEventEv) refers to mainpresenter.o(i._ZN13MainPresenter12p_SetYOffsetEii) for MainPresenter::p_SetYOffset(int, int)
    mainview.o(i._ZN8MainView15handleTickEventEv) refers to channelcontrolpanel.o(i._ZN19ChannelControlPanel10GetXOffsetEv) for ChannelControlPanel::GetXOffset()
    mainview.o(i._ZN8MainView15handleTickEventEv) refers to mainpresenter.o(i._ZN13MainPresenter12p_SetXOffsetEii) for MainPresenter::p_SetXOffset(int, int)
    mainview.o(i._ZN8MainView15handleTickEventEv) refers to triggerline.o(i._ZN11TriggerLine13SetVoltOffsetEi) for TriggerLine::SetVoltOffset(int)
    mainview.o(i._ZN8MainView15handleTickEventEv) refers to channelcontrolpanel.o(i._ZN19ChannelControlPanel16GetTimeBaseIndexEv) for ChannelControlPanel::GetTimeBaseIndex()
    mainview.o(i._ZN8MainView15handleTickEventEv) refers to mainpresenter.o(i._ZN13MainPresenter14p_SetTimeScaleEii) for MainPresenter::p_SetTimeScale(int, int)
    mainview.o(i._ZN8MainView15handleTickEventEv) refers to channelcontrolpanel.o(i._ZN19ChannelControlPanel16GetVoltBaseIndexEv) for ChannelControlPanel::GetVoltBaseIndex()
    mainview.o(i._ZN8MainView15handleTickEventEv) refers to mainpresenter.o(i._ZN13MainPresenter17p_SetVoltageScaleEii) for MainPresenter::p_SetVoltageScale(int, int)
    mainview.o(i._ZN8MainView15handleTickEventEv) refers to container.o(i._ZN8touchgfx9Container6removeERNS_8DrawableE) for touchgfx::Container::remove(touchgfx::Drawable&)
    mainview.o(i._ZN8MainView5IntroEv) refers to channelcontrolpanel.o(i._ZN8touchgfx8Drawable11setPositionEssss) for touchgfx::Drawable::setPosition(short, short, short, short)
    mainview.o(i._ZN8MainView5IntroEv) refers to color.o(i._ZN8touchgfx5Color20getColorFrom24BitRGBEhhh) for touchgfx::Color::getColorFrom24BitRGB(unsigned char, unsigned char, unsigned char)
    mainview.o(i._ZN8MainView5IntroEv) refers to mainview.o(i._ZN8touchgfx6Screen3addERNS_8DrawableE) for touchgfx::Screen::add(touchgfx::Drawable&)
    mainview.o(i._ZN8MainView5IntroEv) refers to image.o(i._ZN8touchgfx5Image9setBitmapERKNS_6BitmapE) for touchgfx::Image::setBitmap(const touchgfx::Bitmap&)
    mainview.o(i._ZN8MainView5IntroEv) refers to channelcontrolpanel.o(i._ZN8touchgfx8Drawable5setXYEss) for touchgfx::Drawable::setXY(short, short)
    mainview.o(.ARM.exidx) refers to mainview.o(i._ZN8MainView5IntroEv) for i._ZN8MainView5IntroEv
    mainview.o(.ARM.exidx) refers to mainview.o(i._ZN8MainView10slideTextsENS_14SlideDirectionE) for i._ZN8MainView10slideTextsENS_14SlideDirectionE
    mainview.o(.ARM.exidx) refers to mainview.o(i._ZN8MainView11setupScreenEv) for i._ZN8MainView11setupScreenEv
    mainview.o(.ARM.exidx) refers to mainview.o(i._ZN8MainView14tearDownScreenEv) for i._ZN8MainView14tearDownScreenEv
    mainview.o(.ARM.exidx) refers to mainview.o(i._ZN8MainView15handleTickEventEv) for i._ZN8MainView15handleTickEventEv
    mainview.o(.ARM.exidx) refers to mainview.o(i._ZN8MainView13buttonClickedERKN8touchgfx14AbstractButtonE) for i._ZN8MainView13buttonClickedERKN8touchgfx14AbstractButtonE
    mainview.o(.ARM.exidx) refers to mainview.o(i._ZN8MainView19CtrlPanelBtnPressedEh) for i._ZN8MainView19CtrlPanelBtnPressedEh
    model.o(i._ZN5Model10SetRawDataEiPt) refers to model.o(i._ZN5Model16GetVoltageOffsetEi) for Model::GetVoltageOffset(int)
    model.o(i._ZN5Model20ConvertToTriggerDataEi) refers to model.o(i._ZN5Model16GetVoltageOffsetEi) for Model::GetVoltageOffset(int)
    model.o(.ARM.exidx) refers to model.o(i._ZN5ModelC1Ev) for i._ZN5ModelC1Ev
    model.o(.ARM.exidx) refers to model.o(i._ZN5Model4tickEv) for i._ZN5Model4tickEv
    model.o(.ARM.exidx) refers to model.o(i._ZN5Model16GetVoltageOffsetEi) for i._ZN5Model16GetVoltageOffsetEi
    model.o(.ARM.exidx) refers to model.o(i._ZN5Model10SetRawDataEiPt) for i._ZN5Model10SetRawDataEiPt
    model.o(.ARM.exidx) refers to model.o(i._ZN5Model20ConvertToTriggerDataEi) for i._ZN5Model20ConvertToTriggerDataEi
    model.o(.ARM.exidx) refers to model.o(i._ZN5Model14GetTriggerDataEi) for i._ZN5Model14GetTriggerDataEi
    model.o(.ARM.exidx) refers to model.o(i._ZN5Model10SetYOffsetEii) for i._ZN5Model10SetYOffsetEii
    model.o(.ARM.exidx) refers to model.o(i._ZN5Model10GetYOffsetEi) for i._ZN5Model10GetYOffsetEi
    model.o(.ARM.exidx) refers to model.o(i._ZN5Model10SetXOffsetEii) for i._ZN5Model10SetXOffsetEii
    model.o(.ARM.exidx) refers to model.o(i._ZN5Model10GetXOffsetEi) for i._ZN5Model10GetXOffsetEi
    model.o(.ARM.exidx) refers to model.o(i._ZN5Model15SetTriggerValueEii) for i._ZN5Model15SetTriggerValueEii
    model.o(.ARM.exidx) refers to model.o(i._ZN5Model15GetTriggerValueEi) for i._ZN5Model15GetTriggerValueEi
    model.o(.ARM.exidx) refers to model.o(i._ZN5Model10SetTriggerEib) for i._ZN5Model10SetTriggerEib
    model.o(.ARM.exidx) refers to model.o(i._ZN5Model10GetTriggerEi) for i._ZN5Model10GetTriggerEi
    model.o(.ARM.exidx) refers to model.o(i._ZN5Model14SetTriggerTypeEib) for i._ZN5Model14SetTriggerTypeEib
    model.o(.ARM.exidx) refers to model.o(i._ZN5Model14GetTriggerTypeEi) for i._ZN5Model14GetTriggerTypeEi
    model.o(.ARM.exidx) refers to model.o(i._ZN5Model12SetTimeScaleEii) for i._ZN5Model12SetTimeScaleEii
    model.o(.ARM.exidx) refers to model.o(i._ZN5Model12GetTimeScaleEi) for i._ZN5Model12GetTimeScaleEi
    model.o(.ARM.exidx) refers to model.o(i._ZN5Model15SetVoltageScaleEii) for i._ZN5Model15SetVoltageScaleEii
    model.o(.ARM.exidx) refers to model.o(i._ZN5Model15GetVoltageScaleEi) for i._ZN5Model15GetVoltageScaleEi
    model.o(.ARM.exidx) refers to model.o(i._ZN5Model13GetTimeOffsetEi) for i._ZN5Model13GetTimeOffsetEi
    applicationfontprovider.o(i._ZN23ApplicationFontProvider7getFontEt) refers to fontgetters.o(i._Z28getFont_Asap_Regular_18_4bppv) for getFont_Asap_Regular_18_4bpp()
    applicationfontprovider.o(i._ZN23ApplicationFontProvider7getFontEt) refers to fontgetters.o(i._Z28getFont_Asap_Regular_12_4bppv) for getFont_Asap_Regular_12_4bpp()
    applicationfontprovider.o(i._ZN23ApplicationFontProvider7getFontEt) refers to fontgetters.o(i._Z28getFont_Asap_Regular_14_8bppv) for getFont_Asap_Regular_14_8bpp()
    applicationfontprovider.o(i._ZN23ApplicationFontProvider7getFontEt) refers to fontgetters.o(i._Z28getFont_Asap_Regular_13_4bppv) for getFont_Asap_Regular_13_4bpp()
    applicationfontprovider.o(.ARM.exidx) refers to applicationfontprovider.o(i._ZN23ApplicationFontProvider7getFontEt) for i._ZN23ApplicationFontProvider7getFontEt
    fontgetters.o(i._Z28getFont_Asap_Regular_12_4bppv) refers to cxa_guard_acquire.o(i.__cxa_guard_acquire) for __cxa_guard_acquire
    fontgetters.o(i._Z28getFont_Asap_Regular_12_4bppv) refers to internalflashfont.o(i._ZN8touchgfx17InternalFlashFontC1EPKNS_9GlyphNodeEtthhhhPKhPKNS_11KerningNodeEt) for touchgfx::InternalFlashFont::InternalFlashFont(const touchgfx::GlyphNode*, unsigned short, unsigned short, unsigned char, unsigned char, unsigned char, unsigned char, const unsigned char*, const touchgfx::KerningNode*, unsigned short)
    fontgetters.o(i._Z28getFont_Asap_Regular_12_4bppv) refers to aeabi_atexit.o(.text) for __aeabi_atexit
    fontgetters.o(i._Z28getFont_Asap_Regular_12_4bppv) refers to fontgetters.o(.data) for .data
    fontgetters.o(i._Z28getFont_Asap_Regular_12_4bppv) refers to font_asap_regular_12_4bpp.o(FontFlashSection) for unicodes_Asap_Regular_12_4bpp
    fontgetters.o(i._Z28getFont_Asap_Regular_12_4bppv) refers to kerning_asap_regular_12_4bpp.o(FontFlashSection) for kerning_Asap_Regular_12_4bpp
    fontgetters.o(i._Z28getFont_Asap_Regular_12_4bppv) refers to table_asap_regular_12_4bpp.o(FontFlashSection) for glyphs_Asap_Regular_12_4bpp
    fontgetters.o(i._Z28getFont_Asap_Regular_12_4bppv) refers to fontgetters.o(.bss) for .bss
    fontgetters.o(i._Z28getFont_Asap_Regular_12_4bppv) refers to fontgetters.o(i._ZN8touchgfx17InternalFlashFontD1Ev) for touchgfx::InternalFlashFont::~InternalFlashFont()
    fontgetters.o(i._Z28getFont_Asap_Regular_13_4bppv) refers to cxa_guard_acquire.o(i.__cxa_guard_acquire) for __cxa_guard_acquire
    fontgetters.o(i._Z28getFont_Asap_Regular_13_4bppv) refers to internalflashfont.o(i._ZN8touchgfx17InternalFlashFontC1EPKNS_9GlyphNodeEtthhhhPKhPKNS_11KerningNodeEt) for touchgfx::InternalFlashFont::InternalFlashFont(const touchgfx::GlyphNode*, unsigned short, unsigned short, unsigned char, unsigned char, unsigned char, unsigned char, const unsigned char*, const touchgfx::KerningNode*, unsigned short)
    fontgetters.o(i._Z28getFont_Asap_Regular_13_4bppv) refers to aeabi_atexit.o(.text) for __aeabi_atexit
    fontgetters.o(i._Z28getFont_Asap_Regular_13_4bppv) refers to fontgetters.o(.data) for .data
    fontgetters.o(i._Z28getFont_Asap_Regular_13_4bppv) refers to kerning_asap_regular_13_4bpp.o(FontFlashSection) for kerning_Asap_Regular_13_4bpp
    fontgetters.o(i._Z28getFont_Asap_Regular_13_4bppv) refers to font_asap_regular_13_4bpp.o(FontFlashSection) for unicodes_Asap_Regular_13_4bpp
    fontgetters.o(i._Z28getFont_Asap_Regular_13_4bppv) refers to table_asap_regular_13_4bpp.o(FontFlashSection) for glyphs_Asap_Regular_13_4bpp
    fontgetters.o(i._Z28getFont_Asap_Regular_13_4bppv) refers to fontgetters.o(.bss) for .bss
    fontgetters.o(i._Z28getFont_Asap_Regular_13_4bppv) refers to fontgetters.o(i._ZN8touchgfx17InternalFlashFontD1Ev) for touchgfx::InternalFlashFont::~InternalFlashFont()
    fontgetters.o(i._Z28getFont_Asap_Regular_14_8bppv) refers to cxa_guard_acquire.o(i.__cxa_guard_acquire) for __cxa_guard_acquire
    fontgetters.o(i._Z28getFont_Asap_Regular_14_8bppv) refers to internalflashfont.o(i._ZN8touchgfx17InternalFlashFontC1EPKNS_9GlyphNodeEtthhhhPKhPKNS_11KerningNodeEt) for touchgfx::InternalFlashFont::InternalFlashFont(const touchgfx::GlyphNode*, unsigned short, unsigned short, unsigned char, unsigned char, unsigned char, unsigned char, const unsigned char*, const touchgfx::KerningNode*, unsigned short)
    fontgetters.o(i._Z28getFont_Asap_Regular_14_8bppv) refers to aeabi_atexit.o(.text) for __aeabi_atexit
    fontgetters.o(i._Z28getFont_Asap_Regular_14_8bppv) refers to fontgetters.o(.data) for .data
    fontgetters.o(i._Z28getFont_Asap_Regular_14_8bppv) refers to kerning_asap_regular_14_8bpp.o(FontFlashSection) for kerning_Asap_Regular_14_8bpp
    fontgetters.o(i._Z28getFont_Asap_Regular_14_8bppv) refers to font_asap_regular_14_8bpp.o(FontFlashSection) for unicodes_Asap_Regular_14_8bpp
    fontgetters.o(i._Z28getFont_Asap_Regular_14_8bppv) refers to table_asap_regular_14_8bpp.o(FontFlashSection) for glyphs_Asap_Regular_14_8bpp
    fontgetters.o(i._Z28getFont_Asap_Regular_14_8bppv) refers to fontgetters.o(.bss) for .bss
    fontgetters.o(i._Z28getFont_Asap_Regular_14_8bppv) refers to fontgetters.o(i._ZN8touchgfx17InternalFlashFontD1Ev) for touchgfx::InternalFlashFont::~InternalFlashFont()
    fontgetters.o(i._Z28getFont_Asap_Regular_18_4bppv) refers to cxa_guard_acquire.o(i.__cxa_guard_acquire) for __cxa_guard_acquire
    fontgetters.o(i._Z28getFont_Asap_Regular_18_4bppv) refers to internalflashfont.o(i._ZN8touchgfx17InternalFlashFontC1EPKNS_9GlyphNodeEtthhhhPKhPKNS_11KerningNodeEt) for touchgfx::InternalFlashFont::InternalFlashFont(const touchgfx::GlyphNode*, unsigned short, unsigned short, unsigned char, unsigned char, unsigned char, unsigned char, const unsigned char*, const touchgfx::KerningNode*, unsigned short)
    fontgetters.o(i._Z28getFont_Asap_Regular_18_4bppv) refers to aeabi_atexit.o(.text) for __aeabi_atexit
    fontgetters.o(i._Z28getFont_Asap_Regular_18_4bppv) refers to fontgetters.o(.data) for .data
    fontgetters.o(i._Z28getFont_Asap_Regular_18_4bppv) refers to font_asap_regular_18_4bpp.o(FontFlashSection) for unicodes_Asap_Regular_18_4bpp
    fontgetters.o(i._Z28getFont_Asap_Regular_18_4bppv) refers to kerning_asap_regular_18_4bpp.o(FontFlashSection) for kerning_Asap_Regular_18_4bpp
    fontgetters.o(i._Z28getFont_Asap_Regular_18_4bppv) refers to table_asap_regular_18_4bpp.o(FontFlashSection) for glyphs_Asap_Regular_18_4bpp
    fontgetters.o(i._Z28getFont_Asap_Regular_18_4bppv) refers to fontgetters.o(.bss) for .bss
    fontgetters.o(i._Z28getFont_Asap_Regular_18_4bppv) refers to fontgetters.o(i._ZN8touchgfx17InternalFlashFontD1Ev) for touchgfx::InternalFlashFont::~InternalFlashFont()
    fontgetters.o(.ARM.exidx) refers to fontgetters.o(i._Z28getFont_Asap_Regular_12_4bppv) for i._Z28getFont_Asap_Regular_12_4bppv
    fontgetters.o(.ARM.exidx) refers to fontgetters.o(i._Z28getFont_Asap_Regular_13_4bppv) for i._Z28getFont_Asap_Regular_13_4bppv
    fontgetters.o(.ARM.exidx) refers to fontgetters.o(i._Z28getFont_Asap_Regular_14_8bppv) for i._Z28getFont_Asap_Regular_14_8bppv
    fontgetters.o(.ARM.exidx) refers to fontgetters.o(i._Z28getFont_Asap_Regular_18_4bppv) for i._Z28getFont_Asap_Regular_18_4bppv
    bitmapdatabase.o(i._ZN14BitmapDatabase11getInstanceEv) refers to bitmapdatabase.o(.constdata) for .constdata
    bitmapdatabase.o(.ARM.exidx) refers to bitmapdatabase.o(i._ZN14BitmapDatabase11getInstanceEv) for i._ZN14BitmapDatabase11getInstanceEv
    bitmapdatabase.o(.ARM.exidx) refers to bitmapdatabase.o(i._ZN14BitmapDatabase15getInstanceSizeEv) for i._ZN14BitmapDatabase15getInstanceSizeEv
    bitmapdatabase.o(.constdata) refers to arrow.o(ExtFlashSection) for _Arrow
    bitmapdatabase.o(.constdata) refers to chn1controlbuttonoff.o(ExtFlashSection) for _Chn1ControlButtonOff
    bitmapdatabase.o(.constdata) refers to chn1controlbuttonoff.o(ExtFlashSection) for _Chn1ControlButtonOff_alpha_channel
    bitmapdatabase.o(.constdata) refers to chn1controlbuttonon.o(ExtFlashSection) for _Chn1ControlButtonOn
    bitmapdatabase.o(.constdata) refers to chn1controlbuttonon.o(ExtFlashSection) for _Chn1ControlButtonOn_alpha_channel
    bitmapdatabase.o(.constdata) refers to chn2controlbuttonoff.o(ExtFlashSection) for _Chn2ControlButtonOff
    bitmapdatabase.o(.constdata) refers to chn2controlbuttonoff.o(ExtFlashSection) for _Chn2ControlButtonOff_alpha_channel
    bitmapdatabase.o(.constdata) refers to chn2controlbuttonon.o(ExtFlashSection) for _Chn2ControlButtonOn
    bitmapdatabase.o(.constdata) refers to chn2controlbuttonon.o(ExtFlashSection) for _Chn2ControlButtonOn_alpha_channel
    bitmapdatabase.o(.constdata) refers to heroes.o(ExtFlashSection) for _Heroes
    bitmapdatabase.o(.constdata) refers to appbackground.o(ExtFlashSection) for _appBackground
    bitmapdatabase.o(.constdata) refers to ch1downoff.o(ExtFlashSection) for _ch1DownOff
    bitmapdatabase.o(.constdata) refers to ch1downoff.o(ExtFlashSection) for _ch1DownOff_alpha_channel
    bitmapdatabase.o(.constdata) refers to ch1downonn.o(ExtFlashSection) for _ch1DownOnn
    bitmapdatabase.o(.constdata) refers to ch1downonn.o(ExtFlashSection) for _ch1DownOnn_alpha_channel
    bitmapdatabase.o(.constdata) refers to ch1upoff.o(ExtFlashSection) for _ch1UpOFF
    bitmapdatabase.o(.constdata) refers to ch1upoff.o(ExtFlashSection) for _ch1UpOFF_alpha_channel
    bitmapdatabase.o(.constdata) refers to ch1uponn.o(ExtFlashSection) for _ch1UpOnn
    bitmapdatabase.o(.constdata) refers to ch1uponn.o(ExtFlashSection) for _ch1UpOnn_alpha_channel
    bitmapdatabase.o(.constdata) refers to ch2downoff.o(ExtFlashSection) for _ch2DownOff
    bitmapdatabase.o(.constdata) refers to ch2downoff.o(ExtFlashSection) for _ch2DownOff_alpha_channel
    bitmapdatabase.o(.constdata) refers to ch2downonn.o(ExtFlashSection) for _ch2DownOnn
    bitmapdatabase.o(.constdata) refers to ch2downonn.o(ExtFlashSection) for _ch2DownOnn_alpha_channel
    bitmapdatabase.o(.constdata) refers to ch2upoff.o(ExtFlashSection) for _ch2UpOff
    bitmapdatabase.o(.constdata) refers to ch2upoff.o(ExtFlashSection) for _ch2UpOff_alpha_channel
    bitmapdatabase.o(.constdata) refers to ch2uponn.o(ExtFlashSection) for _ch2UpOnn
    bitmapdatabase.o(.constdata) refers to ch2uponn.o(ExtFlashSection) for _ch2UpOnn_alpha_channel
    bitmapdatabase.o(.constdata) refers to channel1.o(ExtFlashSection) for _channel1
    bitmapdatabase.o(.constdata) refers to channel1.o(ExtFlashSection) for _channel1_alpha_channel
    bitmapdatabase.o(.constdata) refers to channelinfo.o(ExtFlashSection) for _channelInfo
    bitmapdatabase.o(.constdata) refers to controlpanel.o(ExtFlashSection) for _controlPanel
    bitmapdatabase.o(.constdata) refers to counterbox.o(ExtFlashSection) for _counterbox
    bitmapdatabase.o(.constdata) refers to counterbox.o(ExtFlashSection) for _counterbox_alpha_channel
    bitmapdatabase.o(.constdata) refers to down_press_1.o(ExtFlashSection) for _down_press_1
    bitmapdatabase.o(.constdata) refers to down_press_1.o(ExtFlashSection) for _down_press_1_alpha_channel
    bitmapdatabase.o(.constdata) refers to down_press_2.o(ExtFlashSection) for _down_press_2
    bitmapdatabase.o(.constdata) refers to down_press_2.o(ExtFlashSection) for _down_press_2_alpha_channel
    bitmapdatabase.o(.constdata) refers to down_unpress_1.o(ExtFlashSection) for _down_unpress_1
    bitmapdatabase.o(.constdata) refers to down_unpress_1.o(ExtFlashSection) for _down_unpress_1_alpha_channel
    bitmapdatabase.o(.constdata) refers to down_unpress_2.o(ExtFlashSection) for _down_unpress_2
    bitmapdatabase.o(.constdata) refers to down_unpress_2.o(ExtFlashSection) for _down_unpress_2_alpha_channel
    bitmapdatabase.o(.constdata) refers to knobbutton.o(ExtFlashSection) for _knobButton
    bitmapdatabase.o(.constdata) refers to knobbutton.o(ExtFlashSection) for _knobButton_alpha_channel
    bitmapdatabase.o(.constdata) refers to leftbuttonpress.o(ExtFlashSection) for _leftButtonPress
    bitmapdatabase.o(.constdata) refers to leftbuttonpress.o(ExtFlashSection) for _leftButtonPress_alpha_channel
    bitmapdatabase.o(.constdata) refers to leftbuttonunpress.o(ExtFlashSection) for _leftButtonUnpress
    bitmapdatabase.o(.constdata) refers to leftbuttonunpress.o(ExtFlashSection) for _leftButtonUnpress_alpha_channel
    bitmapdatabase.o(.constdata) refers to left_press_1.o(ExtFlashSection) for _left_press_1
    bitmapdatabase.o(.constdata) refers to left_press_1.o(ExtFlashSection) for _left_press_1_alpha_channel
    bitmapdatabase.o(.constdata) refers to left_press_2.o(ExtFlashSection) for _left_press_2
    bitmapdatabase.o(.constdata) refers to left_press_2.o(ExtFlashSection) for _left_press_2_alpha_channel
    bitmapdatabase.o(.constdata) refers to left_unpress_1.o(ExtFlashSection) for _left_unpress_1
    bitmapdatabase.o(.constdata) refers to left_unpress_1.o(ExtFlashSection) for _left_unpress_1_alpha_channel
    bitmapdatabase.o(.constdata) refers to left_unpress_2.o(ExtFlashSection) for _left_unpress_2
    bitmapdatabase.o(.constdata) refers to left_unpress_2.o(ExtFlashSection) for _left_unpress_2_alpha_channel
    bitmapdatabase.o(.constdata) refers to ozibackground.o(ExtFlashSection) for _ozibackground
    bitmapdatabase.o(.constdata) refers to rightbuttonpress.o(ExtFlashSection) for _rightButtonPress
    bitmapdatabase.o(.constdata) refers to rightbuttonpress.o(ExtFlashSection) for _rightButtonPress_alpha_channel
    bitmapdatabase.o(.constdata) refers to rightbuttonunpress.o(ExtFlashSection) for _rightButtonUnpress
    bitmapdatabase.o(.constdata) refers to rightbuttonunpress.o(ExtFlashSection) for _rightButtonUnpress_alpha_channel
    bitmapdatabase.o(.constdata) refers to right_press_1.o(ExtFlashSection) for _right_press_1
    bitmapdatabase.o(.constdata) refers to right_press_1.o(ExtFlashSection) for _right_press_1_alpha_channel
    bitmapdatabase.o(.constdata) refers to right_press_2.o(ExtFlashSection) for _right_press_2
    bitmapdatabase.o(.constdata) refers to right_press_2.o(ExtFlashSection) for _right_press_2_alpha_channel
    bitmapdatabase.o(.constdata) refers to right_unpress_1.o(ExtFlashSection) for _right_unpress_1
    bitmapdatabase.o(.constdata) refers to right_unpress_1.o(ExtFlashSection) for _right_unpress_1_alpha_channel
    bitmapdatabase.o(.constdata) refers to right_unpress_2.o(ExtFlashSection) for _right_unpress_2
    bitmapdatabase.o(.constdata) refers to right_unpress_2.o(ExtFlashSection) for _right_unpress_2_alpha_channel
    bitmapdatabase.o(.constdata) refers to sideslidebutton.o(ExtFlashSection) for _sideslidebutton
    bitmapdatabase.o(.constdata) refers to sideslidebutton.o(ExtFlashSection) for _sideslidebutton_alpha_channel
    bitmapdatabase.o(.constdata) refers to slidemenu.o(ExtFlashSection) for _slideMenu
    bitmapdatabase.o(.constdata) refers to text_background.o(ExtFlashSection) for _text_background
    bitmapdatabase.o(.constdata) refers to text_background.o(ExtFlashSection) for _text_background_alpha_channel
    bitmapdatabase.o(.constdata) refers to up_press_1.o(ExtFlashSection) for _up_press_1
    bitmapdatabase.o(.constdata) refers to up_press_1.o(ExtFlashSection) for _up_press_1_alpha_channel
    bitmapdatabase.o(.constdata) refers to up_press_2.o(ExtFlashSection) for _up_press_2
    bitmapdatabase.o(.constdata) refers to up_press_2.o(ExtFlashSection) for _up_press_2_alpha_channel
    bitmapdatabase.o(.constdata) refers to up_unpress_1.o(ExtFlashSection) for _up_unpress_1
    bitmapdatabase.o(.constdata) refers to up_unpress_1.o(ExtFlashSection) for _up_unpress_1_alpha_channel
    bitmapdatabase.o(.constdata) refers to up_unpress_2.o(ExtFlashSection) for _up_unpress_2
    bitmapdatabase.o(.constdata) refers to up_unpress_2.o(ExtFlashSection) for _up_unpress_2_alpha_channel
    languagegb.o(TextFlashSection) refers to languagegb.o(TextFlashSection) for T_chn1_Gb
    languagegb.o(TextFlashSection) refers to languagegb.o(TextFlashSection) for T_chn2_Gb
    languagegb.o(TextFlashSection) refers to languagegb.o(TextFlashSection) for T_trgTextLabel_Gb
    languagegb.o(TextFlashSection) refers to languagegb.o(TextFlashSection) for T_markerTxTLabel_Gb
    languagegb.o(TextFlashSection) refers to languagegb.o(TextFlashSection) for T_trgText_Gb
    languagegb.o(TextFlashSection) refers to languagegb.o(TextFlashSection) for T_fallText_Gb
    languagegb.o(TextFlashSection) refers to languagegb.o(TextFlashSection) for T_horizontalTxt_Gb
    languagegb.o(TextFlashSection) refers to languagegb.o(TextFlashSection) for T_verticalTxT_Gb
    languagegb.o(TextFlashSection) refers to languagegb.o(TextFlashSection) for T_100us_Gb
    languagegb.o(TextFlashSection) refers to languagegb.o(TextFlashSection) for T_200us_Gb
    languagegb.o(TextFlashSection) refers to languagegb.o(TextFlashSection) for T_500us_Gb
    languagegb.o(TextFlashSection) refers to languagegb.o(TextFlashSection) for T_1ms_Gb
    languagegb.o(TextFlashSection) refers to languagegb.o(TextFlashSection) for T_2ms_Gb
    languagegb.o(TextFlashSection) refers to languagegb.o(TextFlashSection) for T_5ms_Gb
    languagegb.o(TextFlashSection) refers to languagegb.o(TextFlashSection) for T_10ms_Gb
    languagegb.o(TextFlashSection) refers to languagegb.o(TextFlashSection) for T_20ms_Gb
    languagegb.o(TextFlashSection) refers to languagegb.o(TextFlashSection) for T_50ms_Gb
    languagegb.o(TextFlashSection) refers to languagegb.o(TextFlashSection) for T_100ms_Gb
    languagegb.o(TextFlashSection) refers to languagegb.o(TextFlashSection) for T_200ms_Gb
    languagegb.o(TextFlashSection) refers to languagegb.o(TextFlashSection) for T_500ms_Gb
    languagegb.o(TextFlashSection) refers to languagegb.o(TextFlashSection) for T_50us_Gb
    languagegb.o(TextFlashSection) refers to languagegb.o(TextFlashSection) for T_10mv_Gb
    languagegb.o(TextFlashSection) refers to languagegb.o(TextFlashSection) for T_20mv_Gb
    languagegb.o(TextFlashSection) refers to languagegb.o(TextFlashSection) for T_50mv_Gb
    languagegb.o(TextFlashSection) refers to languagegb.o(TextFlashSection) for T_100mv_Gb
    languagegb.o(TextFlashSection) refers to languagegb.o(TextFlashSection) for T_200mv_Gb
    languagegb.o(TextFlashSection) refers to languagegb.o(TextFlashSection) for T_500mv_Gb
    languagegb.o(TextFlashSection) refers to languagegb.o(TextFlashSection) for T_1V_Gb
    languagegb.o(TextFlashSection) refers to languagegb.o(TextFlashSection) for T_2V_Gb
    languagegb.o(TextFlashSection) refers to languagegb.o(TextFlashSection) for T_markerA_Gb
    languagegb.o(TextFlashSection) refers to languagegb.o(TextFlashSection) for T_markerB_Gb
    languagegb.o(TextFlashSection) refers to languagegb.o(TextFlashSection) for T_position_Gb
    languagegb.o(TextFlashSection) refers to languagegb.o(TextFlashSection) for T_Cursor_Gb
    languagegb.o(TextFlashSection) refers to languagegb.o(TextFlashSection) for T_Trig1_level_Gb
    languagegb.o(TextFlashSection) refers to languagegb.o(TextFlashSection) for T_Trig2_level_Gb
    languagegb.o(TextFlashSection) refers to languagegb.o(TextFlashSection) for T_number_small_Gb
    languagegb.o(TextFlashSection) refers to languagegb.o(TextFlashSection) for T_Trigg2_value_Gb
    languagegb.o(TextFlashSection) refers to languagegb.o(TextFlashSection) for T_chn1_ctrl_menu_Gb
    languagegb.o(TextFlashSection) refers to languagegb.o(TextFlashSection) for T_chn2_ctrl_menu_Gb
    languagegb.o(TextFlashSection) refers to languagegb.o(TextFlashSection) for T_stop_ctrl_menu_Gb
    languagegb.o(TextFlashSection) refers to languagegb.o(TextFlashSection) for T_sign_Gb
    texts.o(i._ZN8touchgfx5Texts11setLanguageEt) refers to typedtextdatabase.o(i._ZN17TypedTextDatabase11getInstanceEt) for TypedTextDatabase::getInstance(unsigned short)
    texts.o(i._ZN8touchgfx5Texts11setLanguageEt) refers to typedtextdatabase.o(i._ZN17TypedTextDatabase8getFontsEv) for TypedTextDatabase::getFonts()
    texts.o(i._ZN8touchgfx5Texts11setLanguageEt) refers to typedtextdatabase.o(i._ZN17TypedTextDatabase15getInstanceSizeEv) for TypedTextDatabase::getInstanceSize()
    texts.o(i._ZN8touchgfx5Texts11setLanguageEt) refers to texts.o(.data) for .data
    texts.o(i._ZN8touchgfx5Texts11setLanguageEt) refers to texts.o(TextFlashSection) for TextFlashSection
    texts.o(i._ZN8touchgfx5Texts11setLanguageEt) refers to typedtext.o(.data) for touchgfx::TypedText::typedTexts
    texts.o(i._ZN8touchgfx5Texts11setLanguageEt) refers to typedtext.o(.data) for touchgfx::TypedText::fonts
    texts.o(i._ZN8touchgfx5Texts11setLanguageEt) refers to typedtext.o(.data) for touchgfx::TypedText::numberOfTypedTexts
    texts.o(i.__sti___9_Texts_cpp_454ca793) refers to texts.o(.data) for .data
    texts.o(i.__sti___9_Texts_cpp_454ca793) refers to texts.o(TextFlashSection) for TextFlashSection
    texts.o(.ARM.exidx) refers to texts.o(i._ZN8touchgfx5Texts11setLanguageEt) for i._ZN8touchgfx5Texts11setLanguageEt
    texts.o(.ARM.exidx) refers to texts.o(i.__sti___9_Texts_cpp_454ca793) for i.__sti___9_Texts_cpp_454ca793
    texts.o(.data) refers to font.o(i._ZNK8touchgfx4Font17getStringWidthLTREhPKtSt9__va_list) for touchgfx::Font::getStringWidthLTR(unsigned char, const unsigned short*, std::__va_list) const
    texts.o(.data) refers to lcd.o(i._ZN8touchgfx3LCD13drawStringLTRERKNS_4RectES3_RKNS0_13StringVisualsEPKtSt9__va_list) for touchgfx::LCD::drawStringLTR(const touchgfx::Rect&, const touchgfx::Rect&, const touchgfx::LCD::StringVisuals&, const unsigned short*, std::__va_list)
    texts.o(.init_array) refers to texts.o(i.__sti___9_Texts_cpp_454ca793) for __sti___9_Texts_cpp_454ca793
    texts.o(.init_array) refers to cpp_init.o(.text) for __cpp_initialize__aeabi_
    texts.o(TextFlashSection) refers to languagegb.o(TextFlashSection) for textsGb
    typedtextdatabase.o(i._ZN17TypedTextDatabase11getInstanceEt) refers to typedtextdatabase.o(TextFlashSection) for TextFlashSection
    typedtextdatabase.o(i._ZN17TypedTextDatabase8getFontsEv) refers to typedtextdatabase.o(.bss) for .bss
    typedtextdatabase.o(i.__sti___21_TypedTextDatabase_cpp_42ef4e5b) refers to fontgetters.o(i._Z28getFont_Asap_Regular_18_4bppv) for getFont_Asap_Regular_18_4bpp()
    typedtextdatabase.o(i.__sti___21_TypedTextDatabase_cpp_42ef4e5b) refers to fontgetters.o(i._Z28getFont_Asap_Regular_12_4bppv) for getFont_Asap_Regular_12_4bpp()
    typedtextdatabase.o(i.__sti___21_TypedTextDatabase_cpp_42ef4e5b) refers to fontgetters.o(i._Z28getFont_Asap_Regular_14_8bppv) for getFont_Asap_Regular_14_8bpp()
    typedtextdatabase.o(i.__sti___21_TypedTextDatabase_cpp_42ef4e5b) refers to fontgetters.o(i._Z28getFont_Asap_Regular_13_4bppv) for getFont_Asap_Regular_13_4bpp()
    typedtextdatabase.o(i.__sti___21_TypedTextDatabase_cpp_42ef4e5b) refers to typedtextdatabase.o(.bss) for .bss
    typedtextdatabase.o(.ARM.exidx) refers to typedtextdatabase.o(i._ZN17TypedTextDatabase11getInstanceEt) for i._ZN17TypedTextDatabase11getInstanceEt
    typedtextdatabase.o(.ARM.exidx) refers to typedtextdatabase.o(i._ZN17TypedTextDatabase15getInstanceSizeEv) for i._ZN17TypedTextDatabase15getInstanceSizeEv
    typedtextdatabase.o(.ARM.exidx) refers to typedtextdatabase.o(i._ZN17TypedTextDatabase8getFontsEv) for i._ZN17TypedTextDatabase8getFontsEv
    typedtextdatabase.o(.ARM.exidx) refers to typedtextdatabase.o(i.__sti___21_TypedTextDatabase_cpp_42ef4e5b) for i.__sti___21_TypedTextDatabase_cpp_42ef4e5b
    typedtextdatabase.o(.init_array) refers to typedtextdatabase.o(i.__sti___21_TypedTextDatabase_cpp_42ef4e5b) for __sti___21_TypedTextDatabase_cpp_42ef4e5b
    typedtextdatabase.o(.init_array) refers to cpp_init.o(.text) for __cpp_initialize__aeabi_
    typedtextdatabase.o(TextFlashSection) refers to typedtextdatabase.o(TextFlashSection) for typedText_database_DEFAULT
    boardconfiguration.o(i.SysTick_Handler) refers to stm32f7xx_hal.o(i.HAL_IncTick) for HAL_IncTick
    boardconfiguration.o(i.SysTick_Handler) refers to port.o(i.OS_SysTick) for OS_SysTick
    boardconfiguration.o(i.SysTick_Handler) refers to boardconfiguration.o(.data) for .data
    boardconfiguration.o(i.SystemClock_Config) refers to stm32f7xx_hal_rcc.o(i.HAL_RCC_OscConfig) for HAL_RCC_OscConfig
    boardconfiguration.o(i.SystemClock_Config) refers to stm32f7xx_hal_pwr_ex.o(i.HAL_PWREx_EnableOverDrive) for HAL_PWREx_EnableOverDrive
    boardconfiguration.o(i.SystemClock_Config) refers to stm32f7xx_hal_rcc.o(i.HAL_RCC_ClockConfig) for HAL_RCC_ClockConfig
    boardconfiguration.o(i._ZN8touchgfx13touchgfx_initEv) refers to boardconfiguration.o(t._ZN8touchgfx21touchgfx_generic_initI10STM32F7HALEERNS_3HALERNS_13DMA_InterfaceERNS_3LCDERNS_15TouchControllerEssPtjj) for touchgfx::HAL& touchgfx::touchgfx_generic_init<STM32F7HAL>(touchgfx::DMA_Interface&, touchgfx::LCD&, touchgfx::TouchController&, short, short, unsigned short*, unsigned, unsigned)
    boardconfiguration.o(i._ZN8touchgfx13touchgfx_initEv) refers to stm32f7instrumentation.o(i._ZN8touchgfx22STM32F7Instrumentation4initEv) for touchgfx::STM32F7Instrumentation::init()
    boardconfiguration.o(i._ZN8touchgfx13touchgfx_initEv) refers to boardconfiguration.o(.data) for .data
    boardconfiguration.o(i._ZN8touchgfx13touchgfx_initEv) refers to boardconfiguration.o(.bss) for .bss
    boardconfiguration.o(i._ZN8touchgfx7hw_initEv) refers to stm32f7xx_hal.o(i.HAL_Init) for HAL_Init
    boardconfiguration.o(i._ZN8touchgfx7hw_initEv) refers to boardconfiguration.o(i.SystemClock_Config) for SystemClock_Config
    boardconfiguration.o(i._ZN8touchgfx7hw_initEv) refers to stm32746g_discovery_qspi.o(i.BSP_QSPI_Init) for BSP_QSPI_Init
    boardconfiguration.o(i._ZN8touchgfx7hw_initEv) refers to stm32746g_discovery_qspi.o(i.BSP_QSPI_EnableMemoryMappedMode) for BSP_QSPI_EnableMemoryMappedMode
    boardconfiguration.o(i._ZN8touchgfx7hw_initEv) refers to stm32f7xx_hal_cortex.o(i.HAL_NVIC_DisableIRQ) for HAL_NVIC_DisableIRQ
    boardconfiguration.o(i._ZN8touchgfx7hw_initEv) refers to stm32746g_discovery_sdram.o(i.BSP_SDRAM_Init) for BSP_SDRAM_Init
    boardconfiguration.o(i._ZN8touchgfx7hw_initEv) refers to stm32746g_discovery_lcd.o(i.BSP_LCD_Init) for BSP_LCD_Init
    boardconfiguration.o(i._ZN8touchgfx7hw_initEv) refers to stm32746g_discovery_lcd.o(i.BSP_LCD_GetXSize) for BSP_LCD_GetXSize
    boardconfiguration.o(i._ZN8touchgfx7hw_initEv) refers to stm32746g_discovery_lcd.o(i.BSP_LCD_GetYSize) for BSP_LCD_GetYSize
    boardconfiguration.o(i._ZN8touchgfx7hw_initEv) refers to stm32f7xx_hal_ltdc.o(i.HAL_LTDC_ConfigLayer) for HAL_LTDC_ConfigLayer
    boardconfiguration.o(i._ZN8touchgfx7hw_initEv) refers to stm32746g_discovery_lcd.o(i.BSP_LCD_DisplayOn) for BSP_LCD_DisplayOn
    boardconfiguration.o(i._ZN8touchgfx7hw_initEv) refers to gpio.o(i._ZN8touchgfx4GPIO4initEv) for touchgfx::GPIO::init()
    boardconfiguration.o(i._ZN8touchgfx7hw_initEv) refers to stm32f7xx_hal_cortex.o(i.HAL_MPU_Disable) for HAL_MPU_Disable
    boardconfiguration.o(i._ZN8touchgfx7hw_initEv) refers to stm32f7xx_hal_cortex.o(i.HAL_MPU_ConfigRegion) for HAL_MPU_ConfigRegion
    boardconfiguration.o(i._ZN8touchgfx7hw_initEv) refers to stm32f7xx_hal_cortex.o(i.HAL_MPU_Enable) for HAL_MPU_Enable
    boardconfiguration.o(i._ZN8touchgfx7hw_initEv) refers to boardconfiguration.o(.data) for .data
    boardconfiguration.o(i._ZN8touchgfx7hw_initEv) refers to stm32746g_discovery_lcd.o(.bss) for hLtdcHandler
    boardconfiguration.o(i.__sti___22_BoardConfiguration_cpp_dceb80ee) refers to aeabi_atexit.o(.text) for __aeabi_atexit
    boardconfiguration.o(i.__sti___22_BoardConfiguration_cpp_dceb80ee) refers to stm32f7dma.o(i._ZN10STM32F7DMAC1Ev) for STM32F7DMA::STM32F7DMA()
    boardconfiguration.o(i.__sti___22_BoardConfiguration_cpp_dceb80ee) refers to boardconfiguration.o(.data) for .data
    boardconfiguration.o(i.__sti___22_BoardConfiguration_cpp_dceb80ee) refers to applicationfontprovider.o(.constdata__ZTV23ApplicationFontProvider) for vtable for ApplicationFontProvider
    boardconfiguration.o(i.__sti___22_BoardConfiguration_cpp_dceb80ee) refers to applicationfontprovider.o(i._ZN23ApplicationFontProviderD1Ev) for ApplicationFontProvider::~ApplicationFontProvider()
    boardconfiguration.o(i.__sti___22_BoardConfiguration_cpp_dceb80ee) refers to boardconfiguration.o(.bss) for .bss
    boardconfiguration.o(i.__sti___22_BoardConfiguration_cpp_dceb80ee) refers to stm32f7dma.o(i._ZN10STM32F7DMAD1Ev) for STM32F7DMA::~STM32F7DMA()
    boardconfiguration.o(i.__sti___22_BoardConfiguration_cpp_dceb80ee) refers to stm32f746gtouchcontroller.o(.constdata__ZTVN8touchgfx25STM32F746GTouchControllerE) for vtable for touchgfx::STM32F746GTouchController
    boardconfiguration.o(i.__sti___22_BoardConfiguration_cpp_dceb80ee) refers to boardconfiguration.o(i._ZN8touchgfx25STM32F746GTouchControllerD1Ev) for touchgfx::STM32F746GTouchController::~STM32F746GTouchController()
    boardconfiguration.o(i.__sti___22_BoardConfiguration_cpp_dceb80ee) refers to stm32f7instrumentation.o(.constdata__ZTVN8touchgfx22STM32F7InstrumentationE) for vtable for touchgfx::STM32F7Instrumentation
    boardconfiguration.o(i.__sti___22_BoardConfiguration_cpp_dceb80ee) refers to boardconfiguration.o(i._ZN8touchgfx22STM32F7InstrumentationD1Ev) for touchgfx::STM32F7Instrumentation::~STM32F7Instrumentation()
    boardconfiguration.o(i.__sti___22_BoardConfiguration_cpp_dceb80ee) refers to lcd16bpp.o(.constdata__ZTVN8touchgfx8LCD16bppE) for vtable for touchgfx::LCD16bpp
    boardconfiguration.o(i.__sti___22_BoardConfiguration_cpp_dceb80ee) refers to boardconfiguration.o(i._ZN8touchgfx8LCD16bppD1Ev) for touchgfx::LCD16bpp::~LCD16bpp()
    boardconfiguration.o(.ARM.exidx) refers to boardconfiguration.o(i.SysTick_Handler) for i.SysTick_Handler
    boardconfiguration.o(.ARM.exidx) refers to boardconfiguration.o(i.SystemClock_Config) for i.SystemClock_Config
    boardconfiguration.o(.ARM.exidx) refers to boardconfiguration.o(i._ZN8touchgfx7hw_initEv) for i._ZN8touchgfx7hw_initEv
    boardconfiguration.o(.ARM.exidx) refers to boardconfiguration.o(i._ZN8touchgfx13touchgfx_initEv) for i._ZN8touchgfx13touchgfx_initEv
    boardconfiguration.o(.ARM.exidx) refers to boardconfiguration.o(i.__sti___22_BoardConfiguration_cpp_dceb80ee) for i.__sti___22_BoardConfiguration_cpp_dceb80ee
    boardconfiguration.o(.init_array) refers to boardconfiguration.o(i.__sti___22_BoardConfiguration_cpp_dceb80ee) for __sti___22_BoardConfiguration_cpp_dceb80ee
    boardconfiguration.o(.init_array) refers to cpp_init.o(.text) for __cpp_initialize__aeabi_
    gpio.o(i._ZN8touchgfx4GPIO3getENS0_7GPIO_IDE) refers to gpio.o(.data) for .data
    gpio.o(i._ZN8touchgfx4GPIO3setENS0_7GPIO_IDE) refers to stm32746g_discovery.o(i.BSP_LED_On) for BSP_LED_On
    gpio.o(i._ZN8touchgfx4GPIO3setENS0_7GPIO_IDE) refers to gpio.o(.data) for .data
    gpio.o(i._ZN8touchgfx4GPIO4initEv) refers to stm32746g_discovery.o(i.BSP_LED_Init) for BSP_LED_Init
    gpio.o(i._ZN8touchgfx4GPIO4initEv) refers to gpio.o(i._ZN8touchgfx4GPIO5clearENS0_7GPIO_IDE) for touchgfx::GPIO::clear(touchgfx::GPIO::GPIO_ID)
    gpio.o(i._ZN8touchgfx4GPIO5clearENS0_7GPIO_IDE) refers to stm32746g_discovery.o(i.BSP_LED_Off) for BSP_LED_Off
    gpio.o(i._ZN8touchgfx4GPIO5clearENS0_7GPIO_IDE) refers to gpio.o(.data) for .data
    gpio.o(i._ZN8touchgfx4GPIO6toggleENS0_7GPIO_IDE) refers to stm32746g_discovery.o(i.BSP_LED_Toggle) for BSP_LED_Toggle
    gpio.o(.ARM.exidx) refers to gpio.o(i._ZN8touchgfx4GPIO5clearENS0_7GPIO_IDE) for i._ZN8touchgfx4GPIO5clearENS0_7GPIO_IDE
    gpio.o(.ARM.exidx) refers to gpio.o(i._ZN8touchgfx4GPIO4initEv) for i._ZN8touchgfx4GPIO4initEv
    gpio.o(.ARM.exidx) refers to gpio.o(i._ZN8touchgfx4GPIO3setENS0_7GPIO_IDE) for i._ZN8touchgfx4GPIO3setENS0_7GPIO_IDE
    gpio.o(.ARM.exidx) refers to gpio.o(i._ZN8touchgfx4GPIO6toggleENS0_7GPIO_IDE) for i._ZN8touchgfx4GPIO6toggleENS0_7GPIO_IDE
    gpio.o(.ARM.exidx) refers to gpio.o(i._ZN8touchgfx4GPIO3getENS0_7GPIO_IDE) for i._ZN8touchgfx4GPIO3getENS0_7GPIO_IDE
    stm32f7instrumentation.o(i._ZN8touchgfx22STM32F7Instrumentation12getCPUCyclesEv) refers to stm32f7instrumentation.o(.bss) for .bss
    stm32f7instrumentation.o(i._ZN8touchgfx22STM32F7Instrumentation4initEv) refers to stm32f7xx_hal_tim.o(i.HAL_TIM_Base_Init) for HAL_TIM_Base_Init
    stm32f7instrumentation.o(i._ZN8touchgfx22STM32F7Instrumentation4initEv) refers to stm32f7xx_hal_tim.o(i.HAL_TIM_Base_Start) for HAL_TIM_Base_Start
    stm32f7instrumentation.o(i._ZN8touchgfx22STM32F7Instrumentation4initEv) refers to stm32f7instrumentation.o(.bss) for .bss
    stm32f7instrumentation.o(.ARM.exidx) refers to stm32f7instrumentation.o(i._ZN8touchgfx22STM32F7Instrumentation4initEv) for i._ZN8touchgfx22STM32F7Instrumentation4initEv
    stm32f7instrumentation.o(.ARM.exidx) refers to stm32f7instrumentation.o(i._ZN8touchgfx22STM32F7Instrumentation12getElapsedUSEjjj) for i._ZN8touchgfx22STM32F7Instrumentation12getElapsedUSEjjj
    stm32f7instrumentation.o(.ARM.exidx) refers to stm32f7instrumentation.o(i._ZN8touchgfx22STM32F7Instrumentation12getCPUCyclesEv) for i._ZN8touchgfx22STM32F7Instrumentation12getCPUCyclesEv
    stm32f7instrumentation.o(.ARM.exidx) refers to stm32f7instrumentation.o(i._ZN8touchgfx22STM32F7Instrumentation12setMCUActiveEb) for i._ZN8touchgfx22STM32F7Instrumentation12setMCUActiveEb
    stm32f7dma.o(i._ZN10STM32F7DMA10initializeEv) refers to stm32f7dma.o(.bss) for .bss
    stm32f7dma.o(i._ZN10STM32F7DMA11getBlitCapsEv) refers to stm32f7dma.o(.data) for .data
    stm32f7dma.o(i._ZN10STM32F7DMA13setupDataCopyERKN8touchgfx6BlitOpE) refers to stm32f7dma.o(i._Z15NVIC_DisableIRQ9IRQn_Type) for NVIC_DisableIRQ(IRQn_Type)
    stm32f7dma.o(i._ZN10STM32F7DMA13setupDataCopyERKN8touchgfx6BlitOpE) refers to stm32f7xx_hal_dma2d.o(i.HAL_DMA2D_DeInit) for HAL_DMA2D_DeInit
    stm32f7dma.o(i._ZN10STM32F7DMA13setupDataCopyERKN8touchgfx6BlitOpE) refers to stm32f7xx_hal_dma2d.o(i.HAL_DMA2D_Init) for HAL_DMA2D_Init
    stm32f7dma.o(i._ZN10STM32F7DMA13setupDataCopyERKN8touchgfx6BlitOpE) refers to stm32f7xx_hal_dma2d.o(i.HAL_DMA2D_ConfigLayer) for HAL_DMA2D_ConfigLayer
    stm32f7dma.o(i._ZN10STM32F7DMA13setupDataCopyERKN8touchgfx6BlitOpE) refers to stm32f7dma.o(i._Z14NVIC_EnableIRQ9IRQn_Type) for NVIC_EnableIRQ(IRQn_Type)
    stm32f7dma.o(i._ZN10STM32F7DMA13setupDataCopyERKN8touchgfx6BlitOpE) refers to stm32f7xx_hal_dma2d.o(i.HAL_DMA2D_BlendingStart_IT) for HAL_DMA2D_BlendingStart_IT
    stm32f7dma.o(i._ZN10STM32F7DMA13setupDataCopyERKN8touchgfx6BlitOpE) refers to stm32f7xx_hal_dma2d.o(i.HAL_DMA2D_Start_IT) for HAL_DMA2D_Start_IT
    stm32f7dma.o(i._ZN10STM32F7DMA13setupDataCopyERKN8touchgfx6BlitOpE) refers to hal.o(.data) for touchgfx::HAL::instance
    stm32f7dma.o(i._ZN10STM32F7DMA13setupDataCopyERKN8touchgfx6BlitOpE) refers to stm32f7dma.o(.bss) for .bss
    stm32f7dma.o(i._ZN10STM32F7DMA13setupDataFillERKN8touchgfx6BlitOpE) refers to stm32f7dma.o(i._Z15NVIC_DisableIRQ9IRQn_Type) for NVIC_DisableIRQ(IRQn_Type)
    stm32f7dma.o(i._ZN10STM32F7DMA13setupDataFillERKN8touchgfx6BlitOpE) refers to stm32f7xx_hal_dma2d.o(i.HAL_DMA2D_DeInit) for HAL_DMA2D_DeInit
    stm32f7dma.o(i._ZN10STM32F7DMA13setupDataFillERKN8touchgfx6BlitOpE) refers to memcpya.o(.text) for __aeabi_memcpy4
    stm32f7dma.o(i._ZN10STM32F7DMA13setupDataFillERKN8touchgfx6BlitOpE) refers to stm32f7xx_hal_dma2d.o(i.HAL_DMA2D_Init) for HAL_DMA2D_Init
    stm32f7dma.o(i._ZN10STM32F7DMA13setupDataFillERKN8touchgfx6BlitOpE) refers to stm32f7xx_hal_dma2d.o(i.HAL_DMA2D_ConfigLayer) for HAL_DMA2D_ConfigLayer
    stm32f7dma.o(i._ZN10STM32F7DMA13setupDataFillERKN8touchgfx6BlitOpE) refers to stm32f7dma.o(i._Z14NVIC_EnableIRQ9IRQn_Type) for NVIC_EnableIRQ(IRQn_Type)
    stm32f7dma.o(i._ZN10STM32F7DMA13setupDataFillERKN8touchgfx6BlitOpE) refers to stm32f7xx_hal_dma2d.o(i.HAL_DMA2D_Start_IT) for HAL_DMA2D_Start_IT
    stm32f7dma.o(i._ZN10STM32F7DMA13setupDataFillERKN8touchgfx6BlitOpE) refers to hal.o(.data) for touchgfx::HAL::instance
    stm32f7dma.o(i._ZN10STM32F7DMA13setupDataFillERKN8touchgfx6BlitOpE) refers to stm32f7dma.o(.bss) for .bss
    stm32f7dma.o(i._ZN10STM32F7DMA18setupFillWithAlphaERKN8touchgfx6BlitOpE) refers to stm32f7dma.o(i._Z15NVIC_DisableIRQ9IRQn_Type) for NVIC_DisableIRQ(IRQn_Type)
    stm32f7dma.o(i._ZN10STM32F7DMA18setupFillWithAlphaERKN8touchgfx6BlitOpE) refers to stm32f7dma.o(i._Z14NVIC_EnableIRQ9IRQn_Type) for NVIC_EnableIRQ(IRQn_Type)
    stm32f7dma.o(i._ZN10STM32F7DMA18setupFillWithAlphaERKN8touchgfx6BlitOpE) refers to stm32f7dma.o(.bss) for .bss
    stm32f7dma.o(i._ZN10STM32F7DMA18setupFillWithAlphaERKN8touchgfx6BlitOpE) refers to hal.o(.data) for touchgfx::HAL::instance
    stm32f7dma.o(i._ZN10STM32F7DMAC1Ev) refers to dma.o(i._ZN8touchgfx17LockFreeDMA_QueueC1EPNS_6BlitOpEm) for touchgfx::LockFreeDMA_Queue::LockFreeDMA_Queue(touchgfx::BlitOp*, unsigned long)
    stm32f7dma.o(i._ZN10STM32F7DMAC1Ev) refers to aeabi_vec_ctor_nocookie_nodtor.o(i.__aeabi_vec_ctor_nocookie_nodtor) for __aeabi_vec_ctor_nocookie_nodtor
    stm32f7dma.o(i._ZN10STM32F7DMAC1Ev) refers to stm32f7dma.o(.constdata__ZTV10STM32F7DMA) for vtable for STM32F7DMA
    stm32f7dma.o(i._ZN10STM32F7DMAC1Ev) refers to stm32f7dma.o(i._ZN8touchgfx6BlitOpC1Ev) for touchgfx::BlitOp::BlitOp()
    stm32f7dma.o(i._ZN10STM32F7DMAD0Ev) refers to stm32f7dma.o(i._ZN10STM32F7DMAD1Ev) for STM32F7DMA::~STM32F7DMA()
    stm32f7dma.o(i._ZN10STM32F7DMAD0Ev) refers to delete.o(i._ZdlPv) for operator delete (void*)
    stm32f7dma.o(i._ZN10STM32F7DMAD1Ev) refers to stm32f7dma.o(.constdata__ZTV10STM32F7DMA) for vtable for STM32F7DMA
    stm32f7dma.o(.ARM.exidx) refers to stm32f7dma.o(i._ZN10STM32F7DMAC1Ev) for i._ZN10STM32F7DMAC1Ev
    stm32f7dma.o(.ARM.exidx) refers to stm32f7dma.o(i._ZN10STM32F7DMAD1Ev) for i._ZN10STM32F7DMAD1Ev
    stm32f7dma.o(.ARM.exidx) refers to stm32f7dma.o(i._ZN10STM32F7DMAD0Ev) for i._ZN10STM32F7DMAD0Ev
    stm32f7dma.o(.ARM.exidx) refers to stm32f7dma.o(i._ZN10STM32F7DMA11getBlitCapsEv) for i._ZN10STM32F7DMA11getBlitCapsEv
    stm32f7dma.o(.ARM.exidx) refers to stm32f7dma.o(i._ZN10STM32F7DMA10initializeEv) for i._ZN10STM32F7DMA10initializeEv
    stm32f7dma.o(.ARM.exidx) refers to stm32f7dma.o(i._ZN10STM32F7DMA13setupDataCopyERKN8touchgfx6BlitOpE) for i._ZN10STM32F7DMA13setupDataCopyERKN8touchgfx6BlitOpE
    stm32f7dma.o(.ARM.exidx) refers to stm32f7dma.o(i._ZN10STM32F7DMA13setupDataFillERKN8touchgfx6BlitOpE) for i._ZN10STM32F7DMA13setupDataFillERKN8touchgfx6BlitOpE
    stm32f7dma.o(.ARM.exidx) refers to stm32f7dma.o(i._ZN10STM32F7DMA18setupFillWithAlphaERKN8touchgfx6BlitOpE) for i._ZN10STM32F7DMA18setupFillWithAlphaERKN8touchgfx6BlitOpE
    stm32f7dma.o(.ARM.exidx) refers to stm32f7dma.o(i._Z14NVIC_EnableIRQ9IRQn_Type) for i._Z14NVIC_EnableIRQ9IRQn_Type
    stm32f7dma.o(.ARM.exidx) refers to stm32f7dma.o(i._Z15NVIC_DisableIRQ9IRQn_Type) for i._Z15NVIC_DisableIRQ9IRQn_Type
    stm32f7hal.o(i.DMA2D_IRQHandler) refers to stm32f7hal.o(i._Z25SCB_CleanInvalidateDCachev) for SCB_CleanInvalidateDCache()
    stm32f7hal.o(i.DMA2D_IRQHandler) refers to hal.o(.data) for touchgfx::HAL::instance
    stm32f7hal.o(i.LTDC_IRQHandler) refers to oswrappers.o(i._ZN8touchgfx10OSWrappers11signalVSyncEv) for touchgfx::OSWrappers::signalVSync()
    stm32f7hal.o(i.LTDC_IRQHandler) refers to hal.o(i._ZN8touchgfx3HAL16swapFrameBuffersEv) for touchgfx::HAL::swapFrameBuffers()
    stm32f7hal.o(i.LTDC_IRQHandler) refers to gpio.o(i._ZN8touchgfx4GPIO3setENS0_7GPIO_IDE) for touchgfx::GPIO::set(touchgfx::GPIO::GPIO_ID)
    stm32f7hal.o(i.LTDC_IRQHandler) refers to gpio.o(i._ZN8touchgfx4GPIO5clearENS0_7GPIO_IDE) for touchgfx::GPIO::clear(touchgfx::GPIO::GPIO_ID)
    stm32f7hal.o(i.LTDC_IRQHandler) refers to stm32f7hal.o(.data) for .data
    stm32f7hal.o(i.LTDC_IRQHandler) refers to hal.o(.data) for touchgfx::HAL::instance
    stm32f7hal.o(i._ZN10STM32F7HAL16enableInterruptsEv) refers to stm32f7hal.o(i._Z14NVIC_EnableIRQ9IRQn_Type) for NVIC_EnableIRQ(IRQn_Type)
    stm32f7hal.o(i._ZN10STM32F7HAL16flushFrameBufferERKN8touchgfx4RectE) refers to hal.o(i._ZN8touchgfx3HAL16flushFrameBufferERKNS_4RectE) for touchgfx::HAL::flushFrameBuffer(const touchgfx::Rect&)
    stm32f7hal.o(i._ZN10STM32F7HAL16flushFrameBufferERKN8touchgfx4RectE) refers to stm32f7hal.o(i._Z25SCB_CleanInvalidateDCachev) for SCB_CleanInvalidateDCache()
    stm32f7hal.o(i._ZN10STM32F7HAL17disableInterruptsEv) refers to stm32f7hal.o(i._Z15NVIC_DisableIRQ9IRQn_Type) for NVIC_DisableIRQ(IRQn_Type)
    stm32f7hal.o(i._ZN10STM32F7HAL19configureInterruptsEv) refers to stm32f7hal.o(i._Z16NVIC_SetPriority9IRQn_Typej) for NVIC_SetPriority(IRQn_Type, unsigned)
    stm32f7hal.o(i._ZN10STM32F7HAL28enableLCDControllerInterruptEv) refers to stm32f7hal.o(.data) for .data
    stm32f7hal.o(.ARM.exidx) refers to stm32f7hal.o(i._Z25SCB_CleanInvalidateDCachev) for i._Z25SCB_CleanInvalidateDCachev
    stm32f7hal.o(.ARM.exidx) refers to stm32f7hal.o(i.LTDC_IRQHandler) for i.LTDC_IRQHandler
    stm32f7hal.o(.ARM.exidx) refers to stm32f7hal.o(i.DMA2D_IRQHandler) for i.DMA2D_IRQHandler
    stm32f7hal.o(.ARM.exidx) refers to stm32f7hal.o(i._ZN10STM32F7HAL17disableInterruptsEv) for i._ZN10STM32F7HAL17disableInterruptsEv
    stm32f7hal.o(.ARM.exidx) refers to stm32f7hal.o(i._ZN10STM32F7HAL16enableInterruptsEv) for i._ZN10STM32F7HAL16enableInterruptsEv
    stm32f7hal.o(.ARM.exidx) refers to stm32f7hal.o(i._ZN10STM32F7HAL19configureInterruptsEv) for i._ZN10STM32F7HAL19configureInterruptsEv
    stm32f7hal.o(.ARM.exidx) refers to stm32f7hal.o(i._ZN10STM32F7HAL28enableLCDControllerInterruptEv) for i._ZN10STM32F7HAL28enableLCDControllerInterruptEv
    stm32f7hal.o(.ARM.exidx) refers to stm32f7hal.o(i._ZN10STM32F7HAL16flushFrameBufferERKN8touchgfx4RectE) for i._ZN10STM32F7HAL16flushFrameBufferERKN8touchgfx4RectE
    stm32f7hal.o(.ARM.exidx) refers to stm32f7hal.o(i._ZN10STM32F7HAL17getTFTCurrentLineEv) for i._ZN10STM32F7HAL17getTFTCurrentLineEv
    stm32f7hal.o(.ARM.exidx) refers to stm32f7hal.o(i._ZNK10STM32F7HAL17getTFTFrameBufferEv) for i._ZNK10STM32F7HAL17getTFTFrameBufferEv
    stm32f7hal.o(.ARM.exidx) refers to stm32f7hal.o(i._ZN10STM32F7HAL17setTFTFrameBufferEPt) for i._ZN10STM32F7HAL17setTFTFrameBufferEPt
    stm32f7hal.o(.ARM.exidx) refers to stm32f7hal.o(i._Z14NVIC_EnableIRQ9IRQn_Type) for i._Z14NVIC_EnableIRQ9IRQn_Type
    stm32f7hal.o(.ARM.exidx) refers to stm32f7hal.o(i._Z15NVIC_DisableIRQ9IRQn_Type) for i._Z15NVIC_DisableIRQ9IRQn_Type
    stm32f7hal.o(.ARM.exidx) refers to stm32f7hal.o(i._Z16NVIC_SetPriority9IRQn_Typej) for i._Z16NVIC_SetPriority9IRQn_Typej
    stm32f746gtouchcontroller.o(i._ZN8touchgfx25STM32F746GTouchController11sampleTouchERiS1_) refers to stm32746g_discovery_ts.o(i.BSP_TS_GetState) for BSP_TS_GetState
    stm32f746gtouchcontroller.o(i._ZN8touchgfx25STM32F746GTouchController4initEv) refers to stm32746g_discovery_lcd.o(i.BSP_LCD_GetYSize) for BSP_LCD_GetYSize
    stm32f746gtouchcontroller.o(i._ZN8touchgfx25STM32F746GTouchController4initEv) refers to stm32746g_discovery_lcd.o(i.BSP_LCD_GetXSize) for BSP_LCD_GetXSize
    stm32f746gtouchcontroller.o(i._ZN8touchgfx25STM32F746GTouchController4initEv) refers to stm32746g_discovery_ts.o(i.BSP_TS_Init) for BSP_TS_Init
    stm32f746gtouchcontroller.o(.ARM.exidx) refers to stm32f746gtouchcontroller.o(i._ZN8touchgfx25STM32F746GTouchController4initEv) for i._ZN8touchgfx25STM32F746GTouchController4initEv
    stm32f746gtouchcontroller.o(.ARM.exidx) refers to stm32f746gtouchcontroller.o(i._ZN8touchgfx25STM32F746GTouchController11sampleTouchERiS1_) for i._ZN8touchgfx25STM32F746GTouchController11sampleTouchERiS1_
    oswrappers.o(i._Z12IdleTaskHookPv) refers to hal.o(i._ZN8touchgfx3HAL12setMCUActiveEb) for touchgfx::HAL::setMCUActive(bool)
    oswrappers.o(i._Z12IdleTaskHookPv) refers to hal.o(.data) for touchgfx::HAL::instance
    oswrappers.o(i._ZN8touchgfx10OSWrappers10initializeEv) refers to queue.o(i.xQueueGenericCreate) for xQueueGenericCreate
    oswrappers.o(i._ZN8touchgfx10OSWrappers10initializeEv) refers to queue.o(i.xQueueGenericSend) for xQueueGenericSend
    oswrappers.o(i._ZN8touchgfx10OSWrappers10initializeEv) refers to oswrappers.o(.data) for .data
    oswrappers.o(i._ZN8touchgfx10OSWrappers11signalVSyncEv) refers to queue.o(i.xQueueGenericSendFromISR) for xQueueGenericSendFromISR
    oswrappers.o(i._ZN8touchgfx10OSWrappers11signalVSyncEv) refers to oswrappers.o(.data) for .data
    oswrappers.o(i._ZN8touchgfx10OSWrappers12waitForVSyncEv) refers to queue.o(i.xQueueGenericReceive) for xQueueGenericReceive
    oswrappers.o(i._ZN8touchgfx10OSWrappers12waitForVSyncEv) refers to oswrappers.o(.data) for .data
    oswrappers.o(i._ZN8touchgfx10OSWrappers24giveFrameBufferSemaphoreEv) refers to queue.o(i.xQueueGenericSend) for xQueueGenericSend
    oswrappers.o(i._ZN8touchgfx10OSWrappers24giveFrameBufferSemaphoreEv) refers to oswrappers.o(.data) for .data
    oswrappers.o(i._ZN8touchgfx10OSWrappers24takeFrameBufferSemaphoreEv) refers to queue.o(i.xQueueGenericReceive) for xQueueGenericReceive
    oswrappers.o(i._ZN8touchgfx10OSWrappers24takeFrameBufferSemaphoreEv) refers to oswrappers.o(.data) for .data
    oswrappers.o(i._ZN8touchgfx10OSWrappers27tryTakeFrameBufferSemaphoreEv) refers to queue.o(i.xQueueGenericReceive) for xQueueGenericReceive
    oswrappers.o(i._ZN8touchgfx10OSWrappers27tryTakeFrameBufferSemaphoreEv) refers to oswrappers.o(.data) for .data
    oswrappers.o(i._ZN8touchgfx10OSWrappers31giveFrameBufferSemaphoreFromISREv) refers to queue.o(i.xQueueGiveFromISR) for xQueueGiveFromISR
    oswrappers.o(i._ZN8touchgfx10OSWrappers31giveFrameBufferSemaphoreFromISREv) refers to oswrappers.o(.data) for .data
    oswrappers.o(i._ZN8touchgfx10OSWrappers9taskDelayEt) refers to tasks.o(i.vTaskDelay) for vTaskDelay
    oswrappers.o(i.vApplicationIdleHook) refers to tasks.o(i.vTaskSetApplicationTaskTag) for vTaskSetApplicationTaskTag
    oswrappers.o(i.vApplicationIdleHook) refers to oswrappers.o(i._Z12IdleTaskHookPv) for IdleTaskHook(void*)
    oswrappers.o(.ARM.exidx) refers to oswrappers.o(i._Z12IdleTaskHookPv) for i._Z12IdleTaskHookPv
    oswrappers.o(.ARM.exidx) refers to oswrappers.o(i.vApplicationStackOverflowHook) for i.vApplicationStackOverflowHook
    oswrappers.o(.ARM.exidx) refers to oswrappers.o(i.vApplicationMallocFailedHook) for i.vApplicationMallocFailedHook
    oswrappers.o(.ARM.exidx) refers to oswrappers.o(i.vApplicationIdleHook) for i.vApplicationIdleHook
    oswrappers.o(.ARM.exidx) refers to oswrappers.o(i._ZN8touchgfx10OSWrappers10initializeEv) for i._ZN8touchgfx10OSWrappers10initializeEv
    oswrappers.o(.ARM.exidx) refers to oswrappers.o(i._ZN8touchgfx10OSWrappers11signalVSyncEv) for i._ZN8touchgfx10OSWrappers11signalVSyncEv
    oswrappers.o(.ARM.exidx) refers to oswrappers.o(i._ZN8touchgfx10OSWrappers12waitForVSyncEv) for i._ZN8touchgfx10OSWrappers12waitForVSyncEv
    oswrappers.o(.ARM.exidx) refers to oswrappers.o(i._ZN8touchgfx10OSWrappers24takeFrameBufferSemaphoreEv) for i._ZN8touchgfx10OSWrappers24takeFrameBufferSemaphoreEv
    oswrappers.o(.ARM.exidx) refers to oswrappers.o(i._ZN8touchgfx10OSWrappers27tryTakeFrameBufferSemaphoreEv) for i._ZN8touchgfx10OSWrappers27tryTakeFrameBufferSemaphoreEv
    oswrappers.o(.ARM.exidx) refers to oswrappers.o(i._ZN8touchgfx10OSWrappers24giveFrameBufferSemaphoreEv) for i._ZN8touchgfx10OSWrappers24giveFrameBufferSemaphoreEv
    oswrappers.o(.ARM.exidx) refers to oswrappers.o(i._ZN8touchgfx10OSWrappers31giveFrameBufferSemaphoreFromISREv) for i._ZN8touchgfx10OSWrappers31giveFrameBufferSemaphoreFromISREv
    oswrappers.o(.ARM.exidx) refers to oswrappers.o(i._ZN8touchgfx10OSWrappers9taskDelayEt) for i._ZN8touchgfx10OSWrappers9taskDelayEt
    croutine.o(i.prvCheckDelayedList) refers to tasks.o(i.xTaskGetTickCount) for xTaskGetTickCount
    croutine.o(i.prvCheckDelayedList) refers to list.o(i.uxListRemove) for uxListRemove
    croutine.o(i.prvCheckDelayedList) refers to list.o(i.vListInsertEnd) for vListInsertEnd
    croutine.o(i.prvCheckDelayedList) refers to croutine.o(.data) for .data
    croutine.o(i.prvCheckDelayedList) refers to croutine.o(.bss) for .bss
    croutine.o(i.vCoRoutineAddToDelayedList) refers to list.o(i.uxListRemove) for uxListRemove
    croutine.o(i.vCoRoutineAddToDelayedList) refers to list.o(i.vListInsert) for vListInsert
    croutine.o(i.vCoRoutineAddToDelayedList) refers to croutine.o(.data) for .data
    croutine.o(i.vCoRoutineSchedule) refers to list.o(i.uxListRemove) for uxListRemove
    croutine.o(i.vCoRoutineSchedule) refers to list.o(i.vListInsertEnd) for vListInsertEnd
    croutine.o(i.vCoRoutineSchedule) refers to croutine.o(i.prvCheckDelayedList) for prvCheckDelayedList
    croutine.o(i.vCoRoutineSchedule) refers to croutine.o(.bss) for .bss
    croutine.o(i.vCoRoutineSchedule) refers to croutine.o(.data) for .data
    croutine.o(i.xCoRoutineCreate) refers to heap_2.o(i.pvPortMalloc) for pvPortMalloc
    croutine.o(i.xCoRoutineCreate) refers to list.o(i.vListInitialise) for vListInitialise
    croutine.o(i.xCoRoutineCreate) refers to list.o(i.vListInitialiseItem) for vListInitialiseItem
    croutine.o(i.xCoRoutineCreate) refers to list.o(i.vListInsertEnd) for vListInsertEnd
    croutine.o(i.xCoRoutineCreate) refers to croutine.o(.data) for .data
    croutine.o(i.xCoRoutineCreate) refers to croutine.o(.bss) for .bss
    croutine.o(i.xCoRoutineRemoveFromEventList) refers to list.o(i.uxListRemove) for uxListRemove
    croutine.o(i.xCoRoutineRemoveFromEventList) refers to list.o(i.vListInsertEnd) for vListInsertEnd
    croutine.o(i.xCoRoutineRemoveFromEventList) refers to croutine.o(.bss) for .bss
    croutine.o(i.xCoRoutineRemoveFromEventList) refers to croutine.o(.data) for .data
    event_groups.o(i.vEventGroupClearBitsCallback) refers to event_groups.o(i.xEventGroupClearBits) for xEventGroupClearBits
    event_groups.o(i.vEventGroupDelete) refers to tasks.o(i.vTaskSuspendAll) for vTaskSuspendAll
    event_groups.o(i.vEventGroupDelete) refers to tasks.o(i.xTaskRemoveFromUnorderedEventList) for xTaskRemoveFromUnorderedEventList
    event_groups.o(i.vEventGroupDelete) refers to heap_2.o(i.vPortFree) for vPortFree
    event_groups.o(i.vEventGroupDelete) refers to tasks.o(i.xTaskResumeAll) for xTaskResumeAll
    event_groups.o(i.vEventGroupSetBitsCallback) refers to event_groups.o(i.xEventGroupSetBits) for xEventGroupSetBits
    event_groups.o(i.xEventGroupClearBits) refers to port.o(i.vPortEnterCritical) for vPortEnterCritical
    event_groups.o(i.xEventGroupClearBits) refers to port.o(i.vPortExitCritical) for vPortExitCritical
    event_groups.o(i.xEventGroupCreate) refers to heap_2.o(i.pvPortMalloc) for pvPortMalloc
    event_groups.o(i.xEventGroupCreate) refers to list.o(i.vListInitialise) for vListInitialise
    event_groups.o(i.xEventGroupSetBits) refers to tasks.o(i.vTaskSuspendAll) for vTaskSuspendAll
    event_groups.o(i.xEventGroupSetBits) refers to tasks.o(i.xTaskRemoveFromUnorderedEventList) for xTaskRemoveFromUnorderedEventList
    event_groups.o(i.xEventGroupSetBits) refers to tasks.o(i.xTaskResumeAll) for xTaskResumeAll
    event_groups.o(i.xEventGroupSync) refers to tasks.o(i.vTaskSuspendAll) for vTaskSuspendAll
    event_groups.o(i.xEventGroupSync) refers to event_groups.o(i.xEventGroupSetBits) for xEventGroupSetBits
    event_groups.o(i.xEventGroupSync) refers to tasks.o(i.vTaskPlaceOnUnorderedEventList) for vTaskPlaceOnUnorderedEventList
    event_groups.o(i.xEventGroupSync) refers to tasks.o(i.xTaskResumeAll) for xTaskResumeAll
    event_groups.o(i.xEventGroupSync) refers to tasks.o(i.uxTaskResetEventItemValue) for uxTaskResetEventItemValue
    event_groups.o(i.xEventGroupSync) refers to port.o(i.vPortEnterCritical) for vPortEnterCritical
    event_groups.o(i.xEventGroupSync) refers to port.o(i.vPortExitCritical) for vPortExitCritical
    event_groups.o(i.xEventGroupWaitBits) refers to tasks.o(i.vTaskSuspendAll) for vTaskSuspendAll
    event_groups.o(i.xEventGroupWaitBits) refers to event_groups.o(i.prvTestWaitCondition) for prvTestWaitCondition
    event_groups.o(i.xEventGroupWaitBits) refers to tasks.o(i.vTaskPlaceOnUnorderedEventList) for vTaskPlaceOnUnorderedEventList
    event_groups.o(i.xEventGroupWaitBits) refers to tasks.o(i.xTaskResumeAll) for xTaskResumeAll
    event_groups.o(i.xEventGroupWaitBits) refers to tasks.o(i.uxTaskResetEventItemValue) for uxTaskResetEventItemValue
    event_groups.o(i.xEventGroupWaitBits) refers to port.o(i.vPortEnterCritical) for vPortEnterCritical
    event_groups.o(i.xEventGroupWaitBits) refers to port.o(i.vPortExitCritical) for vPortExitCritical
    queue.o(i.prvCopyDataFromQueue) refers to memcpya.o(.text) for __aeabi_memcpy
    queue.o(i.prvCopyDataToQueue) refers to memcpya.o(.text) for __aeabi_memcpy
    queue.o(i.prvCopyDataToQueue) refers to tasks.o(i.xTaskPriorityDisinherit) for xTaskPriorityDisinherit
    queue.o(i.prvUnlockQueue) refers to port.o(i.vPortEnterCritical) for vPortEnterCritical
    queue.o(i.prvUnlockQueue) refers to tasks.o(i.xTaskRemoveFromEventList) for xTaskRemoveFromEventList
    queue.o(i.prvUnlockQueue) refers to tasks.o(i.vTaskMissedYield) for vTaskMissedYield
    queue.o(i.prvUnlockQueue) refers to port.o(i.vPortExitCritical) for vPortExitCritical
    queue.o(i.uxQueueMessagesWaiting) refers to port.o(i.vPortEnterCritical) for vPortEnterCritical
    queue.o(i.uxQueueMessagesWaiting) refers to port.o(i.vPortExitCritical) for vPortExitCritical
    queue.o(i.uxQueueSpacesAvailable) refers to port.o(i.vPortEnterCritical) for vPortEnterCritical
    queue.o(i.uxQueueSpacesAvailable) refers to port.o(i.vPortExitCritical) for vPortExitCritical
    queue.o(i.vQueueAddToRegistry) refers to queue.o(.bss) for .bss
    queue.o(i.vQueueDelete) refers to queue.o(i.vQueueUnregisterQueue) for vQueueUnregisterQueue
    queue.o(i.vQueueDelete) refers to heap_2.o(i.vPortFree) for vPortFree
    queue.o(i.vQueueUnregisterQueue) refers to queue.o(.bss) for .bss
    queue.o(i.xQueueCreateCountingSemaphore) refers to queue.o(i.xQueueGenericCreate) for xQueueGenericCreate
    queue.o(i.xQueueCreateMutex) refers to heap_2.o(i.pvPortMalloc) for pvPortMalloc
    queue.o(i.xQueueCreateMutex) refers to list.o(i.vListInitialise) for vListInitialise
    queue.o(i.xQueueCreateMutex) refers to queue.o(i.xQueueGenericSend) for xQueueGenericSend
    queue.o(i.xQueueGenericCreate) refers to heap_2.o(i.pvPortMalloc) for pvPortMalloc
    queue.o(i.xQueueGenericCreate) refers to queue.o(i.xQueueGenericReset) for xQueueGenericReset
    queue.o(i.xQueueGenericReceive) refers to port.o(i.vPortEnterCritical) for vPortEnterCritical
    queue.o(i.xQueueGenericReceive) refers to queue.o(i.prvCopyDataFromQueue) for prvCopyDataFromQueue
    queue.o(i.xQueueGenericReceive) refers to tasks.o(i.xTaskRemoveFromEventList) for xTaskRemoveFromEventList
    queue.o(i.xQueueGenericReceive) refers to port.o(i.vPortExitCritical) for vPortExitCritical
    queue.o(i.xQueueGenericReceive) refers to tasks.o(i.pvTaskIncrementMutexHeldCount) for pvTaskIncrementMutexHeldCount
    queue.o(i.xQueueGenericReceive) refers to tasks.o(i.vTaskSetTimeOutState) for vTaskSetTimeOutState
    queue.o(i.xQueueGenericReceive) refers to tasks.o(i.vTaskSuspendAll) for vTaskSuspendAll
    queue.o(i.xQueueGenericReceive) refers to tasks.o(i.xTaskCheckForTimeOut) for xTaskCheckForTimeOut
    queue.o(i.xQueueGenericReceive) refers to queue.o(i.prvUnlockQueue) for prvUnlockQueue
    queue.o(i.xQueueGenericReceive) refers to tasks.o(i.xTaskResumeAll) for xTaskResumeAll
    queue.o(i.xQueueGenericReceive) refers to tasks.o(i.vTaskPriorityInherit) for vTaskPriorityInherit
    queue.o(i.xQueueGenericReceive) refers to tasks.o(i.vTaskPlaceOnEventList) for vTaskPlaceOnEventList
    queue.o(i.xQueueGenericReset) refers to port.o(i.vPortEnterCritical) for vPortEnterCritical
    queue.o(i.xQueueGenericReset) refers to list.o(i.vListInitialise) for vListInitialise
    queue.o(i.xQueueGenericReset) refers to port.o(i.vPortExitCritical) for vPortExitCritical
    queue.o(i.xQueueGenericReset) refers to tasks.o(i.xTaskRemoveFromEventList) for xTaskRemoveFromEventList
    queue.o(i.xQueueGenericSend) refers to port.o(i.vPortEnterCritical) for vPortEnterCritical
    queue.o(i.xQueueGenericSend) refers to queue.o(i.prvCopyDataToQueue) for prvCopyDataToQueue
    queue.o(i.xQueueGenericSend) refers to tasks.o(i.xTaskRemoveFromEventList) for xTaskRemoveFromEventList
    queue.o(i.xQueueGenericSend) refers to port.o(i.vPortExitCritical) for vPortExitCritical
    queue.o(i.xQueueGenericSend) refers to tasks.o(i.vTaskSetTimeOutState) for vTaskSetTimeOutState
    queue.o(i.xQueueGenericSend) refers to tasks.o(i.vTaskSuspendAll) for vTaskSuspendAll
    queue.o(i.xQueueGenericSend) refers to tasks.o(i.xTaskCheckForTimeOut) for xTaskCheckForTimeOut
    queue.o(i.xQueueGenericSend) refers to queue.o(i.prvUnlockQueue) for prvUnlockQueue
    queue.o(i.xQueueGenericSend) refers to tasks.o(i.xTaskResumeAll) for xTaskResumeAll
    queue.o(i.xQueueGenericSend) refers to tasks.o(i.vTaskPlaceOnEventList) for vTaskPlaceOnEventList
    queue.o(i.xQueueGenericSendFromISR) refers to port.o(i.vPortValidateInterruptPriority) for vPortValidateInterruptPriority
    queue.o(i.xQueueGenericSendFromISR) refers to queue.o(i.prvCopyDataToQueue) for prvCopyDataToQueue
    queue.o(i.xQueueGenericSendFromISR) refers to tasks.o(i.xTaskRemoveFromEventList) for xTaskRemoveFromEventList
    queue.o(i.xQueueGiveFromISR) refers to port.o(i.vPortValidateInterruptPriority) for vPortValidateInterruptPriority
    queue.o(i.xQueueGiveFromISR) refers to tasks.o(i.xTaskRemoveFromEventList) for xTaskRemoveFromEventList
    queue.o(i.xQueueGiveMutexRecursive) refers to tasks.o(i.xTaskGetCurrentTaskHandle) for xTaskGetCurrentTaskHandle
    queue.o(i.xQueueGiveMutexRecursive) refers to queue.o(i.xQueueGenericSend) for xQueueGenericSend
    queue.o(i.xQueuePeekFromISR) refers to port.o(i.vPortValidateInterruptPriority) for vPortValidateInterruptPriority
    queue.o(i.xQueuePeekFromISR) refers to queue.o(i.prvCopyDataFromQueue) for prvCopyDataFromQueue
    queue.o(i.xQueueReceiveFromISR) refers to port.o(i.vPortValidateInterruptPriority) for vPortValidateInterruptPriority
    queue.o(i.xQueueReceiveFromISR) refers to queue.o(i.prvCopyDataFromQueue) for prvCopyDataFromQueue
    queue.o(i.xQueueReceiveFromISR) refers to tasks.o(i.xTaskRemoveFromEventList) for xTaskRemoveFromEventList
    queue.o(i.xQueueTakeMutexRecursive) refers to tasks.o(i.xTaskGetCurrentTaskHandle) for xTaskGetCurrentTaskHandle
    queue.o(i.xQueueTakeMutexRecursive) refers to queue.o(i.xQueueGenericReceive) for xQueueGenericReceive
    tasks.o(i.prvAddCurrentTaskToDelayedList) refers to list.o(i.vListInsert) for vListInsert
    tasks.o(i.prvAddCurrentTaskToDelayedList) refers to tasks.o(.data) for .data
    tasks.o(i.prvCheckTasksWaitingTermination) refers to tasks.o(i.vTaskSuspendAll) for vTaskSuspendAll
    tasks.o(i.prvCheckTasksWaitingTermination) refers to tasks.o(i.xTaskResumeAll) for xTaskResumeAll
    tasks.o(i.prvCheckTasksWaitingTermination) refers to port.o(i.vPortEnterCritical) for vPortEnterCritical
    tasks.o(i.prvCheckTasksWaitingTermination) refers to list.o(i.uxListRemove) for uxListRemove
    tasks.o(i.prvCheckTasksWaitingTermination) refers to port.o(i.vPortExitCritical) for vPortExitCritical
    tasks.o(i.prvCheckTasksWaitingTermination) refers to heap_2.o(i.vPortFree) for vPortFree
    tasks.o(i.prvCheckTasksWaitingTermination) refers to tasks.o(.data) for .data
    tasks.o(i.prvCheckTasksWaitingTermination) refers to tasks.o(.bss) for .bss
    tasks.o(i.prvIdleTask) refers to tasks.o(i.prvCheckTasksWaitingTermination) for prvCheckTasksWaitingTermination
    tasks.o(i.prvIdleTask) refers to tasks.o(.bss) for .bss
    tasks.o(i.prvResetNextTaskUnblockTime) refers to tasks.o(.data) for .data
    tasks.o(i.prvTaskIsTaskSuspended) refers to tasks.o(.bss) for .bss
    tasks.o(i.pvTaskIncrementMutexHeldCount) refers to tasks.o(.data) for .data
    tasks.o(i.ulTaskNotifyTake) refers to port.o(i.vPortEnterCritical) for vPortEnterCritical
    tasks.o(i.ulTaskNotifyTake) refers to list.o(i.uxListRemove) for uxListRemove
    tasks.o(i.ulTaskNotifyTake) refers to tasks.o(i.prvAddCurrentTaskToDelayedList) for prvAddCurrentTaskToDelayedList
    tasks.o(i.ulTaskNotifyTake) refers to port.o(i.vPortExitCritical) for vPortExitCritical
    tasks.o(i.ulTaskNotifyTake) refers to list.o(i.vListInsertEnd) for vListInsertEnd
    tasks.o(i.ulTaskNotifyTake) refers to tasks.o(.data) for .data
    tasks.o(i.ulTaskNotifyTake) refers to tasks.o(.bss) for .bss
    tasks.o(i.uxTaskGetNumberOfTasks) refers to tasks.o(.data) for .data
    tasks.o(i.uxTaskGetSystemState) refers to tasks.o(i.vTaskSuspendAll) for vTaskSuspendAll
    tasks.o(i.uxTaskGetSystemState) refers to tasks.o(i.prvListTaskWithinSingleList) for prvListTaskWithinSingleList
    tasks.o(i.uxTaskGetSystemState) refers to tasks.o(i.xTaskResumeAll) for xTaskResumeAll
    tasks.o(i.uxTaskGetSystemState) refers to tasks.o(.data) for .data
    tasks.o(i.uxTaskGetSystemState) refers to tasks.o(.bss) for .bss
    tasks.o(i.uxTaskPriorityGet) refers to port.o(i.vPortEnterCritical) for vPortEnterCritical
    tasks.o(i.uxTaskPriorityGet) refers to port.o(i.vPortExitCritical) for vPortExitCritical
    tasks.o(i.uxTaskPriorityGet) refers to tasks.o(.data) for .data
    tasks.o(i.uxTaskPriorityGetFromISR) refers to port.o(i.vPortValidateInterruptPriority) for vPortValidateInterruptPriority
    tasks.o(i.uxTaskPriorityGetFromISR) refers to tasks.o(.data) for .data
    tasks.o(i.uxTaskResetEventItemValue) refers to tasks.o(.data) for .data
    tasks.o(i.vTaskDelay) refers to tasks.o(i.vTaskSuspendAll) for vTaskSuspendAll
    tasks.o(i.vTaskDelay) refers to list.o(i.uxListRemove) for uxListRemove
    tasks.o(i.vTaskDelay) refers to tasks.o(i.prvAddCurrentTaskToDelayedList) for prvAddCurrentTaskToDelayedList
    tasks.o(i.vTaskDelay) refers to tasks.o(i.xTaskResumeAll) for xTaskResumeAll
    tasks.o(i.vTaskDelay) refers to tasks.o(.data) for .data
    tasks.o(i.vTaskDelayUntil) refers to tasks.o(i.vTaskSuspendAll) for vTaskSuspendAll
    tasks.o(i.vTaskDelayUntil) refers to list.o(i.uxListRemove) for uxListRemove
    tasks.o(i.vTaskDelayUntil) refers to tasks.o(i.prvAddCurrentTaskToDelayedList) for prvAddCurrentTaskToDelayedList
    tasks.o(i.vTaskDelayUntil) refers to tasks.o(i.xTaskResumeAll) for xTaskResumeAll
    tasks.o(i.vTaskDelayUntil) refers to tasks.o(.data) for .data
    tasks.o(i.vTaskDelete) refers to port.o(i.vPortEnterCritical) for vPortEnterCritical
    tasks.o(i.vTaskDelete) refers to list.o(i.uxListRemove) for uxListRemove
    tasks.o(i.vTaskDelete) refers to list.o(i.vListInsertEnd) for vListInsertEnd
    tasks.o(i.vTaskDelete) refers to port.o(i.vPortExitCritical) for vPortExitCritical
    tasks.o(i.vTaskDelete) refers to tasks.o(i.prvResetNextTaskUnblockTime) for prvResetNextTaskUnblockTime
    tasks.o(i.vTaskDelete) refers to tasks.o(.data) for .data
    tasks.o(i.vTaskDelete) refers to tasks.o(.bss) for .bss
    tasks.o(i.vTaskEndScheduler) refers to port.o(i.vPortEndScheduler) for vPortEndScheduler
    tasks.o(i.vTaskEndScheduler) refers to tasks.o(.data) for .data
    tasks.o(i.vTaskMissedYield) refers to tasks.o(.data) for .data
    tasks.o(i.vTaskNotifyGiveFromISR) refers to port.o(i.vPortValidateInterruptPriority) for vPortValidateInterruptPriority
    tasks.o(i.vTaskNotifyGiveFromISR) refers to list.o(i.vListInsertEnd) for vListInsertEnd
    tasks.o(i.vTaskNotifyGiveFromISR) refers to list.o(i.uxListRemove) for uxListRemove
    tasks.o(i.vTaskNotifyGiveFromISR) refers to tasks.o(.data) for .data
    tasks.o(i.vTaskNotifyGiveFromISR) refers to tasks.o(.bss) for .bss
    tasks.o(i.vTaskPlaceOnEventList) refers to list.o(i.vListInsert) for vListInsert
    tasks.o(i.vTaskPlaceOnEventList) refers to list.o(i.uxListRemove) for uxListRemove
    tasks.o(i.vTaskPlaceOnEventList) refers to tasks.o(i.prvAddCurrentTaskToDelayedList) for prvAddCurrentTaskToDelayedList
    tasks.o(i.vTaskPlaceOnEventList) refers to list.o(i.vListInsertEnd) for vListInsertEnd
    tasks.o(i.vTaskPlaceOnEventList) refers to tasks.o(.data) for .data
    tasks.o(i.vTaskPlaceOnEventList) refers to tasks.o(.bss) for .bss
    tasks.o(i.vTaskPlaceOnUnorderedEventList) refers to list.o(i.vListInsertEnd) for vListInsertEnd
    tasks.o(i.vTaskPlaceOnUnorderedEventList) refers to list.o(i.uxListRemove) for uxListRemove
    tasks.o(i.vTaskPlaceOnUnorderedEventList) refers to tasks.o(i.prvAddCurrentTaskToDelayedList) for prvAddCurrentTaskToDelayedList
    tasks.o(i.vTaskPlaceOnUnorderedEventList) refers to tasks.o(.data) for .data
    tasks.o(i.vTaskPlaceOnUnorderedEventList) refers to tasks.o(.bss) for .bss
    tasks.o(i.vTaskPriorityInherit) refers to list.o(i.uxListRemove) for uxListRemove
    tasks.o(i.vTaskPriorityInherit) refers to list.o(i.vListInsertEnd) for vListInsertEnd
    tasks.o(i.vTaskPriorityInherit) refers to tasks.o(.data) for .data
    tasks.o(i.vTaskPriorityInherit) refers to tasks.o(.bss) for .bss
    tasks.o(i.vTaskPrioritySet) refers to port.o(i.vPortEnterCritical) for vPortEnterCritical
    tasks.o(i.vTaskPrioritySet) refers to list.o(i.uxListRemove) for uxListRemove
    tasks.o(i.vTaskPrioritySet) refers to list.o(i.vListInsertEnd) for vListInsertEnd
    tasks.o(i.vTaskPrioritySet) refers to port.o(i.vPortExitCritical) for vPortExitCritical
    tasks.o(i.vTaskPrioritySet) refers to tasks.o(.data) for .data
    tasks.o(i.vTaskPrioritySet) refers to tasks.o(.bss) for .bss
    tasks.o(i.vTaskResume) refers to port.o(i.vPortEnterCritical) for vPortEnterCritical
    tasks.o(i.vTaskResume) refers to tasks.o(i.prvTaskIsTaskSuspended) for prvTaskIsTaskSuspended
    tasks.o(i.vTaskResume) refers to list.o(i.uxListRemove) for uxListRemove
    tasks.o(i.vTaskResume) refers to list.o(i.vListInsertEnd) for vListInsertEnd
    tasks.o(i.vTaskResume) refers to port.o(i.vPortExitCritical) for vPortExitCritical
    tasks.o(i.vTaskResume) refers to tasks.o(.data) for .data
    tasks.o(i.vTaskResume) refers to tasks.o(.bss) for .bss
    tasks.o(i.vTaskSetApplicationTaskTag) refers to port.o(i.vPortEnterCritical) for vPortEnterCritical
    tasks.o(i.vTaskSetApplicationTaskTag) refers to port.o(i.vPortExitCritical) for vPortExitCritical
    tasks.o(i.vTaskSetApplicationTaskTag) refers to tasks.o(.data) for .data
    tasks.o(i.vTaskSetTimeOutState) refers to tasks.o(.data) for .data
    tasks.o(i.vTaskStartScheduler) refers to tasks.o(i.xTaskGenericCreate) for xTaskGenericCreate
    tasks.o(i.vTaskStartScheduler) refers to port.o(i.xPortStartScheduler) for xPortStartScheduler
    tasks.o(i.vTaskStartScheduler) refers to tasks.o(i.prvIdleTask) for prvIdleTask
    tasks.o(i.vTaskStartScheduler) refers to tasks.o(.data) for .data
    tasks.o(i.vTaskSuspend) refers to port.o(i.vPortEnterCritical) for vPortEnterCritical
    tasks.o(i.vTaskSuspend) refers to list.o(i.uxListRemove) for uxListRemove
    tasks.o(i.vTaskSuspend) refers to list.o(i.vListInsertEnd) for vListInsertEnd
    tasks.o(i.vTaskSuspend) refers to port.o(i.vPortExitCritical) for vPortExitCritical
    tasks.o(i.vTaskSuspend) refers to tasks.o(i.vTaskSwitchContext) for vTaskSwitchContext
    tasks.o(i.vTaskSuspend) refers to tasks.o(i.prvResetNextTaskUnblockTime) for prvResetNextTaskUnblockTime
    tasks.o(i.vTaskSuspend) refers to tasks.o(.data) for .data
    tasks.o(i.vTaskSuspend) refers to tasks.o(.bss) for .bss
    tasks.o(i.vTaskSuspendAll) refers to tasks.o(.data) for .data
    tasks.o(i.vTaskSwitchContext) refers to oswrappers.o(i.vApplicationStackOverflowHook) for vApplicationStackOverflowHook
    tasks.o(i.vTaskSwitchContext) refers to memcmp.o(.text) for memcmp
    tasks.o(i.vTaskSwitchContext) refers to tasks.o(.data) for .data
    tasks.o(i.vTaskSwitchContext) refers to tasks.o(.constdata) for .constdata
    tasks.o(i.vTaskSwitchContext) refers to tasks.o(.bss) for .bss
    tasks.o(i.xTaskCallApplicationTaskHook) refers to tasks.o(.data) for .data
    tasks.o(i.xTaskCheckForTimeOut) refers to port.o(i.vPortEnterCritical) for vPortEnterCritical
    tasks.o(i.xTaskCheckForTimeOut) refers to tasks.o(i.vTaskSetTimeOutState) for vTaskSetTimeOutState
    tasks.o(i.xTaskCheckForTimeOut) refers to port.o(i.vPortExitCritical) for vPortExitCritical
    tasks.o(i.xTaskCheckForTimeOut) refers to tasks.o(.data) for .data
    tasks.o(i.xTaskGenericCreate) refers to heap_2.o(i.pvPortMalloc) for pvPortMalloc
    tasks.o(i.xTaskGenericCreate) refers to memseta.o(.text) for __aeabi_memset
    tasks.o(i.xTaskGenericCreate) refers to heap_2.o(i.vPortFree) for vPortFree
    tasks.o(i.xTaskGenericCreate) refers to list.o(i.vListInitialiseItem) for vListInitialiseItem
    tasks.o(i.xTaskGenericCreate) refers to port.o(i.pxPortInitialiseStack) for pxPortInitialiseStack
    tasks.o(i.xTaskGenericCreate) refers to port.o(i.vPortEnterCritical) for vPortEnterCritical
    tasks.o(i.xTaskGenericCreate) refers to list.o(i.vListInitialise) for vListInitialise
    tasks.o(i.xTaskGenericCreate) refers to list.o(i.vListInsertEnd) for vListInsertEnd
    tasks.o(i.xTaskGenericCreate) refers to port.o(i.vPortExitCritical) for vPortExitCritical
    tasks.o(i.xTaskGenericCreate) refers to tasks.o(.data) for .data
    tasks.o(i.xTaskGenericCreate) refers to tasks.o(.bss) for .bss
    tasks.o(i.xTaskGetApplicationTaskTag) refers to port.o(i.vPortEnterCritical) for vPortEnterCritical
    tasks.o(i.xTaskGetApplicationTaskTag) refers to port.o(i.vPortExitCritical) for vPortExitCritical
    tasks.o(i.xTaskGetApplicationTaskTag) refers to tasks.o(.data) for .data
    tasks.o(i.xTaskGetCurrentTaskHandle) refers to tasks.o(.data) for .data
    tasks.o(i.xTaskGetTickCount) refers to tasks.o(.data) for .data
    tasks.o(i.xTaskGetTickCountFromISR) refers to port.o(i.vPortValidateInterruptPriority) for vPortValidateInterruptPriority
    tasks.o(i.xTaskGetTickCountFromISR) refers to tasks.o(.data) for .data
    tasks.o(i.xTaskIncrementTick) refers to tasks.o(i.prvResetNextTaskUnblockTime) for prvResetNextTaskUnblockTime
    tasks.o(i.xTaskIncrementTick) refers to list.o(i.uxListRemove) for uxListRemove
    tasks.o(i.xTaskIncrementTick) refers to list.o(i.vListInsertEnd) for vListInsertEnd
    tasks.o(i.xTaskIncrementTick) refers to tasks.o(.data) for .data
    tasks.o(i.xTaskIncrementTick) refers to tasks.o(.bss) for .bss
    tasks.o(i.xTaskNotify) refers to port.o(i.vPortEnterCritical) for vPortEnterCritical
    tasks.o(i.xTaskNotify) refers to list.o(i.uxListRemove) for uxListRemove
    tasks.o(i.xTaskNotify) refers to list.o(i.vListInsertEnd) for vListInsertEnd
    tasks.o(i.xTaskNotify) refers to port.o(i.vPortExitCritical) for vPortExitCritical
    tasks.o(i.xTaskNotify) refers to tasks.o(.data) for .data
    tasks.o(i.xTaskNotify) refers to tasks.o(.bss) for .bss
    tasks.o(i.xTaskNotifyFromISR) refers to port.o(i.vPortValidateInterruptPriority) for vPortValidateInterruptPriority
    tasks.o(i.xTaskNotifyFromISR) refers to list.o(i.vListInsertEnd) for vListInsertEnd
    tasks.o(i.xTaskNotifyFromISR) refers to list.o(i.uxListRemove) for uxListRemove
    tasks.o(i.xTaskNotifyFromISR) refers to tasks.o(.data) for .data
    tasks.o(i.xTaskNotifyFromISR) refers to tasks.o(.bss) for .bss
    tasks.o(i.xTaskNotifyWait) refers to port.o(i.vPortEnterCritical) for vPortEnterCritical
    tasks.o(i.xTaskNotifyWait) refers to list.o(i.uxListRemove) for uxListRemove
    tasks.o(i.xTaskNotifyWait) refers to tasks.o(i.prvAddCurrentTaskToDelayedList) for prvAddCurrentTaskToDelayedList
    tasks.o(i.xTaskNotifyWait) refers to port.o(i.vPortExitCritical) for vPortExitCritical
    tasks.o(i.xTaskNotifyWait) refers to list.o(i.vListInsertEnd) for vListInsertEnd
    tasks.o(i.xTaskNotifyWait) refers to tasks.o(.data) for .data
    tasks.o(i.xTaskNotifyWait) refers to tasks.o(.bss) for .bss
    tasks.o(i.xTaskPriorityDisinherit) refers to list.o(i.uxListRemove) for uxListRemove
    tasks.o(i.xTaskPriorityDisinherit) refers to list.o(i.vListInsertEnd) for vListInsertEnd
    tasks.o(i.xTaskPriorityDisinherit) refers to tasks.o(.bss) for .bss
    tasks.o(i.xTaskPriorityDisinherit) refers to tasks.o(.data) for .data
    tasks.o(i.xTaskRemoveFromEventList) refers to list.o(i.uxListRemove) for uxListRemove
    tasks.o(i.xTaskRemoveFromEventList) refers to list.o(i.vListInsertEnd) for vListInsertEnd
    tasks.o(i.xTaskRemoveFromEventList) refers to tasks.o(.data) for .data
    tasks.o(i.xTaskRemoveFromEventList) refers to tasks.o(.bss) for .bss
    tasks.o(i.xTaskRemoveFromUnorderedEventList) refers to list.o(i.uxListRemove) for uxListRemove
    tasks.o(i.xTaskRemoveFromUnorderedEventList) refers to list.o(i.vListInsertEnd) for vListInsertEnd
    tasks.o(i.xTaskRemoveFromUnorderedEventList) refers to tasks.o(.data) for .data
    tasks.o(i.xTaskRemoveFromUnorderedEventList) refers to tasks.o(.bss) for .bss
    tasks.o(i.xTaskResumeAll) refers to port.o(i.vPortEnterCritical) for vPortEnterCritical
    tasks.o(i.xTaskResumeAll) refers to list.o(i.uxListRemove) for uxListRemove
    tasks.o(i.xTaskResumeAll) refers to list.o(i.vListInsertEnd) for vListInsertEnd
    tasks.o(i.xTaskResumeAll) refers to tasks.o(i.xTaskIncrementTick) for xTaskIncrementTick
    tasks.o(i.xTaskResumeAll) refers to port.o(i.vPortExitCritical) for vPortExitCritical
    tasks.o(i.xTaskResumeAll) refers to tasks.o(.data) for .data
    tasks.o(i.xTaskResumeAll) refers to tasks.o(.bss) for .bss
    tasks.o(i.xTaskResumeFromISR) refers to port.o(i.vPortValidateInterruptPriority) for vPortValidateInterruptPriority
    tasks.o(i.xTaskResumeFromISR) refers to tasks.o(i.prvTaskIsTaskSuspended) for prvTaskIsTaskSuspended
    tasks.o(i.xTaskResumeFromISR) refers to list.o(i.uxListRemove) for uxListRemove
    tasks.o(i.xTaskResumeFromISR) refers to list.o(i.vListInsertEnd) for vListInsertEnd
    tasks.o(i.xTaskResumeFromISR) refers to tasks.o(.data) for .data
    tasks.o(i.xTaskResumeFromISR) refers to tasks.o(.bss) for .bss
    port.o(.emb_text) refers to tasks.o(i.vTaskSwitchContext) for vTaskSwitchContext
    port.o(.emb_text) refers to tasks.o(.data) for pxCurrentTCB
    port.o(i.OS_SysTick) refers to tasks.o(i.xTaskIncrementTick) for xTaskIncrementTick
    port.o(i.prvTaskExitError) refers to port.o(.data) for .data
    port.o(i.pxPortInitialiseStack) refers to port.o(i.prvTaskExitError) for prvTaskExitError
    port.o(i.vPortEndScheduler) refers to port.o(.data) for .data
    port.o(i.vPortEnterCritical) refers to port.o(.data) for .data
    port.o(i.vPortExitCritical) refers to port.o(.data) for .data
    port.o(i.vPortSetupTimerInterrupt) refers to system_stm32f7xx.o(.data) for SystemCoreClock
    port.o(i.vPortValidateInterruptPriority) refers to port.o(.emb_text) for vPortGetIPSR
    port.o(i.vPortValidateInterruptPriority) refers to port.o(.data) for .data
    port.o(i.xPortStartScheduler) refers to port.o(i.vPortSetupTimerInterrupt) for vPortSetupTimerInterrupt
    port.o(i.xPortStartScheduler) refers to port.o(.emb_text) for __asm___6_port_c_39a90d8d__prvEnableVFP
    port.o(i.xPortStartScheduler) refers to port.o(.data) for .data
    heap_2.o(i.pvPortMalloc) refers to tasks.o(i.vTaskSuspendAll) for vTaskSuspendAll
    heap_2.o(i.pvPortMalloc) refers to tasks.o(i.xTaskResumeAll) for xTaskResumeAll
    heap_2.o(i.pvPortMalloc) refers to oswrappers.o(i.vApplicationMallocFailedHook) for vApplicationMallocFailedHook
    heap_2.o(i.pvPortMalloc) refers to heap_2.o(.data) for .data
    heap_2.o(i.pvPortMalloc) refers to heap_2.o(.bss) for .bss
    heap_2.o(i.vPortFree) refers to tasks.o(i.vTaskSuspendAll) for vTaskSuspendAll
    heap_2.o(i.vPortFree) refers to tasks.o(i.xTaskResumeAll) for xTaskResumeAll
    heap_2.o(i.vPortFree) refers to heap_2.o(.data) for .data
    heap_2.o(i.xPortGetFreeHeapSize) refers to heap_2.o(.data) for .data
    stm32746g_discovery.o(i.AUDIO_IO_Delay) refers to stm32f7xx_hal.o(i.HAL_Delay) for HAL_Delay
    stm32746g_discovery.o(i.AUDIO_IO_Init) refers to stm32746g_discovery.o(i.I2Cx_Init) for I2Cx_Init
    stm32746g_discovery.o(i.AUDIO_IO_Init) refers to stm32746g_discovery.o(.bss) for .bss
    stm32746g_discovery.o(i.AUDIO_IO_Read) refers to stm32746g_discovery.o(i.I2Cx_ReadMultiple) for I2Cx_ReadMultiple
    stm32746g_discovery.o(i.AUDIO_IO_Read) refers to stm32746g_discovery.o(.bss) for .bss
    stm32746g_discovery.o(i.AUDIO_IO_Write) refers to stm32746g_discovery.o(i.I2Cx_WriteMultiple) for I2Cx_WriteMultiple
    stm32746g_discovery.o(i.AUDIO_IO_Write) refers to stm32746g_discovery.o(.bss) for .bss
    stm32746g_discovery.o(i.BSP_COM_DeInit) refers to stm32f7xx_hal_uart.o(i.HAL_UART_DeInit) for HAL_UART_DeInit
    stm32746g_discovery.o(i.BSP_COM_DeInit) refers to stm32746g_discovery.o(.data) for .data
    stm32746g_discovery.o(i.BSP_COM_Init) refers to stm32f7xx_hal_gpio.o(i.HAL_GPIO_Init) for HAL_GPIO_Init
    stm32746g_discovery.o(i.BSP_COM_Init) refers to stm32f7xx_hal_uart.o(i.HAL_UART_Init) for HAL_UART_Init
    stm32746g_discovery.o(i.BSP_COM_Init) refers to stm32746g_discovery.o(.constdata) for .constdata
    stm32746g_discovery.o(i.BSP_COM_Init) refers to stm32746g_discovery.o(.data) for .data
    stm32746g_discovery.o(i.BSP_LED_DeInit) refers to stm32f7xx_hal_gpio.o(i.HAL_GPIO_WritePin) for HAL_GPIO_WritePin
    stm32746g_discovery.o(i.BSP_LED_DeInit) refers to stm32f7xx_hal_gpio.o(i.HAL_GPIO_DeInit) for HAL_GPIO_DeInit
    stm32746g_discovery.o(i.BSP_LED_DeInit) refers to stm32746g_discovery.o(.constdata) for .constdata
    stm32746g_discovery.o(i.BSP_LED_Init) refers to stm32f7xx_hal_gpio.o(i.HAL_GPIO_Init) for HAL_GPIO_Init
    stm32746g_discovery.o(i.BSP_LED_Init) refers to stm32f7xx_hal_gpio.o(i.HAL_GPIO_WritePin) for HAL_GPIO_WritePin
    stm32746g_discovery.o(i.BSP_LED_Init) refers to stm32746g_discovery.o(.constdata) for .constdata
    stm32746g_discovery.o(i.BSP_LED_Off) refers to stm32f7xx_hal_gpio.o(i.HAL_GPIO_WritePin) for HAL_GPIO_WritePin
    stm32746g_discovery.o(i.BSP_LED_Off) refers to stm32746g_discovery.o(.constdata) for .constdata
    stm32746g_discovery.o(i.BSP_LED_On) refers to stm32f7xx_hal_gpio.o(i.HAL_GPIO_WritePin) for HAL_GPIO_WritePin
    stm32746g_discovery.o(i.BSP_LED_On) refers to stm32746g_discovery.o(.constdata) for .constdata
    stm32746g_discovery.o(i.BSP_LED_Toggle) refers to stm32f7xx_hal_gpio.o(i.HAL_GPIO_TogglePin) for HAL_GPIO_TogglePin
    stm32746g_discovery.o(i.BSP_LED_Toggle) refers to stm32746g_discovery.o(.constdata) for .constdata
    stm32746g_discovery.o(i.BSP_PB_DeInit) refers to stm32f7xx_hal_cortex.o(i.HAL_NVIC_DisableIRQ) for HAL_NVIC_DisableIRQ
    stm32746g_discovery.o(i.BSP_PB_DeInit) refers to stm32f7xx_hal_gpio.o(i.HAL_GPIO_DeInit) for HAL_GPIO_DeInit
    stm32746g_discovery.o(i.BSP_PB_DeInit) refers to stm32746g_discovery.o(.constdata) for .constdata
    stm32746g_discovery.o(i.BSP_PB_DeInit) refers to stm32746g_discovery.o(.data) for .data
    stm32746g_discovery.o(i.BSP_PB_GetState) refers to stm32f7xx_hal_gpio.o(i.HAL_GPIO_ReadPin) for HAL_GPIO_ReadPin
    stm32746g_discovery.o(i.BSP_PB_GetState) refers to stm32746g_discovery.o(.constdata) for .constdata
    stm32746g_discovery.o(i.BSP_PB_GetState) refers to stm32746g_discovery.o(.data) for .data
    stm32746g_discovery.o(i.BSP_PB_Init) refers to stm32f7xx_hal_gpio.o(i.HAL_GPIO_Init) for HAL_GPIO_Init
    stm32746g_discovery.o(i.BSP_PB_Init) refers to stm32f7xx_hal_cortex.o(i.HAL_NVIC_SetPriority) for HAL_NVIC_SetPriority
    stm32746g_discovery.o(i.BSP_PB_Init) refers to stm32f7xx_hal_cortex.o(i.HAL_NVIC_EnableIRQ) for HAL_NVIC_EnableIRQ
    stm32746g_discovery.o(i.BSP_PB_Init) refers to stm32746g_discovery.o(.constdata) for .constdata
    stm32746g_discovery.o(i.BSP_PB_Init) refers to stm32746g_discovery.o(.data) for .data
    stm32746g_discovery.o(i.CAMERA_Delay) refers to stm32f7xx_hal.o(i.HAL_Delay) for HAL_Delay
    stm32746g_discovery.o(i.CAMERA_IO_Init) refers to stm32746g_discovery.o(i.I2Cx_Init) for I2Cx_Init
    stm32746g_discovery.o(i.CAMERA_IO_Init) refers to stm32746g_discovery.o(.bss) for .bss
    stm32746g_discovery.o(i.CAMERA_IO_Read) refers to stm32746g_discovery.o(i.I2Cx_ReadMultiple) for I2Cx_ReadMultiple
    stm32746g_discovery.o(i.CAMERA_IO_Read) refers to stm32746g_discovery.o(.bss) for .bss
    stm32746g_discovery.o(i.CAMERA_IO_Write) refers to stm32746g_discovery.o(i.I2Cx_WriteMultiple) for I2Cx_WriteMultiple
    stm32746g_discovery.o(i.CAMERA_IO_Write) refers to stm32746g_discovery.o(.bss) for .bss
    stm32746g_discovery.o(i.EEPROM_IO_Init) refers to stm32746g_discovery.o(i.I2Cx_Init) for I2Cx_Init
    stm32746g_discovery.o(i.EEPROM_IO_Init) refers to stm32746g_discovery.o(.bss) for .bss
    stm32746g_discovery.o(i.EEPROM_IO_IsDeviceReady) refers to stm32f7xx_hal_i2c.o(i.HAL_I2C_IsDeviceReady) for HAL_I2C_IsDeviceReady
    stm32746g_discovery.o(i.EEPROM_IO_IsDeviceReady) refers to stm32746g_discovery.o(.bss) for .bss
    stm32746g_discovery.o(i.EEPROM_IO_ReadData) refers to stm32746g_discovery.o(i.I2Cx_ReadMultiple) for I2Cx_ReadMultiple
    stm32746g_discovery.o(i.EEPROM_IO_ReadData) refers to stm32746g_discovery.o(.bss) for .bss
    stm32746g_discovery.o(i.EEPROM_IO_WriteData) refers to stm32746g_discovery.o(i.I2Cx_WriteMultiple) for I2Cx_WriteMultiple
    stm32746g_discovery.o(i.EEPROM_IO_WriteData) refers to stm32746g_discovery.o(.bss) for .bss
    stm32746g_discovery.o(i.I2Cx_Error) refers to stm32f7xx_hal_i2c.o(i.HAL_I2C_DeInit) for HAL_I2C_DeInit
    stm32746g_discovery.o(i.I2Cx_Error) refers to stm32746g_discovery.o(i.I2Cx_Init) for I2Cx_Init
    stm32746g_discovery.o(i.I2Cx_Init) refers to stm32f7xx_hal_i2c.o(i.HAL_I2C_GetState) for HAL_I2C_GetState
    stm32746g_discovery.o(i.I2Cx_Init) refers to stm32746g_discovery.o(i.I2Cx_MspInit) for I2Cx_MspInit
    stm32746g_discovery.o(i.I2Cx_Init) refers to stm32f7xx_hal_i2c.o(i.HAL_I2C_Init) for HAL_I2C_Init
    stm32746g_discovery.o(i.I2Cx_Init) refers to stm32746g_discovery.o(.bss) for .bss
    stm32746g_discovery.o(i.I2Cx_MspInit) refers to stm32f7xx_hal_gpio.o(i.HAL_GPIO_Init) for HAL_GPIO_Init
    stm32746g_discovery.o(i.I2Cx_MspInit) refers to stm32f7xx_hal_cortex.o(i.HAL_NVIC_SetPriority) for HAL_NVIC_SetPriority
    stm32746g_discovery.o(i.I2Cx_MspInit) refers to stm32f7xx_hal_cortex.o(i.HAL_NVIC_EnableIRQ) for HAL_NVIC_EnableIRQ
    stm32746g_discovery.o(i.I2Cx_MspInit) refers to stm32746g_discovery.o(.bss) for .bss
    stm32746g_discovery.o(i.I2Cx_ReadMultiple) refers to stm32f7xx_hal_i2c.o(i.HAL_I2C_Mem_Read) for HAL_I2C_Mem_Read
    stm32746g_discovery.o(i.I2Cx_ReadMultiple) refers to stm32746g_discovery.o(i.I2Cx_Error) for I2Cx_Error
    stm32746g_discovery.o(i.I2Cx_WriteMultiple) refers to stm32f7xx_hal_i2c.o(i.HAL_I2C_Mem_Write) for HAL_I2C_Mem_Write
    stm32746g_discovery.o(i.I2Cx_WriteMultiple) refers to stm32746g_discovery.o(i.I2Cx_Error) for I2Cx_Error
    stm32746g_discovery.o(i.TS_IO_Delay) refers to stm32f7xx_hal.o(i.HAL_Delay) for HAL_Delay
    stm32746g_discovery.o(i.TS_IO_Init) refers to stm32746g_discovery.o(i.I2Cx_Init) for I2Cx_Init
    stm32746g_discovery.o(i.TS_IO_Init) refers to stm32746g_discovery.o(.bss) for .bss
    stm32746g_discovery.o(i.TS_IO_Read) refers to stm32746g_discovery.o(i.I2Cx_ReadMultiple) for I2Cx_ReadMultiple
    stm32746g_discovery.o(i.TS_IO_Read) refers to stm32746g_discovery.o(.bss) for .bss
    stm32746g_discovery.o(i.TS_IO_Write) refers to stm32746g_discovery.o(i.I2Cx_WriteMultiple) for I2Cx_WriteMultiple
    stm32746g_discovery.o(i.TS_IO_Write) refers to stm32746g_discovery.o(.bss) for .bss
    stm32746g_discovery_lcd.o(i.BSP_LCD_Clear) refers to stm32746g_discovery_lcd.o(i.BSP_LCD_GetYSize) for BSP_LCD_GetYSize
    stm32746g_discovery_lcd.o(i.BSP_LCD_Clear) refers to stm32746g_discovery_lcd.o(i.BSP_LCD_GetXSize) for BSP_LCD_GetXSize
    stm32746g_discovery_lcd.o(i.BSP_LCD_Clear) refers to stm32746g_discovery_lcd.o(i.LL_FillBuffer) for LL_FillBuffer
    stm32746g_discovery_lcd.o(i.BSP_LCD_Clear) refers to stm32746g_discovery_lcd.o(.data) for .data
    stm32746g_discovery_lcd.o(i.BSP_LCD_Clear) refers to stm32746g_discovery_lcd.o(.bss) for .bss
    stm32746g_discovery_lcd.o(i.BSP_LCD_ClockConfig) refers to stm32f7xx_hal_rcc_ex.o(i.HAL_RCCEx_PeriphCLKConfig) for HAL_RCCEx_PeriphCLKConfig
    stm32746g_discovery_lcd.o(i.BSP_LCD_ClockConfig) refers to stm32746g_discovery_lcd.o(.bss) for .bss
    stm32746g_discovery_lcd.o(i.BSP_LCD_DeInit) refers to stm32f7xx_hal_ltdc.o(i.HAL_LTDC_DeInit) for HAL_LTDC_DeInit
    stm32746g_discovery_lcd.o(i.BSP_LCD_DeInit) refers to stm32746g_discovery_lcd.o(i.BSP_LCD_MspDeInit) for BSP_LCD_MspDeInit
    stm32746g_discovery_lcd.o(i.BSP_LCD_DeInit) refers to stm32746g_discovery_lcd.o(.bss) for .bss
    stm32746g_discovery_lcd.o(i.BSP_LCD_DisplayOff) refers to stm32f7xx_hal_gpio.o(i.HAL_GPIO_WritePin) for HAL_GPIO_WritePin
    stm32746g_discovery_lcd.o(i.BSP_LCD_DisplayOff) refers to stm32746g_discovery_lcd.o(.bss) for .bss
    stm32746g_discovery_lcd.o(i.BSP_LCD_DisplayOn) refers to stm32f7xx_hal_gpio.o(i.HAL_GPIO_WritePin) for HAL_GPIO_WritePin
    stm32746g_discovery_lcd.o(i.BSP_LCD_DisplayOn) refers to stm32746g_discovery_lcd.o(.bss) for .bss
    stm32746g_discovery_lcd.o(i.BSP_LCD_DrawBitmap) refers to stm32746g_discovery_lcd.o(i.BSP_LCD_GetXSize) for BSP_LCD_GetXSize
    stm32746g_discovery_lcd.o(i.BSP_LCD_DrawBitmap) refers to stm32746g_discovery_lcd.o(i.LL_ConvertLineToARGB8888) for LL_ConvertLineToARGB8888
    stm32746g_discovery_lcd.o(i.BSP_LCD_DrawBitmap) refers to stm32746g_discovery_lcd.o(.data) for .data
    stm32746g_discovery_lcd.o(i.BSP_LCD_DrawBitmap) refers to stm32746g_discovery_lcd.o(.bss) for .bss
    stm32746g_discovery_lcd.o(i.BSP_LCD_DrawCircle) refers to stm32746g_discovery_lcd.o(i.BSP_LCD_DrawPixel) for BSP_LCD_DrawPixel
    stm32746g_discovery_lcd.o(i.BSP_LCD_DrawCircle) refers to stm32746g_discovery_lcd.o(.data) for .data
    stm32746g_discovery_lcd.o(i.BSP_LCD_DrawCircle) refers to stm32746g_discovery_lcd.o(.bss) for .bss
    stm32746g_discovery_lcd.o(i.BSP_LCD_DrawEllipse) refers to stm32746g_discovery_lcd.o(i.BSP_LCD_DrawPixel) for BSP_LCD_DrawPixel
    stm32746g_discovery_lcd.o(i.BSP_LCD_DrawEllipse) refers to stm32746g_discovery_lcd.o(.bss) for .bss
    stm32746g_discovery_lcd.o(i.BSP_LCD_DrawEllipse) refers to stm32746g_discovery_lcd.o(.data) for .data
    stm32746g_discovery_lcd.o(i.BSP_LCD_DrawLine) refers to stm32746g_discovery_lcd.o(i.BSP_LCD_DrawPixel) for BSP_LCD_DrawPixel
    stm32746g_discovery_lcd.o(i.BSP_LCD_DrawLine) refers to stm32746g_discovery_lcd.o(.data) for .data
    stm32746g_discovery_lcd.o(i.BSP_LCD_DrawLine) refers to stm32746g_discovery_lcd.o(.bss) for .bss
    stm32746g_discovery_lcd.o(i.BSP_LCD_DrawPixel) refers to stm32746g_discovery_lcd.o(i.BSP_LCD_GetXSize) for BSP_LCD_GetXSize
    stm32746g_discovery_lcd.o(i.BSP_LCD_DrawPixel) refers to stm32746g_discovery_lcd.o(.data) for .data
    stm32746g_discovery_lcd.o(i.BSP_LCD_DrawPixel) refers to stm32746g_discovery_lcd.o(.bss) for .bss
    stm32746g_discovery_lcd.o(i.BSP_LCD_DrawPolygon) refers to stm32746g_discovery_lcd.o(i.BSP_LCD_DrawLine) for BSP_LCD_DrawLine
    stm32746g_discovery_lcd.o(i.BSP_LCD_DrawRect) refers to stm32746g_discovery_lcd.o(i.BSP_LCD_DrawVLine) for BSP_LCD_DrawVLine
    stm32746g_discovery_lcd.o(i.BSP_LCD_DrawVLine) refers to stm32746g_discovery_lcd.o(i.BSP_LCD_GetXSize) for BSP_LCD_GetXSize
    stm32746g_discovery_lcd.o(i.BSP_LCD_DrawVLine) refers to stm32746g_discovery_lcd.o(i.LL_FillBuffer) for LL_FillBuffer
    stm32746g_discovery_lcd.o(i.BSP_LCD_DrawVLine) refers to stm32746g_discovery_lcd.o(.data) for .data
    stm32746g_discovery_lcd.o(i.BSP_LCD_DrawVLine) refers to stm32746g_discovery_lcd.o(.bss) for .bss
    stm32746g_discovery_lcd.o(i.BSP_LCD_FillPolygon) refers to stm32746g_discovery_lcd.o(i.FillTriangle) for FillTriangle
    stm32746g_discovery_lcd.o(i.BSP_LCD_FillRect) refers to stm32746g_discovery_lcd.o(i.BSP_LCD_SetTextColor) for BSP_LCD_SetTextColor
    stm32746g_discovery_lcd.o(i.BSP_LCD_FillRect) refers to stm32746g_discovery_lcd.o(i.BSP_LCD_GetXSize) for BSP_LCD_GetXSize
    stm32746g_discovery_lcd.o(i.BSP_LCD_FillRect) refers to stm32746g_discovery_lcd.o(i.LL_FillBuffer) for LL_FillBuffer
    stm32746g_discovery_lcd.o(i.BSP_LCD_FillRect) refers to stm32746g_discovery_lcd.o(.data) for .data
    stm32746g_discovery_lcd.o(i.BSP_LCD_FillRect) refers to stm32746g_discovery_lcd.o(.bss) for .bss
    stm32746g_discovery_lcd.o(i.BSP_LCD_GetBackColor) refers to stm32746g_discovery_lcd.o(.data) for .data
    stm32746g_discovery_lcd.o(i.BSP_LCD_GetBackColor) refers to stm32746g_discovery_lcd.o(.bss) for .bss
    stm32746g_discovery_lcd.o(i.BSP_LCD_GetTextColor) refers to stm32746g_discovery_lcd.o(.data) for .data
    stm32746g_discovery_lcd.o(i.BSP_LCD_GetTextColor) refers to stm32746g_discovery_lcd.o(.bss) for .bss
    stm32746g_discovery_lcd.o(i.BSP_LCD_GetXSize) refers to stm32746g_discovery_lcd.o(.data) for .data
    stm32746g_discovery_lcd.o(i.BSP_LCD_GetXSize) refers to stm32746g_discovery_lcd.o(.bss) for .bss
    stm32746g_discovery_lcd.o(i.BSP_LCD_GetYSize) refers to stm32746g_discovery_lcd.o(.data) for .data
    stm32746g_discovery_lcd.o(i.BSP_LCD_GetYSize) refers to stm32746g_discovery_lcd.o(.bss) for .bss
    stm32746g_discovery_lcd.o(i.BSP_LCD_Init) refers to stm32746g_discovery_lcd.o(i.BSP_LCD_ClockConfig) for BSP_LCD_ClockConfig
    stm32746g_discovery_lcd.o(i.BSP_LCD_Init) refers to stm32f7xx_hal_ltdc.o(i.HAL_LTDC_GetState) for HAL_LTDC_GetState
    stm32746g_discovery_lcd.o(i.BSP_LCD_Init) refers to stm32746g_discovery_lcd.o(i.BSP_LCD_MspInit) for BSP_LCD_MspInit
    stm32746g_discovery_lcd.o(i.BSP_LCD_Init) refers to stm32f7xx_hal_ltdc.o(i.HAL_LTDC_Init) for HAL_LTDC_Init
    stm32746g_discovery_lcd.o(i.BSP_LCD_Init) refers to stm32f7xx_hal_gpio.o(i.HAL_GPIO_WritePin) for HAL_GPIO_WritePin
    stm32746g_discovery_lcd.o(i.BSP_LCD_Init) refers to stm32746g_discovery_sdram.o(i.BSP_SDRAM_Init) for BSP_SDRAM_Init
    stm32746g_discovery_lcd.o(i.BSP_LCD_Init) refers to stm32746g_discovery_lcd.o(.bss) for .bss
    stm32746g_discovery_lcd.o(i.BSP_LCD_LayerDefaultInit) refers to stm32746g_discovery_lcd.o(i.BSP_LCD_GetXSize) for BSP_LCD_GetXSize
    stm32746g_discovery_lcd.o(i.BSP_LCD_LayerDefaultInit) refers to stm32746g_discovery_lcd.o(i.BSP_LCD_GetYSize) for BSP_LCD_GetYSize
    stm32746g_discovery_lcd.o(i.BSP_LCD_LayerDefaultInit) refers to stm32f7xx_hal_ltdc.o(i.HAL_LTDC_ConfigLayer) for HAL_LTDC_ConfigLayer
    stm32746g_discovery_lcd.o(i.BSP_LCD_LayerDefaultInit) refers to stm32746g_discovery_lcd.o(.bss) for .bss
    stm32746g_discovery_lcd.o(i.BSP_LCD_LayerRgb565Init) refers to stm32746g_discovery_lcd.o(i.BSP_LCD_GetXSize) for BSP_LCD_GetXSize
    stm32746g_discovery_lcd.o(i.BSP_LCD_LayerRgb565Init) refers to stm32746g_discovery_lcd.o(i.BSP_LCD_GetYSize) for BSP_LCD_GetYSize
    stm32746g_discovery_lcd.o(i.BSP_LCD_LayerRgb565Init) refers to stm32f7xx_hal_ltdc.o(i.HAL_LTDC_ConfigLayer) for HAL_LTDC_ConfigLayer
    stm32746g_discovery_lcd.o(i.BSP_LCD_LayerRgb565Init) refers to stm32746g_discovery_lcd.o(.bss) for .bss
    stm32746g_discovery_lcd.o(i.BSP_LCD_MspDeInit) refers to stm32f7xx_hal_gpio.o(i.HAL_GPIO_DeInit) for HAL_GPIO_DeInit
    stm32746g_discovery_lcd.o(i.BSP_LCD_MspInit) refers to stm32f7xx_hal_gpio.o(i.HAL_GPIO_Init) for HAL_GPIO_Init
    stm32746g_discovery_lcd.o(i.BSP_LCD_ReadPixel) refers to stm32746g_discovery_lcd.o(i.BSP_LCD_GetXSize) for BSP_LCD_GetXSize
    stm32746g_discovery_lcd.o(i.BSP_LCD_ReadPixel) refers to stm32746g_discovery_lcd.o(.data) for .data
    stm32746g_discovery_lcd.o(i.BSP_LCD_ReadPixel) refers to stm32746g_discovery_lcd.o(.bss) for .bss
    stm32746g_discovery_lcd.o(i.BSP_LCD_ResetColorKeying) refers to stm32f7xx_hal_ltdc.o(i.HAL_LTDC_DisableColorKeying) for HAL_LTDC_DisableColorKeying
    stm32746g_discovery_lcd.o(i.BSP_LCD_ResetColorKeying) refers to stm32746g_discovery_lcd.o(.bss) for .bss
    stm32746g_discovery_lcd.o(i.BSP_LCD_SelectLayer) refers to stm32746g_discovery_lcd.o(.data) for .data
    stm32746g_discovery_lcd.o(i.BSP_LCD_SetBackColor) refers to stm32746g_discovery_lcd.o(.data) for .data
    stm32746g_discovery_lcd.o(i.BSP_LCD_SetBackColor) refers to stm32746g_discovery_lcd.o(.bss) for .bss
    stm32746g_discovery_lcd.o(i.BSP_LCD_SetColorKeying) refers to stm32f7xx_hal_ltdc.o(i.HAL_LTDC_ConfigColorKeying) for HAL_LTDC_ConfigColorKeying
    stm32746g_discovery_lcd.o(i.BSP_LCD_SetColorKeying) refers to stm32f7xx_hal_ltdc.o(i.HAL_LTDC_EnableColorKeying) for HAL_LTDC_EnableColorKeying
    stm32746g_discovery_lcd.o(i.BSP_LCD_SetColorKeying) refers to stm32746g_discovery_lcd.o(.bss) for .bss
    stm32746g_discovery_lcd.o(i.BSP_LCD_SetLayerAddress) refers to stm32f7xx_hal_ltdc.o(i.HAL_LTDC_SetAddress) for HAL_LTDC_SetAddress
    stm32746g_discovery_lcd.o(i.BSP_LCD_SetLayerAddress) refers to stm32746g_discovery_lcd.o(.bss) for .bss
    stm32746g_discovery_lcd.o(i.BSP_LCD_SetLayerVisible) refers to stm32746g_discovery_lcd.o(.bss) for .bss
    stm32746g_discovery_lcd.o(i.BSP_LCD_SetLayerWindow) refers to stm32f7xx_hal_ltdc.o(i.HAL_LTDC_SetWindowSize) for HAL_LTDC_SetWindowSize
    stm32746g_discovery_lcd.o(i.BSP_LCD_SetLayerWindow) refers to stm32f7xx_hal_ltdc.o(i.HAL_LTDC_SetWindowPosition) for HAL_LTDC_SetWindowPosition
    stm32746g_discovery_lcd.o(i.BSP_LCD_SetLayerWindow) refers to stm32746g_discovery_lcd.o(.bss) for .bss
    stm32746g_discovery_lcd.o(i.BSP_LCD_SetTextColor) refers to stm32746g_discovery_lcd.o(.data) for .data
    stm32746g_discovery_lcd.o(i.BSP_LCD_SetTextColor) refers to stm32746g_discovery_lcd.o(.bss) for .bss
    stm32746g_discovery_lcd.o(i.BSP_LCD_SetTransparency) refers to stm32f7xx_hal_ltdc.o(i.HAL_LTDC_SetAlpha) for HAL_LTDC_SetAlpha
    stm32746g_discovery_lcd.o(i.BSP_LCD_SetTransparency) refers to stm32746g_discovery_lcd.o(.bss) for .bss
    stm32746g_discovery_lcd.o(i.BSP_LCD_SetXSize) refers to stm32746g_discovery_lcd.o(.data) for .data
    stm32746g_discovery_lcd.o(i.BSP_LCD_SetXSize) refers to stm32746g_discovery_lcd.o(.bss) for .bss
    stm32746g_discovery_lcd.o(i.BSP_LCD_SetYSize) refers to stm32746g_discovery_lcd.o(.data) for .data
    stm32746g_discovery_lcd.o(i.BSP_LCD_SetYSize) refers to stm32746g_discovery_lcd.o(.bss) for .bss
    stm32746g_discovery_lcd.o(i.FillTriangle) refers to stm32746g_discovery_lcd.o(i.BSP_LCD_DrawLine) for BSP_LCD_DrawLine
    stm32746g_discovery_lcd.o(i.LL_ConvertLineToARGB8888) refers to stm32f7xx_hal_dma2d.o(i.HAL_DMA2D_Init) for HAL_DMA2D_Init
    stm32746g_discovery_lcd.o(i.LL_ConvertLineToARGB8888) refers to stm32f7xx_hal_dma2d.o(i.HAL_DMA2D_ConfigLayer) for HAL_DMA2D_ConfigLayer
    stm32746g_discovery_lcd.o(i.LL_ConvertLineToARGB8888) refers to stm32f7xx_hal_dma2d.o(i.HAL_DMA2D_Start) for HAL_DMA2D_Start
    stm32746g_discovery_lcd.o(i.LL_ConvertLineToARGB8888) refers to stm32f7xx_hal_dma2d.o(i.HAL_DMA2D_PollForTransfer) for HAL_DMA2D_PollForTransfer
    stm32746g_discovery_lcd.o(i.LL_ConvertLineToARGB8888) refers to stm32746g_discovery_lcd.o(.bss) for .bss
    stm32746g_discovery_lcd.o(i.LL_FillBuffer) refers to stm32f7xx_hal_dma2d.o(i.HAL_DMA2D_Init) for HAL_DMA2D_Init
    stm32746g_discovery_lcd.o(i.LL_FillBuffer) refers to stm32f7xx_hal_dma2d.o(i.HAL_DMA2D_ConfigLayer) for HAL_DMA2D_ConfigLayer
    stm32746g_discovery_lcd.o(i.LL_FillBuffer) refers to stm32f7xx_hal_dma2d.o(i.HAL_DMA2D_Start) for HAL_DMA2D_Start
    stm32746g_discovery_lcd.o(i.LL_FillBuffer) refers to stm32f7xx_hal_dma2d.o(i.HAL_DMA2D_PollForTransfer) for HAL_DMA2D_PollForTransfer
    stm32746g_discovery_lcd.o(i.LL_FillBuffer) refers to stm32746g_discovery_lcd.o(.bss) for .bss
    stm32746g_discovery_lcd.o(i.LL_FillBuffer) refers to stm32746g_discovery_lcd.o(.data) for .data
    stm32746g_discovery_sd.o(i.BSP_SD_DeInit) refers to stm32f7xx_hal_sd.o(i.HAL_SD_DeInit) for HAL_SD_DeInit
    stm32746g_discovery_sd.o(i.BSP_SD_DeInit) refers to stm32746g_discovery_sd.o(i.BSP_SD_MspDeInit) for BSP_SD_MspDeInit
    stm32746g_discovery_sd.o(i.BSP_SD_DeInit) refers to stm32746g_discovery_sd.o(.bss) for .bss
    stm32746g_discovery_sd.o(i.BSP_SD_Detect_MspInit) refers to stm32f7xx_hal_gpio.o(i.HAL_GPIO_Init) for HAL_GPIO_Init
    stm32746g_discovery_sd.o(i.BSP_SD_Erase) refers to stm32f7xx_hal_sd.o(i.HAL_SD_Erase) for HAL_SD_Erase
    stm32746g_discovery_sd.o(i.BSP_SD_Erase) refers to stm32746g_discovery_sd.o(.bss) for .bss
    stm32746g_discovery_sd.o(i.BSP_SD_GetCardInfo) refers to stm32f7xx_hal_sd.o(i.HAL_SD_Get_CardInfo) for HAL_SD_Get_CardInfo
    stm32746g_discovery_sd.o(i.BSP_SD_GetCardInfo) refers to stm32746g_discovery_sd.o(.bss) for .bss
    stm32746g_discovery_sd.o(i.BSP_SD_GetStatus) refers to stm32f7xx_hal_sd.o(i.HAL_SD_GetStatus) for HAL_SD_GetStatus
    stm32746g_discovery_sd.o(i.BSP_SD_GetStatus) refers to stm32746g_discovery_sd.o(.bss) for .bss
    stm32746g_discovery_sd.o(i.BSP_SD_ITConfig) refers to stm32f7xx_hal_gpio.o(i.HAL_GPIO_Init) for HAL_GPIO_Init
    stm32746g_discovery_sd.o(i.BSP_SD_ITConfig) refers to stm32f7xx_hal_cortex.o(i.HAL_NVIC_SetPriority) for HAL_NVIC_SetPriority
    stm32746g_discovery_sd.o(i.BSP_SD_ITConfig) refers to stm32f7xx_hal_cortex.o(i.HAL_NVIC_EnableIRQ) for HAL_NVIC_EnableIRQ
    stm32746g_discovery_sd.o(i.BSP_SD_Init) refers to stm32746g_discovery_sd.o(i.BSP_SD_Detect_MspInit) for BSP_SD_Detect_MspInit
    stm32746g_discovery_sd.o(i.BSP_SD_Init) refers to stm32746g_discovery_sd.o(i.BSP_SD_IsDetected) for BSP_SD_IsDetected
    stm32746g_discovery_sd.o(i.BSP_SD_Init) refers to stm32746g_discovery_sd.o(i.BSP_SD_MspInit) for BSP_SD_MspInit
    stm32746g_discovery_sd.o(i.BSP_SD_Init) refers to stm32f7xx_hal_sd.o(i.HAL_SD_Init) for HAL_SD_Init
    stm32746g_discovery_sd.o(i.BSP_SD_Init) refers to stm32f7xx_hal_sd.o(i.HAL_SD_WideBusOperation_Config) for HAL_SD_WideBusOperation_Config
    stm32746g_discovery_sd.o(i.BSP_SD_Init) refers to stm32746g_discovery_sd.o(.bss) for .bss
    stm32746g_discovery_sd.o(i.BSP_SD_IsDetected) refers to stm32f7xx_hal_gpio.o(i.HAL_GPIO_ReadPin) for HAL_GPIO_ReadPin
    stm32746g_discovery_sd.o(i.BSP_SD_MspDeInit) refers to stm32f7xx_hal_cortex.o(i.HAL_NVIC_DisableIRQ) for HAL_NVIC_DisableIRQ
    stm32746g_discovery_sd.o(i.BSP_SD_MspDeInit) refers to stm32f7xx_hal_dma.o(i.HAL_DMA_DeInit) for HAL_DMA_DeInit
    stm32746g_discovery_sd.o(i.BSP_SD_MspDeInit) refers to stm32746g_discovery_sd.o(.bss) for .bss
    stm32746g_discovery_sd.o(i.BSP_SD_MspInit) refers to stm32f7xx_hal_gpio.o(i.HAL_GPIO_Init) for HAL_GPIO_Init
    stm32746g_discovery_sd.o(i.BSP_SD_MspInit) refers to stm32f7xx_hal_cortex.o(i.HAL_NVIC_SetPriority) for HAL_NVIC_SetPriority
    stm32746g_discovery_sd.o(i.BSP_SD_MspInit) refers to stm32f7xx_hal_cortex.o(i.HAL_NVIC_EnableIRQ) for HAL_NVIC_EnableIRQ
    stm32746g_discovery_sd.o(i.BSP_SD_MspInit) refers to stm32f7xx_hal_dma.o(i.HAL_DMA_DeInit) for HAL_DMA_DeInit
    stm32746g_discovery_sd.o(i.BSP_SD_MspInit) refers to stm32f7xx_hal_dma.o(i.HAL_DMA_Init) for HAL_DMA_Init
    stm32746g_discovery_sd.o(i.BSP_SD_MspInit) refers to stm32746g_discovery_sd.o(.bss) for .bss
    stm32746g_discovery_sd.o(i.BSP_SD_ReadBlocks) refers to stm32f7xx_hal_sd.o(i.HAL_SD_ReadBlocks) for HAL_SD_ReadBlocks
    stm32746g_discovery_sd.o(i.BSP_SD_ReadBlocks) refers to stm32746g_discovery_sd.o(.bss) for .bss
    stm32746g_discovery_sd.o(i.BSP_SD_ReadBlocks_DMA) refers to stm32f7xx_hal_sd.o(i.HAL_SD_ReadBlocks_DMA) for HAL_SD_ReadBlocks_DMA
    stm32746g_discovery_sd.o(i.BSP_SD_ReadBlocks_DMA) refers to stm32f7xx_hal_sd.o(i.HAL_SD_CheckReadOperation) for HAL_SD_CheckReadOperation
    stm32746g_discovery_sd.o(i.BSP_SD_ReadBlocks_DMA) refers to stm32746g_discovery_sd.o(.bss) for .bss
    stm32746g_discovery_sd.o(i.BSP_SD_WriteBlocks) refers to stm32f7xx_hal_sd.o(i.HAL_SD_WriteBlocks) for HAL_SD_WriteBlocks
    stm32746g_discovery_sd.o(i.BSP_SD_WriteBlocks) refers to stm32746g_discovery_sd.o(.bss) for .bss
    stm32746g_discovery_sd.o(i.BSP_SD_WriteBlocks_DMA) refers to stm32f7xx_hal_sd.o(i.HAL_SD_WriteBlocks_DMA) for HAL_SD_WriteBlocks_DMA
    stm32746g_discovery_sd.o(i.BSP_SD_WriteBlocks_DMA) refers to stm32f7xx_hal_sd.o(i.HAL_SD_CheckWriteOperation) for HAL_SD_CheckWriteOperation
    stm32746g_discovery_sd.o(i.BSP_SD_WriteBlocks_DMA) refers to stm32746g_discovery_sd.o(.bss) for .bss
    stm32746g_discovery_sdram.o(i.BSP_SDRAM_DeInit) refers to stm32f7xx_hal_sdram.o(i.HAL_SDRAM_DeInit) for HAL_SDRAM_DeInit
    stm32746g_discovery_sdram.o(i.BSP_SDRAM_DeInit) refers to stm32746g_discovery_sdram.o(i.BSP_SDRAM_MspDeInit) for BSP_SDRAM_MspDeInit
    stm32746g_discovery_sdram.o(i.BSP_SDRAM_DeInit) refers to stm32746g_discovery_sdram.o(.bss) for .bss
    stm32746g_discovery_sdram.o(i.BSP_SDRAM_DeInit) refers to stm32746g_discovery_sdram.o(.data) for .data
    stm32746g_discovery_sdram.o(i.BSP_SDRAM_Init) refers to stm32746g_discovery_sdram.o(i.BSP_SDRAM_MspInit) for BSP_SDRAM_MspInit
    stm32746g_discovery_sdram.o(i.BSP_SDRAM_Init) refers to stm32f7xx_hal_sdram.o(i.HAL_SDRAM_Init) for HAL_SDRAM_Init
    stm32746g_discovery_sdram.o(i.BSP_SDRAM_Init) refers to stm32746g_discovery_sdram.o(i.BSP_SDRAM_Initialization_sequence) for BSP_SDRAM_Initialization_sequence
    stm32746g_discovery_sdram.o(i.BSP_SDRAM_Init) refers to stm32746g_discovery_sdram.o(.bss) for .bss
    stm32746g_discovery_sdram.o(i.BSP_SDRAM_Init) refers to stm32746g_discovery_sdram.o(.data) for .data
    stm32746g_discovery_sdram.o(i.BSP_SDRAM_Initialization_sequence) refers to stm32f7xx_hal_sdram.o(i.HAL_SDRAM_SendCommand) for HAL_SDRAM_SendCommand
    stm32746g_discovery_sdram.o(i.BSP_SDRAM_Initialization_sequence) refers to stm32f7xx_hal.o(i.HAL_Delay) for HAL_Delay
    stm32746g_discovery_sdram.o(i.BSP_SDRAM_Initialization_sequence) refers to stm32f7xx_hal_sdram.o(i.HAL_SDRAM_ProgramRefreshRate) for HAL_SDRAM_ProgramRefreshRate
    stm32746g_discovery_sdram.o(i.BSP_SDRAM_Initialization_sequence) refers to stm32746g_discovery_sdram.o(.bss) for .bss
    stm32746g_discovery_sdram.o(i.BSP_SDRAM_MspDeInit) refers to stm32f7xx_hal_cortex.o(i.HAL_NVIC_DisableIRQ) for HAL_NVIC_DisableIRQ
    stm32746g_discovery_sdram.o(i.BSP_SDRAM_MspDeInit) refers to stm32f7xx_hal_dma.o(i.HAL_DMA_DeInit) for HAL_DMA_DeInit
    stm32746g_discovery_sdram.o(i.BSP_SDRAM_MspDeInit) refers to stm32746g_discovery_sdram.o(.bss) for .bss
    stm32746g_discovery_sdram.o(i.BSP_SDRAM_MspInit) refers to stm32f7xx_hal_gpio.o(i.HAL_GPIO_Init) for HAL_GPIO_Init
    stm32746g_discovery_sdram.o(i.BSP_SDRAM_MspInit) refers to stm32f7xx_hal_dma.o(i.HAL_DMA_DeInit) for HAL_DMA_DeInit
    stm32746g_discovery_sdram.o(i.BSP_SDRAM_MspInit) refers to stm32f7xx_hal_dma.o(i.HAL_DMA_Init) for HAL_DMA_Init
    stm32746g_discovery_sdram.o(i.BSP_SDRAM_MspInit) refers to stm32f7xx_hal_cortex.o(i.HAL_NVIC_SetPriority) for HAL_NVIC_SetPriority
    stm32746g_discovery_sdram.o(i.BSP_SDRAM_MspInit) refers to stm32f7xx_hal_cortex.o(i.HAL_NVIC_EnableIRQ) for HAL_NVIC_EnableIRQ
    stm32746g_discovery_sdram.o(i.BSP_SDRAM_MspInit) refers to stm32746g_discovery_sdram.o(.bss) for .bss
    stm32746g_discovery_sdram.o(i.BSP_SDRAM_ReadData) refers to stm32f7xx_hal_sdram.o(i.HAL_SDRAM_Read_32b) for HAL_SDRAM_Read_32b
    stm32746g_discovery_sdram.o(i.BSP_SDRAM_ReadData) refers to stm32746g_discovery_sdram.o(.bss) for .bss
    stm32746g_discovery_sdram.o(i.BSP_SDRAM_ReadData_DMA) refers to stm32f7xx_hal_sdram.o(i.HAL_SDRAM_Read_DMA) for HAL_SDRAM_Read_DMA
    stm32746g_discovery_sdram.o(i.BSP_SDRAM_ReadData_DMA) refers to stm32746g_discovery_sdram.o(.bss) for .bss
    stm32746g_discovery_sdram.o(i.BSP_SDRAM_Sendcmd) refers to stm32f7xx_hal_sdram.o(i.HAL_SDRAM_SendCommand) for HAL_SDRAM_SendCommand
    stm32746g_discovery_sdram.o(i.BSP_SDRAM_Sendcmd) refers to stm32746g_discovery_sdram.o(.bss) for .bss
    stm32746g_discovery_sdram.o(i.BSP_SDRAM_WriteData) refers to stm32f7xx_hal_sdram.o(i.HAL_SDRAM_Write_32b) for HAL_SDRAM_Write_32b
    stm32746g_discovery_sdram.o(i.BSP_SDRAM_WriteData) refers to stm32746g_discovery_sdram.o(.bss) for .bss
    stm32746g_discovery_sdram.o(i.BSP_SDRAM_WriteData_DMA) refers to stm32f7xx_hal_sdram.o(i.HAL_SDRAM_Write_DMA) for HAL_SDRAM_Write_DMA
    stm32746g_discovery_sdram.o(i.BSP_SDRAM_WriteData_DMA) refers to stm32746g_discovery_sdram.o(.bss) for .bss
    stm32746g_discovery_ts.o(i.BSP_TS_GetState) refers to ft5336.o(i.ft5336_TS_GetTouchInfo) for ft5336_TS_GetTouchInfo
    stm32746g_discovery_ts.o(i.BSP_TS_GetState) refers to stm32746g_discovery_ts.o(i.BSP_TS_Get_GestureId) for BSP_TS_Get_GestureId
    stm32746g_discovery_ts.o(i.BSP_TS_GetState) refers to stm32746g_discovery_ts.o(.data) for .data
    stm32746g_discovery_ts.o(i.BSP_TS_GetState) refers to stm32746g_discovery_ts.o(.bss) for .bss
    stm32746g_discovery_ts.o(i.BSP_TS_Get_GestureId) refers to ft5336.o(i.ft5336_TS_GetGestureID) for ft5336_TS_GetGestureID
    stm32746g_discovery_ts.o(i.BSP_TS_Get_GestureId) refers to stm32746g_discovery_ts.o(.data) for .data
    stm32746g_discovery_ts.o(i.BSP_TS_ITClear) refers to stm32746g_discovery_ts.o(.data) for .data
    stm32746g_discovery_ts.o(i.BSP_TS_ITConfig) refers to stm32f7xx_hal_gpio.o(i.HAL_GPIO_Init) for HAL_GPIO_Init
    stm32746g_discovery_ts.o(i.BSP_TS_ITConfig) refers to stm32f7xx_hal_cortex.o(i.HAL_NVIC_SetPriority) for HAL_NVIC_SetPriority
    stm32746g_discovery_ts.o(i.BSP_TS_ITConfig) refers to stm32f7xx_hal_cortex.o(i.HAL_NVIC_EnableIRQ) for HAL_NVIC_EnableIRQ
    stm32746g_discovery_ts.o(i.BSP_TS_ITConfig) refers to stm32746g_discovery_ts.o(.data) for .data
    stm32746g_discovery_ts.o(i.BSP_TS_ITGetStatus) refers to stm32746g_discovery_ts.o(.data) for .data
    stm32746g_discovery_ts.o(i.BSP_TS_Init) refers to stm32746g_discovery_ts.o(.data) for .data
    stm32746g_discovery_ts.o(i.BSP_TS_Init) refers to ft5336.o(.data) for ft5336_ts_drv
    ft5336.o(i.ft5336_I2C_InitializeIfRequired) refers to stm32746g_discovery.o(i.TS_IO_Init) for TS_IO_Init
    ft5336.o(i.ft5336_I2C_InitializeIfRequired) refers to ft5336.o(.data) for .data
    ft5336.o(i.ft5336_Init) refers to stm32746g_discovery.o(i.TS_IO_Delay) for TS_IO_Delay
    ft5336.o(i.ft5336_Init) refers to ft5336.o(i.ft5336_I2C_InitializeIfRequired) for ft5336_I2C_InitializeIfRequired
    ft5336.o(i.ft5336_ReadID) refers to ft5336.o(i.ft5336_I2C_InitializeIfRequired) for ft5336_I2C_InitializeIfRequired
    ft5336.o(i.ft5336_ReadID) refers to stm32746g_discovery.o(i.TS_IO_Read) for TS_IO_Read
    ft5336.o(i.ft5336_TS_DetectTouch) refers to stm32746g_discovery.o(i.TS_IO_Read) for TS_IO_Read
    ft5336.o(i.ft5336_TS_DetectTouch) refers to ft5336.o(.data) for .data
    ft5336.o(i.ft5336_TS_DisableIT) refers to stm32746g_discovery.o(i.TS_IO_Write) for TS_IO_Write
    ft5336.o(i.ft5336_TS_EnableIT) refers to stm32746g_discovery.o(i.TS_IO_Write) for TS_IO_Write
    ft5336.o(i.ft5336_TS_GetGestureID) refers to stm32746g_discovery.o(i.TS_IO_Read) for TS_IO_Read
    ft5336.o(i.ft5336_TS_GetTouchInfo) refers to stm32746g_discovery.o(i.TS_IO_Read) for TS_IO_Read
    ft5336.o(i.ft5336_TS_GetTouchInfo) refers to ft5336.o(.data) for .data
    ft5336.o(i.ft5336_TS_GetXY) refers to stm32746g_discovery.o(i.TS_IO_Read) for TS_IO_Read
    ft5336.o(i.ft5336_TS_GetXY) refers to ft5336.o(.data) for .data
    ft5336.o(i.ft5336_TS_Start) refers to ft5336.o(i.ft5336_TS_DisableIT) for ft5336_TS_DisableIT
    ft5336.o(.data) refers to ft5336.o(i.ft5336_Init) for ft5336_Init
    ft5336.o(.data) refers to ft5336.o(i.ft5336_ReadID) for ft5336_ReadID
    ft5336.o(.data) refers to ft5336.o(i.ft5336_Reset) for ft5336_Reset
    ft5336.o(.data) refers to ft5336.o(i.ft5336_TS_Start) for ft5336_TS_Start
    ft5336.o(.data) refers to ft5336.o(i.ft5336_TS_DetectTouch) for ft5336_TS_DetectTouch
    ft5336.o(.data) refers to ft5336.o(i.ft5336_TS_GetXY) for ft5336_TS_GetXY
    ft5336.o(.data) refers to ft5336.o(i.ft5336_TS_EnableIT) for ft5336_TS_EnableIT
    ft5336.o(.data) refers to ft5336.o(i.ft5336_TS_ClearIT) for ft5336_TS_ClearIT
    ft5336.o(.data) refers to ft5336.o(i.ft5336_TS_ITStatus) for ft5336_TS_ITStatus
    ft5336.o(.data) refers to ft5336.o(i.ft5336_TS_DisableIT) for ft5336_TS_DisableIT
    stm32746g_discovery_qspi.o(i.BSP_QSPI_DeInit) refers to stm32f7xx_hal_qspi.o(i.HAL_QSPI_DeInit) for HAL_QSPI_DeInit
    stm32746g_discovery_qspi.o(i.BSP_QSPI_DeInit) refers to stm32746g_discovery_qspi.o(i.BSP_QSPI_MspDeInit) for BSP_QSPI_MspDeInit
    stm32746g_discovery_qspi.o(i.BSP_QSPI_DeInit) refers to stm32746g_discovery_qspi.o(.bss) for .bss
    stm32746g_discovery_qspi.o(i.BSP_QSPI_EnableMemoryMappedMode) refers to stm32f7xx_hal_qspi.o(i.HAL_QSPI_MemoryMapped) for HAL_QSPI_MemoryMapped
    stm32746g_discovery_qspi.o(i.BSP_QSPI_EnableMemoryMappedMode) refers to stm32746g_discovery_qspi.o(.bss) for .bss
    stm32746g_discovery_qspi.o(i.BSP_QSPI_Erase_Block) refers to stm32746g_discovery_qspi.o(i.QSPI_WriteEnable) for QSPI_WriteEnable
    stm32746g_discovery_qspi.o(i.BSP_QSPI_Erase_Block) refers to stm32f7xx_hal_qspi.o(i.HAL_QSPI_Command) for HAL_QSPI_Command
    stm32746g_discovery_qspi.o(i.BSP_QSPI_Erase_Block) refers to stm32746g_discovery_qspi.o(i.QSPI_AutoPollingMemReady) for QSPI_AutoPollingMemReady
    stm32746g_discovery_qspi.o(i.BSP_QSPI_Erase_Block) refers to stm32746g_discovery_qspi.o(.bss) for .bss
    stm32746g_discovery_qspi.o(i.BSP_QSPI_Erase_Chip) refers to stm32746g_discovery_qspi.o(i.QSPI_WriteEnable) for QSPI_WriteEnable
    stm32746g_discovery_qspi.o(i.BSP_QSPI_Erase_Chip) refers to stm32f7xx_hal_qspi.o(i.HAL_QSPI_Command) for HAL_QSPI_Command
    stm32746g_discovery_qspi.o(i.BSP_QSPI_Erase_Chip) refers to stm32746g_discovery_qspi.o(i.QSPI_AutoPollingMemReady) for QSPI_AutoPollingMemReady
    stm32746g_discovery_qspi.o(i.BSP_QSPI_Erase_Chip) refers to stm32746g_discovery_qspi.o(.bss) for .bss
    stm32746g_discovery_qspi.o(i.BSP_QSPI_GetStatus) refers to stm32f7xx_hal_qspi.o(i.HAL_QSPI_Command) for HAL_QSPI_Command
    stm32746g_discovery_qspi.o(i.BSP_QSPI_GetStatus) refers to stm32f7xx_hal_qspi.o(i.HAL_QSPI_Receive) for HAL_QSPI_Receive
    stm32746g_discovery_qspi.o(i.BSP_QSPI_GetStatus) refers to stm32746g_discovery_qspi.o(.bss) for .bss
    stm32746g_discovery_qspi.o(i.BSP_QSPI_Init) refers to stm32f7xx_hal_qspi.o(i.HAL_QSPI_DeInit) for HAL_QSPI_DeInit
    stm32746g_discovery_qspi.o(i.BSP_QSPI_Init) refers to stm32746g_discovery_qspi.o(i.BSP_QSPI_MspInit) for BSP_QSPI_MspInit
    stm32746g_discovery_qspi.o(i.BSP_QSPI_Init) refers to stm32f7xx_hal_qspi.o(i.HAL_QSPI_Init) for HAL_QSPI_Init
    stm32746g_discovery_qspi.o(i.BSP_QSPI_Init) refers to stm32746g_discovery_qspi.o(i.QSPI_ResetMemory) for QSPI_ResetMemory
    stm32746g_discovery_qspi.o(i.BSP_QSPI_Init) refers to stm32746g_discovery_qspi.o(i.QSPI_DummyCyclesCfg) for QSPI_DummyCyclesCfg
    stm32746g_discovery_qspi.o(i.BSP_QSPI_Init) refers to stm32746g_discovery_qspi.o(.bss) for .bss
    stm32746g_discovery_qspi.o(i.BSP_QSPI_MspDeInit) refers to stm32f7xx_hal_cortex.o(i.HAL_NVIC_DisableIRQ) for HAL_NVIC_DisableIRQ
    stm32746g_discovery_qspi.o(i.BSP_QSPI_MspDeInit) refers to stm32f7xx_hal_gpio.o(i.HAL_GPIO_DeInit) for HAL_GPIO_DeInit
    stm32746g_discovery_qspi.o(i.BSP_QSPI_MspInit) refers to stm32f7xx_hal_gpio.o(i.HAL_GPIO_Init) for HAL_GPIO_Init
    stm32746g_discovery_qspi.o(i.BSP_QSPI_MspInit) refers to stm32f7xx_hal_cortex.o(i.HAL_NVIC_SetPriority) for HAL_NVIC_SetPriority
    stm32746g_discovery_qspi.o(i.BSP_QSPI_MspInit) refers to stm32f7xx_hal_cortex.o(i.HAL_NVIC_EnableIRQ) for HAL_NVIC_EnableIRQ
    stm32746g_discovery_qspi.o(i.BSP_QSPI_Read) refers to stm32f7xx_hal_qspi.o(i.HAL_QSPI_Command) for HAL_QSPI_Command
    stm32746g_discovery_qspi.o(i.BSP_QSPI_Read) refers to stm32f7xx_hal_qspi.o(i.HAL_QSPI_Receive) for HAL_QSPI_Receive
    stm32746g_discovery_qspi.o(i.BSP_QSPI_Read) refers to stm32746g_discovery_qspi.o(.bss) for .bss
    stm32746g_discovery_qspi.o(i.BSP_QSPI_Write) refers to stm32746g_discovery_qspi.o(i.QSPI_WriteEnable) for QSPI_WriteEnable
    stm32746g_discovery_qspi.o(i.BSP_QSPI_Write) refers to stm32f7xx_hal_qspi.o(i.HAL_QSPI_Command) for HAL_QSPI_Command
    stm32746g_discovery_qspi.o(i.BSP_QSPI_Write) refers to stm32f7xx_hal_qspi.o(i.HAL_QSPI_Transmit) for HAL_QSPI_Transmit
    stm32746g_discovery_qspi.o(i.BSP_QSPI_Write) refers to stm32746g_discovery_qspi.o(i.QSPI_AutoPollingMemReady) for QSPI_AutoPollingMemReady
    stm32746g_discovery_qspi.o(i.BSP_QSPI_Write) refers to stm32746g_discovery_qspi.o(.bss) for .bss
    stm32746g_discovery_qspi.o(i.QSPI_AutoPollingMemReady) refers to stm32f7xx_hal_qspi.o(i.HAL_QSPI_AutoPolling) for HAL_QSPI_AutoPolling
    stm32746g_discovery_qspi.o(i.QSPI_DummyCyclesCfg) refers to stm32f7xx_hal_qspi.o(i.HAL_QSPI_Command) for HAL_QSPI_Command
    stm32746g_discovery_qspi.o(i.QSPI_DummyCyclesCfg) refers to stm32f7xx_hal_qspi.o(i.HAL_QSPI_Receive) for HAL_QSPI_Receive
    stm32746g_discovery_qspi.o(i.QSPI_DummyCyclesCfg) refers to stm32746g_discovery_qspi.o(i.QSPI_WriteEnable) for QSPI_WriteEnable
    stm32746g_discovery_qspi.o(i.QSPI_DummyCyclesCfg) refers to stm32f7xx_hal_qspi.o(i.HAL_QSPI_Transmit) for HAL_QSPI_Transmit
    stm32746g_discovery_qspi.o(i.QSPI_ResetMemory) refers to stm32f7xx_hal_qspi.o(i.HAL_QSPI_Command) for HAL_QSPI_Command
    stm32746g_discovery_qspi.o(i.QSPI_ResetMemory) refers to stm32746g_discovery_qspi.o(i.QSPI_AutoPollingMemReady) for QSPI_AutoPollingMemReady
    stm32746g_discovery_qspi.o(i.QSPI_WriteEnable) refers to stm32f7xx_hal_qspi.o(i.HAL_QSPI_Command) for HAL_QSPI_Command
    stm32746g_discovery_qspi.o(i.QSPI_WriteEnable) refers to stm32f7xx_hal_qspi.o(i.HAL_QSPI_AutoPolling) for HAL_QSPI_AutoPolling
    stm32f7xx_hal_msp.o(i.HAL_ADC_MspDeInit) refers to stm32f7xx_hal_gpio.o(i.HAL_GPIO_DeInit) for HAL_GPIO_DeInit
    stm32f7xx_hal_msp.o(i.HAL_ADC_MspDeInit) refers to stm32f7xx_hal_dma.o(i.HAL_DMA_DeInit) for HAL_DMA_DeInit
    stm32f7xx_hal_msp.o(i.HAL_ADC_MspInit) refers to stm32f7xx_hal_gpio.o(i.HAL_GPIO_Init) for HAL_GPIO_Init
    stm32f7xx_hal_msp.o(i.HAL_ADC_MspInit) refers to stm32f7xx_hal_dma.o(i.HAL_DMA_Init) for HAL_DMA_Init
    stm32f7xx_hal_msp.o(i.HAL_ADC_MspInit) refers to main.o(.bss) for hdma_adc1
    stm32f7xx_hal_msp.o(i.HAL_ADC_MspInit) refers to main.o(.bss) for hdma_adc3
    stm32f7xx_hal_msp.o(i.HAL_MspInit) refers to stm32f7xx_hal_cortex.o(i.HAL_NVIC_SetPriorityGrouping) for HAL_NVIC_SetPriorityGrouping
    stm32f7xx_hal_msp.o(i.HAL_MspInit) refers to stm32f7xx_hal_cortex.o(i.HAL_NVIC_SetPriority) for HAL_NVIC_SetPriority
    stm32f7xx_hal_msp.o(i.HAL_UART_MspDeInit) refers to stm32f7xx_hal_gpio.o(i.HAL_GPIO_DeInit) for HAL_GPIO_DeInit
    stm32f7xx_hal_msp.o(i.HAL_UART_MspInit) refers to stm32f7xx_hal_gpio.o(i.HAL_GPIO_Init) for HAL_GPIO_Init
    stm32f7xx_it.o(i.DMA2_Stream0_IRQHandler) refers to stm32f7xx_hal_dma.o(i.HAL_DMA_IRQHandler) for HAL_DMA_IRQHandler
    stm32f7xx_it.o(i.DMA2_Stream0_IRQHandler) refers to main.o(.bss) for hdma_adc3
    stm32f7xx_it.o(i.DMA2_Stream4_IRQHandler) refers to stm32f7xx_hal_dma.o(i.HAL_DMA_IRQHandler) for HAL_DMA_IRQHandler
    stm32f7xx_it.o(i.DMA2_Stream4_IRQHandler) refers to main.o(.bss) for hdma_adc1
    stm32f7xx_it.o(i.EXTI15_10_IRQHandler) refers to stm32f7xx_hal_gpio.o(i.HAL_GPIO_EXTI_IRQHandler) for HAL_GPIO_EXTI_IRQHandler
    main.o(i.HAL_GPIO_EXTI_Callback) refers to stm32f7xx_hal_adc.o(i.HAL_ADC_Start_DMA) for HAL_ADC_Start_DMA
    main.o(i.HAL_GPIO_EXTI_Callback) refers to stm32f7xx_hal_adc.o(i.HAL_ADC_Stop_DMA) for HAL_ADC_Stop_DMA
    main.o(i.HAL_GPIO_EXTI_Callback) refers to main.o(.data) for .data
    main.o(i.HAL_GPIO_EXTI_Callback) refers to main.o(.bss) for .bss
    main.o(i._Z12MX_ADC1_Initv) refers to stm32f7xx_hal_adc.o(i.HAL_ADC_Init) for HAL_ADC_Init
    main.o(i._Z12MX_ADC1_Initv) refers to stm32f7xx_hal_adc.o(i.HAL_ADC_ConfigChannel) for HAL_ADC_ConfigChannel
    main.o(i._Z12MX_ADC1_Initv) refers to main.o(.bss) for .bss
    main.o(i._Z12MX_ADC3_Initv) refers to stm32f7xx_hal_adc.o(i.HAL_ADC_Init) for HAL_ADC_Init
    main.o(i._Z12MX_ADC3_Initv) refers to stm32f7xx_hal_adc.o(i.HAL_ADC_ConfigChannel) for HAL_ADC_ConfigChannel
    main.o(i._Z12MX_ADC3_Initv) refers to main.o(.bss) for .bss
    main.o(i._Z12MX_GPIO_Initv) refers to stm32f7xx_hal_gpio.o(i.HAL_GPIO_WritePin) for HAL_GPIO_WritePin
    main.o(i._Z12MX_GPIO_Initv) refers to stm32f7xx_hal_gpio.o(i.HAL_GPIO_Init) for HAL_GPIO_Init
    main.o(i._Z12MX_GPIO_Initv) refers to stm32f7xx_hal_cortex.o(i.HAL_NVIC_SetPriority) for HAL_NVIC_SetPriority
    main.o(i._Z12MX_GPIO_Initv) refers to stm32f7xx_hal_cortex.o(i.HAL_NVIC_EnableIRQ) for HAL_NVIC_EnableIRQ
    main.o(i._Z12MX_TIM2_Initv) refers to stm32f7xx_hal_tim.o(i.HAL_TIM_OC_Init) for HAL_TIM_OC_Init
    main.o(i._Z12MX_TIM2_Initv) refers to stm32f7xx_hal_tim_ex.o(i.HAL_TIMEx_MasterConfigSynchronization) for HAL_TIMEx_MasterConfigSynchronization
    main.o(i._Z12MX_TIM2_Initv) refers to stm32f7xx_hal_tim_ex.o(i.HAL_TIM_OC_ConfigChannel) for HAL_TIM_OC_ConfigChannel
    main.o(i._Z12MX_TIM2_Initv) refers to main.o(.bss) for .bss
    main.o(i._Z12MX_TIM4_Initv) refers to stm32f7xx_hal_tim.o(i.HAL_TIM_Base_Init) for HAL_TIM_Base_Init
    main.o(i._Z12MX_TIM4_Initv) refers to stm32f7xx_hal_tim.o(i.HAL_TIM_ConfigClockSource) for HAL_TIM_ConfigClockSource
    main.o(i._Z12MX_TIM4_Initv) refers to stm32f7xx_hal_tim.o(i.HAL_TIM_OC_Init) for HAL_TIM_OC_Init
    main.o(i._Z12MX_TIM4_Initv) refers to stm32f7xx_hal_tim_ex.o(i.HAL_TIMEx_MasterConfigSynchronization) for HAL_TIMEx_MasterConfigSynchronization
    main.o(i._Z12MX_TIM4_Initv) refers to stm32f7xx_hal_tim_ex.o(i.HAL_TIM_OC_ConfigChannel) for HAL_TIM_OC_ConfigChannel
    main.o(i._Z12MX_TIM4_Initv) refers to main.o(.bss) for .bss
    main.o(i._Z12SetTimeScalev) refers to main.o(i._Z16MX_TIM2_Init_Modii) for MX_TIM2_Init_Mod(int, int)
    main.o(i._Z12SetTimeScalev) refers to main.o(i._Z16MX_TIM4_Init_Modii) for MX_TIM4_Init_Mod(int, int)
    main.o(i._Z12SetTimeScalev) refers to main.o(.data) for .data
    main.o(i._Z16MX_TIM2_Init_Modii) refers to stm32f7xx_hal_tim.o(i.HAL_TIM_OC_Init) for HAL_TIM_OC_Init
    main.o(i._Z16MX_TIM2_Init_Modii) refers to stm32f7xx_hal_tim_ex.o(i.HAL_TIMEx_MasterConfigSynchronization) for HAL_TIMEx_MasterConfigSynchronization
    main.o(i._Z16MX_TIM2_Init_Modii) refers to stm32f7xx_hal_tim_ex.o(i.HAL_TIM_OC_ConfigChannel) for HAL_TIM_OC_ConfigChannel
    main.o(i._Z16MX_TIM2_Init_Modii) refers to main.o(.bss) for .bss
    main.o(i._Z16MX_TIM4_Init_Modii) refers to stm32f7xx_hal_tim.o(i.HAL_TIM_Base_Init) for HAL_TIM_Base_Init
    main.o(i._Z16MX_TIM4_Init_Modii) refers to stm32f7xx_hal_tim.o(i.HAL_TIM_ConfigClockSource) for HAL_TIM_ConfigClockSource
    main.o(i._Z16MX_TIM4_Init_Modii) refers to stm32f7xx_hal_tim.o(i.HAL_TIM_OC_Init) for HAL_TIM_OC_Init
    main.o(i._Z16MX_TIM4_Init_Modii) refers to stm32f7xx_hal_tim_ex.o(i.HAL_TIMEx_MasterConfigSynchronization) for HAL_TIMEx_MasterConfigSynchronization
    main.o(i._Z16MX_TIM4_Init_Modii) refers to stm32f7xx_hal_tim_ex.o(i.HAL_TIM_OC_ConfigChannel) for HAL_TIM_OC_ConfigChannel
    main.o(i._Z16MX_TIM4_Init_Modii) refers to main.o(.bss) for .bss
    main.o(i._Z17PushDaTaToModel_1v) refers to main.o(.bss) for .bss
    main.o(i._Z17PushDaTaToModel_2v) refers to main.o(.bss) for .bss
    main.o(i._Z18GetDataFromModel_1i) refers to main.o(.data) for .data
    main.o(i._Z18GetDataFromModel_2i) refers to main.o(.data) for .data
    main.o(i._Z7ADCTaskPv) refers to stm32f7xx_hal_adc.o(i.HAL_ADC_Start_DMA) for HAL_ADC_Start_DMA
    main.o(i._Z7ADCTaskPv) refers to stm32f7xx_hal_tim.o(i.HAL_TIM_OC_Start) for HAL_TIM_OC_Start
    main.o(i._Z7ADCTaskPv) refers to main.o(i._Z12SetTimeScalev) for SetTimeScale()
    main.o(i._Z7ADCTaskPv) refers to tasks.o(i.vTaskDelay) for vTaskDelay
    main.o(i._Z7ADCTaskPv) refers to main.o(.bss) for .bss
    main.o(i._Z7ADCTaskPv) refers to main.o(.data) for .data
    main.o(i._Z7GUITaskPv) refers to hal.o(.data) for touchgfx::HAL::instance
    main.o(i.fputc) refers to stm32f7xx_hal_uart.o(i.HAL_UART_Transmit) for HAL_UART_Transmit
    main.o(i.fputc) refers to main.o(.bss) for .bss
    main.o(i.main) refers to boardconfiguration.o(i._ZN8touchgfx7hw_initEv) for touchgfx::hw_init()
    main.o(i.main) refers to boardconfiguration.o(i._ZN8touchgfx13touchgfx_initEv) for touchgfx::touchgfx_init()
    main.o(i.main) refers to main.o(i._Z12MX_GPIO_Initv) for MX_GPIO_Init()
    main.o(i.main) refers to stm32f7xx_hal_cortex.o(i.HAL_NVIC_SetPriority) for HAL_NVIC_SetPriority
    main.o(i.main) refers to stm32f7xx_hal_cortex.o(i.HAL_NVIC_EnableIRQ) for HAL_NVIC_EnableIRQ
    main.o(i.main) refers to main.o(i._Z12MX_ADC1_Initv) for MX_ADC1_Init()
    main.o(i.main) refers to main.o(i._Z12MX_ADC3_Initv) for MX_ADC3_Init()
    main.o(i.main) refers to main.o(i._Z12MX_TIM2_Initv) for MX_TIM2_Init()
    main.o(i.main) refers to main.o(i._Z12MX_TIM4_Initv) for MX_TIM4_Init()
    main.o(i.main) refers to stm32f7xx_hal_uart.o(i.HAL_UART_Init) for HAL_UART_Init
    main.o(i.main) refers to printfb.o(i.__0printf$bare) for __2printf
    main.o(i.main) refers to canvaswidgetrenderer.o(i._ZN8touchgfx20CanvasWidgetRenderer11setupBufferEPhj) for touchgfx::CanvasWidgetRenderer::setupBuffer(unsigned char*, unsigned)
    main.o(i.main) refers to tasks.o(i.xTaskGenericCreate) for xTaskGenericCreate
    main.o(i.main) refers to tasks.o(i.vTaskStartScheduler) for vTaskStartScheduler
    main.o(i.main) refers to main.o(.bss) for .bss
    main.o(i.main) refers to main.o(i._Z7GUITaskPv) for GUITask(void*)
    main.o(i.main) refers to main.o(i._Z7ADCTaskPv) for ADCTask(void*)
    main.o(.ARM.exidx) refers to main.o(i._Z7GUITaskPv) for i._Z7GUITaskPv
    main.o(.ARM.exidx) refers to main.o(i._Z13Error_Handlerv) for i._Z13Error_Handlerv
    main.o(.ARM.exidx) refers to main.o(i._Z16MX_TIM4_Init_Modii) for i._Z16MX_TIM4_Init_Modii
    main.o(.ARM.exidx) refers to main.o(i._Z16MX_TIM2_Init_Modii) for i._Z16MX_TIM2_Init_Modii
    main.o(.ARM.exidx) refers to main.o(i._Z12SetTimeScalev) for i._Z12SetTimeScalev
    main.o(.ARM.exidx) refers to main.o(i._Z7ADCTaskPv) for i._Z7ADCTaskPv
    main.o(.ARM.exidx) refers to main.o(i.main) for i.main
    main.o(.ARM.exidx) refers to main.o(i.HAL_GPIO_EXTI_Callback) for i.HAL_GPIO_EXTI_Callback
    main.o(.ARM.exidx) refers to main.o(i.fputc) for i.fputc
    main.o(.ARM.exidx) refers to main.o(i._Z17PushDaTaToModel_1v) for i._Z17PushDaTaToModel_1v
    main.o(.ARM.exidx) refers to main.o(i._Z17PushDaTaToModel_2v) for i._Z17PushDaTaToModel_2v
    main.o(.ARM.exidx) refers to main.o(i._Z18GetDataFromModel_1i) for i._Z18GetDataFromModel_1i
    main.o(.ARM.exidx) refers to main.o(i._Z18GetDataFromModel_2i) for i._Z18GetDataFromModel_2i
    main.o(.ARM.exidx) refers to main.o(i._Z12MX_TIM4_Initv) for i._Z12MX_TIM4_Initv
    main.o(.ARM.exidx) refers to main.o(i._Z12MX_TIM2_Initv) for i._Z12MX_TIM2_Initv
    main.o(.ARM.exidx) refers to main.o(i._Z12MX_ADC3_Initv) for i._Z12MX_ADC3_Initv
    main.o(.ARM.exidx) refers to main.o(i._Z12MX_ADC1_Initv) for i._Z12MX_ADC1_Initv
    main.o(.ARM.exidx) refers to main.o(i._Z12MX_GPIO_Initv) for i._Z12MX_GPIO_Initv
    stm32f7xx_hal_rcc_ex.o(i.HAL_RCCEx_PeriphCLKConfig) refers to stm32f7xx_hal.o(i.HAL_GetTick) for HAL_GetTick
    stm32f7xx_hal_i2c.o(i.HAL_I2C_DeInit) refers to stm32f7xx_hal_i2c.o(i.HAL_I2C_MspDeInit) for HAL_I2C_MspDeInit
    stm32f7xx_hal_i2c.o(i.HAL_I2C_DisableListen_IT) refers to stm32f7xx_hal_i2c.o(i.I2C_Disable_IRQ) for I2C_Disable_IRQ
    stm32f7xx_hal_i2c.o(i.HAL_I2C_ER_IRQHandler) refers to stm32f7xx_hal_i2c.o(i.I2C_ITError) for I2C_ITError
    stm32f7xx_hal_i2c.o(i.HAL_I2C_EnableListen_IT) refers to stm32f7xx_hal_i2c.o(i.I2C_Enable_IRQ) for I2C_Enable_IRQ
    stm32f7xx_hal_i2c.o(i.HAL_I2C_EnableListen_IT) refers to stm32f7xx_hal_i2c.o(i.I2C_Slave_ISR_IT) for I2C_Slave_ISR_IT
    stm32f7xx_hal_i2c.o(i.HAL_I2C_Init) refers to stm32f7xx_hal_i2c.o(i.HAL_I2C_MspInit) for HAL_I2C_MspInit
    stm32f7xx_hal_i2c.o(i.HAL_I2C_IsDeviceReady) refers to stm32f7xx_hal.o(i.HAL_GetTick) for HAL_GetTick
    stm32f7xx_hal_i2c.o(i.HAL_I2C_IsDeviceReady) refers to stm32f7xx_hal_i2c.o(i.I2C_WaitOnFlagUntilTimeout) for I2C_WaitOnFlagUntilTimeout
    stm32f7xx_hal_i2c.o(i.HAL_I2C_Master_Abort_IT) refers to stm32f7xx_hal_i2c.o(i.I2C_Disable_IRQ) for I2C_Disable_IRQ
    stm32f7xx_hal_i2c.o(i.HAL_I2C_Master_Abort_IT) refers to stm32f7xx_hal_i2c.o(i.I2C_TransferConfig) for I2C_TransferConfig
    stm32f7xx_hal_i2c.o(i.HAL_I2C_Master_Abort_IT) refers to stm32f7xx_hal_i2c.o(i.I2C_Enable_IRQ) for I2C_Enable_IRQ
    stm32f7xx_hal_i2c.o(i.HAL_I2C_Master_Receive) refers to stm32f7xx_hal.o(i.HAL_GetTick) for HAL_GetTick
    stm32f7xx_hal_i2c.o(i.HAL_I2C_Master_Receive) refers to stm32f7xx_hal_i2c.o(i.I2C_WaitOnFlagUntilTimeout) for I2C_WaitOnFlagUntilTimeout
    stm32f7xx_hal_i2c.o(i.HAL_I2C_Master_Receive) refers to stm32f7xx_hal_i2c.o(i.I2C_TransferConfig) for I2C_TransferConfig
    stm32f7xx_hal_i2c.o(i.HAL_I2C_Master_Receive) refers to stm32f7xx_hal_i2c.o(i.I2C_WaitOnRXNEFlagUntilTimeout) for I2C_WaitOnRXNEFlagUntilTimeout
    stm32f7xx_hal_i2c.o(i.HAL_I2C_Master_Receive) refers to stm32f7xx_hal_i2c.o(i.I2C_WaitOnSTOPFlagUntilTimeout) for I2C_WaitOnSTOPFlagUntilTimeout
    stm32f7xx_hal_i2c.o(i.HAL_I2C_Master_Receive_DMA) refers to stm32f7xx_hal_dma.o(i.HAL_DMA_Start_IT) for HAL_DMA_Start_IT
    stm32f7xx_hal_i2c.o(i.HAL_I2C_Master_Receive_DMA) refers to stm32f7xx_hal_i2c.o(i.I2C_TransferConfig) for I2C_TransferConfig
    stm32f7xx_hal_i2c.o(i.HAL_I2C_Master_Receive_DMA) refers to stm32f7xx_hal_i2c.o(i.I2C_Enable_IRQ) for I2C_Enable_IRQ
    stm32f7xx_hal_i2c.o(i.HAL_I2C_Master_Receive_DMA) refers to stm32f7xx_hal_i2c.o(i.I2C_Master_ISR_DMA) for I2C_Master_ISR_DMA
    stm32f7xx_hal_i2c.o(i.HAL_I2C_Master_Receive_DMA) refers to stm32f7xx_hal_i2c.o(i.I2C_DMAMasterReceiveCplt) for I2C_DMAMasterReceiveCplt
    stm32f7xx_hal_i2c.o(i.HAL_I2C_Master_Receive_DMA) refers to stm32f7xx_hal_i2c.o(i.I2C_DMAError) for I2C_DMAError
    stm32f7xx_hal_i2c.o(i.HAL_I2C_Master_Receive_IT) refers to stm32f7xx_hal_i2c.o(i.I2C_TransferConfig) for I2C_TransferConfig
    stm32f7xx_hal_i2c.o(i.HAL_I2C_Master_Receive_IT) refers to stm32f7xx_hal_i2c.o(i.I2C_Enable_IRQ) for I2C_Enable_IRQ
    stm32f7xx_hal_i2c.o(i.HAL_I2C_Master_Receive_IT) refers to stm32f7xx_hal_i2c.o(i.I2C_Master_ISR_IT) for I2C_Master_ISR_IT
    stm32f7xx_hal_i2c.o(i.HAL_I2C_Master_Sequential_Receive_IT) refers to stm32f7xx_hal_i2c.o(i.I2C_TransferConfig) for I2C_TransferConfig
    stm32f7xx_hal_i2c.o(i.HAL_I2C_Master_Sequential_Receive_IT) refers to stm32f7xx_hal_i2c.o(i.I2C_Enable_IRQ) for I2C_Enable_IRQ
    stm32f7xx_hal_i2c.o(i.HAL_I2C_Master_Sequential_Receive_IT) refers to stm32f7xx_hal_i2c.o(i.I2C_Master_ISR_IT) for I2C_Master_ISR_IT
    stm32f7xx_hal_i2c.o(i.HAL_I2C_Master_Sequential_Transmit_IT) refers to stm32f7xx_hal_i2c.o(i.I2C_TransferConfig) for I2C_TransferConfig
    stm32f7xx_hal_i2c.o(i.HAL_I2C_Master_Sequential_Transmit_IT) refers to stm32f7xx_hal_i2c.o(i.I2C_Enable_IRQ) for I2C_Enable_IRQ
    stm32f7xx_hal_i2c.o(i.HAL_I2C_Master_Sequential_Transmit_IT) refers to stm32f7xx_hal_i2c.o(i.I2C_Master_ISR_IT) for I2C_Master_ISR_IT
    stm32f7xx_hal_i2c.o(i.HAL_I2C_Master_Transmit) refers to stm32f7xx_hal.o(i.HAL_GetTick) for HAL_GetTick
    stm32f7xx_hal_i2c.o(i.HAL_I2C_Master_Transmit) refers to stm32f7xx_hal_i2c.o(i.I2C_WaitOnFlagUntilTimeout) for I2C_WaitOnFlagUntilTimeout
    stm32f7xx_hal_i2c.o(i.HAL_I2C_Master_Transmit) refers to stm32f7xx_hal_i2c.o(i.I2C_TransferConfig) for I2C_TransferConfig
    stm32f7xx_hal_i2c.o(i.HAL_I2C_Master_Transmit) refers to stm32f7xx_hal_i2c.o(i.I2C_WaitOnTXISFlagUntilTimeout) for I2C_WaitOnTXISFlagUntilTimeout
    stm32f7xx_hal_i2c.o(i.HAL_I2C_Master_Transmit) refers to stm32f7xx_hal_i2c.o(i.I2C_WaitOnSTOPFlagUntilTimeout) for I2C_WaitOnSTOPFlagUntilTimeout
    stm32f7xx_hal_i2c.o(i.HAL_I2C_Master_Transmit_DMA) refers to stm32f7xx_hal_dma.o(i.HAL_DMA_Start_IT) for HAL_DMA_Start_IT
    stm32f7xx_hal_i2c.o(i.HAL_I2C_Master_Transmit_DMA) refers to stm32f7xx_hal_i2c.o(i.I2C_TransferConfig) for I2C_TransferConfig
    stm32f7xx_hal_i2c.o(i.HAL_I2C_Master_Transmit_DMA) refers to stm32f7xx_hal_i2c.o(i.I2C_Enable_IRQ) for I2C_Enable_IRQ
    stm32f7xx_hal_i2c.o(i.HAL_I2C_Master_Transmit_DMA) refers to stm32f7xx_hal_i2c.o(i.I2C_Master_ISR_DMA) for I2C_Master_ISR_DMA
    stm32f7xx_hal_i2c.o(i.HAL_I2C_Master_Transmit_DMA) refers to stm32f7xx_hal_i2c.o(i.I2C_DMAMasterTransmitCplt) for I2C_DMAMasterTransmitCplt
    stm32f7xx_hal_i2c.o(i.HAL_I2C_Master_Transmit_DMA) refers to stm32f7xx_hal_i2c.o(i.I2C_DMAError) for I2C_DMAError
    stm32f7xx_hal_i2c.o(i.HAL_I2C_Master_Transmit_IT) refers to stm32f7xx_hal_i2c.o(i.I2C_TransferConfig) for I2C_TransferConfig
    stm32f7xx_hal_i2c.o(i.HAL_I2C_Master_Transmit_IT) refers to stm32f7xx_hal_i2c.o(i.I2C_Enable_IRQ) for I2C_Enable_IRQ
    stm32f7xx_hal_i2c.o(i.HAL_I2C_Master_Transmit_IT) refers to stm32f7xx_hal_i2c.o(i.I2C_Master_ISR_IT) for I2C_Master_ISR_IT
    stm32f7xx_hal_i2c.o(i.HAL_I2C_Mem_Read) refers to stm32f7xx_hal.o(i.HAL_GetTick) for HAL_GetTick
    stm32f7xx_hal_i2c.o(i.HAL_I2C_Mem_Read) refers to stm32f7xx_hal_i2c.o(i.I2C_WaitOnFlagUntilTimeout) for I2C_WaitOnFlagUntilTimeout
    stm32f7xx_hal_i2c.o(i.HAL_I2C_Mem_Read) refers to stm32f7xx_hal_i2c.o(i.I2C_RequestMemoryRead) for I2C_RequestMemoryRead
    stm32f7xx_hal_i2c.o(i.HAL_I2C_Mem_Read) refers to stm32f7xx_hal_i2c.o(i.I2C_TransferConfig) for I2C_TransferConfig
    stm32f7xx_hal_i2c.o(i.HAL_I2C_Mem_Read) refers to stm32f7xx_hal_i2c.o(i.I2C_WaitOnSTOPFlagUntilTimeout) for I2C_WaitOnSTOPFlagUntilTimeout
    stm32f7xx_hal_i2c.o(i.HAL_I2C_Mem_Read_DMA) refers to stm32f7xx_hal.o(i.HAL_GetTick) for HAL_GetTick
    stm32f7xx_hal_i2c.o(i.HAL_I2C_Mem_Read_DMA) refers to stm32f7xx_hal_i2c.o(i.I2C_RequestMemoryRead) for I2C_RequestMemoryRead
    stm32f7xx_hal_i2c.o(i.HAL_I2C_Mem_Read_DMA) refers to stm32f7xx_hal_dma.o(i.HAL_DMA_Start_IT) for HAL_DMA_Start_IT
    stm32f7xx_hal_i2c.o(i.HAL_I2C_Mem_Read_DMA) refers to stm32f7xx_hal_i2c.o(i.I2C_TransferConfig) for I2C_TransferConfig
    stm32f7xx_hal_i2c.o(i.HAL_I2C_Mem_Read_DMA) refers to stm32f7xx_hal_i2c.o(i.I2C_Enable_IRQ) for I2C_Enable_IRQ
    stm32f7xx_hal_i2c.o(i.HAL_I2C_Mem_Read_DMA) refers to stm32f7xx_hal_i2c.o(i.I2C_Master_ISR_DMA) for I2C_Master_ISR_DMA
    stm32f7xx_hal_i2c.o(i.HAL_I2C_Mem_Read_DMA) refers to stm32f7xx_hal_i2c.o(i.I2C_DMAMasterReceiveCplt) for I2C_DMAMasterReceiveCplt
    stm32f7xx_hal_i2c.o(i.HAL_I2C_Mem_Read_DMA) refers to stm32f7xx_hal_i2c.o(i.I2C_DMAError) for I2C_DMAError
    stm32f7xx_hal_i2c.o(i.HAL_I2C_Mem_Read_IT) refers to stm32f7xx_hal.o(i.HAL_GetTick) for HAL_GetTick
    stm32f7xx_hal_i2c.o(i.HAL_I2C_Mem_Read_IT) refers to stm32f7xx_hal_i2c.o(i.I2C_RequestMemoryRead) for I2C_RequestMemoryRead
    stm32f7xx_hal_i2c.o(i.HAL_I2C_Mem_Read_IT) refers to stm32f7xx_hal_i2c.o(i.I2C_TransferConfig) for I2C_TransferConfig
    stm32f7xx_hal_i2c.o(i.HAL_I2C_Mem_Read_IT) refers to stm32f7xx_hal_i2c.o(i.I2C_Enable_IRQ) for I2C_Enable_IRQ
    stm32f7xx_hal_i2c.o(i.HAL_I2C_Mem_Read_IT) refers to stm32f7xx_hal_i2c.o(i.I2C_Master_ISR_IT) for I2C_Master_ISR_IT
    stm32f7xx_hal_i2c.o(i.HAL_I2C_Mem_Write) refers to stm32f7xx_hal.o(i.HAL_GetTick) for HAL_GetTick
    stm32f7xx_hal_i2c.o(i.HAL_I2C_Mem_Write) refers to stm32f7xx_hal_i2c.o(i.I2C_WaitOnFlagUntilTimeout) for I2C_WaitOnFlagUntilTimeout
    stm32f7xx_hal_i2c.o(i.HAL_I2C_Mem_Write) refers to stm32f7xx_hal_i2c.o(i.I2C_RequestMemoryWrite) for I2C_RequestMemoryWrite
    stm32f7xx_hal_i2c.o(i.HAL_I2C_Mem_Write) refers to stm32f7xx_hal_i2c.o(i.I2C_TransferConfig) for I2C_TransferConfig
    stm32f7xx_hal_i2c.o(i.HAL_I2C_Mem_Write) refers to stm32f7xx_hal_i2c.o(i.I2C_WaitOnTXISFlagUntilTimeout) for I2C_WaitOnTXISFlagUntilTimeout
    stm32f7xx_hal_i2c.o(i.HAL_I2C_Mem_Write) refers to stm32f7xx_hal_i2c.o(i.I2C_WaitOnSTOPFlagUntilTimeout) for I2C_WaitOnSTOPFlagUntilTimeout
    stm32f7xx_hal_i2c.o(i.HAL_I2C_Mem_Write_DMA) refers to stm32f7xx_hal.o(i.HAL_GetTick) for HAL_GetTick
    stm32f7xx_hal_i2c.o(i.HAL_I2C_Mem_Write_DMA) refers to stm32f7xx_hal_i2c.o(i.I2C_RequestMemoryWrite) for I2C_RequestMemoryWrite
    stm32f7xx_hal_i2c.o(i.HAL_I2C_Mem_Write_DMA) refers to stm32f7xx_hal_dma.o(i.HAL_DMA_Start_IT) for HAL_DMA_Start_IT
    stm32f7xx_hal_i2c.o(i.HAL_I2C_Mem_Write_DMA) refers to stm32f7xx_hal_i2c.o(i.I2C_TransferConfig) for I2C_TransferConfig
    stm32f7xx_hal_i2c.o(i.HAL_I2C_Mem_Write_DMA) refers to stm32f7xx_hal_i2c.o(i.I2C_Enable_IRQ) for I2C_Enable_IRQ
    stm32f7xx_hal_i2c.o(i.HAL_I2C_Mem_Write_DMA) refers to stm32f7xx_hal_i2c.o(i.I2C_Master_ISR_DMA) for I2C_Master_ISR_DMA
    stm32f7xx_hal_i2c.o(i.HAL_I2C_Mem_Write_DMA) refers to stm32f7xx_hal_i2c.o(i.I2C_DMAMasterTransmitCplt) for I2C_DMAMasterTransmitCplt
    stm32f7xx_hal_i2c.o(i.HAL_I2C_Mem_Write_DMA) refers to stm32f7xx_hal_i2c.o(i.I2C_DMAError) for I2C_DMAError
    stm32f7xx_hal_i2c.o(i.HAL_I2C_Mem_Write_IT) refers to stm32f7xx_hal.o(i.HAL_GetTick) for HAL_GetTick
    stm32f7xx_hal_i2c.o(i.HAL_I2C_Mem_Write_IT) refers to stm32f7xx_hal_i2c.o(i.I2C_RequestMemoryWrite) for I2C_RequestMemoryWrite
    stm32f7xx_hal_i2c.o(i.HAL_I2C_Mem_Write_IT) refers to stm32f7xx_hal_i2c.o(i.I2C_TransferConfig) for I2C_TransferConfig
    stm32f7xx_hal_i2c.o(i.HAL_I2C_Mem_Write_IT) refers to stm32f7xx_hal_i2c.o(i.I2C_Enable_IRQ) for I2C_Enable_IRQ
    stm32f7xx_hal_i2c.o(i.HAL_I2C_Mem_Write_IT) refers to stm32f7xx_hal_i2c.o(i.I2C_Master_ISR_IT) for I2C_Master_ISR_IT
    stm32f7xx_hal_i2c.o(i.HAL_I2C_Slave_Receive) refers to stm32f7xx_hal.o(i.HAL_GetTick) for HAL_GetTick
    stm32f7xx_hal_i2c.o(i.HAL_I2C_Slave_Receive) refers to stm32f7xx_hal_i2c.o(i.I2C_WaitOnFlagUntilTimeout) for I2C_WaitOnFlagUntilTimeout
    stm32f7xx_hal_i2c.o(i.HAL_I2C_Slave_Receive) refers to stm32f7xx_hal_i2c.o(i.I2C_WaitOnRXNEFlagUntilTimeout) for I2C_WaitOnRXNEFlagUntilTimeout
    stm32f7xx_hal_i2c.o(i.HAL_I2C_Slave_Receive) refers to stm32f7xx_hal_i2c.o(i.I2C_WaitOnSTOPFlagUntilTimeout) for I2C_WaitOnSTOPFlagUntilTimeout
    stm32f7xx_hal_i2c.o(i.HAL_I2C_Slave_Receive_DMA) refers to stm32f7xx_hal_dma.o(i.HAL_DMA_Start_IT) for HAL_DMA_Start_IT
    stm32f7xx_hal_i2c.o(i.HAL_I2C_Slave_Receive_DMA) refers to stm32f7xx_hal_i2c.o(i.I2C_Enable_IRQ) for I2C_Enable_IRQ
    stm32f7xx_hal_i2c.o(i.HAL_I2C_Slave_Receive_DMA) refers to stm32f7xx_hal_i2c.o(i.I2C_Slave_ISR_DMA) for I2C_Slave_ISR_DMA
    stm32f7xx_hal_i2c.o(i.HAL_I2C_Slave_Receive_DMA) refers to stm32f7xx_hal_i2c.o(i.I2C_DMASlaveReceiveCplt) for I2C_DMASlaveReceiveCplt
    stm32f7xx_hal_i2c.o(i.HAL_I2C_Slave_Receive_DMA) refers to stm32f7xx_hal_i2c.o(i.I2C_DMAError) for I2C_DMAError
    stm32f7xx_hal_i2c.o(i.HAL_I2C_Slave_Receive_IT) refers to stm32f7xx_hal_i2c.o(i.I2C_Enable_IRQ) for I2C_Enable_IRQ
    stm32f7xx_hal_i2c.o(i.HAL_I2C_Slave_Receive_IT) refers to stm32f7xx_hal_i2c.o(i.I2C_Slave_ISR_IT) for I2C_Slave_ISR_IT
    stm32f7xx_hal_i2c.o(i.HAL_I2C_Slave_Sequential_Receive_IT) refers to stm32f7xx_hal_i2c.o(i.I2C_Disable_IRQ) for I2C_Disable_IRQ
    stm32f7xx_hal_i2c.o(i.HAL_I2C_Slave_Sequential_Receive_IT) refers to stm32f7xx_hal_i2c.o(i.I2C_Enable_IRQ) for I2C_Enable_IRQ
    stm32f7xx_hal_i2c.o(i.HAL_I2C_Slave_Sequential_Receive_IT) refers to stm32f7xx_hal_i2c.o(i.I2C_Slave_ISR_IT) for I2C_Slave_ISR_IT
    stm32f7xx_hal_i2c.o(i.HAL_I2C_Slave_Sequential_Transmit_IT) refers to stm32f7xx_hal_i2c.o(i.I2C_Disable_IRQ) for I2C_Disable_IRQ
    stm32f7xx_hal_i2c.o(i.HAL_I2C_Slave_Sequential_Transmit_IT) refers to stm32f7xx_hal_i2c.o(i.I2C_Enable_IRQ) for I2C_Enable_IRQ
    stm32f7xx_hal_i2c.o(i.HAL_I2C_Slave_Sequential_Transmit_IT) refers to stm32f7xx_hal_i2c.o(i.I2C_Slave_ISR_IT) for I2C_Slave_ISR_IT
    stm32f7xx_hal_i2c.o(i.HAL_I2C_Slave_Transmit) refers to stm32f7xx_hal.o(i.HAL_GetTick) for HAL_GetTick
    stm32f7xx_hal_i2c.o(i.HAL_I2C_Slave_Transmit) refers to stm32f7xx_hal_i2c.o(i.I2C_WaitOnFlagUntilTimeout) for I2C_WaitOnFlagUntilTimeout
    stm32f7xx_hal_i2c.o(i.HAL_I2C_Slave_Transmit) refers to stm32f7xx_hal_i2c.o(i.I2C_WaitOnTXISFlagUntilTimeout) for I2C_WaitOnTXISFlagUntilTimeout
    stm32f7xx_hal_i2c.o(i.HAL_I2C_Slave_Transmit) refers to stm32f7xx_hal_i2c.o(i.I2C_WaitOnSTOPFlagUntilTimeout) for I2C_WaitOnSTOPFlagUntilTimeout
    stm32f7xx_hal_i2c.o(i.HAL_I2C_Slave_Transmit_DMA) refers to stm32f7xx_hal_dma.o(i.HAL_DMA_Start_IT) for HAL_DMA_Start_IT
    stm32f7xx_hal_i2c.o(i.HAL_I2C_Slave_Transmit_DMA) refers to stm32f7xx_hal_i2c.o(i.I2C_Enable_IRQ) for I2C_Enable_IRQ
    stm32f7xx_hal_i2c.o(i.HAL_I2C_Slave_Transmit_DMA) refers to stm32f7xx_hal_i2c.o(i.I2C_Slave_ISR_DMA) for I2C_Slave_ISR_DMA
    stm32f7xx_hal_i2c.o(i.HAL_I2C_Slave_Transmit_DMA) refers to stm32f7xx_hal_i2c.o(i.I2C_DMASlaveTransmitCplt) for I2C_DMASlaveTransmitCplt
    stm32f7xx_hal_i2c.o(i.HAL_I2C_Slave_Transmit_DMA) refers to stm32f7xx_hal_i2c.o(i.I2C_DMAError) for I2C_DMAError
    stm32f7xx_hal_i2c.o(i.HAL_I2C_Slave_Transmit_IT) refers to stm32f7xx_hal_i2c.o(i.I2C_Enable_IRQ) for I2C_Enable_IRQ
    stm32f7xx_hal_i2c.o(i.HAL_I2C_Slave_Transmit_IT) refers to stm32f7xx_hal_i2c.o(i.I2C_Slave_ISR_IT) for I2C_Slave_ISR_IT
    stm32f7xx_hal_i2c.o(i.I2C_DMAAbort) refers to stm32f7xx_hal_i2c.o(i.HAL_I2C_ErrorCallback) for HAL_I2C_ErrorCallback
    stm32f7xx_hal_i2c.o(i.I2C_DMAAbort) refers to stm32f7xx_hal_i2c.o(i.HAL_I2C_AbortCpltCallback) for HAL_I2C_AbortCpltCallback
    stm32f7xx_hal_i2c.o(i.I2C_DMAError) refers to stm32f7xx_hal_i2c.o(i.I2C_ITError) for I2C_ITError
    stm32f7xx_hal_i2c.o(i.I2C_DMAMasterReceiveCplt) refers to stm32f7xx_hal_i2c.o(i.I2C_Enable_IRQ) for I2C_Enable_IRQ
    stm32f7xx_hal_i2c.o(i.I2C_DMAMasterReceiveCplt) refers to stm32f7xx_hal_dma.o(i.HAL_DMA_Start_IT) for HAL_DMA_Start_IT
    stm32f7xx_hal_i2c.o(i.I2C_DMAMasterTransmitCplt) refers to stm32f7xx_hal_i2c.o(i.I2C_Enable_IRQ) for I2C_Enable_IRQ
    stm32f7xx_hal_i2c.o(i.I2C_DMAMasterTransmitCplt) refers to stm32f7xx_hal_dma.o(i.HAL_DMA_Start_IT) for HAL_DMA_Start_IT
    stm32f7xx_hal_i2c.o(i.I2C_Enable_IRQ) refers to stm32f7xx_hal_i2c.o(i.I2C_Master_ISR_DMA) for I2C_Master_ISR_DMA
    stm32f7xx_hal_i2c.o(i.I2C_Enable_IRQ) refers to stm32f7xx_hal_i2c.o(i.I2C_Slave_ISR_DMA) for I2C_Slave_ISR_DMA
    stm32f7xx_hal_i2c.o(i.I2C_ITAddrCplt) refers to stm32f7xx_hal_i2c.o(i.I2C_Disable_IRQ) for I2C_Disable_IRQ
    stm32f7xx_hal_i2c.o(i.I2C_ITAddrCplt) refers to stm32f7xx_hal_i2c.o(i.HAL_I2C_AddrCallback) for HAL_I2C_AddrCallback
    stm32f7xx_hal_i2c.o(i.I2C_ITError) refers to stm32f7xx_hal_i2c.o(i.I2C_Disable_IRQ) for I2C_Disable_IRQ
    stm32f7xx_hal_i2c.o(i.I2C_ITError) refers to stm32f7xx_hal_dma.o(i.HAL_DMA_Abort_IT) for HAL_DMA_Abort_IT
    stm32f7xx_hal_i2c.o(i.I2C_ITError) refers to stm32f7xx_hal_i2c.o(i.HAL_I2C_ErrorCallback) for HAL_I2C_ErrorCallback
    stm32f7xx_hal_i2c.o(i.I2C_ITError) refers to stm32f7xx_hal_i2c.o(i.HAL_I2C_AbortCpltCallback) for HAL_I2C_AbortCpltCallback
    stm32f7xx_hal_i2c.o(i.I2C_ITError) refers to stm32f7xx_hal_i2c.o(i.I2C_DMAAbort) for I2C_DMAAbort
    stm32f7xx_hal_i2c.o(i.I2C_ITError) refers to stm32f7xx_hal_i2c.o(i.I2C_Slave_ISR_IT) for I2C_Slave_ISR_IT
    stm32f7xx_hal_i2c.o(i.I2C_ITListenCplt) refers to stm32f7xx_hal_i2c.o(i.I2C_Disable_IRQ) for I2C_Disable_IRQ
    stm32f7xx_hal_i2c.o(i.I2C_ITListenCplt) refers to stm32f7xx_hal_i2c.o(i.HAL_I2C_ListenCpltCallback) for HAL_I2C_ListenCpltCallback
    stm32f7xx_hal_i2c.o(i.I2C_ITMasterCplt) refers to stm32f7xx_hal_i2c.o(i.I2C_Flush_TXDR) for I2C_Flush_TXDR
    stm32f7xx_hal_i2c.o(i.I2C_ITMasterCplt) refers to stm32f7xx_hal_i2c.o(i.I2C_Disable_IRQ) for I2C_Disable_IRQ
    stm32f7xx_hal_i2c.o(i.I2C_ITMasterCplt) refers to stm32f7xx_hal_i2c.o(i.I2C_ITError) for I2C_ITError
    stm32f7xx_hal_i2c.o(i.I2C_ITMasterCplt) refers to stm32f7xx_hal_i2c.o(i.HAL_I2C_MasterRxCpltCallback) for HAL_I2C_MasterRxCpltCallback
    stm32f7xx_hal_i2c.o(i.I2C_ITMasterCplt) refers to stm32f7xx_hal_i2c.o(i.HAL_I2C_MasterTxCpltCallback) for HAL_I2C_MasterTxCpltCallback
    stm32f7xx_hal_i2c.o(i.I2C_ITMasterCplt) refers to stm32f7xx_hal_i2c.o(i.HAL_I2C_MemTxCpltCallback) for HAL_I2C_MemTxCpltCallback
    stm32f7xx_hal_i2c.o(i.I2C_ITMasterCplt) refers to stm32f7xx_hal_i2c.o(i.HAL_I2C_MemRxCpltCallback) for HAL_I2C_MemRxCpltCallback
    stm32f7xx_hal_i2c.o(i.I2C_ITMasterSequentialCplt) refers to stm32f7xx_hal_i2c.o(i.I2C_Disable_IRQ) for I2C_Disable_IRQ
    stm32f7xx_hal_i2c.o(i.I2C_ITMasterSequentialCplt) refers to stm32f7xx_hal_i2c.o(i.HAL_I2C_MasterRxCpltCallback) for HAL_I2C_MasterRxCpltCallback
    stm32f7xx_hal_i2c.o(i.I2C_ITMasterSequentialCplt) refers to stm32f7xx_hal_i2c.o(i.HAL_I2C_MasterTxCpltCallback) for HAL_I2C_MasterTxCpltCallback
    stm32f7xx_hal_i2c.o(i.I2C_ITSlaveCplt) refers to stm32f7xx_hal_i2c.o(i.I2C_Disable_IRQ) for I2C_Disable_IRQ
    stm32f7xx_hal_i2c.o(i.I2C_ITSlaveCplt) refers to stm32f7xx_hal_i2c.o(i.I2C_Flush_TXDR) for I2C_Flush_TXDR
    stm32f7xx_hal_i2c.o(i.I2C_ITSlaveCplt) refers to stm32f7xx_hal_i2c.o(i.I2C_ITError) for I2C_ITError
    stm32f7xx_hal_i2c.o(i.I2C_ITSlaveCplt) refers to stm32f7xx_hal_i2c.o(i.HAL_I2C_ListenCpltCallback) for HAL_I2C_ListenCpltCallback
    stm32f7xx_hal_i2c.o(i.I2C_ITSlaveCplt) refers to stm32f7xx_hal_i2c.o(i.HAL_I2C_SlaveTxCpltCallback) for HAL_I2C_SlaveTxCpltCallback
    stm32f7xx_hal_i2c.o(i.I2C_ITSlaveCplt) refers to stm32f7xx_hal_i2c.o(i.HAL_I2C_SlaveRxCpltCallback) for HAL_I2C_SlaveRxCpltCallback
    stm32f7xx_hal_i2c.o(i.I2C_ITSlaveSequentialCplt) refers to stm32f7xx_hal_i2c.o(i.I2C_Disable_IRQ) for I2C_Disable_IRQ
    stm32f7xx_hal_i2c.o(i.I2C_ITSlaveSequentialCplt) refers to stm32f7xx_hal_i2c.o(i.HAL_I2C_SlaveRxCpltCallback) for HAL_I2C_SlaveRxCpltCallback
    stm32f7xx_hal_i2c.o(i.I2C_ITSlaveSequentialCplt) refers to stm32f7xx_hal_i2c.o(i.HAL_I2C_SlaveTxCpltCallback) for HAL_I2C_SlaveTxCpltCallback
    stm32f7xx_hal_i2c.o(i.I2C_IsAcknowledgeFailed) refers to stm32f7xx_hal.o(i.HAL_GetTick) for HAL_GetTick
    stm32f7xx_hal_i2c.o(i.I2C_IsAcknowledgeFailed) refers to stm32f7xx_hal_i2c.o(i.I2C_Flush_TXDR) for I2C_Flush_TXDR
    stm32f7xx_hal_i2c.o(i.I2C_Master_ISR_DMA) refers to stm32f7xx_hal_i2c.o(i.I2C_Enable_IRQ) for I2C_Enable_IRQ
    stm32f7xx_hal_i2c.o(i.I2C_Master_ISR_DMA) refers to stm32f7xx_hal_i2c.o(i.I2C_Flush_TXDR) for I2C_Flush_TXDR
    stm32f7xx_hal_i2c.o(i.I2C_Master_ISR_DMA) refers to stm32f7xx_hal_i2c.o(i.I2C_TransferConfig) for I2C_TransferConfig
    stm32f7xx_hal_i2c.o(i.I2C_Master_ISR_DMA) refers to stm32f7xx_hal_i2c.o(i.I2C_ITError) for I2C_ITError
    stm32f7xx_hal_i2c.o(i.I2C_Master_ISR_DMA) refers to stm32f7xx_hal_i2c.o(i.I2C_ITMasterCplt) for I2C_ITMasterCplt
    stm32f7xx_hal_i2c.o(i.I2C_Master_ISR_IT) refers to stm32f7xx_hal_i2c.o(i.I2C_Flush_TXDR) for I2C_Flush_TXDR
    stm32f7xx_hal_i2c.o(i.I2C_Master_ISR_IT) refers to stm32f7xx_hal_i2c.o(i.I2C_TransferConfig) for I2C_TransferConfig
    stm32f7xx_hal_i2c.o(i.I2C_Master_ISR_IT) refers to stm32f7xx_hal_i2c.o(i.I2C_ITError) for I2C_ITError
    stm32f7xx_hal_i2c.o(i.I2C_Master_ISR_IT) refers to stm32f7xx_hal_i2c.o(i.I2C_ITMasterCplt) for I2C_ITMasterCplt
    stm32f7xx_hal_i2c.o(i.I2C_Master_ISR_IT) refers to stm32f7xx_hal_i2c.o(i.I2C_ITMasterSequentialCplt) for I2C_ITMasterSequentialCplt
    stm32f7xx_hal_i2c.o(i.I2C_RequestMemoryRead) refers to stm32f7xx_hal_i2c.o(i.I2C_TransferConfig) for I2C_TransferConfig
    stm32f7xx_hal_i2c.o(i.I2C_RequestMemoryRead) refers to stm32f7xx_hal_i2c.o(i.I2C_WaitOnTXISFlagUntilTimeout) for I2C_WaitOnTXISFlagUntilTimeout
    stm32f7xx_hal_i2c.o(i.I2C_RequestMemoryRead) refers to stm32f7xx_hal_i2c.o(i.I2C_WaitOnFlagUntilTimeout) for I2C_WaitOnFlagUntilTimeout
    stm32f7xx_hal_i2c.o(i.I2C_RequestMemoryWrite) refers to stm32f7xx_hal_i2c.o(i.I2C_TransferConfig) for I2C_TransferConfig
    stm32f7xx_hal_i2c.o(i.I2C_RequestMemoryWrite) refers to stm32f7xx_hal_i2c.o(i.I2C_WaitOnTXISFlagUntilTimeout) for I2C_WaitOnTXISFlagUntilTimeout
    stm32f7xx_hal_i2c.o(i.I2C_RequestMemoryWrite) refers to stm32f7xx_hal_i2c.o(i.I2C_WaitOnFlagUntilTimeout) for I2C_WaitOnFlagUntilTimeout
    stm32f7xx_hal_i2c.o(i.I2C_Slave_ISR_DMA) refers to stm32f7xx_hal_i2c.o(i.I2C_ITSlaveCplt) for I2C_ITSlaveCplt
    stm32f7xx_hal_i2c.o(i.I2C_Slave_ISR_IT) refers to stm32f7xx_hal_i2c.o(i.I2C_ITListenCplt) for I2C_ITListenCplt
    stm32f7xx_hal_i2c.o(i.I2C_Slave_ISR_IT) refers to stm32f7xx_hal_i2c.o(i.I2C_Flush_TXDR) for I2C_Flush_TXDR
    stm32f7xx_hal_i2c.o(i.I2C_Slave_ISR_IT) refers to stm32f7xx_hal_i2c.o(i.I2C_ITAddrCplt) for I2C_ITAddrCplt
    stm32f7xx_hal_i2c.o(i.I2C_Slave_ISR_IT) refers to stm32f7xx_hal_i2c.o(i.I2C_ITSlaveSequentialCplt) for I2C_ITSlaveSequentialCplt
    stm32f7xx_hal_i2c.o(i.I2C_Slave_ISR_IT) refers to stm32f7xx_hal_i2c.o(i.I2C_ITSlaveCplt) for I2C_ITSlaveCplt
    stm32f7xx_hal_i2c.o(i.I2C_WaitOnFlagUntilTimeout) refers to stm32f7xx_hal.o(i.HAL_GetTick) for HAL_GetTick
    stm32f7xx_hal_i2c.o(i.I2C_WaitOnRXNEFlagUntilTimeout) refers to stm32f7xx_hal_i2c.o(i.I2C_IsAcknowledgeFailed) for I2C_IsAcknowledgeFailed
    stm32f7xx_hal_i2c.o(i.I2C_WaitOnRXNEFlagUntilTimeout) refers to stm32f7xx_hal.o(i.HAL_GetTick) for HAL_GetTick
    stm32f7xx_hal_i2c.o(i.I2C_WaitOnSTOPFlagUntilTimeout) refers to stm32f7xx_hal_i2c.o(i.I2C_IsAcknowledgeFailed) for I2C_IsAcknowledgeFailed
    stm32f7xx_hal_i2c.o(i.I2C_WaitOnSTOPFlagUntilTimeout) refers to stm32f7xx_hal.o(i.HAL_GetTick) for HAL_GetTick
    stm32f7xx_hal_i2c.o(i.I2C_WaitOnTXISFlagUntilTimeout) refers to stm32f7xx_hal_i2c.o(i.I2C_IsAcknowledgeFailed) for I2C_IsAcknowledgeFailed
    stm32f7xx_hal_i2c.o(i.I2C_WaitOnTXISFlagUntilTimeout) refers to stm32f7xx_hal.o(i.HAL_GetTick) for HAL_GetTick
    stm32f7xx_hal_pwr.o(i.HAL_PWR_PVD_IRQHandler) refers to stm32f7xx_hal_pwr.o(i.HAL_PWR_PVDCallback) for HAL_PWR_PVDCallback
    stm32f7xx_hal_cortex.o(i.HAL_NVIC_SetPriority) refers to stm32f7xx_hal_cortex.o(i.NVIC_SetPriority) for NVIC_SetPriority
    stm32f7xx_hal_cortex.o(i.HAL_SYSTICK_Config) refers to stm32f7xx_hal_cortex.o(i.NVIC_SetPriority) for NVIC_SetPriority
    stm32f7xx_hal_cortex.o(i.HAL_SYSTICK_IRQHandler) refers to stm32f7xx_hal_cortex.o(i.HAL_SYSTICK_Callback) for HAL_SYSTICK_Callback
    stm32f7xx_hal_rcc.o(i.HAL_RCC_ClockConfig) refers to stm32f7xx_hal.o(i.HAL_GetTick) for HAL_GetTick
    stm32f7xx_hal_rcc.o(i.HAL_RCC_ClockConfig) refers to stm32f7xx_hal_rcc.o(i.HAL_RCC_GetSysClockFreq) for HAL_RCC_GetSysClockFreq
    stm32f7xx_hal_rcc.o(i.HAL_RCC_ClockConfig) refers to stm32f7xx_hal.o(i.HAL_InitTick) for HAL_InitTick
    stm32f7xx_hal_rcc.o(i.HAL_RCC_ClockConfig) refers to system_stm32f7xx.o(.constdata) for AHBPrescTable
    stm32f7xx_hal_rcc.o(i.HAL_RCC_ClockConfig) refers to system_stm32f7xx.o(.data) for SystemCoreClock
    stm32f7xx_hal_rcc.o(i.HAL_RCC_DeInit) refers to system_stm32f7xx.o(.data) for SystemCoreClock
    stm32f7xx_hal_rcc.o(i.HAL_RCC_GetHCLKFreq) refers to system_stm32f7xx.o(.data) for SystemCoreClock
    stm32f7xx_hal_rcc.o(i.HAL_RCC_GetPCLK1Freq) refers to system_stm32f7xx.o(.data) for SystemCoreClock
    stm32f7xx_hal_rcc.o(i.HAL_RCC_GetPCLK1Freq) refers to system_stm32f7xx.o(.constdata) for APBPrescTable
    stm32f7xx_hal_rcc.o(i.HAL_RCC_GetPCLK2Freq) refers to system_stm32f7xx.o(.data) for SystemCoreClock
    stm32f7xx_hal_rcc.o(i.HAL_RCC_GetPCLK2Freq) refers to system_stm32f7xx.o(.constdata) for APBPrescTable
    stm32f7xx_hal_rcc.o(i.HAL_RCC_MCOConfig) refers to stm32f7xx_hal_gpio.o(i.HAL_GPIO_Init) for HAL_GPIO_Init
    stm32f7xx_hal_rcc.o(i.HAL_RCC_NMI_IRQHandler) refers to stm32f7xx_hal_rcc.o(i.HAL_RCC_CSSCallback) for HAL_RCC_CSSCallback
    stm32f7xx_hal_rcc.o(i.HAL_RCC_OscConfig) refers to stm32f7xx_hal.o(i.HAL_GetTick) for HAL_GetTick
    stm32f7xx_hal_dma.o(i.DMA_CalcBaseAndBitshift) refers to stm32f7xx_hal_dma.o(.constdata) for .constdata
    stm32f7xx_hal_dma.o(i.HAL_DMA_Abort) refers to stm32f7xx_hal.o(i.HAL_GetTick) for HAL_GetTick
    stm32f7xx_hal_dma.o(i.HAL_DMA_DeInit) refers to stm32f7xx_hal_dma.o(i.DMA_CalcBaseAndBitshift) for DMA_CalcBaseAndBitshift
    stm32f7xx_hal_dma.o(i.HAL_DMA_IRQHandler) refers to system_stm32f7xx.o(.data) for SystemCoreClock
    stm32f7xx_hal_dma.o(i.HAL_DMA_Init) refers to stm32f7xx_hal.o(i.HAL_GetTick) for HAL_GetTick
    stm32f7xx_hal_dma.o(i.HAL_DMA_Init) refers to stm32f7xx_hal_dma.o(i.DMA_CheckFifoParam) for DMA_CheckFifoParam
    stm32f7xx_hal_dma.o(i.HAL_DMA_Init) refers to stm32f7xx_hal_dma.o(i.DMA_CalcBaseAndBitshift) for DMA_CalcBaseAndBitshift
    stm32f7xx_hal_dma.o(i.HAL_DMA_PollForTransfer) refers to stm32f7xx_hal.o(i.HAL_GetTick) for HAL_GetTick
    stm32f7xx_hal_dma.o(i.HAL_DMA_PollForTransfer) refers to stm32f7xx_hal_dma.o(i.HAL_DMA_Abort) for HAL_DMA_Abort
    stm32f7xx_hal_dma.o(i.HAL_DMA_Start) refers to stm32f7xx_hal_dma.o(i.DMA_SetConfig) for DMA_SetConfig
    stm32f7xx_hal_dma.o(i.HAL_DMA_Start_IT) refers to stm32f7xx_hal_dma.o(i.DMA_SetConfig) for DMA_SetConfig
    stm32f7xx_hal_flash_ex.o(i.FLASH_OB_BootAddressConfig) refers to stm32f7xx_hal_flash.o(i.FLASH_WaitForLastOperation) for FLASH_WaitForLastOperation
    stm32f7xx_hal_flash_ex.o(i.HAL_FLASHEx_Erase) refers to stm32f7xx_hal_flash.o(i.FLASH_WaitForLastOperation) for FLASH_WaitForLastOperation
    stm32f7xx_hal_flash_ex.o(i.HAL_FLASHEx_Erase) refers to stm32f7xx_hal_flash_ex.o(i.FLASH_MassErase) for FLASH_MassErase
    stm32f7xx_hal_flash_ex.o(i.HAL_FLASHEx_Erase) refers to stm32f7xx_hal_flash_ex.o(i.FLASH_Erase_Sector) for FLASH_Erase_Sector
    stm32f7xx_hal_flash_ex.o(i.HAL_FLASHEx_Erase) refers to stm32f7xx_hal_flash.o(.bss) for pFlash
    stm32f7xx_hal_flash_ex.o(i.HAL_FLASHEx_Erase_IT) refers to stm32f7xx_hal_flash_ex.o(i.FLASH_Erase_Sector) for FLASH_Erase_Sector
    stm32f7xx_hal_flash_ex.o(i.HAL_FLASHEx_Erase_IT) refers to stm32f7xx_hal_flash_ex.o(i.FLASH_MassErase) for FLASH_MassErase
    stm32f7xx_hal_flash_ex.o(i.HAL_FLASHEx_Erase_IT) refers to stm32f7xx_hal_flash.o(.bss) for pFlash
    stm32f7xx_hal_flash_ex.o(i.HAL_FLASHEx_OBGetConfig) refers to stm32f7xx_hal_flash_ex.o(i.FLASH_OB_GetBootAddress) for FLASH_OB_GetBootAddress
    stm32f7xx_hal_flash_ex.o(i.HAL_FLASHEx_OBProgram) refers to stm32f7xx_hal_flash.o(i.FLASH_WaitForLastOperation) for FLASH_WaitForLastOperation
    stm32f7xx_hal_flash_ex.o(i.HAL_FLASHEx_OBProgram) refers to stm32f7xx_hal_flash_ex.o(i.FLASH_OB_BootAddressConfig) for FLASH_OB_BootAddressConfig
    stm32f7xx_hal_flash_ex.o(i.HAL_FLASHEx_OBProgram) refers to stm32f7xx_hal_flash.o(.bss) for pFlash
    stm32f7xx_hal.o(i.HAL_DeInit) refers to stm32f7xx_hal.o(i.HAL_MspDeInit) for HAL_MspDeInit
    stm32f7xx_hal.o(i.HAL_Delay) refers to stm32f7xx_hal.o(i.HAL_GetTick) for HAL_GetTick
    stm32f7xx_hal.o(i.HAL_GetTick) refers to stm32f7xx_hal.o(.data) for .data
    stm32f7xx_hal.o(i.HAL_IncTick) refers to stm32f7xx_hal.o(.data) for .data
    stm32f7xx_hal.o(i.HAL_Init) refers to stm32f7xx_hal_cortex.o(i.HAL_NVIC_SetPriorityGrouping) for HAL_NVIC_SetPriorityGrouping
    stm32f7xx_hal.o(i.HAL_Init) refers to stm32f7xx_hal.o(i.HAL_InitTick) for HAL_InitTick
    stm32f7xx_hal.o(i.HAL_Init) refers to stm32f7xx_hal_msp.o(i.HAL_MspInit) for HAL_MspInit
    stm32f7xx_hal.o(i.HAL_InitTick) refers to stm32f7xx_hal_cortex.o(i.HAL_SYSTICK_Config) for HAL_SYSTICK_Config
    stm32f7xx_hal.o(i.HAL_InitTick) refers to stm32f7xx_hal_cortex.o(i.HAL_NVIC_SetPriority) for HAL_NVIC_SetPriority
    stm32f7xx_hal.o(i.HAL_InitTick) refers to system_stm32f7xx.o(.data) for SystemCoreClock
    stm32f7xx_hal_flash.o(i.FLASH_SetErrorCode) refers to stm32f7xx_hal_flash.o(.bss) for .bss
    stm32f7xx_hal_flash.o(i.FLASH_WaitForLastOperation) refers to stm32f7xx_hal.o(i.HAL_GetTick) for HAL_GetTick
    stm32f7xx_hal_flash.o(i.FLASH_WaitForLastOperation) refers to stm32f7xx_hal_flash.o(i.FLASH_SetErrorCode) for FLASH_SetErrorCode
    stm32f7xx_hal_flash.o(i.FLASH_WaitForLastOperation) refers to stm32f7xx_hal_flash.o(.bss) for .bss
    stm32f7xx_hal_flash.o(i.HAL_FLASH_GetError) refers to stm32f7xx_hal_flash.o(.bss) for .bss
    stm32f7xx_hal_flash.o(i.HAL_FLASH_IRQHandler) refers to stm32f7xx_hal_flash.o(i.HAL_FLASH_EndOfOperationCallback) for HAL_FLASH_EndOfOperationCallback
    stm32f7xx_hal_flash.o(i.HAL_FLASH_IRQHandler) refers to stm32f7xx_hal_flash_ex.o(i.FLASH_Erase_Sector) for FLASH_Erase_Sector
    stm32f7xx_hal_flash.o(i.HAL_FLASH_IRQHandler) refers to stm32f7xx_hal_flash.o(i.FLASH_SetErrorCode) for FLASH_SetErrorCode
    stm32f7xx_hal_flash.o(i.HAL_FLASH_IRQHandler) refers to stm32f7xx_hal_flash.o(i.HAL_FLASH_OperationErrorCallback) for HAL_FLASH_OperationErrorCallback
    stm32f7xx_hal_flash.o(i.HAL_FLASH_IRQHandler) refers to stm32f7xx_hal_flash.o(.bss) for .bss
    stm32f7xx_hal_flash.o(i.HAL_FLASH_OB_Launch) refers to stm32f7xx_hal_flash.o(i.FLASH_WaitForLastOperation) for FLASH_WaitForLastOperation
    stm32f7xx_hal_flash.o(i.HAL_FLASH_Program) refers to stm32f7xx_hal_flash.o(i.FLASH_WaitForLastOperation) for FLASH_WaitForLastOperation
    stm32f7xx_hal_flash.o(i.HAL_FLASH_Program) refers to stm32f7xx_hal_flash.o(i.FLASH_Program_Byte) for FLASH_Program_Byte
    stm32f7xx_hal_flash.o(i.HAL_FLASH_Program) refers to stm32f7xx_hal_flash.o(i.FLASH_Program_HalfWord) for FLASH_Program_HalfWord
    stm32f7xx_hal_flash.o(i.HAL_FLASH_Program) refers to stm32f7xx_hal_flash.o(i.FLASH_Program_Word) for FLASH_Program_Word
    stm32f7xx_hal_flash.o(i.HAL_FLASH_Program) refers to stm32f7xx_hal_flash.o(i.FLASH_Program_DoubleWord) for FLASH_Program_DoubleWord
    stm32f7xx_hal_flash.o(i.HAL_FLASH_Program) refers to stm32f7xx_hal_flash.o(.bss) for .bss
    stm32f7xx_hal_flash.o(i.HAL_FLASH_Program_IT) refers to stm32f7xx_hal_flash.o(i.FLASH_Program_Byte) for FLASH_Program_Byte
    stm32f7xx_hal_flash.o(i.HAL_FLASH_Program_IT) refers to stm32f7xx_hal_flash.o(i.FLASH_Program_HalfWord) for FLASH_Program_HalfWord
    stm32f7xx_hal_flash.o(i.HAL_FLASH_Program_IT) refers to stm32f7xx_hal_flash.o(i.FLASH_Program_Word) for FLASH_Program_Word
    stm32f7xx_hal_flash.o(i.HAL_FLASH_Program_IT) refers to stm32f7xx_hal_flash.o(i.FLASH_Program_DoubleWord) for FLASH_Program_DoubleWord
    stm32f7xx_hal_flash.o(i.HAL_FLASH_Program_IT) refers to stm32f7xx_hal_flash.o(.bss) for .bss
    stm32f7xx_hal_tim.o(i.HAL_TIM_Base_DeInit) refers to stm32f7xx_hal_msp.o(i.HAL_TIM_Base_MspDeInit) for HAL_TIM_Base_MspDeInit
    stm32f7xx_hal_tim.o(i.HAL_TIM_Base_Init) refers to stm32f7xx_hal_msp.o(i.HAL_TIM_Base_MspInit) for HAL_TIM_Base_MspInit
    stm32f7xx_hal_tim.o(i.HAL_TIM_Base_Init) refers to stm32f7xx_hal_tim.o(i.TIM_Base_SetConfig) for TIM_Base_SetConfig
    stm32f7xx_hal_tim.o(i.HAL_TIM_Base_Start_DMA) refers to stm32f7xx_hal_dma.o(i.HAL_DMA_Start_IT) for HAL_DMA_Start_IT
    stm32f7xx_hal_tim.o(i.HAL_TIM_Base_Start_DMA) refers to stm32f7xx_hal_tim.o(i.TIM_DMAPeriodElapsedCplt) for TIM_DMAPeriodElapsedCplt
    stm32f7xx_hal_tim.o(i.HAL_TIM_Base_Start_DMA) refers to stm32f7xx_hal_tim.o(i.TIM_DMAError) for TIM_DMAError
    stm32f7xx_hal_tim.o(i.HAL_TIM_ConfigClockSource) refers to stm32f7xx_hal_tim.o(i.TIM_ETR_SetConfig) for TIM_ETR_SetConfig
    stm32f7xx_hal_tim.o(i.HAL_TIM_ConfigClockSource) refers to stm32f7xx_hal_tim.o(i.TIM_TI1_ConfigInputStage) for TIM_TI1_ConfigInputStage
    stm32f7xx_hal_tim.o(i.HAL_TIM_ConfigClockSource) refers to stm32f7xx_hal_tim.o(i.TIM_TI2_ConfigInputStage) for TIM_TI2_ConfigInputStage
    stm32f7xx_hal_tim.o(i.HAL_TIM_ConfigClockSource) refers to stm32f7xx_hal_tim.o(i.TIM_ITRx_SetConfig) for TIM_ITRx_SetConfig
    stm32f7xx_hal_tim.o(i.HAL_TIM_ConfigOCrefClear) refers to stm32f7xx_hal_tim.o(i.TIM_ETR_SetConfig) for TIM_ETR_SetConfig
    stm32f7xx_hal_tim.o(i.HAL_TIM_DMABurst_ReadStart) refers to stm32f7xx_hal_dma.o(i.HAL_DMA_Start_IT) for HAL_DMA_Start_IT
    stm32f7xx_hal_tim.o(i.HAL_TIM_DMABurst_ReadStart) refers to stm32f7xx_hal_tim.o(i.TIM_DMAError) for TIM_DMAError
    stm32f7xx_hal_tim.o(i.HAL_TIM_DMABurst_ReadStart) refers to stm32f7xx_hal_tim.o(i.TIM_DMACaptureCplt) for TIM_DMACaptureCplt
    stm32f7xx_hal_tim.o(i.HAL_TIM_DMABurst_ReadStart) refers to stm32f7xx_hal_tim.o(i.TIM_DMAPeriodElapsedCplt) for TIM_DMAPeriodElapsedCplt
    stm32f7xx_hal_tim.o(i.HAL_TIM_DMABurst_ReadStart) refers to stm32f7xx_hal_tim_ex.o(i.TIMEx_DMACommutationCplt) for TIMEx_DMACommutationCplt
    stm32f7xx_hal_tim.o(i.HAL_TIM_DMABurst_ReadStart) refers to stm32f7xx_hal_tim.o(i.TIM_DMATriggerCplt) for TIM_DMATriggerCplt
    stm32f7xx_hal_tim.o(i.HAL_TIM_DMABurst_ReadStop) refers to stm32f7xx_hal_dma.o(i.HAL_DMA_Abort) for HAL_DMA_Abort
    stm32f7xx_hal_tim.o(i.HAL_TIM_DMABurst_WriteStart) refers to stm32f7xx_hal_dma.o(i.HAL_DMA_Start_IT) for HAL_DMA_Start_IT
    stm32f7xx_hal_tim.o(i.HAL_TIM_DMABurst_WriteStart) refers to stm32f7xx_hal_tim.o(i.TIM_DMAError) for TIM_DMAError
    stm32f7xx_hal_tim.o(i.HAL_TIM_DMABurst_WriteStart) refers to stm32f7xx_hal_tim.o(i.TIM_DMADelayPulseCplt) for TIM_DMADelayPulseCplt
    stm32f7xx_hal_tim.o(i.HAL_TIM_DMABurst_WriteStart) refers to stm32f7xx_hal_tim.o(i.TIM_DMAPeriodElapsedCplt) for TIM_DMAPeriodElapsedCplt
    stm32f7xx_hal_tim.o(i.HAL_TIM_DMABurst_WriteStart) refers to stm32f7xx_hal_tim_ex.o(i.TIMEx_DMACommutationCplt) for TIMEx_DMACommutationCplt
    stm32f7xx_hal_tim.o(i.HAL_TIM_DMABurst_WriteStart) refers to stm32f7xx_hal_tim.o(i.TIM_DMATriggerCplt) for TIM_DMATriggerCplt
    stm32f7xx_hal_tim.o(i.HAL_TIM_DMABurst_WriteStop) refers to stm32f7xx_hal_dma.o(i.HAL_DMA_Abort) for HAL_DMA_Abort
    stm32f7xx_hal_tim.o(i.HAL_TIM_Encoder_DeInit) refers to stm32f7xx_hal_tim.o(i.HAL_TIM_Encoder_MspDeInit) for HAL_TIM_Encoder_MspDeInit
    stm32f7xx_hal_tim.o(i.HAL_TIM_Encoder_Init) refers to stm32f7xx_hal_tim.o(i.HAL_TIM_Encoder_MspInit) for HAL_TIM_Encoder_MspInit
    stm32f7xx_hal_tim.o(i.HAL_TIM_Encoder_Init) refers to stm32f7xx_hal_tim.o(i.TIM_Base_SetConfig) for TIM_Base_SetConfig
    stm32f7xx_hal_tim.o(i.HAL_TIM_Encoder_Start) refers to stm32f7xx_hal_tim.o(i.TIM_CCxChannelCmd) for TIM_CCxChannelCmd
    stm32f7xx_hal_tim.o(i.HAL_TIM_Encoder_Start_DMA) refers to stm32f7xx_hal_dma.o(i.HAL_DMA_Start_IT) for HAL_DMA_Start_IT
    stm32f7xx_hal_tim.o(i.HAL_TIM_Encoder_Start_DMA) refers to stm32f7xx_hal_tim.o(i.TIM_CCxChannelCmd) for TIM_CCxChannelCmd
    stm32f7xx_hal_tim.o(i.HAL_TIM_Encoder_Start_DMA) refers to stm32f7xx_hal_tim.o(i.TIM_DMACaptureCplt) for TIM_DMACaptureCplt
    stm32f7xx_hal_tim.o(i.HAL_TIM_Encoder_Start_DMA) refers to stm32f7xx_hal_tim.o(i.TIM_DMAError) for TIM_DMAError
    stm32f7xx_hal_tim.o(i.HAL_TIM_Encoder_Start_IT) refers to stm32f7xx_hal_tim.o(i.TIM_CCxChannelCmd) for TIM_CCxChannelCmd
    stm32f7xx_hal_tim.o(i.HAL_TIM_Encoder_Stop) refers to stm32f7xx_hal_tim.o(i.TIM_CCxChannelCmd) for TIM_CCxChannelCmd
    stm32f7xx_hal_tim.o(i.HAL_TIM_Encoder_Stop_DMA) refers to stm32f7xx_hal_tim.o(i.TIM_CCxChannelCmd) for TIM_CCxChannelCmd
    stm32f7xx_hal_tim.o(i.HAL_TIM_Encoder_Stop_IT) refers to stm32f7xx_hal_tim.o(i.TIM_CCxChannelCmd) for TIM_CCxChannelCmd
    stm32f7xx_hal_tim.o(i.HAL_TIM_IC_ConfigChannel) refers to stm32f7xx_hal_tim.o(i.TIM_TI1_SetConfig) for TIM_TI1_SetConfig
    stm32f7xx_hal_tim.o(i.HAL_TIM_IC_ConfigChannel) refers to stm32f7xx_hal_tim.o(i.TIM_TI2_SetConfig) for TIM_TI2_SetConfig
    stm32f7xx_hal_tim.o(i.HAL_TIM_IC_DeInit) refers to stm32f7xx_hal_tim.o(i.HAL_TIM_IC_MspDeInit) for HAL_TIM_IC_MspDeInit
    stm32f7xx_hal_tim.o(i.HAL_TIM_IC_Init) refers to stm32f7xx_hal_tim.o(i.HAL_TIM_IC_MspInit) for HAL_TIM_IC_MspInit
    stm32f7xx_hal_tim.o(i.HAL_TIM_IC_Init) refers to stm32f7xx_hal_tim.o(i.TIM_Base_SetConfig) for TIM_Base_SetConfig
    stm32f7xx_hal_tim.o(i.HAL_TIM_IC_Start) refers to stm32f7xx_hal_tim.o(i.TIM_CCxChannelCmd) for TIM_CCxChannelCmd
    stm32f7xx_hal_tim.o(i.HAL_TIM_IC_Start_DMA) refers to stm32f7xx_hal_dma.o(i.HAL_DMA_Start_IT) for HAL_DMA_Start_IT
    stm32f7xx_hal_tim.o(i.HAL_TIM_IC_Start_DMA) refers to stm32f7xx_hal_tim.o(i.TIM_CCxChannelCmd) for TIM_CCxChannelCmd
    stm32f7xx_hal_tim.o(i.HAL_TIM_IC_Start_DMA) refers to stm32f7xx_hal_tim.o(i.TIM_DMACaptureCplt) for TIM_DMACaptureCplt
    stm32f7xx_hal_tim.o(i.HAL_TIM_IC_Start_DMA) refers to stm32f7xx_hal_tim.o(i.TIM_DMAError) for TIM_DMAError
    stm32f7xx_hal_tim.o(i.HAL_TIM_IC_Start_IT) refers to stm32f7xx_hal_tim.o(i.TIM_CCxChannelCmd) for TIM_CCxChannelCmd
    stm32f7xx_hal_tim.o(i.HAL_TIM_IC_Stop) refers to stm32f7xx_hal_tim.o(i.TIM_CCxChannelCmd) for TIM_CCxChannelCmd
    stm32f7xx_hal_tim.o(i.HAL_TIM_IC_Stop_DMA) refers to stm32f7xx_hal_tim.o(i.TIM_CCxChannelCmd) for TIM_CCxChannelCmd
    stm32f7xx_hal_tim.o(i.HAL_TIM_IC_Stop_IT) refers to stm32f7xx_hal_tim.o(i.TIM_CCxChannelCmd) for TIM_CCxChannelCmd
    stm32f7xx_hal_tim.o(i.HAL_TIM_IRQHandler) refers to stm32f7xx_hal_tim.o(i.HAL_TIM_IC_CaptureCallback) for HAL_TIM_IC_CaptureCallback
    stm32f7xx_hal_tim.o(i.HAL_TIM_IRQHandler) refers to stm32f7xx_hal_tim.o(i.HAL_TIM_OC_DelayElapsedCallback) for HAL_TIM_OC_DelayElapsedCallback
    stm32f7xx_hal_tim.o(i.HAL_TIM_IRQHandler) refers to stm32f7xx_hal_tim.o(i.HAL_TIM_PWM_PulseFinishedCallback) for HAL_TIM_PWM_PulseFinishedCallback
    stm32f7xx_hal_tim.o(i.HAL_TIM_IRQHandler) refers to stm32f7xx_hal_tim.o(i.HAL_TIM_PeriodElapsedCallback) for HAL_TIM_PeriodElapsedCallback
    stm32f7xx_hal_tim.o(i.HAL_TIM_IRQHandler) refers to stm32f7xx_hal_tim_ex.o(i.HAL_TIMEx_BreakCallback) for HAL_TIMEx_BreakCallback
    stm32f7xx_hal_tim.o(i.HAL_TIM_IRQHandler) refers to stm32f7xx_hal_tim.o(i.HAL_TIM_TriggerCallback) for HAL_TIM_TriggerCallback
    stm32f7xx_hal_tim.o(i.HAL_TIM_IRQHandler) refers to stm32f7xx_hal_tim_ex.o(i.HAL_TIMEx_CommutationCallback) for HAL_TIMEx_CommutationCallback
    stm32f7xx_hal_tim.o(i.HAL_TIM_OC_ConfigChannel) refers to stm32f7xx_hal_tim.o(i.TIM_OC1_SetConfig) for TIM_OC1_SetConfig
    stm32f7xx_hal_tim.o(i.HAL_TIM_OC_ConfigChannel) refers to stm32f7xx_hal_tim.o(i.TIM_OC2_SetConfig) for TIM_OC2_SetConfig
    stm32f7xx_hal_tim.o(i.HAL_TIM_OC_ConfigChannel) refers to stm32f7xx_hal_tim.o(i.TIM_OC3_SetConfig) for TIM_OC3_SetConfig
    stm32f7xx_hal_tim.o(i.HAL_TIM_OC_ConfigChannel) refers to stm32f7xx_hal_tim.o(i.TIM_OC4_SetConfig) for TIM_OC4_SetConfig
    stm32f7xx_hal_tim.o(i.HAL_TIM_OC_DeInit) refers to stm32f7xx_hal_tim.o(i.HAL_TIM_OC_MspDeInit) for HAL_TIM_OC_MspDeInit
    stm32f7xx_hal_tim.o(i.HAL_TIM_OC_Init) refers to stm32f7xx_hal_tim.o(i.HAL_TIM_OC_MspInit) for HAL_TIM_OC_MspInit
    stm32f7xx_hal_tim.o(i.HAL_TIM_OC_Init) refers to stm32f7xx_hal_tim.o(i.TIM_Base_SetConfig) for TIM_Base_SetConfig
    stm32f7xx_hal_tim.o(i.HAL_TIM_OC_Start) refers to stm32f7xx_hal_tim.o(i.TIM_CCxChannelCmd) for TIM_CCxChannelCmd
    stm32f7xx_hal_tim.o(i.HAL_TIM_OC_Start_DMA) refers to stm32f7xx_hal_dma.o(i.HAL_DMA_Start_IT) for HAL_DMA_Start_IT
    stm32f7xx_hal_tim.o(i.HAL_TIM_OC_Start_DMA) refers to stm32f7xx_hal_tim.o(i.TIM_CCxChannelCmd) for TIM_CCxChannelCmd
    stm32f7xx_hal_tim.o(i.HAL_TIM_OC_Start_DMA) refers to stm32f7xx_hal_tim.o(i.TIM_DMADelayPulseCplt) for TIM_DMADelayPulseCplt
    stm32f7xx_hal_tim.o(i.HAL_TIM_OC_Start_DMA) refers to stm32f7xx_hal_tim.o(i.TIM_DMAError) for TIM_DMAError
    stm32f7xx_hal_tim.o(i.HAL_TIM_OC_Start_IT) refers to stm32f7xx_hal_tim.o(i.TIM_CCxChannelCmd) for TIM_CCxChannelCmd
    stm32f7xx_hal_tim.o(i.HAL_TIM_OC_Stop) refers to stm32f7xx_hal_tim.o(i.TIM_CCxChannelCmd) for TIM_CCxChannelCmd
    stm32f7xx_hal_tim.o(i.HAL_TIM_OC_Stop_DMA) refers to stm32f7xx_hal_tim.o(i.TIM_CCxChannelCmd) for TIM_CCxChannelCmd
    stm32f7xx_hal_tim.o(i.HAL_TIM_OC_Stop_IT) refers to stm32f7xx_hal_tim.o(i.TIM_CCxChannelCmd) for TIM_CCxChannelCmd
    stm32f7xx_hal_tim.o(i.HAL_TIM_OnePulse_ConfigChannel) refers to stm32f7xx_hal_tim.o(i.TIM_OC1_SetConfig) for TIM_OC1_SetConfig
    stm32f7xx_hal_tim.o(i.HAL_TIM_OnePulse_ConfigChannel) refers to stm32f7xx_hal_tim.o(i.TIM_OC2_SetConfig) for TIM_OC2_SetConfig
    stm32f7xx_hal_tim.o(i.HAL_TIM_OnePulse_ConfigChannel) refers to stm32f7xx_hal_tim.o(i.TIM_TI1_SetConfig) for TIM_TI1_SetConfig
    stm32f7xx_hal_tim.o(i.HAL_TIM_OnePulse_ConfigChannel) refers to stm32f7xx_hal_tim.o(i.TIM_TI2_SetConfig) for TIM_TI2_SetConfig
    stm32f7xx_hal_tim.o(i.HAL_TIM_OnePulse_DeInit) refers to stm32f7xx_hal_tim.o(i.HAL_TIM_OnePulse_MspDeInit) for HAL_TIM_OnePulse_MspDeInit
    stm32f7xx_hal_tim.o(i.HAL_TIM_OnePulse_Init) refers to stm32f7xx_hal_tim.o(i.HAL_TIM_OnePulse_MspInit) for HAL_TIM_OnePulse_MspInit
    stm32f7xx_hal_tim.o(i.HAL_TIM_OnePulse_Init) refers to stm32f7xx_hal_tim.o(i.TIM_Base_SetConfig) for TIM_Base_SetConfig
    stm32f7xx_hal_tim.o(i.HAL_TIM_OnePulse_Start) refers to stm32f7xx_hal_tim.o(i.TIM_CCxChannelCmd) for TIM_CCxChannelCmd
    stm32f7xx_hal_tim.o(i.HAL_TIM_OnePulse_Start_IT) refers to stm32f7xx_hal_tim.o(i.TIM_CCxChannelCmd) for TIM_CCxChannelCmd
    stm32f7xx_hal_tim.o(i.HAL_TIM_OnePulse_Stop) refers to stm32f7xx_hal_tim.o(i.TIM_CCxChannelCmd) for TIM_CCxChannelCmd
    stm32f7xx_hal_tim.o(i.HAL_TIM_OnePulse_Stop_IT) refers to stm32f7xx_hal_tim.o(i.TIM_CCxChannelCmd) for TIM_CCxChannelCmd
    stm32f7xx_hal_tim.o(i.HAL_TIM_PWM_ConfigChannel) refers to stm32f7xx_hal_tim.o(i.TIM_OC1_SetConfig) for TIM_OC1_SetConfig
    stm32f7xx_hal_tim.o(i.HAL_TIM_PWM_ConfigChannel) refers to stm32f7xx_hal_tim.o(i.TIM_OC2_SetConfig) for TIM_OC2_SetConfig
    stm32f7xx_hal_tim.o(i.HAL_TIM_PWM_ConfigChannel) refers to stm32f7xx_hal_tim.o(i.TIM_OC3_SetConfig) for TIM_OC3_SetConfig
    stm32f7xx_hal_tim.o(i.HAL_TIM_PWM_ConfigChannel) refers to stm32f7xx_hal_tim.o(i.TIM_OC4_SetConfig) for TIM_OC4_SetConfig
    stm32f7xx_hal_tim.o(i.HAL_TIM_PWM_DeInit) refers to stm32f7xx_hal_tim.o(i.HAL_TIM_PWM_MspDeInit) for HAL_TIM_PWM_MspDeInit
    stm32f7xx_hal_tim.o(i.HAL_TIM_PWM_Init) refers to stm32f7xx_hal_tim.o(i.HAL_TIM_PWM_MspInit) for HAL_TIM_PWM_MspInit
    stm32f7xx_hal_tim.o(i.HAL_TIM_PWM_Init) refers to stm32f7xx_hal_tim.o(i.TIM_Base_SetConfig) for TIM_Base_SetConfig
    stm32f7xx_hal_tim.o(i.HAL_TIM_PWM_Start) refers to stm32f7xx_hal_tim.o(i.TIM_CCxChannelCmd) for TIM_CCxChannelCmd
    stm32f7xx_hal_tim.o(i.HAL_TIM_PWM_Start_DMA) refers to stm32f7xx_hal_dma.o(i.HAL_DMA_Start_IT) for HAL_DMA_Start_IT
    stm32f7xx_hal_tim.o(i.HAL_TIM_PWM_Start_DMA) refers to stm32f7xx_hal_tim.o(i.TIM_CCxChannelCmd) for TIM_CCxChannelCmd
    stm32f7xx_hal_tim.o(i.HAL_TIM_PWM_Start_DMA) refers to stm32f7xx_hal_tim.o(i.TIM_DMADelayPulseCplt) for TIM_DMADelayPulseCplt
    stm32f7xx_hal_tim.o(i.HAL_TIM_PWM_Start_DMA) refers to stm32f7xx_hal_tim.o(i.TIM_DMAError) for TIM_DMAError
    stm32f7xx_hal_tim.o(i.HAL_TIM_PWM_Start_IT) refers to stm32f7xx_hal_tim.o(i.TIM_CCxChannelCmd) for TIM_CCxChannelCmd
    stm32f7xx_hal_tim.o(i.HAL_TIM_PWM_Stop) refers to stm32f7xx_hal_tim.o(i.TIM_CCxChannelCmd) for TIM_CCxChannelCmd
    stm32f7xx_hal_tim.o(i.HAL_TIM_PWM_Stop_DMA) refers to stm32f7xx_hal_tim.o(i.TIM_CCxChannelCmd) for TIM_CCxChannelCmd
    stm32f7xx_hal_tim.o(i.HAL_TIM_PWM_Stop_IT) refers to stm32f7xx_hal_tim.o(i.TIM_CCxChannelCmd) for TIM_CCxChannelCmd
    stm32f7xx_hal_tim.o(i.HAL_TIM_SlaveConfigSynchronization) refers to stm32f7xx_hal_tim.o(i.TIM_ETR_SetConfig) for TIM_ETR_SetConfig
    stm32f7xx_hal_tim.o(i.HAL_TIM_SlaveConfigSynchronization) refers to stm32f7xx_hal_tim.o(i.TIM_TI1_ConfigInputStage) for TIM_TI1_ConfigInputStage
    stm32f7xx_hal_tim.o(i.HAL_TIM_SlaveConfigSynchronization) refers to stm32f7xx_hal_tim.o(i.TIM_TI2_ConfigInputStage) for TIM_TI2_ConfigInputStage
    stm32f7xx_hal_tim.o(i.HAL_TIM_SlaveConfigSynchronization_IT) refers to stm32f7xx_hal_tim.o(i.TIM_SlaveTimer_SetConfig) for TIM_SlaveTimer_SetConfig
    stm32f7xx_hal_tim.o(i.TIM_DMACaptureCplt) refers to stm32f7xx_hal_tim.o(i.HAL_TIM_IC_CaptureCallback) for HAL_TIM_IC_CaptureCallback
    stm32f7xx_hal_tim.o(i.TIM_DMADelayPulseCplt) refers to stm32f7xx_hal_tim.o(i.HAL_TIM_PWM_PulseFinishedCallback) for HAL_TIM_PWM_PulseFinishedCallback
    stm32f7xx_hal_tim.o(i.TIM_DMAError) refers to stm32f7xx_hal_tim.o(i.HAL_TIM_ErrorCallback) for HAL_TIM_ErrorCallback
    stm32f7xx_hal_tim.o(i.TIM_DMAPeriodElapsedCplt) refers to stm32f7xx_hal_tim.o(i.HAL_TIM_PeriodElapsedCallback) for HAL_TIM_PeriodElapsedCallback
    stm32f7xx_hal_tim.o(i.TIM_DMATriggerCplt) refers to stm32f7xx_hal_tim.o(i.HAL_TIM_TriggerCallback) for HAL_TIM_TriggerCallback
    stm32f7xx_hal_tim.o(i.TIM_SlaveTimer_SetConfig) refers to stm32f7xx_hal_tim.o(i.TIM_ETR_SetConfig) for TIM_ETR_SetConfig
    stm32f7xx_hal_tim.o(i.TIM_SlaveTimer_SetConfig) refers to stm32f7xx_hal_tim.o(i.TIM_TI1_ConfigInputStage) for TIM_TI1_ConfigInputStage
    stm32f7xx_hal_tim.o(i.TIM_SlaveTimer_SetConfig) refers to stm32f7xx_hal_tim.o(i.TIM_TI2_ConfigInputStage) for TIM_TI2_ConfigInputStage
    stm32f7xx_hal_pwr_ex.o(i.HAL_PWREx_ControlVoltageScaling) refers to stm32f7xx_hal.o(i.HAL_GetTick) for HAL_GetTick
    stm32f7xx_hal_pwr_ex.o(i.HAL_PWREx_DisableBkUpReg) refers to stm32f7xx_hal.o(i.HAL_GetTick) for HAL_GetTick
    stm32f7xx_hal_pwr_ex.o(i.HAL_PWREx_DisableOverDrive) refers to stm32f7xx_hal.o(i.HAL_GetTick) for HAL_GetTick
    stm32f7xx_hal_pwr_ex.o(i.HAL_PWREx_EnableBkUpReg) refers to stm32f7xx_hal.o(i.HAL_GetTick) for HAL_GetTick
    stm32f7xx_hal_pwr_ex.o(i.HAL_PWREx_EnableOverDrive) refers to stm32f7xx_hal.o(i.HAL_GetTick) for HAL_GetTick
    stm32f7xx_hal_pwr_ex.o(i.HAL_PWREx_EnterUnderDriveSTOPMode) refers to stm32f7xx_hal.o(i.HAL_GetTick) for HAL_GetTick
    stm32f7xx_hal_tim_ex.o(i.HAL_TIMEx_ConfigCommutationEvent_DMA) refers to stm32f7xx_hal_tim_ex.o(i.TIMEx_DMACommutationCplt) for TIMEx_DMACommutationCplt
    stm32f7xx_hal_tim_ex.o(i.HAL_TIMEx_ConfigCommutationEvent_DMA) refers to stm32f7xx_hal_tim.o(i.TIM_DMAError) for TIM_DMAError
    stm32f7xx_hal_tim_ex.o(i.HAL_TIMEx_HallSensor_DeInit) refers to stm32f7xx_hal_tim_ex.o(i.HAL_TIMEx_HallSensor_MspDeInit) for HAL_TIMEx_HallSensor_MspDeInit
    stm32f7xx_hal_tim_ex.o(i.HAL_TIMEx_HallSensor_Init) refers to stm32f7xx_hal_tim_ex.o(i.HAL_TIMEx_HallSensor_MspInit) for HAL_TIMEx_HallSensor_MspInit
    stm32f7xx_hal_tim_ex.o(i.HAL_TIMEx_HallSensor_Init) refers to stm32f7xx_hal_tim.o(i.TIM_Base_SetConfig) for TIM_Base_SetConfig
    stm32f7xx_hal_tim_ex.o(i.HAL_TIMEx_HallSensor_Init) refers to stm32f7xx_hal_tim.o(i.TIM_TI1_SetConfig) for TIM_TI1_SetConfig
    stm32f7xx_hal_tim_ex.o(i.HAL_TIMEx_HallSensor_Init) refers to stm32f7xx_hal_tim.o(i.TIM_OC2_SetConfig) for TIM_OC2_SetConfig
    stm32f7xx_hal_tim_ex.o(i.HAL_TIMEx_HallSensor_Start) refers to stm32f7xx_hal_tim.o(i.TIM_CCxChannelCmd) for TIM_CCxChannelCmd
    stm32f7xx_hal_tim_ex.o(i.HAL_TIMEx_HallSensor_Start_DMA) refers to stm32f7xx_hal_tim.o(i.TIM_CCxChannelCmd) for TIM_CCxChannelCmd
    stm32f7xx_hal_tim_ex.o(i.HAL_TIMEx_HallSensor_Start_DMA) refers to stm32f7xx_hal_dma.o(i.HAL_DMA_Start_IT) for HAL_DMA_Start_IT
    stm32f7xx_hal_tim_ex.o(i.HAL_TIMEx_HallSensor_Start_DMA) refers to stm32f7xx_hal_tim.o(i.TIM_DMACaptureCplt) for TIM_DMACaptureCplt
    stm32f7xx_hal_tim_ex.o(i.HAL_TIMEx_HallSensor_Start_DMA) refers to stm32f7xx_hal_tim.o(i.TIM_DMAError) for TIM_DMAError
    stm32f7xx_hal_tim_ex.o(i.HAL_TIMEx_HallSensor_Start_IT) refers to stm32f7xx_hal_tim.o(i.TIM_CCxChannelCmd) for TIM_CCxChannelCmd
    stm32f7xx_hal_tim_ex.o(i.HAL_TIMEx_HallSensor_Stop) refers to stm32f7xx_hal_tim.o(i.TIM_CCxChannelCmd) for TIM_CCxChannelCmd
    stm32f7xx_hal_tim_ex.o(i.HAL_TIMEx_HallSensor_Stop_DMA) refers to stm32f7xx_hal_tim.o(i.TIM_CCxChannelCmd) for TIM_CCxChannelCmd
    stm32f7xx_hal_tim_ex.o(i.HAL_TIMEx_HallSensor_Stop_IT) refers to stm32f7xx_hal_tim.o(i.TIM_CCxChannelCmd) for TIM_CCxChannelCmd
    stm32f7xx_hal_tim_ex.o(i.HAL_TIMEx_OCN_Start) refers to stm32f7xx_hal_tim_ex.o(i.TIM_CCxNChannelCmd) for TIM_CCxNChannelCmd
    stm32f7xx_hal_tim_ex.o(i.HAL_TIMEx_OCN_Start_DMA) refers to stm32f7xx_hal_dma.o(i.HAL_DMA_Start_IT) for HAL_DMA_Start_IT
    stm32f7xx_hal_tim_ex.o(i.HAL_TIMEx_OCN_Start_DMA) refers to stm32f7xx_hal_tim_ex.o(i.TIM_CCxNChannelCmd) for TIM_CCxNChannelCmd
    stm32f7xx_hal_tim_ex.o(i.HAL_TIMEx_OCN_Start_DMA) refers to stm32f7xx_hal_tim.o(i.TIM_DMADelayPulseCplt) for TIM_DMADelayPulseCplt
    stm32f7xx_hal_tim_ex.o(i.HAL_TIMEx_OCN_Start_DMA) refers to stm32f7xx_hal_tim.o(i.TIM_DMAError) for TIM_DMAError
    stm32f7xx_hal_tim_ex.o(i.HAL_TIMEx_OCN_Start_IT) refers to stm32f7xx_hal_tim_ex.o(i.TIM_CCxNChannelCmd) for TIM_CCxNChannelCmd
    stm32f7xx_hal_tim_ex.o(i.HAL_TIMEx_OCN_Stop) refers to stm32f7xx_hal_tim_ex.o(i.TIM_CCxNChannelCmd) for TIM_CCxNChannelCmd
    stm32f7xx_hal_tim_ex.o(i.HAL_TIMEx_OCN_Stop_DMA) refers to stm32f7xx_hal_tim_ex.o(i.TIM_CCxNChannelCmd) for TIM_CCxNChannelCmd
    stm32f7xx_hal_tim_ex.o(i.HAL_TIMEx_OCN_Stop_IT) refers to stm32f7xx_hal_tim_ex.o(i.TIM_CCxNChannelCmd) for TIM_CCxNChannelCmd
    stm32f7xx_hal_tim_ex.o(i.HAL_TIMEx_OnePulseN_Start) refers to stm32f7xx_hal_tim_ex.o(i.TIM_CCxNChannelCmd) for TIM_CCxNChannelCmd
    stm32f7xx_hal_tim_ex.o(i.HAL_TIMEx_OnePulseN_Start_IT) refers to stm32f7xx_hal_tim_ex.o(i.TIM_CCxNChannelCmd) for TIM_CCxNChannelCmd
    stm32f7xx_hal_tim_ex.o(i.HAL_TIMEx_OnePulseN_Stop) refers to stm32f7xx_hal_tim_ex.o(i.TIM_CCxNChannelCmd) for TIM_CCxNChannelCmd
    stm32f7xx_hal_tim_ex.o(i.HAL_TIMEx_OnePulseN_Stop_IT) refers to stm32f7xx_hal_tim_ex.o(i.TIM_CCxNChannelCmd) for TIM_CCxNChannelCmd
    stm32f7xx_hal_tim_ex.o(i.HAL_TIMEx_PWMN_Start) refers to stm32f7xx_hal_tim_ex.o(i.TIM_CCxNChannelCmd) for TIM_CCxNChannelCmd
    stm32f7xx_hal_tim_ex.o(i.HAL_TIMEx_PWMN_Start_DMA) refers to stm32f7xx_hal_dma.o(i.HAL_DMA_Start_IT) for HAL_DMA_Start_IT
    stm32f7xx_hal_tim_ex.o(i.HAL_TIMEx_PWMN_Start_DMA) refers to stm32f7xx_hal_tim_ex.o(i.TIM_CCxNChannelCmd) for TIM_CCxNChannelCmd
    stm32f7xx_hal_tim_ex.o(i.HAL_TIMEx_PWMN_Start_DMA) refers to stm32f7xx_hal_tim.o(i.TIM_DMADelayPulseCplt) for TIM_DMADelayPulseCplt
    stm32f7xx_hal_tim_ex.o(i.HAL_TIMEx_PWMN_Start_DMA) refers to stm32f7xx_hal_tim.o(i.TIM_DMAError) for TIM_DMAError
    stm32f7xx_hal_tim_ex.o(i.HAL_TIMEx_PWMN_Start_IT) refers to stm32f7xx_hal_tim_ex.o(i.TIM_CCxNChannelCmd) for TIM_CCxNChannelCmd
    stm32f7xx_hal_tim_ex.o(i.HAL_TIMEx_PWMN_Stop) refers to stm32f7xx_hal_tim_ex.o(i.TIM_CCxNChannelCmd) for TIM_CCxNChannelCmd
    stm32f7xx_hal_tim_ex.o(i.HAL_TIMEx_PWMN_Stop_DMA) refers to stm32f7xx_hal_tim_ex.o(i.TIM_CCxNChannelCmd) for TIM_CCxNChannelCmd
    stm32f7xx_hal_tim_ex.o(i.HAL_TIMEx_PWMN_Stop_IT) refers to stm32f7xx_hal_tim_ex.o(i.TIM_CCxNChannelCmd) for TIM_CCxNChannelCmd
    stm32f7xx_hal_tim_ex.o(i.HAL_TIM_ConfigOCrefClear) refers to stm32f7xx_hal_tim.o(i.TIM_ETR_SetConfig) for TIM_ETR_SetConfig
    stm32f7xx_hal_tim_ex.o(i.HAL_TIM_OC_ConfigChannel) refers to stm32f7xx_hal_tim.o(i.TIM_OC1_SetConfig) for TIM_OC1_SetConfig
    stm32f7xx_hal_tim_ex.o(i.HAL_TIM_OC_ConfigChannel) refers to stm32f7xx_hal_tim.o(i.TIM_OC2_SetConfig) for TIM_OC2_SetConfig
    stm32f7xx_hal_tim_ex.o(i.HAL_TIM_OC_ConfigChannel) refers to stm32f7xx_hal_tim.o(i.TIM_OC3_SetConfig) for TIM_OC3_SetConfig
    stm32f7xx_hal_tim_ex.o(i.HAL_TIM_OC_ConfigChannel) refers to stm32f7xx_hal_tim.o(i.TIM_OC4_SetConfig) for TIM_OC4_SetConfig
    stm32f7xx_hal_tim_ex.o(i.HAL_TIM_OC_ConfigChannel) refers to stm32f7xx_hal_tim_ex.o(i.TIM_OC5_SetConfig) for TIM_OC5_SetConfig
    stm32f7xx_hal_tim_ex.o(i.HAL_TIM_OC_ConfigChannel) refers to stm32f7xx_hal_tim_ex.o(i.TIM_OC6_SetConfig) for TIM_OC6_SetConfig
    stm32f7xx_hal_tim_ex.o(i.HAL_TIM_PWM_ConfigChannel) refers to stm32f7xx_hal_tim.o(i.TIM_OC1_SetConfig) for TIM_OC1_SetConfig
    stm32f7xx_hal_tim_ex.o(i.HAL_TIM_PWM_ConfigChannel) refers to stm32f7xx_hal_tim.o(i.TIM_OC2_SetConfig) for TIM_OC2_SetConfig
    stm32f7xx_hal_tim_ex.o(i.HAL_TIM_PWM_ConfigChannel) refers to stm32f7xx_hal_tim.o(i.TIM_OC3_SetConfig) for TIM_OC3_SetConfig
    stm32f7xx_hal_tim_ex.o(i.HAL_TIM_PWM_ConfigChannel) refers to stm32f7xx_hal_tim.o(i.TIM_OC4_SetConfig) for TIM_OC4_SetConfig
    stm32f7xx_hal_tim_ex.o(i.HAL_TIM_PWM_ConfigChannel) refers to stm32f7xx_hal_tim_ex.o(i.TIM_OC5_SetConfig) for TIM_OC5_SetConfig
    stm32f7xx_hal_tim_ex.o(i.HAL_TIM_PWM_ConfigChannel) refers to stm32f7xx_hal_tim_ex.o(i.TIM_OC6_SetConfig) for TIM_OC6_SetConfig
    stm32f7xx_hal_tim_ex.o(i.TIMEx_DMACommutationCplt) refers to stm32f7xx_hal_tim_ex.o(i.HAL_TIMEx_CommutationCallback) for HAL_TIMEx_CommutationCallback
    stm32f7xx_hal_dma_ex.o(i.HAL_DMAEx_MultiBufferStart) refers to stm32f7xx_hal_dma_ex.o(i.DMA_MultiBufferSetConfig) for DMA_MultiBufferSetConfig
    stm32f7xx_hal_dma_ex.o(i.HAL_DMAEx_MultiBufferStart_IT) refers to stm32f7xx_hal_dma_ex.o(i.DMA_MultiBufferSetConfig) for DMA_MultiBufferSetConfig
    stm32f7xx_hal_gpio.o(i.HAL_GPIO_EXTI_IRQHandler) refers to main.o(i.HAL_GPIO_EXTI_Callback) for HAL_GPIO_EXTI_Callback
    stm32f7xx_hal_adc.o(i.ADC_DMAConvCplt) refers to stm32f7xx_hal_adc.o(i.HAL_ADC_ConvCpltCallback) for HAL_ADC_ConvCpltCallback
    stm32f7xx_hal_adc.o(i.ADC_DMAError) refers to stm32f7xx_hal_adc.o(i.HAL_ADC_ErrorCallback) for HAL_ADC_ErrorCallback
    stm32f7xx_hal_adc.o(i.ADC_DMAHalfConvCplt) refers to stm32f7xx_hal_adc.o(i.HAL_ADC_ConvHalfCpltCallback) for HAL_ADC_ConvHalfCpltCallback
    stm32f7xx_hal_adc.o(i.HAL_ADC_ConfigChannel) refers to system_stm32f7xx.o(.data) for SystemCoreClock
    stm32f7xx_hal_adc.o(i.HAL_ADC_DeInit) refers to stm32f7xx_hal_msp.o(i.HAL_ADC_MspDeInit) for HAL_ADC_MspDeInit
    stm32f7xx_hal_adc.o(i.HAL_ADC_IRQHandler) refers to stm32f7xx_hal_adc.o(i.HAL_ADC_ConvCpltCallback) for HAL_ADC_ConvCpltCallback
    stm32f7xx_hal_adc.o(i.HAL_ADC_IRQHandler) refers to stm32f7xx_hal_adc_ex.o(i.HAL_ADCEx_InjectedConvCpltCallback) for HAL_ADCEx_InjectedConvCpltCallback
    stm32f7xx_hal_adc.o(i.HAL_ADC_IRQHandler) refers to stm32f7xx_hal_adc.o(i.HAL_ADC_LevelOutOfWindowCallback) for HAL_ADC_LevelOutOfWindowCallback
    stm32f7xx_hal_adc.o(i.HAL_ADC_IRQHandler) refers to stm32f7xx_hal_adc.o(i.HAL_ADC_ErrorCallback) for HAL_ADC_ErrorCallback
    stm32f7xx_hal_adc.o(i.HAL_ADC_Init) refers to stm32f7xx_hal_msp.o(i.HAL_ADC_MspInit) for HAL_ADC_MspInit
    stm32f7xx_hal_adc.o(i.HAL_ADC_Init) refers to stm32f7xx_hal_adc.o(i.ADC_Init) for ADC_Init
    stm32f7xx_hal_adc.o(i.HAL_ADC_PollForConversion) refers to stm32f7xx_hal.o(i.HAL_GetTick) for HAL_GetTick
    stm32f7xx_hal_adc.o(i.HAL_ADC_PollForEvent) refers to stm32f7xx_hal.o(i.HAL_GetTick) for HAL_GetTick
    stm32f7xx_hal_adc.o(i.HAL_ADC_Start) refers to system_stm32f7xx.o(.data) for SystemCoreClock
    stm32f7xx_hal_adc.o(i.HAL_ADC_Start_DMA) refers to stm32f7xx_hal_dma.o(i.HAL_DMA_Start_IT) for HAL_DMA_Start_IT
    stm32f7xx_hal_adc.o(i.HAL_ADC_Start_DMA) refers to system_stm32f7xx.o(.data) for SystemCoreClock
    stm32f7xx_hal_adc.o(i.HAL_ADC_Start_DMA) refers to stm32f7xx_hal_adc.o(i.ADC_DMAConvCplt) for ADC_DMAConvCplt
    stm32f7xx_hal_adc.o(i.HAL_ADC_Start_DMA) refers to stm32f7xx_hal_adc.o(i.ADC_DMAHalfConvCplt) for ADC_DMAHalfConvCplt
    stm32f7xx_hal_adc.o(i.HAL_ADC_Start_DMA) refers to stm32f7xx_hal_adc.o(i.ADC_DMAError) for ADC_DMAError
    stm32f7xx_hal_adc.o(i.HAL_ADC_Start_IT) refers to system_stm32f7xx.o(.data) for SystemCoreClock
    stm32f7xx_hal_adc.o(i.HAL_ADC_Stop_DMA) refers to stm32f7xx_hal_dma.o(i.HAL_DMA_Abort) for HAL_DMA_Abort
    stm32f7xx_hal_dma2d.o(i.HAL_DMA2D_Abort) refers to stm32f7xx_hal.o(i.HAL_GetTick) for HAL_GetTick
    stm32f7xx_hal_dma2d.o(i.HAL_DMA2D_BlendingStart) refers to stm32f7xx_hal_dma2d.o(i.DMA2D_SetConfig) for DMA2D_SetConfig
    stm32f7xx_hal_dma2d.o(i.HAL_DMA2D_BlendingStart_IT) refers to stm32f7xx_hal_dma2d.o(i.DMA2D_SetConfig) for DMA2D_SetConfig
    stm32f7xx_hal_dma2d.o(i.HAL_DMA2D_CLUTLoading_Abort) refers to stm32f7xx_hal.o(i.HAL_GetTick) for HAL_GetTick
    stm32f7xx_hal_dma2d.o(i.HAL_DMA2D_CLUTLoading_Suspend) refers to stm32f7xx_hal.o(i.HAL_GetTick) for HAL_GetTick
    stm32f7xx_hal_dma2d.o(i.HAL_DMA2D_DeInit) refers to stm32f7xx_hal_dma2d.o(i.HAL_DMA2D_Abort) for HAL_DMA2D_Abort
    stm32f7xx_hal_dma2d.o(i.HAL_DMA2D_DeInit) refers to stm32f7xx_hal_dma2d.o(i.HAL_DMA2D_CLUTLoading_Abort) for HAL_DMA2D_CLUTLoading_Abort
    stm32f7xx_hal_dma2d.o(i.HAL_DMA2D_DeInit) refers to stm32f7xx_hal_dma2d.o(i.HAL_DMA2D_MspDeInit) for HAL_DMA2D_MspDeInit
    stm32f7xx_hal_dma2d.o(i.HAL_DMA2D_IRQHandler) refers to stm32f7xx_hal_dma2d.o(i.HAL_DMA2D_LineEventCallback) for HAL_DMA2D_LineEventCallback
    stm32f7xx_hal_dma2d.o(i.HAL_DMA2D_IRQHandler) refers to stm32f7xx_hal_dma2d.o(i.HAL_DMA2D_CLUTLoadingCpltCallback) for HAL_DMA2D_CLUTLoadingCpltCallback
    stm32f7xx_hal_dma2d.o(i.HAL_DMA2D_Init) refers to stm32f7xx_hal_dma2d.o(i.HAL_DMA2D_MspInit) for HAL_DMA2D_MspInit
    stm32f7xx_hal_dma2d.o(i.HAL_DMA2D_PollForTransfer) refers to stm32f7xx_hal.o(i.HAL_GetTick) for HAL_GetTick
    stm32f7xx_hal_dma2d.o(i.HAL_DMA2D_Start) refers to stm32f7xx_hal_dma2d.o(i.DMA2D_SetConfig) for DMA2D_SetConfig
    stm32f7xx_hal_dma2d.o(i.HAL_DMA2D_Start_IT) refers to stm32f7xx_hal_dma2d.o(i.DMA2D_SetConfig) for DMA2D_SetConfig
    stm32f7xx_hal_dma2d.o(i.HAL_DMA2D_Suspend) refers to stm32f7xx_hal.o(i.HAL_GetTick) for HAL_GetTick
    stm32f7xx_hal_ltdc.o(i.HAL_LTDC_ConfigLayer) refers to memcpya.o(.text) for __aeabi_memcpy4
    stm32f7xx_hal_ltdc.o(i.HAL_LTDC_ConfigLayer) refers to stm32f7xx_hal_ltdc.o(i.LTDC_SetConfig) for LTDC_SetConfig
    stm32f7xx_hal_ltdc.o(i.HAL_LTDC_ConfigLayer_NoReload) refers to memcpya.o(.text) for __aeabi_memcpy4
    stm32f7xx_hal_ltdc.o(i.HAL_LTDC_ConfigLayer_NoReload) refers to stm32f7xx_hal_ltdc.o(i.LTDC_SetConfig) for LTDC_SetConfig
    stm32f7xx_hal_ltdc.o(i.HAL_LTDC_DeInit) refers to stm32f7xx_hal_ltdc.o(i.HAL_LTDC_MspDeInit) for HAL_LTDC_MspDeInit
    stm32f7xx_hal_ltdc.o(i.HAL_LTDC_IRQHandler) refers to stm32f7xx_hal_ltdc.o(i.HAL_LTDC_ErrorCallback) for HAL_LTDC_ErrorCallback
    stm32f7xx_hal_ltdc.o(i.HAL_LTDC_IRQHandler) refers to stm32f7xx_hal_ltdc.o(i.HAL_LTDC_LineEventCallback) for HAL_LTDC_LineEventCallback
    stm32f7xx_hal_ltdc.o(i.HAL_LTDC_IRQHandler) refers to stm32f7xx_hal_ltdc.o(i.HAL_LTDC_ReloadEventCallback) for HAL_LTDC_ReloadEventCallback
    stm32f7xx_hal_ltdc.o(i.HAL_LTDC_Init) refers to stm32f7xx_hal_ltdc.o(i.HAL_LTDC_MspInit) for HAL_LTDC_MspInit
    stm32f7xx_hal_ltdc.o(i.HAL_LTDC_SetAddress) refers to stm32f7xx_hal_ltdc.o(i.LTDC_SetConfig) for LTDC_SetConfig
    stm32f7xx_hal_ltdc.o(i.HAL_LTDC_SetAddress_NoReload) refers to stm32f7xx_hal_ltdc.o(i.LTDC_SetConfig) for LTDC_SetConfig
    stm32f7xx_hal_ltdc.o(i.HAL_LTDC_SetAlpha) refers to stm32f7xx_hal_ltdc.o(i.LTDC_SetConfig) for LTDC_SetConfig
    stm32f7xx_hal_ltdc.o(i.HAL_LTDC_SetAlpha_NoReload) refers to stm32f7xx_hal_ltdc.o(i.LTDC_SetConfig) for LTDC_SetConfig
    stm32f7xx_hal_ltdc.o(i.HAL_LTDC_SetPixelFormat) refers to stm32f7xx_hal_ltdc.o(i.LTDC_SetConfig) for LTDC_SetConfig
    stm32f7xx_hal_ltdc.o(i.HAL_LTDC_SetPixelFormat_NoReload) refers to stm32f7xx_hal_ltdc.o(i.LTDC_SetConfig) for LTDC_SetConfig
    stm32f7xx_hal_ltdc.o(i.HAL_LTDC_SetWindowPosition) refers to stm32f7xx_hal_ltdc.o(i.LTDC_SetConfig) for LTDC_SetConfig
    stm32f7xx_hal_ltdc.o(i.HAL_LTDC_SetWindowPosition_NoReload) refers to stm32f7xx_hal_ltdc.o(i.LTDC_SetConfig) for LTDC_SetConfig
    stm32f7xx_hal_ltdc.o(i.HAL_LTDC_SetWindowSize) refers to stm32f7xx_hal_ltdc.o(i.LTDC_SetConfig) for LTDC_SetConfig
    stm32f7xx_hal_ltdc.o(i.HAL_LTDC_SetWindowSize_NoReload) refers to stm32f7xx_hal_ltdc.o(i.LTDC_SetConfig) for LTDC_SetConfig
    stm32f7xx_hal_qspi.o(i.HAL_QSPI_Abort) refers to stm32f7xx_hal.o(i.HAL_GetTick) for HAL_GetTick
    stm32f7xx_hal_qspi.o(i.HAL_QSPI_Abort) refers to stm32f7xx_hal_dma.o(i.HAL_DMA_Abort) for HAL_DMA_Abort
    stm32f7xx_hal_qspi.o(i.HAL_QSPI_Abort) refers to stm32f7xx_hal_qspi.o(i.QSPI_WaitFlagStateUntilTimeout) for QSPI_WaitFlagStateUntilTimeout
    stm32f7xx_hal_qspi.o(i.HAL_QSPI_Abort_IT) refers to stm32f7xx_hal_dma.o(i.HAL_DMA_Abort_IT) for HAL_DMA_Abort_IT
    stm32f7xx_hal_qspi.o(i.HAL_QSPI_Abort_IT) refers to stm32f7xx_hal_qspi.o(i.QSPI_DMAAbortCplt) for QSPI_DMAAbortCplt
    stm32f7xx_hal_qspi.o(i.HAL_QSPI_AutoPolling) refers to stm32f7xx_hal.o(i.HAL_GetTick) for HAL_GetTick
    stm32f7xx_hal_qspi.o(i.HAL_QSPI_AutoPolling) refers to stm32f7xx_hal_qspi.o(i.QSPI_WaitFlagStateUntilTimeout) for QSPI_WaitFlagStateUntilTimeout
    stm32f7xx_hal_qspi.o(i.HAL_QSPI_AutoPolling) refers to stm32f7xx_hal_qspi.o(i.QSPI_Config) for QSPI_Config
    stm32f7xx_hal_qspi.o(i.HAL_QSPI_AutoPolling_IT) refers to stm32f7xx_hal.o(i.HAL_GetTick) for HAL_GetTick
    stm32f7xx_hal_qspi.o(i.HAL_QSPI_AutoPolling_IT) refers to stm32f7xx_hal_qspi.o(i.QSPI_WaitFlagStateUntilTimeout) for QSPI_WaitFlagStateUntilTimeout
    stm32f7xx_hal_qspi.o(i.HAL_QSPI_AutoPolling_IT) refers to stm32f7xx_hal_qspi.o(i.QSPI_Config) for QSPI_Config
    stm32f7xx_hal_qspi.o(i.HAL_QSPI_Command) refers to stm32f7xx_hal.o(i.HAL_GetTick) for HAL_GetTick
    stm32f7xx_hal_qspi.o(i.HAL_QSPI_Command) refers to stm32f7xx_hal_qspi.o(i.QSPI_WaitFlagStateUntilTimeout) for QSPI_WaitFlagStateUntilTimeout
    stm32f7xx_hal_qspi.o(i.HAL_QSPI_Command) refers to stm32f7xx_hal_qspi.o(i.QSPI_Config) for QSPI_Config
    stm32f7xx_hal_qspi.o(i.HAL_QSPI_Command_IT) refers to stm32f7xx_hal.o(i.HAL_GetTick) for HAL_GetTick
    stm32f7xx_hal_qspi.o(i.HAL_QSPI_Command_IT) refers to stm32f7xx_hal_qspi.o(i.QSPI_WaitFlagStateUntilTimeout) for QSPI_WaitFlagStateUntilTimeout
    stm32f7xx_hal_qspi.o(i.HAL_QSPI_Command_IT) refers to stm32f7xx_hal_qspi.o(i.QSPI_Config) for QSPI_Config
    stm32f7xx_hal_qspi.o(i.HAL_QSPI_DeInit) refers to stm32f7xx_hal_qspi.o(i.HAL_QSPI_MspDeInit) for HAL_QSPI_MspDeInit
    stm32f7xx_hal_qspi.o(i.HAL_QSPI_IRQHandler) refers to stm32f7xx_hal_qspi.o(i.HAL_QSPI_FifoThresholdCallback) for HAL_QSPI_FifoThresholdCallback
    stm32f7xx_hal_qspi.o(i.HAL_QSPI_IRQHandler) refers to stm32f7xx_hal_qspi.o(i.HAL_QSPI_Abort_IT) for HAL_QSPI_Abort_IT
    stm32f7xx_hal_qspi.o(i.HAL_QSPI_IRQHandler) refers to stm32f7xx_hal_qspi.o(i.HAL_QSPI_TxCpltCallback) for HAL_QSPI_TxCpltCallback
    stm32f7xx_hal_qspi.o(i.HAL_QSPI_IRQHandler) refers to stm32f7xx_hal_qspi.o(i.HAL_QSPI_RxCpltCallback) for HAL_QSPI_RxCpltCallback
    stm32f7xx_hal_qspi.o(i.HAL_QSPI_IRQHandler) refers to stm32f7xx_hal_qspi.o(i.HAL_QSPI_CmdCpltCallback) for HAL_QSPI_CmdCpltCallback
    stm32f7xx_hal_qspi.o(i.HAL_QSPI_IRQHandler) refers to stm32f7xx_hal_qspi.o(i.HAL_QSPI_AbortCpltCallback) for HAL_QSPI_AbortCpltCallback
    stm32f7xx_hal_qspi.o(i.HAL_QSPI_IRQHandler) refers to stm32f7xx_hal_qspi.o(i.HAL_QSPI_ErrorCallback) for HAL_QSPI_ErrorCallback
    stm32f7xx_hal_qspi.o(i.HAL_QSPI_IRQHandler) refers to stm32f7xx_hal_qspi.o(i.HAL_QSPI_StatusMatchCallback) for HAL_QSPI_StatusMatchCallback
    stm32f7xx_hal_qspi.o(i.HAL_QSPI_IRQHandler) refers to stm32f7xx_hal_dma.o(i.HAL_DMA_Abort_IT) for HAL_DMA_Abort_IT
    stm32f7xx_hal_qspi.o(i.HAL_QSPI_IRQHandler) refers to stm32f7xx_hal_qspi.o(i.HAL_QSPI_TimeOutCallback) for HAL_QSPI_TimeOutCallback
    stm32f7xx_hal_qspi.o(i.HAL_QSPI_IRQHandler) refers to stm32f7xx_hal_qspi.o(i.QSPI_DMAAbortCplt) for QSPI_DMAAbortCplt
    stm32f7xx_hal_qspi.o(i.HAL_QSPI_Init) refers to stm32f7xx_hal.o(i.HAL_GetTick) for HAL_GetTick
    stm32f7xx_hal_qspi.o(i.HAL_QSPI_Init) refers to stm32f7xx_hal_qspi.o(i.HAL_QSPI_MspInit) for HAL_QSPI_MspInit
    stm32f7xx_hal_qspi.o(i.HAL_QSPI_Init) refers to stm32f7xx_hal_qspi.o(i.QSPI_WaitFlagStateUntilTimeout) for QSPI_WaitFlagStateUntilTimeout
    stm32f7xx_hal_qspi.o(i.HAL_QSPI_MemoryMapped) refers to stm32f7xx_hal.o(i.HAL_GetTick) for HAL_GetTick
    stm32f7xx_hal_qspi.o(i.HAL_QSPI_MemoryMapped) refers to stm32f7xx_hal_qspi.o(i.QSPI_WaitFlagStateUntilTimeout) for QSPI_WaitFlagStateUntilTimeout
    stm32f7xx_hal_qspi.o(i.HAL_QSPI_MemoryMapped) refers to stm32f7xx_hal_qspi.o(i.QSPI_Config) for QSPI_Config
    stm32f7xx_hal_qspi.o(i.HAL_QSPI_Receive) refers to stm32f7xx_hal.o(i.HAL_GetTick) for HAL_GetTick
    stm32f7xx_hal_qspi.o(i.HAL_QSPI_Receive) refers to stm32f7xx_hal_qspi.o(i.QSPI_WaitFlagStateUntilTimeout) for QSPI_WaitFlagStateUntilTimeout
    stm32f7xx_hal_qspi.o(i.HAL_QSPI_Receive) refers to stm32f7xx_hal_qspi.o(i.HAL_QSPI_Abort) for HAL_QSPI_Abort
    stm32f7xx_hal_qspi.o(i.HAL_QSPI_Receive_DMA) refers to stm32f7xx_hal_dma.o(i.HAL_DMA_Start_IT) for HAL_DMA_Start_IT
    stm32f7xx_hal_qspi.o(i.HAL_QSPI_Receive_DMA) refers to stm32f7xx_hal_qspi.o(i.QSPI_DMARxCplt) for QSPI_DMARxCplt
    stm32f7xx_hal_qspi.o(i.HAL_QSPI_Receive_DMA) refers to stm32f7xx_hal_qspi.o(i.QSPI_DMARxHalfCplt) for QSPI_DMARxHalfCplt
    stm32f7xx_hal_qspi.o(i.HAL_QSPI_Receive_DMA) refers to stm32f7xx_hal_qspi.o(i.QSPI_DMAError) for QSPI_DMAError
    stm32f7xx_hal_qspi.o(i.HAL_QSPI_Transmit) refers to stm32f7xx_hal.o(i.HAL_GetTick) for HAL_GetTick
    stm32f7xx_hal_qspi.o(i.HAL_QSPI_Transmit) refers to stm32f7xx_hal_qspi.o(i.QSPI_WaitFlagStateUntilTimeout) for QSPI_WaitFlagStateUntilTimeout
    stm32f7xx_hal_qspi.o(i.HAL_QSPI_Transmit) refers to stm32f7xx_hal_qspi.o(i.HAL_QSPI_Abort) for HAL_QSPI_Abort
    stm32f7xx_hal_qspi.o(i.HAL_QSPI_Transmit_DMA) refers to stm32f7xx_hal_dma.o(i.HAL_DMA_Start_IT) for HAL_DMA_Start_IT
    stm32f7xx_hal_qspi.o(i.HAL_QSPI_Transmit_DMA) refers to stm32f7xx_hal_qspi.o(i.QSPI_DMATxCplt) for QSPI_DMATxCplt
    stm32f7xx_hal_qspi.o(i.HAL_QSPI_Transmit_DMA) refers to stm32f7xx_hal_qspi.o(i.QSPI_DMATxHalfCplt) for QSPI_DMATxHalfCplt
    stm32f7xx_hal_qspi.o(i.HAL_QSPI_Transmit_DMA) refers to stm32f7xx_hal_qspi.o(i.QSPI_DMAError) for QSPI_DMAError
    stm32f7xx_hal_qspi.o(i.QSPI_DMAAbortCplt) refers to stm32f7xx_hal_qspi.o(i.HAL_QSPI_ErrorCallback) for HAL_QSPI_ErrorCallback
    stm32f7xx_hal_qspi.o(i.QSPI_DMAError) refers to stm32f7xx_hal_dma.o(i.HAL_DMA_GetError) for HAL_DMA_GetError
    stm32f7xx_hal_qspi.o(i.QSPI_DMAError) refers to stm32f7xx_hal_qspi.o(i.HAL_QSPI_Abort_IT) for HAL_QSPI_Abort_IT
    stm32f7xx_hal_qspi.o(i.QSPI_DMARxHalfCplt) refers to stm32f7xx_hal_qspi.o(i.HAL_QSPI_RxHalfCpltCallback) for HAL_QSPI_RxHalfCpltCallback
    stm32f7xx_hal_qspi.o(i.QSPI_DMATxHalfCplt) refers to stm32f7xx_hal_qspi.o(i.HAL_QSPI_TxHalfCpltCallback) for HAL_QSPI_TxHalfCpltCallback
    stm32f7xx_hal_qspi.o(i.QSPI_WaitFlagStateUntilTimeout) refers to stm32f7xx_hal.o(i.HAL_GetTick) for HAL_GetTick
    stm32f7xx_hal_sdram.o(i.HAL_SDRAM_DeInit) refers to stm32f7xx_hal_sdram.o(i.HAL_SDRAM_MspDeInit) for HAL_SDRAM_MspDeInit
    stm32f7xx_hal_sdram.o(i.HAL_SDRAM_DeInit) refers to stm32f7xx_ll_fmc.o(i.FMC_SDRAM_DeInit) for FMC_SDRAM_DeInit
    stm32f7xx_hal_sdram.o(i.HAL_SDRAM_GetModeStatus) refers to stm32f7xx_ll_fmc.o(i.FMC_SDRAM_GetModeStatus) for FMC_SDRAM_GetModeStatus
    stm32f7xx_hal_sdram.o(i.HAL_SDRAM_IRQHandler) refers to stm32f7xx_hal_sdram.o(i.HAL_SDRAM_RefreshErrorCallback) for HAL_SDRAM_RefreshErrorCallback
    stm32f7xx_hal_sdram.o(i.HAL_SDRAM_Init) refers to stm32f7xx_hal_sdram.o(i.HAL_SDRAM_MspInit) for HAL_SDRAM_MspInit
    stm32f7xx_hal_sdram.o(i.HAL_SDRAM_Init) refers to stm32f7xx_ll_fmc.o(i.FMC_SDRAM_Init) for FMC_SDRAM_Init
    stm32f7xx_hal_sdram.o(i.HAL_SDRAM_Init) refers to stm32f7xx_ll_fmc.o(i.FMC_SDRAM_Timing_Init) for FMC_SDRAM_Timing_Init
    stm32f7xx_hal_sdram.o(i.HAL_SDRAM_ProgramRefreshRate) refers to stm32f7xx_ll_fmc.o(i.FMC_SDRAM_ProgramRefreshRate) for FMC_SDRAM_ProgramRefreshRate
    stm32f7xx_hal_sdram.o(i.HAL_SDRAM_Read_DMA) refers to stm32f7xx_hal_dma.o(i.HAL_DMA_Start_IT) for HAL_DMA_Start_IT
    stm32f7xx_hal_sdram.o(i.HAL_SDRAM_Read_DMA) refers to stm32f7xx_hal_sdram.o(i.HAL_SDRAM_DMA_XferCpltCallback) for HAL_SDRAM_DMA_XferCpltCallback
    stm32f7xx_hal_sdram.o(i.HAL_SDRAM_Read_DMA) refers to stm32f7xx_hal_sdram.o(i.HAL_SDRAM_DMA_XferErrorCallback) for HAL_SDRAM_DMA_XferErrorCallback
    stm32f7xx_hal_sdram.o(i.HAL_SDRAM_SendCommand) refers to stm32f7xx_ll_fmc.o(i.FMC_SDRAM_SendCommand) for FMC_SDRAM_SendCommand
    stm32f7xx_hal_sdram.o(i.HAL_SDRAM_SetAutoRefreshNumber) refers to stm32f7xx_ll_fmc.o(i.FMC_SDRAM_SetAutoRefreshNumber) for FMC_SDRAM_SetAutoRefreshNumber
    stm32f7xx_hal_sdram.o(i.HAL_SDRAM_WriteProtection_Disable) refers to stm32f7xx_ll_fmc.o(i.FMC_SDRAM_WriteProtection_Disable) for FMC_SDRAM_WriteProtection_Disable
    stm32f7xx_hal_sdram.o(i.HAL_SDRAM_WriteProtection_Enable) refers to stm32f7xx_ll_fmc.o(i.FMC_SDRAM_WriteProtection_Enable) for FMC_SDRAM_WriteProtection_Enable
    stm32f7xx_hal_sdram.o(i.HAL_SDRAM_Write_DMA) refers to stm32f7xx_hal_dma.o(i.HAL_DMA_Start_IT) for HAL_DMA_Start_IT
    stm32f7xx_hal_sdram.o(i.HAL_SDRAM_Write_DMA) refers to stm32f7xx_hal_sdram.o(i.HAL_SDRAM_DMA_XferCpltCallback) for HAL_SDRAM_DMA_XferCpltCallback
    stm32f7xx_hal_sdram.o(i.HAL_SDRAM_Write_DMA) refers to stm32f7xx_hal_sdram.o(i.HAL_SDRAM_DMA_XferErrorCallback) for HAL_SDRAM_DMA_XferErrorCallback
    stm32f7xx_hal_spi.o(i.HAL_SPI_Abort) refers to stm32f7xx_hal_dma.o(i.HAL_DMA_Abort) for HAL_DMA_Abort
    stm32f7xx_hal_spi.o(i.HAL_SPI_Abort) refers to stm32f7xx_hal.o(i.HAL_GetTick) for HAL_GetTick
    stm32f7xx_hal_spi.o(i.HAL_SPI_Abort) refers to stm32f7xx_hal_spi.o(i.SPI_EndRxTxTransaction) for SPI_EndRxTxTransaction
    stm32f7xx_hal_spi.o(i.HAL_SPI_Abort) refers to stm32f7xx_hal_spi.o(i.SPI_WaitFifoStateUntilTimeout) for SPI_WaitFifoStateUntilTimeout
    stm32f7xx_hal_spi.o(i.HAL_SPI_Abort) refers to stm32f7xx_hal_spi.o(i.SPI_WaitFlagStateUntilTimeout) for SPI_WaitFlagStateUntilTimeout
    stm32f7xx_hal_spi.o(i.HAL_SPI_Abort) refers to stm32f7xx_hal_spi.o(i.SPI_AbortTx_ISR) for SPI_AbortTx_ISR
    stm32f7xx_hal_spi.o(i.HAL_SPI_Abort) refers to stm32f7xx_hal_spi.o(i.SPI_AbortRx_ISR) for SPI_AbortRx_ISR
    stm32f7xx_hal_spi.o(i.HAL_SPI_Abort_IT) refers to stm32f7xx_hal_dma.o(i.HAL_DMA_Abort_IT) for HAL_DMA_Abort_IT
    stm32f7xx_hal_spi.o(i.HAL_SPI_Abort_IT) refers to stm32f7xx_hal_spi.o(i.HAL_SPI_AbortCpltCallback) for HAL_SPI_AbortCpltCallback
    stm32f7xx_hal_spi.o(i.HAL_SPI_Abort_IT) refers to stm32f7xx_hal_spi.o(i.SPI_AbortTx_ISR) for SPI_AbortTx_ISR
    stm32f7xx_hal_spi.o(i.HAL_SPI_Abort_IT) refers to stm32f7xx_hal_spi.o(i.SPI_AbortRx_ISR) for SPI_AbortRx_ISR
    stm32f7xx_hal_spi.o(i.HAL_SPI_Abort_IT) refers to stm32f7xx_hal_spi.o(i.SPI_DMATxAbortCallback) for SPI_DMATxAbortCallback
    stm32f7xx_hal_spi.o(i.HAL_SPI_Abort_IT) refers to stm32f7xx_hal_spi.o(i.SPI_DMARxAbortCallback) for SPI_DMARxAbortCallback
    stm32f7xx_hal_spi.o(i.HAL_SPI_DMAStop) refers to stm32f7xx_hal_dma.o(i.HAL_DMA_Abort) for HAL_DMA_Abort
    stm32f7xx_hal_spi.o(i.HAL_SPI_DeInit) refers to stm32f7xx_hal_spi.o(i.HAL_SPI_MspDeInit) for HAL_SPI_MspDeInit
    stm32f7xx_hal_spi.o(i.HAL_SPI_IRQHandler) refers to stm32f7xx_hal_dma.o(i.HAL_DMA_Abort_IT) for HAL_DMA_Abort_IT
    stm32f7xx_hal_spi.o(i.HAL_SPI_IRQHandler) refers to stm32f7xx_hal_spi.o(i.HAL_SPI_ErrorCallback) for HAL_SPI_ErrorCallback
    stm32f7xx_hal_spi.o(i.HAL_SPI_IRQHandler) refers to stm32f7xx_hal_spi.o(i.SPI_DMAAbortOnError) for SPI_DMAAbortOnError
    stm32f7xx_hal_spi.o(i.HAL_SPI_Init) refers to stm32f7xx_hal_spi.o(i.HAL_SPI_MspInit) for HAL_SPI_MspInit
    stm32f7xx_hal_spi.o(i.HAL_SPI_Receive) refers to stm32f7xx_hal.o(i.HAL_GetTick) for HAL_GetTick
    stm32f7xx_hal_spi.o(i.HAL_SPI_Receive) refers to stm32f7xx_hal_spi.o(i.HAL_SPI_TransmitReceive) for HAL_SPI_TransmitReceive
    stm32f7xx_hal_spi.o(i.HAL_SPI_Receive) refers to stm32f7xx_hal_spi.o(i.SPI_EndRxTransaction) for SPI_EndRxTransaction
    stm32f7xx_hal_spi.o(i.HAL_SPI_Receive_DMA) refers to stm32f7xx_hal_spi.o(i.HAL_SPI_TransmitReceive_DMA) for HAL_SPI_TransmitReceive_DMA
    stm32f7xx_hal_spi.o(i.HAL_SPI_Receive_DMA) refers to stm32f7xx_hal_dma.o(i.HAL_DMA_Start_IT) for HAL_DMA_Start_IT
    stm32f7xx_hal_spi.o(i.HAL_SPI_Receive_DMA) refers to stm32f7xx_hal_spi.o(i.SPI_DMAHalfReceiveCplt) for SPI_DMAHalfReceiveCplt
    stm32f7xx_hal_spi.o(i.HAL_SPI_Receive_DMA) refers to stm32f7xx_hal_spi.o(i.SPI_DMAReceiveCplt) for SPI_DMAReceiveCplt
    stm32f7xx_hal_spi.o(i.HAL_SPI_Receive_DMA) refers to stm32f7xx_hal_spi.o(i.SPI_DMAError) for SPI_DMAError
    stm32f7xx_hal_spi.o(i.HAL_SPI_Receive_IT) refers to stm32f7xx_hal_spi.o(i.HAL_SPI_TransmitReceive_IT) for HAL_SPI_TransmitReceive_IT
    stm32f7xx_hal_spi.o(i.HAL_SPI_Receive_IT) refers to stm32f7xx_hal_spi.o(i.SPI_RxISR_16BIT) for SPI_RxISR_16BIT
    stm32f7xx_hal_spi.o(i.HAL_SPI_Receive_IT) refers to stm32f7xx_hal_spi.o(i.SPI_RxISR_8BIT) for SPI_RxISR_8BIT
    stm32f7xx_hal_spi.o(i.HAL_SPI_Transmit) refers to stm32f7xx_hal.o(i.HAL_GetTick) for HAL_GetTick
    stm32f7xx_hal_spi.o(i.HAL_SPI_Transmit) refers to stm32f7xx_hal_spi.o(i.SPI_EndRxTxTransaction) for SPI_EndRxTxTransaction
    stm32f7xx_hal_spi.o(i.HAL_SPI_TransmitReceive) refers to stm32f7xx_hal.o(i.HAL_GetTick) for HAL_GetTick
    stm32f7xx_hal_spi.o(i.HAL_SPI_TransmitReceive) refers to stm32f7xx_hal_spi.o(i.SPI_EndRxTxTransaction) for SPI_EndRxTxTransaction
    stm32f7xx_hal_spi.o(i.HAL_SPI_TransmitReceive_DMA) refers to stm32f7xx_hal_dma.o(i.HAL_DMA_Start_IT) for HAL_DMA_Start_IT
    stm32f7xx_hal_spi.o(i.HAL_SPI_TransmitReceive_DMA) refers to stm32f7xx_hal_spi.o(i.SPI_DMAHalfTransmitReceiveCplt) for SPI_DMAHalfTransmitReceiveCplt
    stm32f7xx_hal_spi.o(i.HAL_SPI_TransmitReceive_DMA) refers to stm32f7xx_hal_spi.o(i.SPI_DMATransmitReceiveCplt) for SPI_DMATransmitReceiveCplt
    stm32f7xx_hal_spi.o(i.HAL_SPI_TransmitReceive_DMA) refers to stm32f7xx_hal_spi.o(i.SPI_DMAError) for SPI_DMAError
    stm32f7xx_hal_spi.o(i.HAL_SPI_TransmitReceive_DMA) refers to stm32f7xx_hal_spi.o(i.SPI_DMAHalfReceiveCplt) for SPI_DMAHalfReceiveCplt
    stm32f7xx_hal_spi.o(i.HAL_SPI_TransmitReceive_DMA) refers to stm32f7xx_hal_spi.o(i.SPI_DMAReceiveCplt) for SPI_DMAReceiveCplt
    stm32f7xx_hal_spi.o(i.HAL_SPI_TransmitReceive_IT) refers to stm32f7xx_hal_spi.o(i.SPI_2linesRxISR_16BIT) for SPI_2linesRxISR_16BIT
    stm32f7xx_hal_spi.o(i.HAL_SPI_TransmitReceive_IT) refers to stm32f7xx_hal_spi.o(i.SPI_2linesTxISR_16BIT) for SPI_2linesTxISR_16BIT
    stm32f7xx_hal_spi.o(i.HAL_SPI_TransmitReceive_IT) refers to stm32f7xx_hal_spi.o(i.SPI_2linesRxISR_8BIT) for SPI_2linesRxISR_8BIT
    stm32f7xx_hal_spi.o(i.HAL_SPI_TransmitReceive_IT) refers to stm32f7xx_hal_spi.o(i.SPI_2linesTxISR_8BIT) for SPI_2linesTxISR_8BIT
    stm32f7xx_hal_spi.o(i.HAL_SPI_Transmit_DMA) refers to stm32f7xx_hal_dma.o(i.HAL_DMA_Start_IT) for HAL_DMA_Start_IT
    stm32f7xx_hal_spi.o(i.HAL_SPI_Transmit_DMA) refers to stm32f7xx_hal_spi.o(i.SPI_DMAHalfTransmitCplt) for SPI_DMAHalfTransmitCplt
    stm32f7xx_hal_spi.o(i.HAL_SPI_Transmit_DMA) refers to stm32f7xx_hal_spi.o(i.SPI_DMATransmitCplt) for SPI_DMATransmitCplt
    stm32f7xx_hal_spi.o(i.HAL_SPI_Transmit_DMA) refers to stm32f7xx_hal_spi.o(i.SPI_DMAError) for SPI_DMAError
    stm32f7xx_hal_spi.o(i.HAL_SPI_Transmit_IT) refers to stm32f7xx_hal_spi.o(i.SPI_TxISR_16BIT) for SPI_TxISR_16BIT
    stm32f7xx_hal_spi.o(i.HAL_SPI_Transmit_IT) refers to stm32f7xx_hal_spi.o(i.SPI_TxISR_8BIT) for SPI_TxISR_8BIT
    stm32f7xx_hal_spi.o(i.SPI_2linesRxISR_16BIT) refers to stm32f7xx_hal_spi.o(i.SPI_CloseRxTx_ISR) for SPI_CloseRxTx_ISR
    stm32f7xx_hal_spi.o(i.SPI_2linesRxISR_8BIT) refers to stm32f7xx_hal_spi.o(i.SPI_CloseRxTx_ISR) for SPI_CloseRxTx_ISR
    stm32f7xx_hal_spi.o(i.SPI_2linesTxISR_16BIT) refers to stm32f7xx_hal_spi.o(i.SPI_CloseRxTx_ISR) for SPI_CloseRxTx_ISR
    stm32f7xx_hal_spi.o(i.SPI_2linesTxISR_8BIT) refers to stm32f7xx_hal_spi.o(i.SPI_CloseRxTx_ISR) for SPI_CloseRxTx_ISR
    stm32f7xx_hal_spi.o(i.SPI_AbortRx_ISR) refers to stm32f7xx_hal.o(i.HAL_GetTick) for HAL_GetTick
    stm32f7xx_hal_spi.o(i.SPI_AbortRx_ISR) refers to stm32f7xx_hal_spi.o(i.SPI_WaitFlagStateUntilTimeout) for SPI_WaitFlagStateUntilTimeout
    stm32f7xx_hal_spi.o(i.SPI_AbortRx_ISR) refers to stm32f7xx_hal_spi.o(i.SPI_WaitFifoStateUntilTimeout) for SPI_WaitFifoStateUntilTimeout
    stm32f7xx_hal_spi.o(i.SPI_AbortTx_ISR) refers to stm32f7xx_hal.o(i.HAL_GetTick) for HAL_GetTick
    stm32f7xx_hal_spi.o(i.SPI_AbortTx_ISR) refers to stm32f7xx_hal_spi.o(i.SPI_EndRxTxTransaction) for SPI_EndRxTxTransaction
    stm32f7xx_hal_spi.o(i.SPI_AbortTx_ISR) refers to stm32f7xx_hal_spi.o(i.SPI_WaitFifoStateUntilTimeout) for SPI_WaitFifoStateUntilTimeout
    stm32f7xx_hal_spi.o(i.SPI_CloseRxTx_ISR) refers to stm32f7xx_hal.o(i.HAL_GetTick) for HAL_GetTick
    stm32f7xx_hal_spi.o(i.SPI_CloseRxTx_ISR) refers to stm32f7xx_hal_spi.o(i.SPI_EndRxTxTransaction) for SPI_EndRxTxTransaction
    stm32f7xx_hal_spi.o(i.SPI_CloseRxTx_ISR) refers to stm32f7xx_hal_spi.o(i.HAL_SPI_ErrorCallback) for HAL_SPI_ErrorCallback
    stm32f7xx_hal_spi.o(i.SPI_CloseRxTx_ISR) refers to stm32f7xx_hal_spi.o(i.HAL_SPI_TxRxCpltCallback) for HAL_SPI_TxRxCpltCallback
    stm32f7xx_hal_spi.o(i.SPI_CloseRxTx_ISR) refers to stm32f7xx_hal_spi.o(i.HAL_SPI_RxCpltCallback) for HAL_SPI_RxCpltCallback
    stm32f7xx_hal_spi.o(i.SPI_CloseRx_ISR) refers to stm32f7xx_hal.o(i.HAL_GetTick) for HAL_GetTick
    stm32f7xx_hal_spi.o(i.SPI_CloseRx_ISR) refers to stm32f7xx_hal_spi.o(i.SPI_EndRxTransaction) for SPI_EndRxTransaction
    stm32f7xx_hal_spi.o(i.SPI_CloseRx_ISR) refers to stm32f7xx_hal_spi.o(i.HAL_SPI_ErrorCallback) for HAL_SPI_ErrorCallback
    stm32f7xx_hal_spi.o(i.SPI_CloseRx_ISR) refers to stm32f7xx_hal_spi.o(i.HAL_SPI_RxCpltCallback) for HAL_SPI_RxCpltCallback
    stm32f7xx_hal_spi.o(i.SPI_CloseTx_ISR) refers to stm32f7xx_hal.o(i.HAL_GetTick) for HAL_GetTick
    stm32f7xx_hal_spi.o(i.SPI_CloseTx_ISR) refers to stm32f7xx_hal_spi.o(i.SPI_EndRxTxTransaction) for SPI_EndRxTxTransaction
    stm32f7xx_hal_spi.o(i.SPI_CloseTx_ISR) refers to stm32f7xx_hal_spi.o(i.HAL_SPI_ErrorCallback) for HAL_SPI_ErrorCallback
    stm32f7xx_hal_spi.o(i.SPI_CloseTx_ISR) refers to stm32f7xx_hal_spi.o(i.HAL_SPI_TxCpltCallback) for HAL_SPI_TxCpltCallback
    stm32f7xx_hal_spi.o(i.SPI_DMAAbortOnError) refers to stm32f7xx_hal_spi.o(i.HAL_SPI_ErrorCallback) for HAL_SPI_ErrorCallback
    stm32f7xx_hal_spi.o(i.SPI_DMAError) refers to stm32f7xx_hal_spi.o(i.HAL_SPI_ErrorCallback) for HAL_SPI_ErrorCallback
    stm32f7xx_hal_spi.o(i.SPI_DMAHalfReceiveCplt) refers to stm32f7xx_hal_spi.o(i.HAL_SPI_RxHalfCpltCallback) for HAL_SPI_RxHalfCpltCallback
    stm32f7xx_hal_spi.o(i.SPI_DMAHalfTransmitCplt) refers to stm32f7xx_hal_spi.o(i.HAL_SPI_TxHalfCpltCallback) for HAL_SPI_TxHalfCpltCallback
    stm32f7xx_hal_spi.o(i.SPI_DMAHalfTransmitReceiveCplt) refers to stm32f7xx_hal_spi.o(i.HAL_SPI_TxRxHalfCpltCallback) for HAL_SPI_TxRxHalfCpltCallback
    stm32f7xx_hal_spi.o(i.SPI_DMAReceiveCplt) refers to stm32f7xx_hal.o(i.HAL_GetTick) for HAL_GetTick
    stm32f7xx_hal_spi.o(i.SPI_DMAReceiveCplt) refers to stm32f7xx_hal_spi.o(i.SPI_EndRxTransaction) for SPI_EndRxTransaction
    stm32f7xx_hal_spi.o(i.SPI_DMAReceiveCplt) refers to stm32f7xx_hal_spi.o(i.HAL_SPI_ErrorCallback) for HAL_SPI_ErrorCallback
    stm32f7xx_hal_spi.o(i.SPI_DMAReceiveCplt) refers to stm32f7xx_hal_spi.o(i.HAL_SPI_RxCpltCallback) for HAL_SPI_RxCpltCallback
    stm32f7xx_hal_spi.o(i.SPI_DMARxAbortCallback) refers to stm32f7xx_hal.o(i.HAL_GetTick) for HAL_GetTick
    stm32f7xx_hal_spi.o(i.SPI_DMARxAbortCallback) refers to stm32f7xx_hal_spi.o(i.SPI_WaitFlagStateUntilTimeout) for SPI_WaitFlagStateUntilTimeout
    stm32f7xx_hal_spi.o(i.SPI_DMARxAbortCallback) refers to stm32f7xx_hal_spi.o(i.SPI_WaitFifoStateUntilTimeout) for SPI_WaitFifoStateUntilTimeout
    stm32f7xx_hal_spi.o(i.SPI_DMARxAbortCallback) refers to stm32f7xx_hal_spi.o(i.HAL_SPI_AbortCpltCallback) for HAL_SPI_AbortCpltCallback
    stm32f7xx_hal_spi.o(i.SPI_DMATransmitCplt) refers to stm32f7xx_hal.o(i.HAL_GetTick) for HAL_GetTick
    stm32f7xx_hal_spi.o(i.SPI_DMATransmitCplt) refers to stm32f7xx_hal_spi.o(i.SPI_EndRxTxTransaction) for SPI_EndRxTxTransaction
    stm32f7xx_hal_spi.o(i.SPI_DMATransmitCplt) refers to stm32f7xx_hal_spi.o(i.HAL_SPI_ErrorCallback) for HAL_SPI_ErrorCallback
    stm32f7xx_hal_spi.o(i.SPI_DMATransmitCplt) refers to stm32f7xx_hal_spi.o(i.HAL_SPI_TxCpltCallback) for HAL_SPI_TxCpltCallback
    stm32f7xx_hal_spi.o(i.SPI_DMATransmitReceiveCplt) refers to stm32f7xx_hal.o(i.HAL_GetTick) for HAL_GetTick
    stm32f7xx_hal_spi.o(i.SPI_DMATransmitReceiveCplt) refers to stm32f7xx_hal_spi.o(i.SPI_EndRxTxTransaction) for SPI_EndRxTxTransaction
    stm32f7xx_hal_spi.o(i.SPI_DMATransmitReceiveCplt) refers to stm32f7xx_hal_spi.o(i.HAL_SPI_ErrorCallback) for HAL_SPI_ErrorCallback
    stm32f7xx_hal_spi.o(i.SPI_DMATransmitReceiveCplt) refers to stm32f7xx_hal_spi.o(i.HAL_SPI_TxRxCpltCallback) for HAL_SPI_TxRxCpltCallback
    stm32f7xx_hal_spi.o(i.SPI_DMATxAbortCallback) refers to stm32f7xx_hal.o(i.HAL_GetTick) for HAL_GetTick
    stm32f7xx_hal_spi.o(i.SPI_DMATxAbortCallback) refers to stm32f7xx_hal_spi.o(i.SPI_EndRxTxTransaction) for SPI_EndRxTxTransaction
    stm32f7xx_hal_spi.o(i.SPI_DMATxAbortCallback) refers to stm32f7xx_hal_spi.o(i.SPI_WaitFifoStateUntilTimeout) for SPI_WaitFifoStateUntilTimeout
    stm32f7xx_hal_spi.o(i.SPI_DMATxAbortCallback) refers to stm32f7xx_hal_spi.o(i.HAL_SPI_AbortCpltCallback) for HAL_SPI_AbortCpltCallback
    stm32f7xx_hal_spi.o(i.SPI_EndRxTransaction) refers to stm32f7xx_hal_spi.o(i.SPI_WaitFlagStateUntilTimeout) for SPI_WaitFlagStateUntilTimeout
    stm32f7xx_hal_spi.o(i.SPI_EndRxTransaction) refers to stm32f7xx_hal_spi.o(i.SPI_WaitFifoStateUntilTimeout) for SPI_WaitFifoStateUntilTimeout
    stm32f7xx_hal_spi.o(i.SPI_EndRxTxTransaction) refers to stm32f7xx_hal_spi.o(i.SPI_WaitFifoStateUntilTimeout) for SPI_WaitFifoStateUntilTimeout
    stm32f7xx_hal_spi.o(i.SPI_EndRxTxTransaction) refers to stm32f7xx_hal_spi.o(i.SPI_WaitFlagStateUntilTimeout) for SPI_WaitFlagStateUntilTimeout
    stm32f7xx_hal_spi.o(i.SPI_RxISR_16BIT) refers to stm32f7xx_hal_spi.o(i.SPI_CloseRx_ISR) for SPI_CloseRx_ISR
    stm32f7xx_hal_spi.o(i.SPI_RxISR_8BIT) refers to stm32f7xx_hal_spi.o(i.SPI_CloseRx_ISR) for SPI_CloseRx_ISR
    stm32f7xx_hal_spi.o(i.SPI_TxISR_16BIT) refers to stm32f7xx_hal_spi.o(i.SPI_CloseTx_ISR) for SPI_CloseTx_ISR
    stm32f7xx_hal_spi.o(i.SPI_TxISR_8BIT) refers to stm32f7xx_hal_spi.o(i.SPI_CloseTx_ISR) for SPI_CloseTx_ISR
    stm32f7xx_hal_spi.o(i.SPI_WaitFifoStateUntilTimeout) refers to stm32f7xx_hal.o(i.HAL_GetTick) for HAL_GetTick
    stm32f7xx_hal_spi.o(i.SPI_WaitFlagStateUntilTimeout) refers to stm32f7xx_hal.o(i.HAL_GetTick) for HAL_GetTick
    stm32f7xx_ll_fmc.o(i.FMC_NAND_GetECC) refers to stm32f7xx_hal.o(i.HAL_GetTick) for HAL_GetTick
    stm32f7xx_ll_fmc.o(i.FMC_SDRAM_SendCommand) refers to stm32f7xx_hal.o(i.HAL_GetTick) for HAL_GetTick
    stm32f7xx_hal_uart.o(i.HAL_HalfDuplex_Init) refers to stm32f7xx_hal_msp.o(i.HAL_UART_MspInit) for HAL_UART_MspInit
    stm32f7xx_hal_uart.o(i.HAL_HalfDuplex_Init) refers to stm32f7xx_hal_uart.o(i.UART_SetConfig) for UART_SetConfig
    stm32f7xx_hal_uart.o(i.HAL_HalfDuplex_Init) refers to stm32f7xx_hal_uart.o(i.UART_AdvFeatureConfig) for UART_AdvFeatureConfig
    stm32f7xx_hal_uart.o(i.HAL_HalfDuplex_Init) refers to stm32f7xx_hal_uart.o(i.UART_CheckIdleState) for UART_CheckIdleState
    stm32f7xx_hal_uart.o(i.HAL_LIN_Init) refers to stm32f7xx_hal_msp.o(i.HAL_UART_MspInit) for HAL_UART_MspInit
    stm32f7xx_hal_uart.o(i.HAL_LIN_Init) refers to stm32f7xx_hal_uart.o(i.UART_SetConfig) for UART_SetConfig
    stm32f7xx_hal_uart.o(i.HAL_LIN_Init) refers to stm32f7xx_hal_uart.o(i.UART_AdvFeatureConfig) for UART_AdvFeatureConfig
    stm32f7xx_hal_uart.o(i.HAL_LIN_Init) refers to stm32f7xx_hal_uart.o(i.UART_CheckIdleState) for UART_CheckIdleState
    stm32f7xx_hal_uart.o(i.HAL_MultiProcessorEx_AddressLength_Set) refers to stm32f7xx_hal_uart.o(i.UART_CheckIdleState) for UART_CheckIdleState
    stm32f7xx_hal_uart.o(i.HAL_MultiProcessor_DisableMuteMode) refers to stm32f7xx_hal_uart.o(i.UART_CheckIdleState) for UART_CheckIdleState
    stm32f7xx_hal_uart.o(i.HAL_MultiProcessor_EnableMuteMode) refers to stm32f7xx_hal_uart.o(i.UART_CheckIdleState) for UART_CheckIdleState
    stm32f7xx_hal_uart.o(i.HAL_MultiProcessor_Init) refers to stm32f7xx_hal_msp.o(i.HAL_UART_MspInit) for HAL_UART_MspInit
    stm32f7xx_hal_uart.o(i.HAL_MultiProcessor_Init) refers to stm32f7xx_hal_uart.o(i.UART_SetConfig) for UART_SetConfig
    stm32f7xx_hal_uart.o(i.HAL_MultiProcessor_Init) refers to stm32f7xx_hal_uart.o(i.UART_AdvFeatureConfig) for UART_AdvFeatureConfig
    stm32f7xx_hal_uart.o(i.HAL_MultiProcessor_Init) refers to stm32f7xx_hal_uart.o(i.UART_CheckIdleState) for UART_CheckIdleState
    stm32f7xx_hal_uart.o(i.HAL_RS485Ex_Init) refers to stm32f7xx_hal_msp.o(i.HAL_UART_MspInit) for HAL_UART_MspInit
    stm32f7xx_hal_uart.o(i.HAL_RS485Ex_Init) refers to stm32f7xx_hal_uart.o(i.UART_SetConfig) for UART_SetConfig
    stm32f7xx_hal_uart.o(i.HAL_RS485Ex_Init) refers to stm32f7xx_hal_uart.o(i.UART_AdvFeatureConfig) for UART_AdvFeatureConfig
    stm32f7xx_hal_uart.o(i.HAL_RS485Ex_Init) refers to stm32f7xx_hal_uart.o(i.UART_CheckIdleState) for UART_CheckIdleState
    stm32f7xx_hal_uart.o(i.HAL_UART_DMAStop) refers to stm32f7xx_hal_dma.o(i.HAL_DMA_Abort) for HAL_DMA_Abort
    stm32f7xx_hal_uart.o(i.HAL_UART_DMAStop) refers to stm32f7xx_hal_uart.o(i.UART_EndTxTransfer) for UART_EndTxTransfer
    stm32f7xx_hal_uart.o(i.HAL_UART_DMAStop) refers to stm32f7xx_hal_uart.o(i.UART_EndRxTransfer) for UART_EndRxTransfer
    stm32f7xx_hal_uart.o(i.HAL_UART_DeInit) refers to stm32f7xx_hal_msp.o(i.HAL_UART_MspDeInit) for HAL_UART_MspDeInit
    stm32f7xx_hal_uart.o(i.HAL_UART_IRQHandler) refers to stm32f7xx_hal_uart.o(i.UART_Receive_IT) for UART_Receive_IT
    stm32f7xx_hal_uart.o(i.HAL_UART_IRQHandler) refers to stm32f7xx_hal_uart.o(i.UART_EndRxTransfer) for UART_EndRxTransfer
    stm32f7xx_hal_uart.o(i.HAL_UART_IRQHandler) refers to stm32f7xx_hal_dma.o(i.HAL_DMA_Abort_IT) for HAL_DMA_Abort_IT
    stm32f7xx_hal_uart.o(i.HAL_UART_IRQHandler) refers to stm32f7xx_hal_uart.o(i.HAL_UART_ErrorCallback) for HAL_UART_ErrorCallback
    stm32f7xx_hal_uart.o(i.HAL_UART_IRQHandler) refers to stm32f7xx_hal_uart.o(i.HAL_UART_TxCpltCallback) for HAL_UART_TxCpltCallback
    stm32f7xx_hal_uart.o(i.HAL_UART_IRQHandler) refers to stm32f7xx_hal_uart.o(i.UART_DMAAbortOnError) for UART_DMAAbortOnError
    stm32f7xx_hal_uart.o(i.HAL_UART_Init) refers to stm32f7xx_hal_msp.o(i.HAL_UART_MspInit) for HAL_UART_MspInit
    stm32f7xx_hal_uart.o(i.HAL_UART_Init) refers to stm32f7xx_hal_uart.o(i.UART_SetConfig) for UART_SetConfig
    stm32f7xx_hal_uart.o(i.HAL_UART_Init) refers to stm32f7xx_hal_uart.o(i.UART_AdvFeatureConfig) for UART_AdvFeatureConfig
    stm32f7xx_hal_uart.o(i.HAL_UART_Init) refers to stm32f7xx_hal_uart.o(i.UART_CheckIdleState) for UART_CheckIdleState
    stm32f7xx_hal_uart.o(i.HAL_UART_Receive) refers to stm32f7xx_hal.o(i.HAL_GetTick) for HAL_GetTick
    stm32f7xx_hal_uart.o(i.HAL_UART_Receive) refers to stm32f7xx_hal_uart.o(i.UART_WaitOnFlagUntilTimeout) for UART_WaitOnFlagUntilTimeout
    stm32f7xx_hal_uart.o(i.HAL_UART_Receive_DMA) refers to stm32f7xx_hal_dma.o(i.HAL_DMA_Start_IT) for HAL_DMA_Start_IT
    stm32f7xx_hal_uart.o(i.HAL_UART_Receive_DMA) refers to stm32f7xx_hal_uart.o(i.UART_DMAReceiveCplt) for UART_DMAReceiveCplt
    stm32f7xx_hal_uart.o(i.HAL_UART_Receive_DMA) refers to stm32f7xx_hal_uart.o(i.UART_DMARxHalfCplt) for UART_DMARxHalfCplt
    stm32f7xx_hal_uart.o(i.HAL_UART_Receive_DMA) refers to stm32f7xx_hal_uart.o(i.UART_DMAError) for UART_DMAError
    stm32f7xx_hal_uart.o(i.HAL_UART_Transmit) refers to stm32f7xx_hal.o(i.HAL_GetTick) for HAL_GetTick
    stm32f7xx_hal_uart.o(i.HAL_UART_Transmit) refers to stm32f7xx_hal_uart.o(i.UART_WaitOnFlagUntilTimeout) for UART_WaitOnFlagUntilTimeout
    stm32f7xx_hal_uart.o(i.HAL_UART_Transmit_DMA) refers to stm32f7xx_hal_dma.o(i.HAL_DMA_Start_IT) for HAL_DMA_Start_IT
    stm32f7xx_hal_uart.o(i.HAL_UART_Transmit_DMA) refers to stm32f7xx_hal_uart.o(i.UART_DMATransmitCplt) for UART_DMATransmitCplt
    stm32f7xx_hal_uart.o(i.HAL_UART_Transmit_DMA) refers to stm32f7xx_hal_uart.o(i.UART_DMATxHalfCplt) for UART_DMATxHalfCplt
    stm32f7xx_hal_uart.o(i.HAL_UART_Transmit_DMA) refers to stm32f7xx_hal_uart.o(i.UART_DMAError) for UART_DMAError
    stm32f7xx_hal_uart.o(i.UART_CheckIdleState) refers to stm32f7xx_hal.o(i.HAL_GetTick) for HAL_GetTick
    stm32f7xx_hal_uart.o(i.UART_CheckIdleState) refers to stm32f7xx_hal_uart.o(i.UART_WaitOnFlagUntilTimeout) for UART_WaitOnFlagUntilTimeout
    stm32f7xx_hal_uart.o(i.UART_DMAAbortOnError) refers to stm32f7xx_hal_uart.o(i.HAL_UART_ErrorCallback) for HAL_UART_ErrorCallback
    stm32f7xx_hal_uart.o(i.UART_DMAError) refers to stm32f7xx_hal_uart.o(i.UART_EndTxTransfer) for UART_EndTxTransfer
    stm32f7xx_hal_uart.o(i.UART_DMAError) refers to stm32f7xx_hal_uart.o(i.UART_EndRxTransfer) for UART_EndRxTransfer
    stm32f7xx_hal_uart.o(i.UART_DMAError) refers to stm32f7xx_hal_uart.o(i.HAL_UART_ErrorCallback) for HAL_UART_ErrorCallback
    stm32f7xx_hal_uart.o(i.UART_DMAReceiveCplt) refers to stm32f7xx_hal_uart.o(i.HAL_UART_RxCpltCallback) for HAL_UART_RxCpltCallback
    stm32f7xx_hal_uart.o(i.UART_DMARxHalfCplt) refers to stm32f7xx_hal_uart.o(i.HAL_UART_RxHalfCpltCallback) for HAL_UART_RxHalfCpltCallback
    stm32f7xx_hal_uart.o(i.UART_DMATransmitCplt) refers to stm32f7xx_hal_uart.o(i.HAL_UART_TxCpltCallback) for HAL_UART_TxCpltCallback
    stm32f7xx_hal_uart.o(i.UART_DMATxHalfCplt) refers to stm32f7xx_hal_uart.o(i.HAL_UART_TxHalfCpltCallback) for HAL_UART_TxHalfCpltCallback
    stm32f7xx_hal_uart.o(i.UART_Receive_IT) refers to stm32f7xx_hal_uart.o(i.HAL_UART_RxCpltCallback) for HAL_UART_RxCpltCallback
    stm32f7xx_hal_uart.o(i.UART_SetConfig) refers to stm32f7xx_hal_rcc.o(i.HAL_RCC_GetPCLK1Freq) for HAL_RCC_GetPCLK1Freq
    stm32f7xx_hal_uart.o(i.UART_SetConfig) refers to stm32f7xx_hal_rcc.o(i.HAL_RCC_GetPCLK2Freq) for HAL_RCC_GetPCLK2Freq
    stm32f7xx_hal_uart.o(i.UART_SetConfig) refers to stm32f7xx_hal_rcc.o(i.HAL_RCC_GetSysClockFreq) for HAL_RCC_GetSysClockFreq
    stm32f7xx_hal_uart.o(i.UART_WaitOnFlagUntilTimeout) refers to stm32f7xx_hal.o(i.HAL_GetTick) for HAL_GetTick
    stm32f7xx_hal_adc_ex.o(i.ADC_MultiModeDMAConvCplt) refers to stm32f7xx_hal_adc.o(i.HAL_ADC_ConvCpltCallback) for HAL_ADC_ConvCpltCallback
    stm32f7xx_hal_adc_ex.o(i.ADC_MultiModeDMAError) refers to stm32f7xx_hal_adc.o(i.HAL_ADC_ErrorCallback) for HAL_ADC_ErrorCallback
    stm32f7xx_hal_adc_ex.o(i.ADC_MultiModeDMAHalfConvCplt) refers to stm32f7xx_hal_adc.o(i.HAL_ADC_ConvHalfCpltCallback) for HAL_ADC_ConvHalfCpltCallback
    stm32f7xx_hal_adc_ex.o(i.HAL_ADCEx_InjectedPollForConversion) refers to stm32f7xx_hal.o(i.HAL_GetTick) for HAL_GetTick
    stm32f7xx_hal_adc_ex.o(i.HAL_ADCEx_InjectedStart) refers to system_stm32f7xx.o(.data) for SystemCoreClock
    stm32f7xx_hal_adc_ex.o(i.HAL_ADCEx_InjectedStart_IT) refers to system_stm32f7xx.o(.data) for SystemCoreClock
    stm32f7xx_hal_adc_ex.o(i.HAL_ADCEx_MultiModeStart_DMA) refers to stm32f7xx_hal_dma.o(i.HAL_DMA_Start_IT) for HAL_DMA_Start_IT
    stm32f7xx_hal_adc_ex.o(i.HAL_ADCEx_MultiModeStart_DMA) refers to system_stm32f7xx.o(.data) for SystemCoreClock
    stm32f7xx_hal_adc_ex.o(i.HAL_ADCEx_MultiModeStart_DMA) refers to stm32f7xx_hal_adc_ex.o(i.ADC_MultiModeDMAConvCplt) for ADC_MultiModeDMAConvCplt
    stm32f7xx_hal_adc_ex.o(i.HAL_ADCEx_MultiModeStart_DMA) refers to stm32f7xx_hal_adc_ex.o(i.ADC_MultiModeDMAHalfConvCplt) for ADC_MultiModeDMAHalfConvCplt
    stm32f7xx_hal_adc_ex.o(i.HAL_ADCEx_MultiModeStart_DMA) refers to stm32f7xx_hal_adc_ex.o(i.ADC_MultiModeDMAError) for ADC_MultiModeDMAError
    stm32f7xx_hal_adc_ex.o(i.HAL_ADCEx_MultiModeStop_DMA) refers to stm32f7xx_hal_dma.o(i.HAL_DMA_Abort) for HAL_DMA_Abort
    stm32f7xx_hal_sd.o(i.HAL_SD_CheckReadOperation) refers to stm32f7xx_hal_sd.o(i.HAL_SD_StopTransfer) for HAL_SD_StopTransfer
    stm32f7xx_hal_sd.o(i.HAL_SD_CheckWriteOperation) refers to stm32f7xx_hal_sd.o(i.HAL_SD_StopTransfer) for HAL_SD_StopTransfer
    stm32f7xx_hal_sd.o(i.HAL_SD_CheckWriteOperation) refers to stm32f7xx_hal_sd.o(i.HAL_SD_GetStatus) for HAL_SD_GetStatus
    stm32f7xx_hal_sd.o(i.HAL_SD_DeInit) refers to stm32f7xx_ll_sdmmc.o(i.SDMMC_PowerState_OFF) for SDMMC_PowerState_OFF
    stm32f7xx_hal_sd.o(i.HAL_SD_DeInit) refers to stm32f7xx_hal_sd.o(i.HAL_SD_MspDeInit) for HAL_SD_MspDeInit
    stm32f7xx_hal_sd.o(i.HAL_SD_Erase) refers to stm32f7xx_ll_sdmmc.o(i.SDMMC_GetResponse) for SDMMC_GetResponse
    stm32f7xx_hal_sd.o(i.HAL_SD_Erase) refers to stm32f7xx_ll_sdmmc.o(i.SDMMC_SendCommand) for SDMMC_SendCommand
    stm32f7xx_hal_sd.o(i.HAL_SD_Erase) refers to stm32f7xx_hal_sd.o(i.SD_CmdResp1Error) for SD_CmdResp1Error
    stm32f7xx_hal_sd.o(i.HAL_SD_Erase) refers to stm32f7xx_hal_sd.o(i.SD_IsCardProgramming) for SD_IsCardProgramming
    stm32f7xx_hal_sd.o(i.HAL_SD_GetCardStatus) refers to stm32f7xx_hal_sd.o(i.HAL_SD_SendSDStatus) for HAL_SD_SendSDStatus
    stm32f7xx_hal_sd.o(i.HAL_SD_GetStatus) refers to stm32f7xx_ll_sdmmc.o(i.SDMMC_SendCommand) for SDMMC_SendCommand
    stm32f7xx_hal_sd.o(i.HAL_SD_GetStatus) refers to stm32f7xx_hal_sd.o(i.SD_CmdResp1Error) for SD_CmdResp1Error
    stm32f7xx_hal_sd.o(i.HAL_SD_GetStatus) refers to stm32f7xx_ll_sdmmc.o(i.SDMMC_GetResponse) for SDMMC_GetResponse
    stm32f7xx_hal_sd.o(i.HAL_SD_HighSpeed) refers to memseta.o(.text) for __aeabi_memclr4
    stm32f7xx_hal_sd.o(i.HAL_SD_HighSpeed) refers to stm32f7xx_hal_sd.o(i.SD_FindSCR) for SD_FindSCR
    stm32f7xx_hal_sd.o(i.HAL_SD_HighSpeed) refers to stm32f7xx_ll_sdmmc.o(i.SDMMC_SendCommand) for SDMMC_SendCommand
    stm32f7xx_hal_sd.o(i.HAL_SD_HighSpeed) refers to stm32f7xx_hal_sd.o(i.SD_CmdResp1Error) for SD_CmdResp1Error
    stm32f7xx_hal_sd.o(i.HAL_SD_HighSpeed) refers to stm32f7xx_ll_sdmmc.o(i.SDMMC_DataConfig) for SDMMC_DataConfig
    stm32f7xx_hal_sd.o(i.HAL_SD_HighSpeed) refers to stm32f7xx_ll_sdmmc.o(i.SDMMC_ReadFIFO) for SDMMC_ReadFIFO
    stm32f7xx_hal_sd.o(i.HAL_SD_IRQHandler) refers to stm32f7xx_hal_sd.o(i.HAL_SD_XferCpltCallback) for HAL_SD_XferCpltCallback
    stm32f7xx_hal_sd.o(i.HAL_SD_IRQHandler) refers to stm32f7xx_hal_sd.o(i.HAL_SD_XferErrorCallback) for HAL_SD_XferErrorCallback
    stm32f7xx_hal_sd.o(i.HAL_SD_Init) refers to stm32f7xx_hal_sd.o(i.HAL_SD_MspInit) for HAL_SD_MspInit
    stm32f7xx_hal_sd.o(i.HAL_SD_Init) refers to stm32f7xx_ll_sdmmc.o(i.SDMMC_Init) for SDMMC_Init
    stm32f7xx_hal_sd.o(i.HAL_SD_Init) refers to stm32f7xx_hal_sd.o(i.SD_PowerON) for SD_PowerON
    stm32f7xx_hal_sd.o(i.HAL_SD_Init) refers to stm32f7xx_hal_sd.o(i.SD_Initialize_Cards) for SD_Initialize_Cards
    stm32f7xx_hal_sd.o(i.HAL_SD_Init) refers to stm32f7xx_hal_sd.o(i.HAL_SD_Get_CardInfo) for HAL_SD_Get_CardInfo
    stm32f7xx_hal_sd.o(i.HAL_SD_Init) refers to stm32f7xx_ll_sdmmc.o(i.SDMMC_SendCommand) for SDMMC_SendCommand
    stm32f7xx_hal_sd.o(i.HAL_SD_Init) refers to stm32f7xx_hal_sd.o(i.SD_CmdResp1Error) for SD_CmdResp1Error
    stm32f7xx_hal_sd.o(i.HAL_SD_ReadBlocks) refers to stm32f7xx_ll_sdmmc.o(i.SDMMC_SendCommand) for SDMMC_SendCommand
    stm32f7xx_hal_sd.o(i.HAL_SD_ReadBlocks) refers to stm32f7xx_hal_sd.o(i.SD_CmdResp1Error) for SD_CmdResp1Error
    stm32f7xx_hal_sd.o(i.HAL_SD_ReadBlocks) refers to stm32f7xx_ll_sdmmc.o(i.SDMMC_DataConfig) for SDMMC_DataConfig
    stm32f7xx_hal_sd.o(i.HAL_SD_ReadBlocks) refers to stm32f7xx_ll_sdmmc.o(i.SDMMC_ReadFIFO) for SDMMC_ReadFIFO
    stm32f7xx_hal_sd.o(i.HAL_SD_ReadBlocks) refers to stm32f7xx_hal_sd.o(i.HAL_SD_StopTransfer) for HAL_SD_StopTransfer
    stm32f7xx_hal_sd.o(i.HAL_SD_ReadBlocks_DMA) refers to stm32f7xx_hal_dma.o(i.HAL_DMA_Start_IT) for HAL_DMA_Start_IT
    stm32f7xx_hal_sd.o(i.HAL_SD_ReadBlocks_DMA) refers to stm32f7xx_ll_sdmmc.o(i.SDMMC_SendCommand) for SDMMC_SendCommand
    stm32f7xx_hal_sd.o(i.HAL_SD_ReadBlocks_DMA) refers to stm32f7xx_hal_sd.o(i.SD_CmdResp1Error) for SD_CmdResp1Error
    stm32f7xx_hal_sd.o(i.HAL_SD_ReadBlocks_DMA) refers to stm32f7xx_ll_sdmmc.o(i.SDMMC_DataConfig) for SDMMC_DataConfig
    stm32f7xx_hal_sd.o(i.HAL_SD_ReadBlocks_DMA) refers to stm32f7xx_hal_sd.o(i.SD_DMA_RxCplt) for SD_DMA_RxCplt
    stm32f7xx_hal_sd.o(i.HAL_SD_ReadBlocks_DMA) refers to stm32f7xx_hal_sd.o(i.SD_DMA_RxError) for SD_DMA_RxError
    stm32f7xx_hal_sd.o(i.HAL_SD_SendSDStatus) refers to stm32f7xx_ll_sdmmc.o(i.SDMMC_GetResponse) for SDMMC_GetResponse
    stm32f7xx_hal_sd.o(i.HAL_SD_SendSDStatus) refers to stm32f7xx_ll_sdmmc.o(i.SDMMC_SendCommand) for SDMMC_SendCommand
    stm32f7xx_hal_sd.o(i.HAL_SD_SendSDStatus) refers to stm32f7xx_hal_sd.o(i.SD_CmdResp1Error) for SD_CmdResp1Error
    stm32f7xx_hal_sd.o(i.HAL_SD_SendSDStatus) refers to stm32f7xx_ll_sdmmc.o(i.SDMMC_DataConfig) for SDMMC_DataConfig
    stm32f7xx_hal_sd.o(i.HAL_SD_SendSDStatus) refers to stm32f7xx_ll_sdmmc.o(i.SDMMC_ReadFIFO) for SDMMC_ReadFIFO
    stm32f7xx_hal_sd.o(i.HAL_SD_StopTransfer) refers to stm32f7xx_ll_sdmmc.o(i.SDMMC_SendCommand) for SDMMC_SendCommand
    stm32f7xx_hal_sd.o(i.HAL_SD_StopTransfer) refers to stm32f7xx_hal_sd.o(i.SD_CmdResp1Error) for SD_CmdResp1Error
    stm32f7xx_hal_sd.o(i.HAL_SD_WideBusOperation_Config) refers to stm32f7xx_hal_sd.o(i.SD_WideBus_Enable) for SD_WideBus_Enable
    stm32f7xx_hal_sd.o(i.HAL_SD_WideBusOperation_Config) refers to stm32f7xx_hal_sd.o(i.SD_WideBus_Disable) for SD_WideBus_Disable
    stm32f7xx_hal_sd.o(i.HAL_SD_WideBusOperation_Config) refers to stm32f7xx_ll_sdmmc.o(i.SDMMC_Init) for SDMMC_Init
    stm32f7xx_hal_sd.o(i.HAL_SD_WriteBlocks) refers to stm32f7xx_ll_sdmmc.o(i.SDMMC_SendCommand) for SDMMC_SendCommand
    stm32f7xx_hal_sd.o(i.HAL_SD_WriteBlocks) refers to stm32f7xx_hal_sd.o(i.SD_CmdResp1Error) for SD_CmdResp1Error
    stm32f7xx_hal_sd.o(i.HAL_SD_WriteBlocks) refers to stm32f7xx_ll_sdmmc.o(i.SDMMC_DataConfig) for SDMMC_DataConfig
    stm32f7xx_hal_sd.o(i.HAL_SD_WriteBlocks) refers to stm32f7xx_ll_sdmmc.o(i.SDMMC_WriteFIFO) for SDMMC_WriteFIFO
    stm32f7xx_hal_sd.o(i.HAL_SD_WriteBlocks) refers to stm32f7xx_hal_sd.o(i.HAL_SD_StopTransfer) for HAL_SD_StopTransfer
    stm32f7xx_hal_sd.o(i.HAL_SD_WriteBlocks) refers to stm32f7xx_hal_sd.o(i.SD_IsCardProgramming) for SD_IsCardProgramming
    stm32f7xx_hal_sd.o(i.HAL_SD_WriteBlocks_DMA) refers to stm32f7xx_hal_dma.o(i.HAL_DMA_Start_IT) for HAL_DMA_Start_IT
    stm32f7xx_hal_sd.o(i.HAL_SD_WriteBlocks_DMA) refers to stm32f7xx_ll_sdmmc.o(i.SDMMC_SendCommand) for SDMMC_SendCommand
    stm32f7xx_hal_sd.o(i.HAL_SD_WriteBlocks_DMA) refers to stm32f7xx_hal_sd.o(i.SD_CmdResp1Error) for SD_CmdResp1Error
    stm32f7xx_hal_sd.o(i.HAL_SD_WriteBlocks_DMA) refers to stm32f7xx_ll_sdmmc.o(i.SDMMC_DataConfig) for SDMMC_DataConfig
    stm32f7xx_hal_sd.o(i.HAL_SD_WriteBlocks_DMA) refers to stm32f7xx_hal_sd.o(i.SD_DMA_TxCplt) for SD_DMA_TxCplt
    stm32f7xx_hal_sd.o(i.HAL_SD_WriteBlocks_DMA) refers to stm32f7xx_hal_sd.o(i.SD_DMA_TxError) for SD_DMA_TxError
    stm32f7xx_hal_sd.o(i.SD_CmdResp1Error) refers to stm32f7xx_ll_sdmmc.o(i.SDMMC_GetCommandResponse) for SDMMC_GetCommandResponse
    stm32f7xx_hal_sd.o(i.SD_CmdResp1Error) refers to stm32f7xx_ll_sdmmc.o(i.SDMMC_GetResponse) for SDMMC_GetResponse
    stm32f7xx_hal_sd.o(i.SD_CmdResp6Error) refers to stm32f7xx_ll_sdmmc.o(i.SDMMC_GetCommandResponse) for SDMMC_GetCommandResponse
    stm32f7xx_hal_sd.o(i.SD_CmdResp6Error) refers to stm32f7xx_ll_sdmmc.o(i.SDMMC_GetResponse) for SDMMC_GetResponse
    stm32f7xx_hal_sd.o(i.SD_DMA_RxCplt) refers to stm32f7xx_hal_dma.o(i.HAL_DMA_Abort) for HAL_DMA_Abort
    stm32f7xx_hal_sd.o(i.SD_DMA_RxCplt) refers to stm32f7xx_hal_sd.o(i.HAL_SD_DMA_RxCpltCallback) for HAL_SD_DMA_RxCpltCallback
    stm32f7xx_hal_sd.o(i.SD_DMA_RxError) refers to stm32f7xx_hal_sd.o(i.HAL_SD_DMA_RxErrorCallback) for HAL_SD_DMA_RxErrorCallback
    stm32f7xx_hal_sd.o(i.SD_DMA_TxCplt) refers to stm32f7xx_hal_dma.o(i.HAL_DMA_Abort) for HAL_DMA_Abort
    stm32f7xx_hal_sd.o(i.SD_DMA_TxCplt) refers to stm32f7xx_hal_sd.o(i.HAL_SD_DMA_TxCpltCallback) for HAL_SD_DMA_TxCpltCallback
    stm32f7xx_hal_sd.o(i.SD_DMA_TxError) refers to stm32f7xx_hal_sd.o(i.HAL_SD_DMA_TxErrorCallback) for HAL_SD_DMA_TxErrorCallback
    stm32f7xx_hal_sd.o(i.SD_FindSCR) refers to stm32f7xx_ll_sdmmc.o(i.SDMMC_SendCommand) for SDMMC_SendCommand
    stm32f7xx_hal_sd.o(i.SD_FindSCR) refers to stm32f7xx_hal_sd.o(i.SD_CmdResp1Error) for SD_CmdResp1Error
    stm32f7xx_hal_sd.o(i.SD_FindSCR) refers to stm32f7xx_ll_sdmmc.o(i.SDMMC_DataConfig) for SDMMC_DataConfig
    stm32f7xx_hal_sd.o(i.SD_FindSCR) refers to stm32f7xx_ll_sdmmc.o(i.SDMMC_ReadFIFO) for SDMMC_ReadFIFO
    stm32f7xx_hal_sd.o(i.SD_Initialize_Cards) refers to stm32f7xx_ll_sdmmc.o(i.SDMMC_GetPowerState) for SDMMC_GetPowerState
    stm32f7xx_hal_sd.o(i.SD_Initialize_Cards) refers to stm32f7xx_ll_sdmmc.o(i.SDMMC_SendCommand) for SDMMC_SendCommand
    stm32f7xx_hal_sd.o(i.SD_Initialize_Cards) refers to stm32f7xx_hal_sd.o(i.SD_CmdResp2Error) for SD_CmdResp2Error
    stm32f7xx_hal_sd.o(i.SD_Initialize_Cards) refers to stm32f7xx_ll_sdmmc.o(i.SDMMC_GetResponse) for SDMMC_GetResponse
    stm32f7xx_hal_sd.o(i.SD_Initialize_Cards) refers to stm32f7xx_hal_sd.o(i.SD_CmdResp6Error) for SD_CmdResp6Error
    stm32f7xx_hal_sd.o(i.SD_IsCardProgramming) refers to stm32f7xx_ll_sdmmc.o(i.SDMMC_SendCommand) for SDMMC_SendCommand
    stm32f7xx_hal_sd.o(i.SD_IsCardProgramming) refers to stm32f7xx_ll_sdmmc.o(i.SDMMC_GetCommandResponse) for SDMMC_GetCommandResponse
    stm32f7xx_hal_sd.o(i.SD_IsCardProgramming) refers to stm32f7xx_ll_sdmmc.o(i.SDMMC_GetResponse) for SDMMC_GetResponse
    stm32f7xx_hal_sd.o(i.SD_PowerON) refers to stm32f7xx_ll_sdmmc.o(i.SDMMC_PowerState_ON) for SDMMC_PowerState_ON
    stm32f7xx_hal_sd.o(i.SD_PowerON) refers to stm32f7xx_hal.o(i.HAL_Delay) for HAL_Delay
    stm32f7xx_hal_sd.o(i.SD_PowerON) refers to stm32f7xx_ll_sdmmc.o(i.SDMMC_SendCommand) for SDMMC_SendCommand
    stm32f7xx_hal_sd.o(i.SD_PowerON) refers to stm32f7xx_hal_sd.o(i.SD_CmdResp7Error) for SD_CmdResp7Error
    stm32f7xx_hal_sd.o(i.SD_PowerON) refers to stm32f7xx_hal_sd.o(i.SD_CmdResp1Error) for SD_CmdResp1Error
    stm32f7xx_hal_sd.o(i.SD_PowerON) refers to stm32f7xx_ll_sdmmc.o(i.SDMMC_GetResponse) for SDMMC_GetResponse
    stm32f7xx_hal_sd.o(i.SD_WideBus_Disable) refers to stm32f7xx_ll_sdmmc.o(i.SDMMC_GetResponse) for SDMMC_GetResponse
    stm32f7xx_hal_sd.o(i.SD_WideBus_Disable) refers to stm32f7xx_hal_sd.o(i.SD_FindSCR) for SD_FindSCR
    stm32f7xx_hal_sd.o(i.SD_WideBus_Disable) refers to stm32f7xx_ll_sdmmc.o(i.SDMMC_SendCommand) for SDMMC_SendCommand
    stm32f7xx_hal_sd.o(i.SD_WideBus_Disable) refers to stm32f7xx_hal_sd.o(i.SD_CmdResp1Error) for SD_CmdResp1Error
    stm32f7xx_hal_sd.o(i.SD_WideBus_Enable) refers to stm32f7xx_ll_sdmmc.o(i.SDMMC_GetResponse) for SDMMC_GetResponse
    stm32f7xx_hal_sd.o(i.SD_WideBus_Enable) refers to stm32f7xx_hal_sd.o(i.SD_FindSCR) for SD_FindSCR
    stm32f7xx_hal_sd.o(i.SD_WideBus_Enable) refers to stm32f7xx_ll_sdmmc.o(i.SDMMC_SendCommand) for SDMMC_SendCommand
    stm32f7xx_hal_sd.o(i.SD_WideBus_Enable) refers to stm32f7xx_hal_sd.o(i.SD_CmdResp1Error) for SD_CmdResp1Error
    startup_stm32f746xx.o(RESET) refers to startup_stm32f746xx.o(STACK) for __initial_sp
    startup_stm32f746xx.o(RESET) refers to startup_stm32f746xx.o(.text) for Reset_Handler
    startup_stm32f746xx.o(RESET) refers to port.o(.emb_text) for SVC_Handler
    startup_stm32f746xx.o(RESET) refers to boardconfiguration.o(i.SysTick_Handler) for SysTick_Handler
    startup_stm32f746xx.o(RESET) refers to stm32f7xx_it.o(i.EXTI15_10_IRQHandler) for EXTI15_10_IRQHandler
    startup_stm32f746xx.o(RESET) refers to stm32f7xx_it.o(i.DMA2_Stream0_IRQHandler) for DMA2_Stream0_IRQHandler
    startup_stm32f746xx.o(RESET) refers to stm32f7xx_it.o(i.DMA2_Stream4_IRQHandler) for DMA2_Stream4_IRQHandler
    startup_stm32f746xx.o(RESET) refers to stm32f7hal.o(i.LTDC_IRQHandler) for LTDC_IRQHandler
    startup_stm32f746xx.o(RESET) refers to stm32f7hal.o(i.DMA2D_IRQHandler) for DMA2D_IRQHandler
    startup_stm32f746xx.o(.text) refers to system_stm32f7xx.o(i.SystemInit) for SystemInit
    startup_stm32f746xx.o(.text) refers to entry.o(.ARM.Collect$$$$00000000) for __main
    abstractpartition.o(i._ZN8touchgfx17AbstractPartitionC2Ev) refers to abstractpartition.o(.constdata__ZTVN8touchgfx17AbstractPartitionE) for vtable for touchgfx::AbstractPartition
    abstractpartition.o(i._ZN8touchgfx17AbstractPartitionD0Ev) refers to delete.o(i._ZdlPv) for operator delete (void*)
    abstractpartition.o(.ARM.exidx) refers to abstractpartition.o(i._ZN8touchgfx17AbstractPartitionD2Ev) for i._ZN8touchgfx17AbstractPartitionD2Ev
    abstractpartition.o(.ARM.exidx) refers to abstractpartition.o(i._ZN8touchgfx17AbstractPartitionD0Ev) for i._ZN8touchgfx17AbstractPartitionD0Ev
    abstractpartition.o(.ARM.exidx) refers to abstractpartition.o(i._ZN8touchgfx17AbstractPartition8allocateEt) for i._ZN8touchgfx17AbstractPartition8allocateEt
    abstractpartition.o(.ARM.exidx) refers to abstractpartition.o(i._ZN8touchgfx17AbstractPartition10allocateAtEtt) for i._ZN8touchgfx17AbstractPartition10allocateAtEtt
    abstractpartition.o(.ARM.exidx) refers to abstractpartition.o(i._ZNK8touchgfx17AbstractPartition18getAllocationCountEv) for i._ZNK8touchgfx17AbstractPartition18getAllocationCountEv
    abstractpartition.o(.ARM.exidx) refers to abstractpartition.o(i._ZN8touchgfx17AbstractPartition7indexOfEPKv) for i._ZN8touchgfx17AbstractPartition7indexOfEPKv
    abstractpartition.o(.ARM.exidx) refers to abstractpartition.o(i._ZN8touchgfx17AbstractPartition5clearEv) for i._ZN8touchgfx17AbstractPartition5clearEv
    abstractpartition.o(.ARM.exidx) refers to abstractpartition.o(i._ZN8touchgfx17AbstractPartitionC2Ev) for i._ZN8touchgfx17AbstractPartitionC2Ev
    lcd16bpp.o(i._ZN8touchgfx8LCD16bpp16blitCopyARGB8888EPKjRKNS_4RectES5_h) refers to displaytransformation.o(i._ZN8touchgfx21DisplayTransformation29transformDisplayToFrameBufferERNS_4RectE) for touchgfx::DisplayTransformation::transformDisplayToFrameBuffer(touchgfx::Rect&)
    lcd16bpp.o(i._ZN8touchgfx8LCD16bpp16blitCopyARGB8888EPKjRKNS_4RectES5_h) refers to displaytransformation.o(i._ZN8touchgfx21DisplayTransformation29transformDisplayToFrameBufferERNS_4RectERKS1_) for touchgfx::DisplayTransformation::transformDisplayToFrameBuffer(touchgfx::Rect&, const touchgfx::Rect&)
    lcd16bpp.o(i._ZN8touchgfx8LCD16bpp16blitCopyARGB8888EPKjRKNS_4RectES5_h) refers to hal.o(.data) for touchgfx::HAL::instance
    lcd16bpp.o(i._ZN8touchgfx8LCD16bpp17drawPartialBitmapERKNS_6BitmapEssRKNS_4RectEhb) refers to bitmap.o(i._ZNK8touchgfx6Bitmap9getHeightEv) for touchgfx::Bitmap::getHeight() const
    lcd16bpp.o(i._ZN8touchgfx8LCD16bpp17drawPartialBitmapERKNS_6BitmapEssRKNS_4RectEhb) refers to bitmap.o(i._ZNK8touchgfx6Bitmap8getWidthEv) for touchgfx::Bitmap::getWidth() const
    lcd16bpp.o(i._ZN8touchgfx8LCD16bpp17drawPartialBitmapERKNS_6BitmapEssRKNS_4RectEhb) refers to channelcontrolpanel.o(i._ZN8touchgfx4RectC1Essss) for touchgfx::Rect::Rect(short, short, short, short)
    lcd16bpp.o(i._ZN8touchgfx8LCD16bpp17drawPartialBitmapERKNS_6BitmapEssRKNS_4RectEhb) refers to bitmap.o(i._ZNK8touchgfx6Bitmap9getFormatEv) for touchgfx::Bitmap::getFormat() const
    lcd16bpp.o(i._ZN8touchgfx8LCD16bpp17drawPartialBitmapERKNS_6BitmapEssRKNS_4RectEhb) refers to bitmap.o(i._ZNK8touchgfx6Bitmap7getDataEv) for touchgfx::Bitmap::getData() const
    lcd16bpp.o(i._ZN8touchgfx8LCD16bpp17drawPartialBitmapERKNS_6BitmapEssRKNS_4RectEhb) refers to bitmap.o(i._ZNK8touchgfx6Bitmap12getAlphaDataEv) for touchgfx::Bitmap::getAlphaData() const
    lcd16bpp.o(i._ZN8touchgfx8LCD16bpp17drawPartialBitmapERKNS_6BitmapEssRKNS_4RectEhb) refers to bitmap.o(i._ZNK8touchgfx6Bitmap20hasTransparentPixelsEv) for touchgfx::Bitmap::hasTransparentPixels() const
    lcd16bpp.o(i._ZN8touchgfx8LCD16bpp17drawPartialBitmapERKNS_6BitmapEssRKNS_4RectEhb) refers to bitmap.o(i._ZNK8touchgfx6Bitmap12getSolidRectEv) for touchgfx::Bitmap::getSolidRect() const
    lcd16bpp.o(i._ZN8touchgfx8LCD16bpp17drawPartialBitmapERKNS_6BitmapEssRKNS_4RectEhb) refers to application.o(i._ZN8touchgfx4RectaNERKS0_) for touchgfx::Rect::operator &=(const touchgfx::Rect&)
    lcd16bpp.o(i._ZN8touchgfx8LCD16bpp17drawPartialBitmapERKNS_6BitmapEssRKNS_4RectEhb) refers to lcd16bpp.o(i._ZNK8touchgfx4Rect7isEmptyEv) for touchgfx::Rect::isEmpty() const
    lcd16bpp.o(i._ZN8touchgfx8LCD16bpp17drawPartialBitmapERKNS_6BitmapEssRKNS_4RectEhb) refers to lcd16bpp.o(i._ZN8touchgfx8LCD16bpp16blitCopyARGB8888EPKjRKNS_4RectES5_h) for touchgfx::LCD16bpp::blitCopyARGB8888(const unsigned*, const touchgfx::Rect&, const touchgfx::Rect&, unsigned char)
    lcd16bpp.o(i._ZN8touchgfx8LCD16bpp17drawPartialBitmapERKNS_6BitmapEssRKNS_4RectEhb) refers to lcd16bpp.o(i._ZN8touchgfx8LCD16bpp21blitCopyAlphaPerPixelEPKtPKhRKNS_4RectES7_h) for touchgfx::LCD16bpp::blitCopyAlphaPerPixel(const unsigned short*, const unsigned char*, const touchgfx::Rect&, const touchgfx::Rect&, unsigned char)
    lcd16bpp.o(i._ZN8touchgfx8LCD16bpp17drawPartialBitmapERKNS_6BitmapEssRKNS_4RectEhb) refers to lcd16bpp.o(i._ZNK8touchgfx4Rect5rightEv) for touchgfx::Rect::right() const
    lcd16bpp.o(i._ZN8touchgfx8LCD16bpp17drawPartialBitmapERKNS_6BitmapEssRKNS_4RectEhb) refers to lcd16bpp.o(i._ZNK8touchgfx4Rect6bottomEv) for touchgfx::Rect::bottom() const
    lcd16bpp.o(i._ZN8touchgfx8LCD16bpp21blitCopyAlphaPerPixelEPKtPKhRKNS_4RectES7_h) refers to displaytransformation.o(i._ZN8touchgfx21DisplayTransformation29transformDisplayToFrameBufferERNS_4RectE) for touchgfx::DisplayTransformation::transformDisplayToFrameBuffer(touchgfx::Rect&)
    lcd16bpp.o(i._ZN8touchgfx8LCD16bpp21blitCopyAlphaPerPixelEPKtPKhRKNS_4RectES7_h) refers to displaytransformation.o(i._ZN8touchgfx21DisplayTransformation29transformDisplayToFrameBufferERNS_4RectERKS1_) for touchgfx::DisplayTransformation::transformDisplayToFrameBuffer(touchgfx::Rect&, const touchgfx::Rect&)
    lcd16bpp.o(i._ZN8touchgfx8LCD16bpp21blitCopyAlphaPerPixelEPKtPKhRKNS_4RectES7_h) refers to hal.o(.data) for touchgfx::HAL::instance
    lcd16bpp.o(i._ZN8touchgfx8LCD16bpp22drawTextureMapScanLineERKNS_14DrawingSurfaceERKNS_9GradientsEPKNS_4EdgeES9_RKNS_14TextureSurfaceERKNS_4RectESF_tht) refers to channelcontrolpanel.o(i._ZN8touchgfx4RectC1Essss) for touchgfx::Rect::Rect(short, short, short, short)
    lcd16bpp.o(i._ZN8touchgfx8LCD16bpp22drawTextureMapScanLineERKNS_14DrawingSurfaceERKNS_9GradientsEPKNS_4EdgeES9_RKNS_14TextureSurfaceERKNS_4RectESF_tht) refers to displaytransformation.o(i._ZN8touchgfx21DisplayTransformation29transformDisplayToFrameBufferERNS_4RectE) for touchgfx::DisplayTransformation::transformDisplayToFrameBuffer(touchgfx::Rect&)
    lcd16bpp.o(i._ZN8touchgfx8LCD16bpp22drawTextureMapScanLineERKNS_14DrawingSurfaceERKNS_9GradientsEPKNS_4EdgeES9_RKNS_14TextureSurfaceERKNS_4RectESF_tht) refers to lcd16bpp.o(i._ZNK8touchgfx4Rect5rightEv) for touchgfx::Rect::right() const
    lcd16bpp.o(i._ZN8touchgfx8LCD16bpp22drawTextureMapScanLineERKNS_14DrawingSurfaceERKNS_9GradientsEPKNS_4EdgeES9_RKNS_14TextureSurfaceERKNS_4RectESF_tht) refers to lcd16bpp.o(i._ZN8touchgfx17floatToFixed16_16Ef) for touchgfx::floatToFixed16_16(float)
    lcd16bpp.o(i._ZN8touchgfx8LCD16bpp22drawTextureMapScanLineERKNS_14DrawingSurfaceERKNS_9GradientsEPKNS_4EdgeES9_RKNS_14TextureSurfaceERKNS_4RectESF_tht) refers to lcd16bpp.o(i._ZN8touchgfx26LCD16bilinearInterpolate2DEffffff) for touchgfx::LCD16bilinearInterpolate2D(float, float, float, float, float, float)
    lcd16bpp.o(i._ZN8touchgfx8LCD16bpp22drawTextureMapScanLineERKNS_14DrawingSurfaceERKNS_9GradientsEPKNS_4EdgeES9_RKNS_14TextureSurfaceERKNS_4RectESF_tht) refers to lcd16bpp.o(i._ZN8touchgfx26LCD16bilinearInterpolate2DEffffffh) for touchgfx::LCD16bilinearInterpolate2D(float, float, float, float, float, float, unsigned char)
    lcd16bpp.o(i._ZN8touchgfx8LCD16bpp22drawTextureMapScanLineERKNS_14DrawingSurfaceERKNS_9GradientsEPKNS_4EdgeES9_RKNS_14TextureSurfaceERKNS_4RectESF_tht) refers to lcd16bpp.o(i._ZN8touchgfx14expand_rgb_565Et) for touchgfx::expand_rgb_565(unsigned short)
    lcd16bpp.o(i._ZN8touchgfx8LCD16bpp29copyFrameBufferRegionToMemoryERKNS_4RectE) refers to displaytransformation.o(i._ZN8touchgfx21DisplayTransformation29transformDisplayToFrameBufferERNS_4RectE) for touchgfx::DisplayTransformation::transformDisplayToFrameBuffer(touchgfx::Rect&)
    lcd16bpp.o(i._ZN8touchgfx8LCD16bpp29copyFrameBufferRegionToMemoryERKNS_4RectE) refers to hal.o(.data) for touchgfx::HAL::instance
    lcd16bpp.o(i._ZN8touchgfx8LCD16bpp8blitCopyEPKhNS_6Bitmap12BitmapFormatERKNS_4RectES7_hb) refers to lcd16bpp.o(i._ZN8touchgfx8LCD16bpp16blitCopyARGB8888EPKjRKNS_4RectES5_h) for touchgfx::LCD16bpp::blitCopyARGB8888(const unsigned*, const touchgfx::Rect&, const touchgfx::Rect&, unsigned char)
    lcd16bpp.o(i._ZN8touchgfx8LCD16bpp8blitCopyEPKtRKNS_4RectES5_hb) refers to displaytransformation.o(i._ZN8touchgfx21DisplayTransformation29transformDisplayToFrameBufferERNS_4RectE) for touchgfx::DisplayTransformation::transformDisplayToFrameBuffer(touchgfx::Rect&)
    lcd16bpp.o(i._ZN8touchgfx8LCD16bpp8blitCopyEPKtRKNS_4RectES5_hb) refers to displaytransformation.o(i._ZN8touchgfx21DisplayTransformation29transformDisplayToFrameBufferERNS_4RectERKS1_) for touchgfx::DisplayTransformation::transformDisplayToFrameBuffer(touchgfx::Rect&, const touchgfx::Rect&)
    lcd16bpp.o(i._ZN8touchgfx8LCD16bpp8blitCopyEPKtRKNS_4RectES5_hb) refers to hal.o(.data) for touchgfx::HAL::instance
    lcd16bpp.o(i._ZN8touchgfx8LCD16bpp8fillRectERKNS_4RectENS_9colortypeEh) refers to lcd16bpp.o(i._ZNK8touchgfx4Rect7isEmptyEv) for touchgfx::Rect::isEmpty() const
    lcd16bpp.o(i._ZN8touchgfx8LCD16bpp8fillRectERKNS_4RectENS_9colortypeEh) refers to displaytransformation.o(i._ZN8touchgfx21DisplayTransformation29transformDisplayToFrameBufferERNS_4RectE) for touchgfx::DisplayTransformation::transformDisplayToFrameBuffer(touchgfx::Rect&)
    lcd16bpp.o(i._ZN8touchgfx8LCD16bpp8fillRectERKNS_4RectENS_9colortypeEh) refers to hal.o(.data) for touchgfx::HAL::instance
    lcd16bpp.o(i._ZN8touchgfx8LCD16bpp8nextLineEbNS_12TextRotationE) refers to hal.o(.data) for touchgfx::HAL::FRAME_BUFFER_WIDTH
    lcd16bpp.o(i._ZN8touchgfx8LCD16bpp9drawGlyphEPtNS_4RectEssttRKS2_PKNS_9GlyphNodeEPKhNS_9colortypeEhhNS_12TextRotationE) refers to lcd16bpp.o(i._ZNK8touchgfx4Rect5rightEv) for touchgfx::Rect::right() const
    lcd16bpp.o(i._ZN8touchgfx8LCD16bpp9drawGlyphEPtNS_4RectEssttRKS2_PKNS_9GlyphNodeEPKhNS_9colortypeEhhNS_12TextRotationE) refers to lcd16bpp.o(i._ZNK8touchgfx4Rect6bottomEv) for touchgfx::Rect::bottom() const
    lcd16bpp.o(i._ZN8touchgfx8LCD16bpp9drawGlyphEPtNS_4RectEssttRKS2_PKNS_9GlyphNodeEPKhNS_9colortypeEhhNS_12TextRotationE) refers to lcd.o(i._ZN8touchgfx3LCD5realXERKNS_4RectEssNS_12TextRotationE) for touchgfx::LCD::realX(const touchgfx::Rect&, short, short, touchgfx::TextRotation)
    lcd16bpp.o(i._ZN8touchgfx8LCD16bpp9drawGlyphEPtNS_4RectEssttRKS2_PKNS_9GlyphNodeEPKhNS_9colortypeEhhNS_12TextRotationE) refers to lcd.o(i._ZN8touchgfx3LCD5realYERKNS_4RectEssNS_12TextRotationE) for touchgfx::LCD::realY(const touchgfx::Rect&, short, short, touchgfx::TextRotation)
    lcd16bpp.o(i._ZN8touchgfx8LCD16bpp9drawGlyphEPtNS_4RectEssttRKS2_PKNS_9GlyphNodeEPKhNS_9colortypeEhhNS_12TextRotationE) refers to displaytransformation.o(i._ZN8touchgfx21DisplayTransformation29transformDisplayToFrameBufferERsS1_) for touchgfx::DisplayTransformation::transformDisplayToFrameBuffer(short&, short&)
    lcd16bpp.o(i._ZN8touchgfx8LCD16bpp9drawGlyphEPtNS_4RectEssttRKS2_PKNS_9GlyphNodeEPKhNS_9colortypeEhhNS_12TextRotationE) refers to lcd16bpp.o(i._ZN8touchgfx8LCD16bpp9nextPixelEbNS_12TextRotationE) for touchgfx::LCD16bpp::nextPixel(bool, touchgfx::TextRotation)
    lcd16bpp.o(i._ZN8touchgfx8LCD16bpp9drawGlyphEPtNS_4RectEssttRKS2_PKNS_9GlyphNodeEPKhNS_9colortypeEhhNS_12TextRotationE) refers to lcd16bpp.o(i._ZN8touchgfx8LCD16bpp8nextLineEbNS_12TextRotationE) for touchgfx::LCD16bpp::nextLine(bool, touchgfx::TextRotation)
    lcd16bpp.o(i._ZN8touchgfx8LCD16bpp9drawGlyphEPtNS_4RectEssttRKS2_PKNS_9GlyphNodeEPKhNS_9colortypeEhhNS_12TextRotationE) refers to hal.o(.data) for touchgfx::HAL::DISPLAY_ROTATION
    lcd16bpp.o(i._ZN8touchgfx8LCD16bpp9nextPixelEbNS_12TextRotationE) refers to hal.o(.data) for touchgfx::HAL::FRAME_BUFFER_WIDTH
    lcd16bpp.o(.ARM.exidx) refers to lcd16bpp.o(i._ZN8touchgfx8LCD16bpp4initEv) for i._ZN8touchgfx8LCD16bpp4initEv
    lcd16bpp.o(.ARM.exidx) refers to lcd16bpp.o(i._ZN8touchgfx8LCD16bpp21blitCopyAlphaPerPixelEPKtPKhRKNS_4RectES7_h) for i._ZN8touchgfx8LCD16bpp21blitCopyAlphaPerPixelEPKtPKhRKNS_4RectES7_h
    lcd16bpp.o(.ARM.exidx) refers to lcd16bpp.o(i._ZN8touchgfx8LCD16bpp16blitCopyARGB8888EPKjRKNS_4RectES5_h) for i._ZN8touchgfx8LCD16bpp16blitCopyARGB8888EPKjRKNS_4RectES5_h
    lcd16bpp.o(.ARM.exidx) refers to lcd16bpp.o(i._ZN8touchgfx8LCD16bpp17drawPartialBitmapERKNS_6BitmapEssRKNS_4RectEhb) for i._ZN8touchgfx8LCD16bpp17drawPartialBitmapERKNS_6BitmapEssRKNS_4RectEhb
    lcd16bpp.o(.ARM.exidx) refers to lcd16bpp.o(i._ZN8touchgfx8LCD16bpp8blitCopyEPKtRKNS_4RectES5_hb) for i._ZN8touchgfx8LCD16bpp8blitCopyEPKtRKNS_4RectES5_hb
    lcd16bpp.o(.ARM.exidx) refers to lcd16bpp.o(i._ZN8touchgfx8LCD16bpp8blitCopyEPKhNS_6Bitmap12BitmapFormatERKNS_4RectES7_hb) for i._ZN8touchgfx8LCD16bpp8blitCopyEPKhNS_6Bitmap12BitmapFormatERKNS_4RectES7_hb
    lcd16bpp.o(.ARM.exidx) refers to lcd16bpp.o(i._ZN8touchgfx8LCD16bpp29copyFrameBufferRegionToMemoryERKNS_4RectE) for i._ZN8touchgfx8LCD16bpp29copyFrameBufferRegionToMemoryERKNS_4RectE
    lcd16bpp.o(.ARM.exidx) refers to lcd16bpp.o(i._ZN8touchgfx8LCD16bpp8fillRectERKNS_4RectENS_9colortypeEh) for i._ZN8touchgfx8LCD16bpp8fillRectERKNS_4RectENS_9colortypeEh
    lcd16bpp.o(.ARM.exidx) refers to lcd16bpp.o(i._ZN8touchgfx8LCD16bpp22drawTextureMapScanLineERKNS_14DrawingSurfaceERKNS_9GradientsEPKNS_4EdgeES9_RKNS_14TextureSurfaceERKNS_4RectESF_tht) for i._ZN8touchgfx8LCD16bpp22drawTextureMapScanLineERKNS_14DrawingSurfaceERKNS_9GradientsEPKNS_4EdgeES9_RKNS_14TextureSurfaceERKNS_4RectESF_tht
    lcd16bpp.o(.ARM.exidx) refers to lcd16bpp.o(i._ZN8touchgfx8LCD16bpp9nextPixelEbNS_12TextRotationE) for i._ZN8touchgfx8LCD16bpp9nextPixelEbNS_12TextRotationE
    lcd16bpp.o(.ARM.exidx) refers to lcd16bpp.o(i._ZN8touchgfx8LCD16bpp8nextLineEbNS_12TextRotationE) for i._ZN8touchgfx8LCD16bpp8nextLineEbNS_12TextRotationE
    lcd16bpp.o(.ARM.exidx) refers to lcd16bpp.o(i._ZN8touchgfx8LCD16bpp9drawGlyphEPtNS_4RectEssttRKS2_PKNS_9GlyphNodeEPKhNS_9colortypeEhhNS_12TextRotationE) for i._ZN8touchgfx8LCD16bpp9drawGlyphEPtNS_4RectEssttRKS2_PKNS_9GlyphNodeEPKhNS_9colortypeEhhNS_12TextRotationE
    lcd16bpp.o(.ARM.exidx) refers to lcd16bpp.o(i._ZN8touchgfx14expand_rgb_565Et) for i._ZN8touchgfx14expand_rgb_565Et
    abstractpainter.o(i._ZN8touchgfx15AbstractPainterC2Ev) refers to abstractpainter.o(.constdata__ZTVN8touchgfx15AbstractPainterE) for vtable for touchgfx::AbstractPainter
    abstractpainter.o(i._ZN8touchgfx15AbstractPainterD0Ev) refers to delete.o(i._ZdlPv) for operator delete (void*)
    abstractpainter.o(.ARM.exidx) refers to abstractpainter.o(i._ZN8touchgfx15AbstractPainterC2Ev) for i._ZN8touchgfx15AbstractPainterC2Ev
    abstractpainter.o(.ARM.exidx) refers to abstractpainter.o(i._ZN8touchgfx15AbstractPainterD2Ev) for i._ZN8touchgfx15AbstractPainterD2Ev
    abstractpainter.o(.ARM.exidx) refers to abstractpainter.o(i._ZN8touchgfx15AbstractPainterD0Ev) for i._ZN8touchgfx15AbstractPainterD0Ev
    abstractpainter.o(.ARM.exidx) refers to abstractpainter.o(i._ZN8touchgfx15AbstractPainter9setOffsetEtt) for i._ZN8touchgfx15AbstractPainter9setOffsetEtt
    abstractpainter.o(.ARM.exidx) refers to abstractpainter.o(i._ZN8touchgfx15AbstractPainter14setWidgetAlphaEh) for i._ZN8touchgfx15AbstractPainter14setWidgetAlphaEh
    application.o(i._ZN8touchgfx11Application11getInstanceEv) refers to application.o(.data) for .data
    application.o(i._ZN8touchgfx11Application12switchScreenEPNS_6ScreenE) refers to application.o(.data) for .data
    application.o(i._ZN8touchgfx11Application14handleKeyEventEh) refers to application.o(.data) for .data
    application.o(i._ZN8touchgfx11Application14invalidateAreaENS_4RectE) refers to lcd16bpp.o(i._ZNK8touchgfx4Rect7isEmptyEv) for touchgfx::Rect::isEmpty() const
    application.o(i._ZN8touchgfx11Application14invalidateAreaENS_4RectE) refers to application.o(i._ZNK8touchgfx4Rect8includesERKS0_) for touchgfx::Rect::includes(const touchgfx::Rect&) const
    application.o(i._ZN8touchgfx11Application14invalidateAreaENS_4RectE) refers to application.o(t._ZN8touchgfx6VectorINS_4RectELt8EE13quickRemoveAtEt) for touchgfx::Vector<touchgfx::Rect, (unsigned short)8>::quickRemoveAt(unsigned short)
    application.o(i._ZN8touchgfx11Application14invalidateAreaENS_4RectE) refers to application.o(i._ZNK8touchgfx4Rect9intersectERKS0_) for touchgfx::Rect::intersect(const touchgfx::Rect&) const
    application.o(i._ZN8touchgfx11Application14invalidateAreaENS_4RectE) refers to application.o(i._ZN8touchgfx4Rect11expandToFitERKS0_) for touchgfx::Rect::expandToFit(const touchgfx::Rect&)
    application.o(i._ZN8touchgfx11Application14invalidateAreaENS_4RectE) refers to application.o(t._ZN8touchgfx6VectorINS_4RectELt8EE3addES1_) for touchgfx::Vector<touchgfx::Rect, (unsigned short)8>::add(touchgfx::Rect)
    application.o(i._ZN8touchgfx11Application15handleDragEventERKNS_9DragEventE) refers to application.o(.data) for .data
    application.o(i._ZN8touchgfx11Application15handleTickEventEv) refers to application.o(.data) for .data
    application.o(i._ZN8touchgfx11Application16handleClickEventERKNS_10ClickEventE) refers to application.o(.data) for .data
    application.o(i._ZN8touchgfx11Application18handleGestureEventERKNS_12GestureEventE) refers to application.o(.data) for .data
    application.o(i._ZN8touchgfx11Application19cacheDrawOperationsEb) refers to application.o(i._ZN8touchgfx8nextRandEv) for touchgfx::nextRand()
    application.o(i._ZN8touchgfx11Application19cacheDrawOperationsEb) refers to application.o(i._ZN8touchgfx11Application14invalidateAreaENS_4RectE) for touchgfx::Application::invalidateArea(touchgfx::Rect)
    application.o(i._ZN8touchgfx11Application19cacheDrawOperationsEb) refers to application.o(t._ZN8touchgfx6VectorINS_4RectELt8EEC1Ev) for touchgfx::Vector<touchgfx::Rect, (unsigned short)8>::Vector()
    application.o(i._ZN8touchgfx11Application19cacheDrawOperationsEb) refers to application.o(t._ZN8touchgfx6VectorINS_4RectELt8EE3addES1_) for touchgfx::Vector<touchgfx::Rect, (unsigned short)8>::add(touchgfx::Rect)
    application.o(i._ZN8touchgfx11Application19cacheDrawOperationsEb) refers to lcd16bpp.o(i._ZNK8touchgfx4Rect6bottomEv) for touchgfx::Rect::bottom() const
    application.o(i._ZN8touchgfx11Application19cacheDrawOperationsEb) refers to channelcontrolpanel.o(i._ZN8touchgfx4RectC1Essss) for touchgfx::Rect::Rect(short, short, short, short)
    application.o(i._ZN8touchgfx11Application19cacheDrawOperationsEb) refers to application.o(i._ZNK8touchgfx4RectanERKS0_) for touchgfx::Rect::operator &(const touchgfx::Rect&) const
    application.o(i._ZN8touchgfx11Application19cacheDrawOperationsEb) refers to lcd16bpp.o(i._ZNK8touchgfx4Rect7isEmptyEv) for touchgfx::Rect::isEmpty() const
    application.o(i._ZN8touchgfx11Application19cacheDrawOperationsEb) refers to application.o(.data) for .data
    application.o(i._ZN8touchgfx11Application19cacheDrawOperationsEb) refers to hal.o(.data) for touchgfx::HAL::DISPLAY_HEIGHT
    application.o(i._ZN8touchgfx11Application4drawERNS_4RectE) refers to channelcontrolpanel.o(i._ZN8touchgfx4RectC1Essss) for touchgfx::Rect::Rect(short, short, short, short)
    application.o(i._ZN8touchgfx11Application4drawERNS_4RectE) refers to application.o(i._ZNK8touchgfx4RectanERKS0_) for touchgfx::Rect::operator &(const touchgfx::Rect&) const
    application.o(i._ZN8touchgfx11Application4drawERNS_4RectE) refers to application.o(i._ZN8touchgfx11Application14invalidateAreaENS_4RectE) for touchgfx::Application::invalidateArea(touchgfx::Rect)
    application.o(i._ZN8touchgfx11Application4drawERNS_4RectE) refers to application.o(i._ZN8touchgfx8enableFlERNS_4RectE) for touchgfx::enableFl(touchgfx::Rect&)
    application.o(i._ZN8touchgfx11Application4drawERNS_4RectE) refers to hal.o(.data) for touchgfx::HAL::DISPLAY_HEIGHT
    application.o(i._ZN8touchgfx11Application4drawERNS_4RectE) refers to application.o(.data) for .data
    application.o(i._ZN8touchgfx11Application4drawEv) refers to channelcontrolpanel.o(i._ZN8touchgfx4RectC1Essss) for touchgfx::Rect::Rect(short, short, short, short)
    application.o(i._ZN8touchgfx11Application4drawEv) refers to hal.o(.data) for touchgfx::HAL::DISPLAY_HEIGHT
    application.o(i._ZN8touchgfx11ApplicationC1Ev) refers to application.o(t._ZN8touchgfx6VectorINS_4RectELt8EEC1Ev) for touchgfx::Vector<touchgfx::Rect, (unsigned short)8>::Vector()
    application.o(i._ZN8touchgfx11ApplicationC1Ev) refers to application.o(i._ZN8touchgfx11Application20clearAllTimerWidgetsEv) for touchgfx::Application::clearAllTimerWidgets()
    application.o(i._ZN8touchgfx11ApplicationC1Ev) refers to application.o(.constdata__ZTVN8touchgfx11ApplicationE) for vtable for touchgfx::Application
    application.o(i._ZN8touchgfx11ApplicationC1Ev) refers to application.o(.data) for .data
    application.o(i._ZN8touchgfx8enableFlERNS_4RectE) refers to application.o(i._ZNK8touchgfx4RectanERKS0_) for touchgfx::Rect::operator &(const touchgfx::Rect&) const
    application.o(i._ZN8touchgfx8enableFlERNS_4RectE) refers to lcd16bpp.o(i._ZNK8touchgfx4Rect7isEmptyEv) for touchgfx::Rect::isEmpty() const
    application.o(i._ZN8touchgfx8enableFlERNS_4RectE) refers to displaytransformation.o(i._ZN8touchgfx21DisplayTransformation29transformDisplayToFrameBufferERNS_4RectERKS1_) for touchgfx::DisplayTransformation::transformDisplayToFrameBuffer(touchgfx::Rect&, const touchgfx::Rect&)
    application.o(i._ZN8touchgfx8enableFlERNS_4RectE) refers to displaytransformation.o(i._ZN8touchgfx21DisplayTransformation29transformDisplayToFrameBufferERNS_4RectE) for touchgfx::DisplayTransformation::transformDisplayToFrameBuffer(touchgfx::Rect&)
    application.o(i._ZN8touchgfx8enableFlERNS_4RectE) refers to application.o(i._ZN8touchgfx4wmAtEii) for touchgfx::wmAt(int, int)
    application.o(i._ZN8touchgfx8enableFlERNS_4RectE) refers to application.o(.data) for .data
    application.o(i._ZN8touchgfx8enableFlERNS_4RectE) refers to hal.o(.data) for touchgfx::HAL::instance
    application.o(i._ZN8touchgfx8nextRandEv) refers to application.o(.data) for .data
    application.o(i.__sti___15_Application_cpp_63cd8d44) refers to channelcontrolpanel.o(i._ZN8touchgfx4RectC1Essss) for touchgfx::Rect::Rect(short, short, short, short)
    application.o(i.__sti___15_Application_cpp_63cd8d44) refers to application.o(.data) for .data
    application.o(.ARM.exidx) refers to application.o(i._ZN8touchgfx11Application11getInstanceEv) for i._ZN8touchgfx11Application11getInstanceEv
    application.o(.ARM.exidx) refers to application.o(i._ZN8touchgfx11Application12switchScreenEPNS_6ScreenE) for i._ZN8touchgfx11Application12switchScreenEPNS_6ScreenE
    application.o(.ARM.exidx) refers to application.o(i._ZN8touchgfx11Application4drawEv) for i._ZN8touchgfx11Application4drawEv
    application.o(.ARM.exidx) refers to application.o(i._ZN8touchgfx8enableFlERNS_4RectE) for i._ZN8touchgfx8enableFlERNS_4RectE
    application.o(.ARM.exidx) refers to application.o(i._ZN8touchgfx11Application14invalidateAreaENS_4RectE) for i._ZN8touchgfx11Application14invalidateAreaENS_4RectE
    application.o(.ARM.exidx) refers to application.o(i._ZN8touchgfx11Application4drawERNS_4RectE) for i._ZN8touchgfx11Application4drawERNS_4RectE
    application.o(.ARM.exidx) refers to application.o(i._ZN8touchgfx11Application16handleClickEventERKNS_10ClickEventE) for i._ZN8touchgfx11Application16handleClickEventERKNS_10ClickEventE
    application.o(.ARM.exidx) refers to application.o(i._ZN8touchgfx11Application15handleDragEventERKNS_9DragEventE) for i._ZN8touchgfx11Application15handleDragEventERKNS_9DragEventE
    application.o(.ARM.exidx) refers to application.o(i._ZN8touchgfx11Application18handleGestureEventERKNS_12GestureEventE) for i._ZN8touchgfx11Application18handleGestureEventERKNS_12GestureEventE
    application.o(.ARM.exidx) refers to application.o(i._ZN8touchgfx11Application15handleTickEventEv) for i._ZN8touchgfx11Application15handleTickEventEv
    application.o(.ARM.exidx) refers to application.o(i._ZN8touchgfx11Application14handleKeyEventEh) for i._ZN8touchgfx11Application14handleKeyEventEh
    application.o(.ARM.exidx) refers to application.o(i._ZN8touchgfx11Application29handlePendingScreenTransitionEv) for i._ZN8touchgfx11Application29handlePendingScreenTransitionEv
    application.o(.ARM.exidx) refers to application.o(i._ZN8touchgfx11Application19cacheDrawOperationsEb) for i._ZN8touchgfx11Application19cacheDrawOperationsEb
    application.o(.ARM.exidx) refers to application.o(i._ZN8touchgfx11Application19registerTimerWidgetEPNS_8DrawableE) for i._ZN8touchgfx11Application19registerTimerWidgetEPNS_8DrawableE
    application.o(.ARM.exidx) refers to application.o(i._ZN8touchgfx11Application20clearAllTimerWidgetsEv) for i._ZN8touchgfx11Application20clearAllTimerWidgetsEv
    application.o(.ARM.exidx) refers to application.o(i._ZN8touchgfx11Application21unregisterTimerWidgetEPKNS_8DrawableE) for i._ZN8touchgfx11Application21unregisterTimerWidgetEPKNS_8DrawableE
    application.o(.ARM.exidx) refers to application.o(i._ZN8touchgfx11ApplicationC1Ev) for i._ZN8touchgfx11ApplicationC1Ev
    application.o(.ARM.exidx) refers to application.o(i.__sti___15_Application_cpp_63cd8d44) for i.__sti___15_Application_cpp_63cd8d44
    application.o(.ARM.exidx) refers to application.o(i._ZN8touchgfx8nextRandEv) for i._ZN8touchgfx8nextRandEv
    application.o(.init_array) refers to application.o(i.__sti___15_Application_cpp_63cd8d44) for __sti___15_Application_cpp_63cd8d44
    application.o(.init_array) refers to cpp_init.o(.text) for __cpp_initialize__aeabi_
    bitmap.o(i._ZN8touchgfx6Bitmap10clearCacheEv) refers to bitmap.o(.data) for .data
    bitmap.o(i._ZN8touchgfx6Bitmap12compactCacheEv) refers to bitmap.o(i._ZN8touchgfx6Bitmap15getSizeOfBitmapEt) for touchgfx::Bitmap::getSizeOfBitmap(unsigned short)
    bitmap.o(i._ZN8touchgfx6Bitmap12compactCacheEv) refers to bitmap.o(.data) for .data
    bitmap.o(i._ZN8touchgfx6Bitmap13cacheIsCachedEt) refers to bitmap.o(.data) for .data
    bitmap.o(i._ZN8touchgfx6Bitmap15cacheGetAddressEt) refers to bitmap.o(.data) for .data
    bitmap.o(i._ZN8touchgfx6Bitmap15getSizeOfBitmapEt) refers to bitmap.o(.data) for .data
    bitmap.o(i._ZN8touchgfx6Bitmap17cacheRemoveBitmapEt) refers to bitmap.o(i._ZN8touchgfx6Bitmap15getSizeOfBitmapEt) for touchgfx::Bitmap::getSizeOfBitmap(unsigned short)
    bitmap.o(i._ZN8touchgfx6Bitmap17cacheRemoveBitmapEt) refers to bitmap.o(.data) for .data
    bitmap.o(i._ZN8touchgfx6Bitmap17copyBitmapToCacheEtPh) refers to bitmap.o(.data) for .data
    bitmap.o(i._ZN8touchgfx6Bitmap17copyBitmapToCacheEtPh) refers to hal.o(.data) for touchgfx::HAL::instance
    bitmap.o(i._ZN8touchgfx6Bitmap18cacheReplaceBitmapEtt) refers to bitmap.o(i._ZN8touchgfx6Bitmap13cacheIsCachedEt) for touchgfx::Bitmap::cacheIsCached(unsigned short)
    bitmap.o(i._ZN8touchgfx6Bitmap18cacheReplaceBitmapEtt) refers to bitmap.o(i._ZN8touchgfx6Bitmap15getSizeOfBitmapEt) for touchgfx::Bitmap::getSizeOfBitmap(unsigned short)
    bitmap.o(i._ZN8touchgfx6Bitmap18cacheReplaceBitmapEtt) refers to bitmap.o(i._ZN8touchgfx6Bitmap17copyBitmapToCacheEtPh) for touchgfx::Bitmap::copyBitmapToCache(unsigned short, unsigned char*)
    bitmap.o(i._ZN8touchgfx6Bitmap18cacheReplaceBitmapEtt) refers to bitmap.o(.data) for .data
    bitmap.o(i._ZN8touchgfx6Bitmap19dynamicBitmapCreateEttNS0_12BitmapFormatE) refers to channelcontrolpanel.o(i._ZN8touchgfx4RectC1Essss) for touchgfx::Rect::Rect(short, short, short, short)
    bitmap.o(i._ZN8touchgfx6Bitmap19dynamicBitmapCreateEttNS0_12BitmapFormatE) refers to bitmap.o(i._ZN8touchgfx6Bitmap5cacheEt) for touchgfx::Bitmap::cache(unsigned short)
    bitmap.o(i._ZN8touchgfx6Bitmap19dynamicBitmapCreateEttNS0_12BitmapFormatE) refers to bitmap.o(.data) for .data
    bitmap.o(i._ZN8touchgfx6Bitmap19dynamicBitmapDeleteEt) refers to bitmap.o(i._ZN8touchgfx6Bitmap17cacheRemoveBitmapEt) for touchgfx::Bitmap::cacheRemoveBitmap(unsigned short)
    bitmap.o(i._ZN8touchgfx6Bitmap19dynamicBitmapDeleteEt) refers to bitmap.o(.data) for .data
    bitmap.o(i._ZN8touchgfx6Bitmap22registerBitmapDatabaseEPKNS0_10BitmapDataEtPtjj) refers to bitmap.o(i._ZN8touchgfx6Bitmap8setCacheEPtjj) for touchgfx::Bitmap::setCache(unsigned short*, unsigned, unsigned)
    bitmap.o(i._ZN8touchgfx6Bitmap22registerBitmapDatabaseEPKNS0_10BitmapDataEtPtjj) refers to bitmap.o(.data) for .data
    bitmap.o(i._ZN8touchgfx6Bitmap23dynamicBitmapGetAddressEt) refers to bitmap.o(.data) for .data
    bitmap.o(i._ZN8touchgfx6Bitmap25dynamicBitmapSetSolidRectEtRKNS_4RectE) refers to bitmap.o(.data) for .data
    bitmap.o(i._ZN8touchgfx6Bitmap5cacheEt) refers to bitmap.o(i._ZN8touchgfx6Bitmap12compactCacheEv) for touchgfx::Bitmap::compactCache()
    bitmap.o(i._ZN8touchgfx6Bitmap5cacheEt) refers to bitmap.o(i._ZN8touchgfx6Bitmap15getSizeOfBitmapEt) for touchgfx::Bitmap::getSizeOfBitmap(unsigned short)
    bitmap.o(i._ZN8touchgfx6Bitmap5cacheEt) refers to bitmap.o(i._ZN8touchgfx6Bitmap17copyBitmapToCacheEtPh) for touchgfx::Bitmap::copyBitmapToCache(unsigned short, unsigned char*)
    bitmap.o(i._ZN8touchgfx6Bitmap5cacheEt) refers to bitmap.o(.data) for .data
    bitmap.o(i._ZN8touchgfx6Bitmap8cacheAllEv) refers to bitmap.o(i._ZN8touchgfx6Bitmap5cacheEt) for touchgfx::Bitmap::cache(unsigned short)
    bitmap.o(i._ZN8touchgfx6Bitmap8cacheAllEv) refers to bitmap.o(.data) for .data
    bitmap.o(i._ZN8touchgfx6Bitmap8setCacheEPtjj) refers to bitmap.o(i._ZN8touchgfx6Bitmap10clearCacheEv) for touchgfx::Bitmap::clearCache()
    bitmap.o(i._ZN8touchgfx6Bitmap8setCacheEPtjj) refers to bitmap.o(.data) for .data
    bitmap.o(i._ZNK8touchgfx6Bitmap12getAlphaDataEv) refers to bitmap.o(.data) for .data
    bitmap.o(i._ZNK8touchgfx6Bitmap12getSolidRectEv) refers to channelcontrolpanel.o(i._ZN8touchgfx4RectC1Essss) for touchgfx::Rect::Rect(short, short, short, short)
    bitmap.o(i._ZNK8touchgfx6Bitmap12getSolidRectEv) refers to bitmap.o(.data) for .data
    bitmap.o(i._ZNK8touchgfx6Bitmap12getSolidRectEv) refers to hal.o(.data) for touchgfx::HAL::DISPLAY_HEIGHT
    bitmap.o(i._ZNK8touchgfx6Bitmap20hasTransparentPixelsEv) refers to bitmap.o(.data) for .data
    bitmap.o(i._ZNK8touchgfx6Bitmap7getDataEv) refers to bitmap.o(.data) for .data
    bitmap.o(i._ZNK8touchgfx6Bitmap7getDataEv) refers to hal.o(.data) for touchgfx::HAL::instance
    bitmap.o(i._ZNK8touchgfx6Bitmap8getWidthEv) refers to bitmap.o(.data) for .data
    bitmap.o(i._ZNK8touchgfx6Bitmap8getWidthEv) refers to hal.o(.data) for touchgfx::HAL::DISPLAY_WIDTH
    bitmap.o(i._ZNK8touchgfx6Bitmap9getFormatEv) refers to bitmap.o(i._ZN8touchgfx3HAL3lcdEv) for touchgfx::HAL::lcd()
    bitmap.o(i._ZNK8touchgfx6Bitmap9getFormatEv) refers to bitmap.o(.data) for .data
    bitmap.o(i._ZNK8touchgfx6Bitmap9getHeightEv) refers to bitmap.o(.data) for .data
    bitmap.o(i._ZNK8touchgfx6Bitmap9getHeightEv) refers to hal.o(.data) for touchgfx::HAL::DISPLAY_HEIGHT
    bitmap.o(.ARM.exidx) refers to bitmap.o(i._ZNK8touchgfx6Bitmap7getDataEv) for i._ZNK8touchgfx6Bitmap7getDataEv
    bitmap.o(.ARM.exidx) refers to bitmap.o(i._ZNK8touchgfx6Bitmap12getAlphaDataEv) for i._ZNK8touchgfx6Bitmap12getAlphaDataEv
    bitmap.o(.ARM.exidx) refers to bitmap.o(i._ZNK8touchgfx6Bitmap9getFormatEv) for i._ZNK8touchgfx6Bitmap9getFormatEv
    bitmap.o(.ARM.exidx) refers to bitmap.o(i._ZNK8touchgfx6Bitmap8getWidthEv) for i._ZNK8touchgfx6Bitmap8getWidthEv
    bitmap.o(.ARM.exidx) refers to bitmap.o(i._ZNK8touchgfx6Bitmap9getHeightEv) for i._ZNK8touchgfx6Bitmap9getHeightEv
    bitmap.o(.ARM.exidx) refers to bitmap.o(i._ZNK8touchgfx6Bitmap12getSolidRectEv) for i._ZNK8touchgfx6Bitmap12getSolidRectEv
    bitmap.o(.ARM.exidx) refers to bitmap.o(i._ZNK8touchgfx6Bitmap20hasTransparentPixelsEv) for i._ZNK8touchgfx6Bitmap20hasTransparentPixelsEv
    bitmap.o(.ARM.exidx) refers to bitmap.o(i._ZN8touchgfx6Bitmap10clearCacheEv) for i._ZN8touchgfx6Bitmap10clearCacheEv
    bitmap.o(.ARM.exidx) refers to bitmap.o(i._ZN8touchgfx6Bitmap8setCacheEPtjj) for i._ZN8touchgfx6Bitmap8setCacheEPtjj
    bitmap.o(.ARM.exidx) refers to bitmap.o(i._ZN8touchgfx6Bitmap22registerBitmapDatabaseEPKNS0_10BitmapDataEtPtjj) for i._ZN8touchgfx6Bitmap22registerBitmapDatabaseEPKNS0_10BitmapDataEtPtjj
    bitmap.o(.ARM.exidx) refers to bitmap.o(i._ZN8touchgfx6Bitmap17copyBitmapToCacheEtPh) for i._ZN8touchgfx6Bitmap17copyBitmapToCacheEtPh
    bitmap.o(.ARM.exidx) refers to bitmap.o(i._ZN8touchgfx6Bitmap15getSizeOfBitmapEt) for i._ZN8touchgfx6Bitmap15getSizeOfBitmapEt
    bitmap.o(.ARM.exidx) refers to bitmap.o(i._ZN8touchgfx6Bitmap12compactCacheEv) for i._ZN8touchgfx6Bitmap12compactCacheEv
    bitmap.o(.ARM.exidx) refers to bitmap.o(i._ZN8touchgfx6Bitmap5cacheEt) for i._ZN8touchgfx6Bitmap5cacheEt
    bitmap.o(.ARM.exidx) refers to bitmap.o(i._ZN8touchgfx6Bitmap13cacheIsCachedEt) for i._ZN8touchgfx6Bitmap13cacheIsCachedEt
    bitmap.o(.ARM.exidx) refers to bitmap.o(i._ZN8touchgfx6Bitmap18cacheReplaceBitmapEtt) for i._ZN8touchgfx6Bitmap18cacheReplaceBitmapEtt
    bitmap.o(.ARM.exidx) refers to bitmap.o(i._ZN8touchgfx6Bitmap17cacheRemoveBitmapEt) for i._ZN8touchgfx6Bitmap17cacheRemoveBitmapEt
    bitmap.o(.ARM.exidx) refers to bitmap.o(i._ZN8touchgfx6Bitmap15cacheGetAddressEt) for i._ZN8touchgfx6Bitmap15cacheGetAddressEt
    bitmap.o(.ARM.exidx) refers to bitmap.o(i._ZN8touchgfx6Bitmap8cacheAllEv) for i._ZN8touchgfx6Bitmap8cacheAllEv
    bitmap.o(.ARM.exidx) refers to bitmap.o(i._ZN8touchgfx6Bitmap19dynamicBitmapCreateEttNS0_12BitmapFormatE) for i._ZN8touchgfx6Bitmap19dynamicBitmapCreateEttNS0_12BitmapFormatE
    bitmap.o(.ARM.exidx) refers to bitmap.o(i._ZN8touchgfx6Bitmap19dynamicBitmapDeleteEt) for i._ZN8touchgfx6Bitmap19dynamicBitmapDeleteEt
    bitmap.o(.ARM.exidx) refers to bitmap.o(i._ZN8touchgfx6Bitmap23dynamicBitmapGetAddressEt) for i._ZN8touchgfx6Bitmap23dynamicBitmapGetAddressEt
    bitmap.o(.ARM.exidx) refers to bitmap.o(i._ZN8touchgfx6Bitmap25dynamicBitmapSetSolidRectEtRKNS_4RectE) for i._ZN8touchgfx6Bitmap25dynamicBitmapSetSolidRectEtRKNS_4RectE
    box.o(i._ZNK8touchgfx3Box4drawERKNS_4RectE) refers to hal.o(.data) for touchgfx::HAL::instance
    box.o(.ARM.exidx) refers to box.o(i._ZNK8touchgfx3Box12getSolidRectEv) for i._ZNK8touchgfx3Box12getSolidRectEv
    box.o(.ARM.exidx) refers to box.o(i._ZNK8touchgfx3Box4drawERKNS_4RectE) for i._ZNK8touchgfx3Box4drawERKNS_4RectE
    button.o(i._ZN8touchgfx6Button10setBitmapsERKNS_6BitmapES3_) refers to bitmap.o(i._ZNK8touchgfx6Bitmap8getWidthEv) for touchgfx::Bitmap::getWidth() const
    button.o(i._ZN8touchgfx6Button10setBitmapsERKNS_6BitmapES3_) refers to bitmap.o(i._ZNK8touchgfx6Bitmap9getHeightEv) for touchgfx::Bitmap::getHeight() const
    button.o(i._ZNK8touchgfx6Button12getSolidRectEv) refers to bitmap.o(i._ZNK8touchgfx6Bitmap12getSolidRectEv) for touchgfx::Bitmap::getSolidRect() const
    button.o(i._ZNK8touchgfx6Button4drawERKNS_4RectE) refers to bitmap.o(i._ZNK8touchgfx6Bitmap8getWidthEv) for touchgfx::Bitmap::getWidth() const
    button.o(i._ZNK8touchgfx6Button4drawERKNS_4RectE) refers to bitmap.o(i._ZNK8touchgfx6Bitmap9getHeightEv) for touchgfx::Bitmap::getHeight() const
    button.o(i._ZNK8touchgfx6Button4drawERKNS_4RectE) refers to application.o(i._ZN8touchgfx4RectaNERKS0_) for touchgfx::Rect::operator &=(const touchgfx::Rect&)
    button.o(i._ZNK8touchgfx6Button4drawERKNS_4RectE) refers to bitmap.o(.data) for touchgfx::Bitmap::bitmaps
    button.o(i._ZNK8touchgfx6Button4drawERKNS_4RectE) refers to hal.o(.data) for touchgfx::HAL::instance
    button.o(.ARM.exidx) refers to button.o(i._ZNK8touchgfx6Button4drawERKNS_4RectE) for i._ZNK8touchgfx6Button4drawERKNS_4RectE
    button.o(.ARM.exidx) refers to button.o(i._ZN8touchgfx6Button10setBitmapsERKNS_6BitmapES3_) for i._ZN8touchgfx6Button10setBitmapsERKNS_6BitmapES3_
    button.o(.ARM.exidx) refers to button.o(i._ZNK8touchgfx6Button12getSolidRectEv) for i._ZNK8touchgfx6Button12getSolidRectEv
    canvaswidget.o(i._ZN8touchgfx12CanvasWidgetC2Ev) refers to channelcontrolpanel.o(i._ZN8touchgfx4RectC1Essss) for touchgfx::Rect::Rect(short, short, short, short)
    canvaswidget.o(i._ZN8touchgfx12CanvasWidgetC2Ev) refers to drawable.o(.constdata__ZTVN8touchgfx8DrawableE) for vtable for touchgfx::Drawable
    canvaswidget.o(i._ZN8touchgfx12CanvasWidgetC2Ev) refers to canvaswidget.o(.constdata__ZTVN8touchgfx12CanvasWidgetE) for vtable for touchgfx::CanvasWidget
    canvaswidget.o(i._ZN8touchgfx12CanvasWidgetD0Ev) refers to delete.o(i._ZdlPv) for operator delete (void*)
    canvaswidget.o(i._ZNK8touchgfx12CanvasWidget12getSolidRectEv) refers to channelcontrolpanel.o(i._ZN8touchgfx4RectC1Essss) for touchgfx::Rect::Rect(short, short, short, short)
    canvaswidget.o(i._ZNK8touchgfx12CanvasWidget14getMinimalRectEv) refers to channelcontrolpanel.o(i._ZN8touchgfx4RectC1Essss) for touchgfx::Rect::Rect(short, short, short, short)
    canvaswidget.o(i._ZNK8touchgfx12CanvasWidget4drawERKNS_4RectE) refers to channelcontrolpanel.o(i._ZN8touchgfx4RectC1Essss) for touchgfx::Rect::Rect(short, short, short, short)
    canvaswidget.o(i._ZNK8touchgfx12CanvasWidget4drawERKNS_4RectE) refers to hal.o(.data) for touchgfx::HAL::DISPLAY_ROTATION
    canvaswidget.o(.ARM.exidx) refers to canvaswidget.o(i._ZN8touchgfx12CanvasWidgetC2Ev) for i._ZN8touchgfx12CanvasWidgetC2Ev
    canvaswidget.o(.ARM.exidx) refers to canvaswidget.o(i._ZN8touchgfx12CanvasWidgetD2Ev) for i._ZN8touchgfx12CanvasWidgetD2Ev
    canvaswidget.o(.ARM.exidx) refers to canvaswidget.o(i._ZN8touchgfx12CanvasWidgetD0Ev) for i._ZN8touchgfx12CanvasWidgetD0Ev
    canvaswidget.o(.ARM.exidx) refers to canvaswidget.o(i._ZN8touchgfx12CanvasWidget10setPainterERNS_15AbstractPainterE) for i._ZN8touchgfx12CanvasWidget10setPainterERNS_15AbstractPainterE
    canvaswidget.o(.ARM.exidx) refers to canvaswidget.o(i._ZNK8touchgfx12CanvasWidget10getPainterEv) for i._ZNK8touchgfx12CanvasWidget10getPainterEv
    canvaswidget.o(.ARM.exidx) refers to canvaswidget.o(i._ZNK8touchgfx12CanvasWidget4drawERKNS_4RectE) for i._ZNK8touchgfx12CanvasWidget4drawERKNS_4RectE
    canvaswidget.o(.ARM.exidx) refers to canvaswidget.o(i._ZNK8touchgfx12CanvasWidget10invalidateEv) for i._ZNK8touchgfx12CanvasWidget10invalidateEv
    canvaswidget.o(.ARM.exidx) refers to canvaswidget.o(i._ZNK8touchgfx12CanvasWidget14getMinimalRectEv) for i._ZNK8touchgfx12CanvasWidget14getMinimalRectEv
    canvaswidget.o(.ARM.exidx) refers to canvaswidget.o(i._ZNK8touchgfx12CanvasWidget12getSolidRectEv) for i._ZNK8touchgfx12CanvasWidget12getSolidRectEv
    canvaswidgetrenderer.o(i._ZN8touchgfx20CanvasWidgetRenderer11setupBufferEPhj) refers to canvaswidgetrenderer.o(.data) for .data
    canvaswidgetrenderer.o(i._ZN8touchgfx20CanvasWidgetRenderer16getOutlineBufferEv) refers to canvaswidgetrenderer.o(.data) for .data
    canvaswidgetrenderer.o(i._ZN8touchgfx20CanvasWidgetRenderer16getScanlineWidthEv) refers to canvaswidgetrenderer.o(.data) for .data
    canvaswidgetrenderer.o(i._ZN8touchgfx20CanvasWidgetRenderer16setScanlineWidthEj) refers to canvaswidgetrenderer.o(.data) for .data
    canvaswidgetrenderer.o(i._ZN8touchgfx20CanvasWidgetRenderer17getScanlineCountsEv) refers to canvaswidgetrenderer.o(.data) for .data
    canvaswidgetrenderer.o(i._ZN8touchgfx20CanvasWidgetRenderer17getScanlineCoversEv) refers to canvaswidgetrenderer.o(.data) for .data
    canvaswidgetrenderer.o(i._ZN8touchgfx20CanvasWidgetRenderer20getOutlineBufferSizeEv) refers to canvaswidgetrenderer.o(.data) for .data
    canvaswidgetrenderer.o(i._ZN8touchgfx20CanvasWidgetRenderer23getScanlineStartIndicesEv) refers to canvaswidgetrenderer.o(.data) for .data
    canvaswidgetrenderer.o(i._ZN8touchgfx20CanvasWidgetRenderer9hasBufferEv) refers to canvaswidgetrenderer.o(.data) for .data
    canvaswidgetrenderer.o(.ARM.exidx) refers to canvaswidgetrenderer.o(i._ZN8touchgfx20CanvasWidgetRenderer11setupBufferEPhj) for i._ZN8touchgfx20CanvasWidgetRenderer11setupBufferEPhj
    canvaswidgetrenderer.o(.ARM.exidx) refers to canvaswidgetrenderer.o(i._ZN8touchgfx20CanvasWidgetRenderer16setScanlineWidthEj) for i._ZN8touchgfx20CanvasWidgetRenderer16setScanlineWidthEj
    canvaswidgetrenderer.o(.ARM.exidx) refers to canvaswidgetrenderer.o(i._ZN8touchgfx20CanvasWidgetRenderer9hasBufferEv) for i._ZN8touchgfx20CanvasWidgetRenderer9hasBufferEv
    canvaswidgetrenderer.o(.ARM.exidx) refers to canvaswidgetrenderer.o(i._ZN8touchgfx20CanvasWidgetRenderer16getScanlineWidthEv) for i._ZN8touchgfx20CanvasWidgetRenderer16getScanlineWidthEv
    canvaswidgetrenderer.o(.ARM.exidx) refers to canvaswidgetrenderer.o(i._ZN8touchgfx20CanvasWidgetRenderer17getScanlineCoversEv) for i._ZN8touchgfx20CanvasWidgetRenderer17getScanlineCoversEv
    canvaswidgetrenderer.o(.ARM.exidx) refers to canvaswidgetrenderer.o(i._ZN8touchgfx20CanvasWidgetRenderer23getScanlineStartIndicesEv) for i._ZN8touchgfx20CanvasWidgetRenderer23getScanlineStartIndicesEv
    canvaswidgetrenderer.o(.ARM.exidx) refers to canvaswidgetrenderer.o(i._ZN8touchgfx20CanvasWidgetRenderer17getScanlineCountsEv) for i._ZN8touchgfx20CanvasWidgetRenderer17getScanlineCountsEv
    canvaswidgetrenderer.o(.ARM.exidx) refers to canvaswidgetrenderer.o(i._ZN8touchgfx20CanvasWidgetRenderer16getOutlineBufferEv) for i._ZN8touchgfx20CanvasWidgetRenderer16getOutlineBufferEv
    canvaswidgetrenderer.o(.ARM.exidx) refers to canvaswidgetrenderer.o(i._ZN8touchgfx20CanvasWidgetRenderer20getOutlineBufferSizeEv) for i._ZN8touchgfx20CanvasWidgetRenderer20getOutlineBufferSizeEv
    color.o(i._ZN8touchgfx5Color20getColorFrom24BitRGBEhhh) refers to hal.o(.data) for touchgfx::HAL::instance
    color.o(.ARM.exidx) refers to color.o(i._ZN8touchgfx5Color20getColorFrom24BitRGBEhhh) for i._ZN8touchgfx5Color20getColorFrom24BitRGBEhhh
    container.o(i._ZN8touchgfx9Container12getLastChildEssPPNS_8DrawableE) refers to lcd16bpp.o(i._ZNK8touchgfx4Rect5rightEv) for touchgfx::Rect::right() const
    container.o(i._ZN8touchgfx9Container12getLastChildEssPPNS_8DrawableE) refers to lcd16bpp.o(i._ZNK8touchgfx4Rect6bottomEv) for touchgfx::Rect::bottom() const
    container.o(i._ZN8touchgfx9Container14setupDrawChainERKNS_4RectEPPNS_8DrawableE) refers to application.o(i._ZNK8touchgfx4RectanERKS0_) for touchgfx::Rect::operator &(const touchgfx::Rect&) const
    container.o(i._ZN8touchgfx9Container14setupDrawChainERKNS_4RectEPPNS_8DrawableE) refers to lcd16bpp.o(i._ZNK8touchgfx4Rect7isEmptyEv) for touchgfx::Rect::isEmpty() const
    container.o(i._ZNK8touchgfx9Container16getContainedAreaEv) refers to application.o(i._ZN8touchgfx4Rect11expandToFitERKS0_) for touchgfx::Rect::expandToFit(const touchgfx::Rect&)
    container.o(i._ZNK8touchgfx9Container4drawERKNS_4RectE) refers to application.o(i._ZNK8touchgfx4RectanERKS0_) for touchgfx::Rect::operator &(const touchgfx::Rect&) const
    container.o(i._ZNK8touchgfx9Container4drawERKNS_4RectE) refers to lcd16bpp.o(i._ZNK8touchgfx4Rect7isEmptyEv) for touchgfx::Rect::isEmpty() const
    container.o(.ARM.exidx) refers to container.o(i._ZN8touchgfx9Container3addERNS_8DrawableE) for i._ZN8touchgfx9Container3addERNS_8DrawableE
    container.o(.ARM.exidx) refers to container.o(i._ZN8touchgfx9Container6removeERNS_8DrawableE) for i._ZN8touchgfx9Container6removeERNS_8DrawableE
    container.o(.ARM.exidx) refers to container.o(i._ZN8touchgfx9Container9removeAllEv) for i._ZN8touchgfx9Container9removeAllEv
    container.o(.ARM.exidx) refers to container.o(i._ZN8touchgfx9Container6unlinkEv) for i._ZN8touchgfx9Container6unlinkEv
    container.o(.ARM.exidx) refers to container.o(i._ZN8touchgfx9Container8containsERKNS_8DrawableE) for i._ZN8touchgfx9Container8containsERKNS_8DrawableE
    container.o(.ARM.exidx) refers to container.o(i._ZN8touchgfx9Container6insertEPNS_8DrawableERS1_) for i._ZN8touchgfx9Container6insertEPNS_8DrawableERS1_
    container.o(.ARM.exidx) refers to container.o(i._ZN8touchgfx9Container12getLastChildEssPPNS_8DrawableE) for i._ZN8touchgfx9Container12getLastChildEssPPNS_8DrawableE
    container.o(.ARM.exidx) refers to container.o(i._ZNK8touchgfx9Container4drawERKNS_4RectE) for i._ZNK8touchgfx9Container4drawERKNS_4RectE
    container.o(.ARM.exidx) refers to container.o(i._ZNK8touchgfx9Container12getSolidRectEv) for i._ZNK8touchgfx9Container12getSolidRectEv
    container.o(.ARM.exidx) refers to container.o(i._ZN8touchgfx9Container12forEachChildEPNS_15GenericCallbackIRNS_8DrawableEvEE) for i._ZN8touchgfx9Container12forEachChildEPNS_15GenericCallbackIRNS_8DrawableEvEE
    container.o(.ARM.exidx) refers to container.o(i._ZNK8touchgfx9Container16getContainedAreaEv) for i._ZNK8touchgfx9Container16getContainedAreaEv
    container.o(.ARM.exidx) refers to container.o(i._ZN8touchgfx9Container20moveChildrenRelativeEss) for i._ZN8touchgfx9Container20moveChildrenRelativeEss
    container.o(.ARM.exidx) refers to container.o(i._ZN8touchgfx9Container14setupDrawChainERKNS_4RectEPPNS_8DrawableE) for i._ZN8touchgfx9Container14setupDrawChainERKNS_4RectEPPNS_8DrawableE
    dma.o(i._ZN8touchgfx13DMA_Interface10addToQueueERKNS_6BlitOpE) refers to oswrappers.o(i._ZN8touchgfx10OSWrappers27tryTakeFrameBufferSemaphoreEv) for touchgfx::OSWrappers::tryTakeFrameBufferSemaphore()
    dma.o(i._ZN8touchgfx13DMA_Interface10addToQueueERKNS_6BlitOpE) refers to hal.o(.data) for touchgfx::HAL::instance
    dma.o(i._ZN8touchgfx13DMA_Interface16executeCompletedEv) refers to oswrappers.o(i._ZN8touchgfx10OSWrappers31giveFrameBufferSemaphoreFromISREv) for touchgfx::OSWrappers::giveFrameBufferSemaphoreFromISR()
    dma.o(i._ZN8touchgfx13DMA_Interface27waitForFrameBufferSemaphoreEv) refers to oswrappers.o(i._ZN8touchgfx10OSWrappers24takeFrameBufferSemaphoreEv) for touchgfx::OSWrappers::takeFrameBufferSemaphore()
    dma.o(i._ZN8touchgfx13DMA_Interface27waitForFrameBufferSemaphoreEv) refers to oswrappers.o(i._ZN8touchgfx10OSWrappers24giveFrameBufferSemaphoreEv) for touchgfx::OSWrappers::giveFrameBufferSemaphore()
    dma.o(i._ZN8touchgfx17LockFreeDMA_Queue10pushCopyOfERKNS_6BlitOpE) refers to memcpya.o(.text) for __aeabi_memcpy4
    dma.o(i._ZN8touchgfx17LockFreeDMA_QueueC1EPNS_6BlitOpEm) refers to dma.o(.constdata__ZTVN8touchgfx17LockFreeDMA_QueueE) for vtable for touchgfx::LockFreeDMA_Queue
    dma.o(.ARM.exidx) refers to dma.o(i._ZN8touchgfx17LockFreeDMA_QueueC1EPNS_6BlitOpEm) for i._ZN8touchgfx17LockFreeDMA_QueueC1EPNS_6BlitOpEm
    dma.o(.ARM.exidx) refers to dma.o(i._ZN8touchgfx17LockFreeDMA_Queue7isEmptyEv) for i._ZN8touchgfx17LockFreeDMA_Queue7isEmptyEv
    dma.o(.ARM.exidx) refers to dma.o(i._ZN8touchgfx17LockFreeDMA_Queue6isFullEv) for i._ZN8touchgfx17LockFreeDMA_Queue6isFullEv
    dma.o(.ARM.exidx) refers to dma.o(i._ZN8touchgfx17LockFreeDMA_Queue10pushCopyOfERKNS_6BlitOpE) for i._ZN8touchgfx17LockFreeDMA_Queue10pushCopyOfERKNS_6BlitOpE
    dma.o(.ARM.exidx) refers to dma.o(i._ZN8touchgfx17LockFreeDMA_Queue3popEv) for i._ZN8touchgfx17LockFreeDMA_Queue3popEv
    dma.o(.ARM.exidx) refers to dma.o(i._ZN8touchgfx17LockFreeDMA_Queue5firstEv) for i._ZN8touchgfx17LockFreeDMA_Queue5firstEv
    dma.o(.ARM.exidx) refers to dma.o(i._ZN8touchgfx13DMA_Interface10addToQueueERKNS_6BlitOpE) for i._ZN8touchgfx13DMA_Interface10addToQueueERKNS_6BlitOpE
    dma.o(.ARM.exidx) refers to dma.o(i._ZN8touchgfx13DMA_Interface5startEv) for i._ZN8touchgfx13DMA_Interface5startEv
    dma.o(.ARM.exidx) refers to dma.o(i._ZN8touchgfx13DMA_Interface15isDmaQueueEmptyEv) for i._ZN8touchgfx13DMA_Interface15isDmaQueueEmptyEv
    dma.o(.ARM.exidx) refers to dma.o(i._ZN8touchgfx13DMA_Interface14isDmaQueueFullEv) for i._ZN8touchgfx13DMA_Interface14isDmaQueueFullEv
    dma.o(.ARM.exidx) refers to dma.o(i._ZN8touchgfx13DMA_Interface7executeEv) for i._ZN8touchgfx13DMA_Interface7executeEv
    dma.o(.ARM.exidx) refers to dma.o(i._ZN8touchgfx13DMA_Interface16executeCompletedEv) for i._ZN8touchgfx13DMA_Interface16executeCompletedEv
    dma.o(.ARM.exidx) refers to dma.o(i._ZN8touchgfx13DMA_Interface13seedExecutionEv) for i._ZN8touchgfx13DMA_Interface13seedExecutionEv
    dma.o(.ARM.exidx) refers to dma.o(i._ZN8touchgfx13DMA_Interface11enableAlphaEh) for i._ZN8touchgfx13DMA_Interface11enableAlphaEh
    dma.o(.ARM.exidx) refers to dma.o(i._ZN8touchgfx13DMA_Interface12disableAlphaEv) for i._ZN8touchgfx13DMA_Interface12disableAlphaEv
    dma.o(.ARM.exidx) refers to dma.o(i._ZN8touchgfx13DMA_Interface31enableCopyWithTransparentPixelsEh) for i._ZN8touchgfx13DMA_Interface31enableCopyWithTransparentPixelsEh
    dma.o(.ARM.exidx) refers to dma.o(i._ZN8touchgfx13DMA_Interface27waitForFrameBufferSemaphoreEv) for i._ZN8touchgfx13DMA_Interface27waitForFrameBufferSemaphoreEv
    drawable.o(i._ZN8touchgfx8Drawable12moveRelativeEss) refers to application.o(i._ZN8touchgfx11Application11getInstanceEv) for touchgfx::Application::getInstance()
    drawable.o(i._ZNK8touchgfx8Drawable14getVisibleRectERNS_4RectE) refers to application.o(i._ZN8touchgfx4RectaNERKS0_) for touchgfx::Rect::operator &=(const touchgfx::Rect&)
    drawable.o(i._ZNK8touchgfx8Drawable14invalidateRectERNS_4RectE) refers to application.o(i._ZN8touchgfx4RectaNERKS0_) for touchgfx::Rect::operator &=(const touchgfx::Rect&)
    drawable.o(i._ZNK8touchgfx8Drawable14invalidateRectERNS_4RectE) refers to application.o(i._ZN8touchgfx11Application11getInstanceEv) for touchgfx::Application::getInstance()
    drawable.o(.ARM.exidx) refers to drawable.o(i._ZNK8touchgfx8Drawable14invalidateRectERNS_4RectE) for i._ZNK8touchgfx8Drawable14invalidateRectERNS_4RectE
    drawable.o(.ARM.exidx) refers to drawable.o(i._ZNK8touchgfx8Drawable10invalidateEv) for i._ZNK8touchgfx8Drawable10invalidateEv
    drawable.o(.ARM.exidx) refers to drawable.o(i._ZN8touchgfx8Drawable20getSolidRectAbsoluteEv) for i._ZN8touchgfx8Drawable20getSolidRectAbsoluteEv
    drawable.o(.ARM.exidx) refers to drawable.o(i._ZNK8touchgfx8Drawable14getVisibleRectERNS_4RectE) for i._ZNK8touchgfx8Drawable14getVisibleRectERNS_4RectE
    drawable.o(.ARM.exidx) refers to drawable.o(i._ZNK8touchgfx8Drawable15getAbsoluteRectEv) for i._ZNK8touchgfx8Drawable15getAbsoluteRectEv
    drawable.o(.ARM.exidx) refers to drawable.o(i._ZNK8touchgfx8Drawable23translateRectToAbsoluteERNS_4RectE) for i._ZNK8touchgfx8Drawable23translateRectToAbsoluteERNS_4RectE
    drawable.o(.ARM.exidx) refers to drawable.o(i._ZN8touchgfx8Drawable12moveRelativeEss) for i._ZN8touchgfx8Drawable12moveRelativeEss
    easingequations.o(i._ZN8touchgfx15EasingEquations10backEaseInEtsst) refers to easingequations.o(i._ZN8touchgfx15EasingEquations16roundRespectSignEf) for touchgfx::EasingEquations::roundRespectSign(float)
    easingequations.o(i._ZN8touchgfx15EasingEquations10circEaseInEtsst) refers to sqrtf.o(i.__hardfp_sqrtf) for __hardfp_sqrtf
    easingequations.o(i._ZN8touchgfx15EasingEquations10circEaseInEtsst) refers to easingequations.o(i._ZN8touchgfx15EasingEquations16roundRespectSignEf) for touchgfx::EasingEquations::roundRespectSign(float)
    easingequations.o(i._ZN8touchgfx15EasingEquations10expoEaseInEtsst) refers to powf.o(i.__hardfp_powf) for __hardfp_powf
    easingequations.o(i._ZN8touchgfx15EasingEquations10expoEaseInEtsst) refers to easingequations.o(i._ZN8touchgfx15EasingEquations16roundRespectSignEf) for touchgfx::EasingEquations::roundRespectSign(float)
    easingequations.o(i._ZN8touchgfx15EasingEquations10quadEaseInEtsst) refers to easingequations.o(i._ZN8touchgfx15EasingEquations16roundRespectSignEf) for touchgfx::EasingEquations::roundRespectSign(float)
    easingequations.o(i._ZN8touchgfx15EasingEquations10sineEaseInEtsst) refers to cosf.o(i.__hardfp_cosf) for __hardfp_cosf
    easingequations.o(i._ZN8touchgfx15EasingEquations10sineEaseInEtsst) refers to easingequations.o(i._ZN8touchgfx15EasingEquations16roundRespectSignEf) for touchgfx::EasingEquations::roundRespectSign(float)
    easingequations.o(i._ZN8touchgfx15EasingEquations11backEaseOutEtsst) refers to easingequations.o(i._ZN8touchgfx15EasingEquations16roundRespectSignEf) for touchgfx::EasingEquations::roundRespectSign(float)
    easingequations.o(i._ZN8touchgfx15EasingEquations11circEaseOutEtsst) refers to sqrtf.o(i.__hardfp_sqrtf) for __hardfp_sqrtf
    easingequations.o(i._ZN8touchgfx15EasingEquations11circEaseOutEtsst) refers to easingequations.o(i._ZN8touchgfx15EasingEquations16roundRespectSignEf) for touchgfx::EasingEquations::roundRespectSign(float)
    easingequations.o(i._ZN8touchgfx15EasingEquations11cubicEaseInEtsst) refers to easingequations.o(i._ZN8touchgfx15EasingEquations16roundRespectSignEf) for touchgfx::EasingEquations::roundRespectSign(float)
    easingequations.o(i._ZN8touchgfx15EasingEquations11expoEaseOutEtsst) refers to powf.o(i.__hardfp_powf) for __hardfp_powf
    easingequations.o(i._ZN8touchgfx15EasingEquations11expoEaseOutEtsst) refers to easingequations.o(i._ZN8touchgfx15EasingEquations16roundRespectSignEf) for touchgfx::EasingEquations::roundRespectSign(float)
    easingequations.o(i._ZN8touchgfx15EasingEquations11quadEaseOutEtsst) refers to easingequations.o(i._ZN8touchgfx15EasingEquations16roundRespectSignEf) for touchgfx::EasingEquations::roundRespectSign(float)
    easingequations.o(i._ZN8touchgfx15EasingEquations11quartEaseInEtsst) refers to easingequations.o(i._ZN8touchgfx15EasingEquations16roundRespectSignEf) for touchgfx::EasingEquations::roundRespectSign(float)
    easingequations.o(i._ZN8touchgfx15EasingEquations11quintEaseInEtsst) refers to easingequations.o(i._ZN8touchgfx15EasingEquations16roundRespectSignEf) for touchgfx::EasingEquations::roundRespectSign(float)
    easingequations.o(i._ZN8touchgfx15EasingEquations11sineEaseOutEtsst) refers to sinf.o(i.__hardfp_sinf) for __hardfp_sinf
    easingequations.o(i._ZN8touchgfx15EasingEquations11sineEaseOutEtsst) refers to easingequations.o(i._ZN8touchgfx15EasingEquations16roundRespectSignEf) for touchgfx::EasingEquations::roundRespectSign(float)
    easingequations.o(i._ZN8touchgfx15EasingEquations12bounceEaseInEtsst) refers to easingequations.o(i._ZN8touchgfx15EasingEquations13bounceEaseOutEtsst) for touchgfx::EasingEquations::bounceEaseOut(unsigned short, short, short, unsigned short)
    easingequations.o(i._ZN8touchgfx15EasingEquations12cubicEaseOutEtsst) refers to easingequations.o(i._ZN8touchgfx15EasingEquations16roundRespectSignEf) for touchgfx::EasingEquations::roundRespectSign(float)
    easingequations.o(i._ZN8touchgfx15EasingEquations12linearEaseInEtsst) refers to easingequations.o(i._ZN8touchgfx15EasingEquations14linearEaseNoneEtsst) for touchgfx::EasingEquations::linearEaseNone(unsigned short, short, short, unsigned short)
    easingequations.o(i._ZN8touchgfx15EasingEquations12quartEaseOutEtsst) refers to easingequations.o(i._ZN8touchgfx15EasingEquations16roundRespectSignEf) for touchgfx::EasingEquations::roundRespectSign(float)
    easingequations.o(i._ZN8touchgfx15EasingEquations12quintEaseOutEtsst) refers to easingequations.o(i._ZN8touchgfx15EasingEquations16roundRespectSignEf) for touchgfx::EasingEquations::roundRespectSign(float)
    easingequations.o(i._ZN8touchgfx15EasingEquations13backEaseInOutEtsst) refers to easingequations.o(i._ZN8touchgfx15EasingEquations16roundRespectSignEf) for touchgfx::EasingEquations::roundRespectSign(float)
    easingequations.o(i._ZN8touchgfx15EasingEquations13bounceEaseOutEtsst) refers to easingequations.o(i._ZN8touchgfx15EasingEquations16roundRespectSignEf) for touchgfx::EasingEquations::roundRespectSign(float)
    easingequations.o(i._ZN8touchgfx15EasingEquations13circEaseInOutEtsst) refers to sqrtf.o(i.__hardfp_sqrtf) for __hardfp_sqrtf
    easingequations.o(i._ZN8touchgfx15EasingEquations13circEaseInOutEtsst) refers to easingequations.o(i._ZN8touchgfx15EasingEquations16roundRespectSignEf) for touchgfx::EasingEquations::roundRespectSign(float)
    easingequations.o(i._ZN8touchgfx15EasingEquations13elasticEaseInEtsst) refers to sinf.o(i.__hardfp_sinf) for __hardfp_sinf
    easingequations.o(i._ZN8touchgfx15EasingEquations13elasticEaseInEtsst) refers to powf.o(i.__hardfp_powf) for __hardfp_powf
    easingequations.o(i._ZN8touchgfx15EasingEquations13elasticEaseInEtsst) refers to easingequations.o(i._ZN8touchgfx15EasingEquations16roundRespectSignEf) for touchgfx::EasingEquations::roundRespectSign(float)
    easingequations.o(i._ZN8touchgfx15EasingEquations13expoEaseInOutEtsst) refers to powf.o(i.__hardfp_powf) for __hardfp_powf
    easingequations.o(i._ZN8touchgfx15EasingEquations13expoEaseInOutEtsst) refers to easingequations.o(i._ZN8touchgfx15EasingEquations16roundRespectSignEf) for touchgfx::EasingEquations::roundRespectSign(float)
    easingequations.o(i._ZN8touchgfx15EasingEquations13linearEaseOutEtsst) refers to easingequations.o(i._ZN8touchgfx15EasingEquations14linearEaseNoneEtsst) for touchgfx::EasingEquations::linearEaseNone(unsigned short, short, short, unsigned short)
    easingequations.o(i._ZN8touchgfx15EasingEquations13quadEaseInOutEtsst) refers to easingequations.o(i._ZN8touchgfx15EasingEquations16roundRespectSignEf) for touchgfx::EasingEquations::roundRespectSign(float)
    easingequations.o(i._ZN8touchgfx15EasingEquations13sineEaseInOutEtsst) refers to cosf.o(i.__hardfp_cosf) for __hardfp_cosf
    easingequations.o(i._ZN8touchgfx15EasingEquations13sineEaseInOutEtsst) refers to easingequations.o(i._ZN8touchgfx15EasingEquations16roundRespectSignEf) for touchgfx::EasingEquations::roundRespectSign(float)
    easingequations.o(i._ZN8touchgfx15EasingEquations14cubicEaseInOutEtsst) refers to easingequations.o(i._ZN8touchgfx15EasingEquations16roundRespectSignEf) for touchgfx::EasingEquations::roundRespectSign(float)
    easingequations.o(i._ZN8touchgfx15EasingEquations14elasticEaseOutEtsst) refers to sinf.o(i.__hardfp_sinf) for __hardfp_sinf
    easingequations.o(i._ZN8touchgfx15EasingEquations14elasticEaseOutEtsst) refers to powf.o(i.__hardfp_powf) for __hardfp_powf
    easingequations.o(i._ZN8touchgfx15EasingEquations14elasticEaseOutEtsst) refers to easingequations.o(i._ZN8touchgfx15EasingEquations16roundRespectSignEf) for touchgfx::EasingEquations::roundRespectSign(float)
    easingequations.o(i._ZN8touchgfx15EasingEquations14linearEaseNoneEtsst) refers to easingequations.o(i._ZN8touchgfx15EasingEquations16roundRespectSignEf) for touchgfx::EasingEquations::roundRespectSign(float)
    easingequations.o(i._ZN8touchgfx15EasingEquations14quartEaseInOutEtsst) refers to easingequations.o(i._ZN8touchgfx15EasingEquations16roundRespectSignEf) for touchgfx::EasingEquations::roundRespectSign(float)
    easingequations.o(i._ZN8touchgfx15EasingEquations14quintEaseInOutEtsst) refers to easingequations.o(i._ZN8touchgfx15EasingEquations16roundRespectSignEf) for touchgfx::EasingEquations::roundRespectSign(float)
    easingequations.o(i._ZN8touchgfx15EasingEquations15bounceEaseInOutEtsst) refers to easingequations.o(i._ZN8touchgfx15EasingEquations12bounceEaseInEtsst) for touchgfx::EasingEquations::bounceEaseIn(unsigned short, short, short, unsigned short)
    easingequations.o(i._ZN8touchgfx15EasingEquations15bounceEaseInOutEtsst) refers to easingequations.o(i._ZN8touchgfx15EasingEquations13bounceEaseOutEtsst) for touchgfx::EasingEquations::bounceEaseOut(unsigned short, short, short, unsigned short)
    easingequations.o(i._ZN8touchgfx15EasingEquations15bounceEaseInOutEtsst) refers to easingequations.o(i._ZN8touchgfx15EasingEquations16roundRespectSignEf) for touchgfx::EasingEquations::roundRespectSign(float)
    easingequations.o(i._ZN8touchgfx15EasingEquations15linearEaseInOutEtsst) refers to easingequations.o(i._ZN8touchgfx15EasingEquations14linearEaseNoneEtsst) for touchgfx::EasingEquations::linearEaseNone(unsigned short, short, short, unsigned short)
    easingequations.o(i._ZN8touchgfx15EasingEquations16elasticEaseInOutEtsst) refers to sinf.o(i.__hardfp_sinf) for __hardfp_sinf
    easingequations.o(i._ZN8touchgfx15EasingEquations16elasticEaseInOutEtsst) refers to powf.o(i.__hardfp_powf) for __hardfp_powf
    easingequations.o(i._ZN8touchgfx15EasingEquations16elasticEaseInOutEtsst) refers to easingequations.o(i._ZN8touchgfx15EasingEquations16roundRespectSignEf) for touchgfx::EasingEquations::roundRespectSign(float)
    easingequations.o(.ARM.exidx) refers to easingequations.o(i._ZN8touchgfx15EasingEquations10backEaseInEtsst) for i._ZN8touchgfx15EasingEquations10backEaseInEtsst
    easingequations.o(.ARM.exidx) refers to easingequations.o(i._ZN8touchgfx15EasingEquations11backEaseOutEtsst) for i._ZN8touchgfx15EasingEquations11backEaseOutEtsst
    easingequations.o(.ARM.exidx) refers to easingequations.o(i._ZN8touchgfx15EasingEquations13backEaseInOutEtsst) for i._ZN8touchgfx15EasingEquations13backEaseInOutEtsst
    easingequations.o(.ARM.exidx) refers to easingequations.o(i._ZN8touchgfx15EasingEquations13bounceEaseOutEtsst) for i._ZN8touchgfx15EasingEquations13bounceEaseOutEtsst
    easingequations.o(.ARM.exidx) refers to easingequations.o(i._ZN8touchgfx15EasingEquations12bounceEaseInEtsst) for i._ZN8touchgfx15EasingEquations12bounceEaseInEtsst
    easingequations.o(.ARM.exidx) refers to easingequations.o(i._ZN8touchgfx15EasingEquations15bounceEaseInOutEtsst) for i._ZN8touchgfx15EasingEquations15bounceEaseInOutEtsst
    easingequations.o(.ARM.exidx) refers to easingequations.o(i._ZN8touchgfx15EasingEquations10circEaseInEtsst) for i._ZN8touchgfx15EasingEquations10circEaseInEtsst
    easingequations.o(.ARM.exidx) refers to easingequations.o(i._ZN8touchgfx15EasingEquations11circEaseOutEtsst) for i._ZN8touchgfx15EasingEquations11circEaseOutEtsst
    easingequations.o(.ARM.exidx) refers to easingequations.o(i._ZN8touchgfx15EasingEquations13circEaseInOutEtsst) for i._ZN8touchgfx15EasingEquations13circEaseInOutEtsst
    easingequations.o(.ARM.exidx) refers to easingequations.o(i._ZN8touchgfx15EasingEquations11cubicEaseInEtsst) for i._ZN8touchgfx15EasingEquations11cubicEaseInEtsst
    easingequations.o(.ARM.exidx) refers to easingequations.o(i._ZN8touchgfx15EasingEquations12cubicEaseOutEtsst) for i._ZN8touchgfx15EasingEquations12cubicEaseOutEtsst
    easingequations.o(.ARM.exidx) refers to easingequations.o(i._ZN8touchgfx15EasingEquations14cubicEaseInOutEtsst) for i._ZN8touchgfx15EasingEquations14cubicEaseInOutEtsst
    easingequations.o(.ARM.exidx) refers to easingequations.o(i._ZN8touchgfx15EasingEquations13elasticEaseInEtsst) for i._ZN8touchgfx15EasingEquations13elasticEaseInEtsst
    easingequations.o(.ARM.exidx) refers to easingequations.o(i._ZN8touchgfx15EasingEquations14elasticEaseOutEtsst) for i._ZN8touchgfx15EasingEquations14elasticEaseOutEtsst
    easingequations.o(.ARM.exidx) refers to easingequations.o(i._ZN8touchgfx15EasingEquations16elasticEaseInOutEtsst) for i._ZN8touchgfx15EasingEquations16elasticEaseInOutEtsst
    easingequations.o(.ARM.exidx) refers to easingequations.o(i._ZN8touchgfx15EasingEquations10expoEaseInEtsst) for i._ZN8touchgfx15EasingEquations10expoEaseInEtsst
    easingequations.o(.ARM.exidx) refers to easingequations.o(i._ZN8touchgfx15EasingEquations11expoEaseOutEtsst) for i._ZN8touchgfx15EasingEquations11expoEaseOutEtsst
    easingequations.o(.ARM.exidx) refers to easingequations.o(i._ZN8touchgfx15EasingEquations13expoEaseInOutEtsst) for i._ZN8touchgfx15EasingEquations13expoEaseInOutEtsst
    easingequations.o(.ARM.exidx) refers to easingequations.o(i._ZN8touchgfx15EasingEquations14linearEaseNoneEtsst) for i._ZN8touchgfx15EasingEquations14linearEaseNoneEtsst
    easingequations.o(.ARM.exidx) refers to easingequations.o(i._ZN8touchgfx15EasingEquations12linearEaseInEtsst) for i._ZN8touchgfx15EasingEquations12linearEaseInEtsst
    easingequations.o(.ARM.exidx) refers to easingequations.o(i._ZN8touchgfx15EasingEquations13linearEaseOutEtsst) for i._ZN8touchgfx15EasingEquations13linearEaseOutEtsst
    easingequations.o(.ARM.exidx) refers to easingequations.o(i._ZN8touchgfx15EasingEquations15linearEaseInOutEtsst) for i._ZN8touchgfx15EasingEquations15linearEaseInOutEtsst
    easingequations.o(.ARM.exidx) refers to easingequations.o(i._ZN8touchgfx15EasingEquations10quadEaseInEtsst) for i._ZN8touchgfx15EasingEquations10quadEaseInEtsst
    easingequations.o(.ARM.exidx) refers to easingequations.o(i._ZN8touchgfx15EasingEquations11quadEaseOutEtsst) for i._ZN8touchgfx15EasingEquations11quadEaseOutEtsst
    easingequations.o(.ARM.exidx) refers to easingequations.o(i._ZN8touchgfx15EasingEquations13quadEaseInOutEtsst) for i._ZN8touchgfx15EasingEquations13quadEaseInOutEtsst
    easingequations.o(.ARM.exidx) refers to easingequations.o(i._ZN8touchgfx15EasingEquations11quartEaseInEtsst) for i._ZN8touchgfx15EasingEquations11quartEaseInEtsst
    easingequations.o(.ARM.exidx) refers to easingequations.o(i._ZN8touchgfx15EasingEquations12quartEaseOutEtsst) for i._ZN8touchgfx15EasingEquations12quartEaseOutEtsst
    easingequations.o(.ARM.exidx) refers to easingequations.o(i._ZN8touchgfx15EasingEquations14quartEaseInOutEtsst) for i._ZN8touchgfx15EasingEquations14quartEaseInOutEtsst
    easingequations.o(.ARM.exidx) refers to easingequations.o(i._ZN8touchgfx15EasingEquations11quintEaseInEtsst) for i._ZN8touchgfx15EasingEquations11quintEaseInEtsst
    easingequations.o(.ARM.exidx) refers to easingequations.o(i._ZN8touchgfx15EasingEquations12quintEaseOutEtsst) for i._ZN8touchgfx15EasingEquations12quintEaseOutEtsst
    easingequations.o(.ARM.exidx) refers to easingequations.o(i._ZN8touchgfx15EasingEquations14quintEaseInOutEtsst) for i._ZN8touchgfx15EasingEquations14quintEaseInOutEtsst
    easingequations.o(.ARM.exidx) refers to easingequations.o(i._ZN8touchgfx15EasingEquations10sineEaseInEtsst) for i._ZN8touchgfx15EasingEquations10sineEaseInEtsst
    easingequations.o(.ARM.exidx) refers to easingequations.o(i._ZN8touchgfx15EasingEquations11sineEaseOutEtsst) for i._ZN8touchgfx15EasingEquations11sineEaseOutEtsst
    easingequations.o(.ARM.exidx) refers to easingequations.o(i._ZN8touchgfx15EasingEquations13sineEaseInOutEtsst) for i._ZN8touchgfx15EasingEquations13sineEaseInOutEtsst
    font.o(i._ZNK8touchgfx4Font14getStringWidthEPKtz) refers to texts.o(.data) for touchgfx::Font::getStringWidthFunction
    font.o(i._ZNK8touchgfx4Font14getStringWidthEhPKtz) refers to texts.o(.data) for touchgfx::Font::getStringWidthFunction
    font.o(i._ZNK8touchgfx4Font15getSpacingAboveEPKtz) refers to textprovider.o(i._ZN8touchgfx12TextProviderC1Ev) for touchgfx::TextProvider::TextProvider()
    font.o(i._ZNK8touchgfx4Font15getSpacingAboveEPKtz) refers to textprovider.o(i._ZN8touchgfx12TextProvider10initializeEPKtSt9__va_list) for touchgfx::TextProvider::initialize(const unsigned short*, std::__va_list)
    font.o(i._ZNK8touchgfx4Font15getSpacingAboveEPKtz) refers to font.o(i._ZNK8touchgfx9GlyphNode3topEv) for touchgfx::GlyphNode::top() const
    font.o(i._ZNK8touchgfx4Font15getSpacingAboveEPKtz) refers to textprovider.o(i._ZN8touchgfx12TextProvider15getNextLigatureEh) for touchgfx::TextProvider::getNextLigature(unsigned char)
    font.o(i._ZNK8touchgfx4Font16getMaxTextHeightEPKtz) refers to textprovider.o(i._ZN8touchgfx12TextProviderC1Ev) for touchgfx::TextProvider::TextProvider()
    font.o(i._ZNK8touchgfx4Font16getMaxTextHeightEPKtz) refers to textprovider.o(i._ZN8touchgfx12TextProvider10initializeEPKtSt9__va_list) for touchgfx::TextProvider::initialize(const unsigned short*, std::__va_list)
    font.o(i._ZNK8touchgfx4Font16getMaxTextHeightEPKtz) refers to font.o(i._ZNK8touchgfx9GlyphNode3topEv) for touchgfx::GlyphNode::top() const
    font.o(i._ZNK8touchgfx4Font16getMaxTextHeightEPKtz) refers to textprovider.o(i._ZN8touchgfx12TextProvider15getNextLigatureEh) for touchgfx::TextProvider::getNextLigature(unsigned char)
    font.o(i._ZNK8touchgfx4Font16getNumberOfLinesEPKtz) refers to textprovider.o(i._ZN8touchgfx12TextProviderC1Ev) for touchgfx::TextProvider::TextProvider()
    font.o(i._ZNK8touchgfx4Font16getNumberOfLinesEPKtz) refers to textprovider.o(i._ZN8touchgfx12TextProvider10initializeEPKtSt9__va_list) for touchgfx::TextProvider::initialize(const unsigned short*, std::__va_list)
    font.o(i._ZNK8touchgfx4Font16getNumberOfLinesEPKtz) refers to textprovider.o(i._ZN8touchgfx12TextProvider11getNextCharEv) for touchgfx::TextProvider::getNextChar()
    font.o(i._ZNK8touchgfx4Font17getStringWidthLTREhPKtSt9__va_list) refers to textprovider.o(i._ZN8touchgfx12TextProviderC1Ev) for touchgfx::TextProvider::TextProvider()
    font.o(i._ZNK8touchgfx4Font17getStringWidthLTREhPKtSt9__va_list) refers to textprovider.o(i._ZN8touchgfx12TextProvider10initializeEPKtSt9__va_list) for touchgfx::TextProvider::initialize(const unsigned short*, std::__va_list)
    font.o(i._ZNK8touchgfx4Font17getStringWidthLTREhPKtSt9__va_list) refers to textprovider.o(i._ZN8touchgfx12TextProvider15getNextLigatureEh) for touchgfx::TextProvider::getNextLigature(unsigned char)
    font.o(i._ZNK8touchgfx4Font17getStringWidthRTLEhPKtSt9__va_list) refers to textprovider.o(i._ZN8touchgfx12TextProviderC1Ev) for touchgfx::TextProvider::TextProvider()
    font.o(i._ZNK8touchgfx4Font17getStringWidthRTLEhPKtSt9__va_list) refers to textprovider.o(i._ZN8touchgfx12TextProvider10initializeEPKtSt9__va_list) for touchgfx::TextProvider::initialize(const unsigned short*, std::__va_list)
    font.o(i._ZNK8touchgfx4Font17getStringWidthRTLEhPKtSt9__va_list) refers to textprovider.o(i._ZN8touchgfx12TextProvider15getNextLigatureEh) for touchgfx::TextProvider::getNextLigature(unsigned char)
    font.o(i._ZNK8touchgfx4Font17getStringWidthRTLEhPKtSt9__va_list) refers to lcd.o(i._ZN8touchgfx3LCD17drawStringRTLLineERsPKNS_4FontEhRtRNS_12TextProviderES7_MS0_FvS1_S4_hS7_iPKNS0_24DrawStringInternalStructEEiSA_) for touchgfx::LCD::drawStringRTLLine(short&, const touchgfx::Font*, unsigned char, unsigned short&, touchgfx::TextProvider&, touchgfx::TextProvider&, void(touchgfx::LCD::*)(short&, const touchgfx::Font*, unsigned char, touchgfx::TextProvider&, int, const touchgfx::LCD::DrawStringInternalStruct*), int, const touchgfx::LCD::DrawStringInternalStruct*)
    font.o(i._ZNK8touchgfx4Font17getStringWidthRTLEhPKtSt9__va_list) refers to hal.o(.data) for touchgfx::HAL::instance
    font.o(i._ZNK8touchgfx4Font17getStringWidthRTLEhPKtSt9__va_list) refers to font.o(.data) for .data
    font.o(.ARM.exidx) refers to font.o(i._ZNK8touchgfx4Font14getStringWidthEPKtz) for i._ZNK8touchgfx4Font14getStringWidthEPKtz
    font.o(.ARM.exidx) refers to font.o(i._ZNK8touchgfx4Font14getStringWidthEhPKtz) for i._ZNK8touchgfx4Font14getStringWidthEhPKtz
    font.o(.ARM.exidx) refers to font.o(i._ZNK8touchgfx4Font12getCharWidthEt) for i._ZNK8touchgfx4Font12getCharWidthEt
    font.o(.ARM.exidx) refers to font.o(i._ZNK8touchgfx4Font15getSpacingAboveEPKtz) for i._ZNK8touchgfx4Font15getSpacingAboveEPKtz
    font.o(.ARM.exidx) refers to font.o(i._ZNK8touchgfx4Font16getMaxTextHeightEPKtz) for i._ZNK8touchgfx4Font16getMaxTextHeightEPKtz
    font.o(.ARM.exidx) refers to font.o(i._ZNK8touchgfx4Font16getNumberOfLinesEPKtz) for i._ZNK8touchgfx4Font16getNumberOfLinesEPKtz
    font.o(.ARM.exidx) refers to font.o(i._ZNK8touchgfx4Font17getStringWidthLTREhPKtSt9__va_list) for i._ZNK8touchgfx4Font17getStringWidthLTREhPKtSt9__va_list
    font.o(.ARM.exidx) refers to font.o(i._ZNK8touchgfx4Font17getStringWidthRTLEhPKtSt9__va_list) for i._ZNK8touchgfx4Font17getStringWidthRTLEhPKtSt9__va_list
    font.o(.data) refers to lcd.o(i._ZN8touchgfx3LCD23drawStringWidthInternalERsPKNS_4FontEhRNS_12TextProviderEiPKNS0_24DrawStringInternalStructE) for touchgfx::LCD::drawStringWidthInternal(short&, const touchgfx::Font*, unsigned char, touchgfx::TextProvider&, int, const touchgfx::LCD::DrawStringInternalStruct*)
    fontmanager.o(i._ZN8touchgfx11FontManager15setFontProviderEPNS_12FontProviderE) refers to fontmanager.o(.data) for .data
    fontmanager.o(i._ZN8touchgfx11FontManager7getFontEt) refers to fontmanager.o(.data) for .data
    fontmanager.o(.ARM.exidx) refers to fontmanager.o(i._ZN8touchgfx11FontManager15setFontProviderEPNS_12FontProviderE) for i._ZN8touchgfx11FontManager15setFontProviderEPNS_12FontProviderE
    fontmanager.o(.ARM.exidx) refers to fontmanager.o(i._ZN8touchgfx11FontManager7getFontEt) for i._ZN8touchgfx11FontManager7getFontEt
    hal.o(i._ZN8touchgfx3HAL10beginFrameEv) refers to hal.o(.data) for .data
    hal.o(i._ZN8touchgfx3HAL10initializeEv) refers to oswrappers.o(i._ZN8touchgfx10OSWrappers10initializeEv) for touchgfx::OSWrappers::initialize()
    hal.o(i._ZN8touchgfx3HAL12setMCUActiveEb) refers to gpio.o(i._ZN8touchgfx4GPIO3setENS0_7GPIO_IDE) for touchgfx::GPIO::set(touchgfx::GPIO::GPIO_ID)
    hal.o(i._ZN8touchgfx3HAL12setMCUActiveEb) refers to gpio.o(i._ZN8touchgfx4GPIO5clearENS0_7GPIO_IDE) for touchgfx::GPIO::clear(touchgfx::GPIO::GPIO_ID)
    hal.o(i._ZN8touchgfx3HAL13blitCopyGlyphEPKhtttttNS_9colortypeEhNS_14BlitOperationsE) refers to stm32f7dma.o(i._ZN8touchgfx6BlitOpC1Ev) for touchgfx::BlitOp::BlitOp()
    hal.o(i._ZN8touchgfx3HAL13blitCopyGlyphEPKhtttttNS_9colortypeEhNS_14BlitOperationsE) refers to hal.o(i._ZN8touchgfx3HAL20getClientFrameBufferEv) for touchgfx::HAL::getClientFrameBuffer()
    hal.o(i._ZN8touchgfx3HAL13blitCopyGlyphEPKhtttttNS_9colortypeEhNS_14BlitOperationsE) refers to hal.o(i._ZNK8touchgfx3HAL13getDstAddressEttPt) for touchgfx::HAL::getDstAddress(unsigned short, unsigned short, unsigned short*) const
    hal.o(i._ZN8touchgfx3HAL13blitCopyGlyphEPKhtttttNS_9colortypeEhNS_14BlitOperationsE) refers to hal.o(.data) for .data
    hal.o(i._ZN8touchgfx3HAL15lockFrameBufferEv) refers to dma.o(i._ZN8touchgfx13DMA_Interface15isDmaQueueEmptyEv) for touchgfx::DMA_Interface::isDmaQueueEmpty()
    hal.o(i._ZN8touchgfx3HAL15lockFrameBufferEv) refers to oswrappers.o(i._ZN8touchgfx10OSWrappers24takeFrameBufferSemaphoreEv) for touchgfx::OSWrappers::takeFrameBufferSemaphore()
    hal.o(i._ZN8touchgfx3HAL15lockFrameBufferEv) refers to hal.o(i._ZN8touchgfx3HAL20getClientFrameBufferEv) for touchgfx::HAL::getClientFrameBuffer()
    hal.o(i._ZN8touchgfx3HAL15lockFrameBufferEv) refers to hal.o(.data) for .data
    hal.o(i._ZN8touchgfx3HAL16blitCopyARGB8888EPKtttttth) refers to stm32f7dma.o(i._ZN8touchgfx6BlitOpC1Ev) for touchgfx::BlitOp::BlitOp()
    hal.o(i._ZN8touchgfx3HAL16blitCopyARGB8888EPKtttttth) refers to hal.o(i._ZN8touchgfx3HAL20getClientFrameBufferEv) for touchgfx::HAL::getClientFrameBuffer()
    hal.o(i._ZN8touchgfx3HAL16blitCopyARGB8888EPKtttttth) refers to hal.o(i._ZNK8touchgfx3HAL13getDstAddressEttPt) for touchgfx::HAL::getDstAddress(unsigned short, unsigned short, unsigned short*) const
    hal.o(i._ZN8touchgfx3HAL16blitCopyARGB8888EPKtttttth) refers to hal.o(.data) for .data
    hal.o(i._ZN8touchgfx3HAL16swapFrameBuffersEv) refers to gpio.o(i._ZN8touchgfx4GPIO6toggleENS0_7GPIO_IDE) for touchgfx::GPIO::toggle(touchgfx::GPIO::GPIO_ID)
    hal.o(i._ZN8touchgfx3HAL16swapFrameBuffersEv) refers to hal.o(i._ZN8touchgfx3HAL20getClientFrameBufferEv) for touchgfx::HAL::getClientFrameBuffer()
    hal.o(i._ZN8touchgfx3HAL17unlockFrameBufferEv) refers to oswrappers.o(i._ZN8touchgfx10OSWrappers24giveFrameBufferSemaphoreEv) for touchgfx::OSWrappers::giveFrameBufferSemaphore()
    hal.o(i._ZN8touchgfx3HAL20copyFBRegionToMemoryENS_4RectE) refers to stm32f7dma.o(i._ZN8touchgfx6BlitOpC1Ev) for touchgfx::BlitOp::BlitOp()
    hal.o(i._ZN8touchgfx3HAL20copyFBRegionToMemoryENS_4RectE) refers to hal.o(i._ZNK8touchgfx3HAL13getDstAddressEttPt) for touchgfx::HAL::getDstAddress(unsigned short, unsigned short, unsigned short*) const
    hal.o(i._ZN8touchgfx3HAL20copyFBRegionToMemoryENS_4RectE) refers to hal.o(.data) for .data
    hal.o(i._ZN8touchgfx3HAL21registerEventListenerERNS_15UIEventListenerE) refers to gestures.o(i._ZN8touchgfx8Gestures21registerEventListenerERNS_15UIEventListenerE) for touchgfx::Gestures::registerEventListener(touchgfx::UIEventListener&)
    hal.o(i._ZN8touchgfx3HAL4tickEv) refers to gpio.o(i._ZN8touchgfx4GPIO3setENS0_7GPIO_IDE) for touchgfx::GPIO::set(touchgfx::GPIO::GPIO_ID)
    hal.o(i._ZN8touchgfx3HAL4tickEv) refers to application.o(i._ZN8touchgfx11Application11getInstanceEv) for touchgfx::Application::getInstance()
    hal.o(i._ZN8touchgfx3HAL4tickEv) refers to gestures.o(i._ZN8touchgfx8Gestures4tickEv) for touchgfx::Gestures::tick()
    hal.o(i._ZN8touchgfx3HAL4tickEv) refers to gpio.o(i._ZN8touchgfx4GPIO5clearENS0_7GPIO_IDE) for touchgfx::GPIO::clear(touchgfx::GPIO::GPIO_ID)
    hal.o(i._ZN8touchgfx3HAL4tickEv) refers to hal.o(.data) for .data
    hal.o(i._ZN8touchgfx3HAL5touchEii) refers to touchcalibration.o(i._ZN8touchgfx16TouchCalibration14translatePointERNS_5PointE) for touchgfx::TouchCalibration::translatePoint(touchgfx::Point&)
    hal.o(i._ZN8touchgfx3HAL5touchEii) refers to displaytransformation.o(i._ZN8touchgfx21DisplayTransformation29transformFrameBufferToDisplayERsS1_) for touchgfx::DisplayTransformation::transformFrameBufferToDisplay(short&, short&)
    hal.o(i._ZN8touchgfx3HAL5touchEii) refers to gestures.o(i._ZN8touchgfx8Gestures17registerDragEventEtttt) for touchgfx::Gestures::registerDragEvent(unsigned short, unsigned short, unsigned short, unsigned short)
    hal.o(i._ZN8touchgfx3HAL5touchEii) refers to gestures.o(i._ZN8touchgfx8Gestures18registerClickEventENS_10ClickEvent14ClickEventTypeEtt) for touchgfx::Gestures::registerClickEvent(touchgfx::ClickEvent::ClickEventType, unsigned short, unsigned short)
    hal.o(i._ZN8touchgfx3HAL7noTouchEv) refers to gestures.o(i._ZN8touchgfx8Gestures18registerClickEventENS_10ClickEvent14ClickEventTypeEtt) for touchgfx::Gestures::registerClickEvent(touchgfx::ClickEvent::ClickEventType, unsigned short, unsigned short)
    hal.o(i._ZN8touchgfx3HAL8blitCopyEPKtttttthb) refers to stm32f7dma.o(i._ZN8touchgfx6BlitOpC1Ev) for touchgfx::BlitOp::BlitOp()
    hal.o(i._ZN8touchgfx3HAL8blitCopyEPKtttttthb) refers to hal.o(i._ZN8touchgfx3HAL20getClientFrameBufferEv) for touchgfx::HAL::getClientFrameBuffer()
    hal.o(i._ZN8touchgfx3HAL8blitCopyEPKtttttthb) refers to hal.o(i._ZNK8touchgfx3HAL13getDstAddressEttPt) for touchgfx::HAL::getDstAddress(unsigned short, unsigned short, unsigned short*) const
    hal.o(i._ZN8touchgfx3HAL8blitCopyEPKtttttthb) refers to hal.o(.data) for .data
    hal.o(i._ZN8touchgfx3HAL8blitFillENS_9colortypeEtttth) refers to stm32f7dma.o(i._ZN8touchgfx6BlitOpC1Ev) for touchgfx::BlitOp::BlitOp()
    hal.o(i._ZN8touchgfx3HAL8blitFillENS_9colortypeEtttth) refers to hal.o(i._ZN8touchgfx3HAL20getClientFrameBufferEv) for touchgfx::HAL::getClientFrameBuffer()
    hal.o(i._ZN8touchgfx3HAL8blitFillENS_9colortypeEtttth) refers to hal.o(i._ZNK8touchgfx3HAL13getDstAddressEttPt) for touchgfx::HAL::getDstAddress(unsigned short, unsigned short, unsigned short*) const
    hal.o(i._ZN8touchgfx3HAL8blitFillENS_9colortypeEtttth) refers to hal.o(.data) for .data
    hal.o(i._ZN8touchgfx3HAL9taskEntryEv) refers to oswrappers.o(i._ZN8touchgfx10OSWrappers12waitForVSyncEv) for touchgfx::OSWrappers::waitForVSync()
    hal.o(i._ZNK8touchgfx3HAL13getDstAddressEttPt) refers to hal.o(.data) for .data
    hal.o(.ARM.exidx) refers to hal.o(i._ZN8touchgfx3HAL10initializeEv) for i._ZN8touchgfx3HAL10initializeEv
    hal.o(.ARM.exidx) refers to hal.o(i._ZN8touchgfx3HAL9taskEntryEv) for i._ZN8touchgfx3HAL9taskEntryEv
    hal.o(.ARM.exidx) refers to hal.o(i._ZN8touchgfx3HAL16flushFrameBufferEv) for i._ZN8touchgfx3HAL16flushFrameBufferEv
    hal.o(.ARM.exidx) refers to hal.o(i._ZN8touchgfx3HAL16flushFrameBufferERKNS_4RectE) for i._ZN8touchgfx3HAL16flushFrameBufferERKNS_4RectE
    hal.o(.ARM.exidx) refers to hal.o(i._ZN8touchgfx3HAL17allowDMATransfersEv) for i._ZN8touchgfx3HAL17allowDMATransfersEv
    hal.o(.ARM.exidx) refers to hal.o(i._ZN8touchgfx3HAL8flushDMAEv) for i._ZN8touchgfx3HAL8flushDMAEv
    hal.o(.ARM.exidx) refers to hal.o(i._ZN8touchgfx3HAL15lockFrameBufferEv) for i._ZN8touchgfx3HAL15lockFrameBufferEv
    hal.o(.ARM.exidx) refers to hal.o(i._ZN8touchgfx3HAL17unlockFrameBufferEv) for i._ZN8touchgfx3HAL17unlockFrameBufferEv
    hal.o(.ARM.exidx) refers to hal.o(i._ZN8touchgfx3HAL17registerTextCacheEPtt) for i._ZN8touchgfx3HAL17registerTextCacheEPtt
    hal.o(.ARM.exidx) refers to hal.o(i._ZN8touchgfx3HAL15cacheTextStringEPKt) for i._ZN8touchgfx3HAL15cacheTextStringEPKt
    hal.o(.ARM.exidx) refers to hal.o(i._ZN8touchgfx3HAL9blockCopyEPvPKvj) for i._ZN8touchgfx3HAL9blockCopyEPvPKvj
    hal.o(.ARM.exidx) refers to hal.o(i._ZN8touchgfx3HAL22blitSetTransparencyKeyEt) for i._ZN8touchgfx3HAL22blitSetTransparencyKeyEt
    hal.o(.ARM.exidx) refers to hal.o(i._ZNK8touchgfx3HAL13getDstAddressEttPt) for i._ZNK8touchgfx3HAL13getDstAddressEttPt
    hal.o(.ARM.exidx) refers to hal.o(i._ZN8touchgfx3HAL8blitCopyEPKtttttthb) for i._ZN8touchgfx3HAL8blitCopyEPKtttttthb
    hal.o(.ARM.exidx) refers to hal.o(i._ZN8touchgfx3HAL16blitCopyARGB8888EPKtttttth) for i._ZN8touchgfx3HAL16blitCopyARGB8888EPKtttttth
    hal.o(.ARM.exidx) refers to hal.o(i._ZN8touchgfx3HAL13blitCopyGlyphEPKhtttttNS_9colortypeEhNS_14BlitOperationsE) for i._ZN8touchgfx3HAL13blitCopyGlyphEPKhtttttNS_9colortypeEhNS_14BlitOperationsE
    hal.o(.ARM.exidx) refers to hal.o(i._ZN8touchgfx3HAL8blitFillENS_9colortypeEtttth) for i._ZN8touchgfx3HAL8blitFillENS_9colortypeEtttth
    hal.o(.ARM.exidx) refers to hal.o(i._ZN8touchgfx3HAL21registerEventListenerERNS_15UIEventListenerE) for i._ZN8touchgfx3HAL21registerEventListenerERNS_15UIEventListenerE
    hal.o(.ARM.exidx) refers to hal.o(i._ZN8touchgfx3HAL20copyFBRegionToMemoryENS_4RectE) for i._ZN8touchgfx3HAL20copyFBRegionToMemoryENS_4RectE
    hal.o(.ARM.exidx) refers to hal.o(i._ZN8touchgfx3HAL16swapFrameBuffersEv) for i._ZN8touchgfx3HAL16swapFrameBuffersEv
    hal.o(.ARM.exidx) refers to hal.o(i._ZN8touchgfx3HAL12setMCUActiveEb) for i._ZN8touchgfx3HAL12setMCUActiveEb
    hal.o(.ARM.exidx) refers to hal.o(i._ZN8touchgfx3HAL12getCPUCyclesEv) for i._ZN8touchgfx3HAL12getCPUCyclesEv
    hal.o(.ARM.exidx) refers to hal.o(i._ZN8touchgfx3HAL4tickEv) for i._ZN8touchgfx3HAL4tickEv
    hal.o(.ARM.exidx) refers to hal.o(i._ZN8touchgfx3HAL10beginFrameEv) for i._ZN8touchgfx3HAL10beginFrameEv
    hal.o(.ARM.exidx) refers to hal.o(i._ZN8touchgfx3HAL8endFrameEv) for i._ZN8touchgfx3HAL8endFrameEv
    hal.o(.ARM.exidx) refers to hal.o(i._ZN8touchgfx3HAL5touchEii) for i._ZN8touchgfx3HAL5touchEii
    hal.o(.ARM.exidx) refers to hal.o(i._ZN8touchgfx3HAL7noTouchEv) for i._ZN8touchgfx3HAL7noTouchEv
    image.o(i._ZN8touchgfx5Image9setBitmapERKNS_6BitmapE) refers to bitmap.o(i._ZNK8touchgfx6Bitmap8getWidthEv) for touchgfx::Bitmap::getWidth() const
    image.o(i._ZN8touchgfx5Image9setBitmapERKNS_6BitmapE) refers to bitmap.o(i._ZNK8touchgfx6Bitmap9getHeightEv) for touchgfx::Bitmap::getHeight() const
    image.o(i._ZN8touchgfx5Image9setBitmapERKNS_6BitmapE) refers to bitmap.o(i._ZNK8touchgfx6Bitmap20hasTransparentPixelsEv) for touchgfx::Bitmap::hasTransparentPixels() const
    image.o(i._ZNK8touchgfx5Image12getSolidRectEv) refers to bitmap.o(i._ZNK8touchgfx6Bitmap12getSolidRectEv) for touchgfx::Bitmap::getSolidRect() const
    image.o(i._ZNK8touchgfx5Image4drawERKNS_4RectE) refers to bitmap.o(i._ZNK8touchgfx6Bitmap8getWidthEv) for touchgfx::Bitmap::getWidth() const
    image.o(i._ZNK8touchgfx5Image4drawERKNS_4RectE) refers to bitmap.o(i._ZNK8touchgfx6Bitmap9getHeightEv) for touchgfx::Bitmap::getHeight() const
    image.o(i._ZNK8touchgfx5Image4drawERKNS_4RectE) refers to application.o(i._ZN8touchgfx4RectaNERKS0_) for touchgfx::Rect::operator &=(const touchgfx::Rect&)
    image.o(i._ZNK8touchgfx5Image4drawERKNS_4RectE) refers to hal.o(.data) for touchgfx::HAL::instance
    image.o(.ARM.exidx) refers to image.o(i._ZN8touchgfx5Image9setBitmapERKNS_6BitmapE) for i._ZN8touchgfx5Image9setBitmapERKNS_6BitmapE
    image.o(.ARM.exidx) refers to image.o(i._ZNK8touchgfx5Image4drawERKNS_4RectE) for i._ZNK8touchgfx5Image4drawERKNS_4RectE
    image.o(.ARM.exidx) refers to image.o(i._ZNK8touchgfx5Image12getSolidRectEv) for i._ZNK8touchgfx5Image12getSolidRectEv
    internalflashfont.o(i._ZN8touchgfx17InternalFlashFontC1EPKNS_9GlyphNodeEtthhhhPKhPKNS_11KerningNodeEt) refers to constfont.o(i._ZN8touchgfx9ConstFontC2EPKNS_9GlyphNodeEtthhhht) for touchgfx::ConstFont::ConstFont__sub_object(const touchgfx::GlyphNode*, unsigned short, unsigned short, unsigned char, unsigned char, unsigned char, unsigned char, unsigned short)
    internalflashfont.o(i._ZN8touchgfx17InternalFlashFontC1EPKNS_9GlyphNodeEtthhhhPKhPKNS_11KerningNodeEt) refers to internalflashfont.o(.constdata__ZTVN8touchgfx17InternalFlashFontE) for vtable for touchgfx::InternalFlashFont
    internalflashfont.o(.ARM.exidx) refers to internalflashfont.o(i._ZN8touchgfx17InternalFlashFontC1EPKNS_9GlyphNodeEtthhhhPKhPKNS_11KerningNodeEt) for i._ZN8touchgfx17InternalFlashFontC1EPKNS_9GlyphNodeEtthhhhPKhPKNS_11KerningNodeEt
    internalflashfont.o(.ARM.exidx) refers to internalflashfont.o(i._ZNK8touchgfx17InternalFlashFont12getPixelDataEPKNS_9GlyphNodeE) for i._ZNK8touchgfx17InternalFlashFont12getPixelDataEPKNS_9GlyphNodeE
    internalflashfont.o(.ARM.exidx) refers to internalflashfont.o(i._ZNK8touchgfx17InternalFlashFont10getKerningEtPKNS_9GlyphNodeE) for i._ZNK8touchgfx17InternalFlashFont10getKerningEtPKNS_9GlyphNodeE
    lcd.o(i._ZN8touchgfx3LCD10drawBorderERKNS_4RectEtNS_9colortypeEh) refers to lcd.o(i._ZN8touchgfx3LCD16drawVerticalLineEssttNS_9colortypeEh) for touchgfx::LCD::drawVerticalLine(short, short, unsigned short, unsigned short, touchgfx::colortype, unsigned char)
    lcd.o(i._ZN8touchgfx3LCD10drawBorderERKNS_4RectEtNS_9colortypeEh) refers to lcd16bpp.o(i._ZNK8touchgfx4Rect5rightEv) for touchgfx::Rect::right() const
    lcd.o(i._ZN8touchgfx3LCD10drawBorderERKNS_4RectEtNS_9colortypeEh) refers to lcd.o(i._ZN8touchgfx3LCD18drawHorizontalLineEssttNS_9colortypeEh) for touchgfx::LCD::drawHorizontalLine(short, short, unsigned short, unsigned short, touchgfx::colortype, unsigned char)
    lcd.o(i._ZN8touchgfx3LCD10drawBorderERKNS_4RectEtNS_9colortypeEh) refers to lcd16bpp.o(i._ZNK8touchgfx4Rect6bottomEv) for touchgfx::Rect::bottom() const
    lcd.o(i._ZN8touchgfx3LCD10drawStringENS_4RectERKS1_RNS0_13StringVisualsEPKtz) refers to texts.o(.data) for touchgfx::LCD::drawStringFunction
    lcd.o(i._ZN8touchgfx3LCD10rotateRectERNS_4RectERKS1_NS_12TextRotationE) refers to channelcontrolpanel.o(i._ZN8touchgfx4RectC1Essss) for touchgfx::Rect::Rect(short, short, short, short)
    lcd.o(i._ZN8touchgfx3LCD11getNumLinesERNS_12TextProviderENS_14WideTextActionEhPKNS_4FontEs) refers to textprovider.o(i._ZN8touchgfx12TextProvider15getNextLigatureEh) for touchgfx::TextProvider::getNextLigature(unsigned char)
    lcd.o(i._ZN8touchgfx3LCD11getNumLinesERNS_12TextProviderENS_14WideTextActionEhPKNS_4FontEs) refers to lcd.o(i._ZN8touchgfx3LCD22WideTextInternalStructC1ERNS_12TextProviderEthPKNS_4FontENS_14WideTextActionE) for touchgfx::LCD::WideTextInternalStruct::WideTextInternalStruct(touchgfx::TextProvider&, unsigned short, unsigned char, const touchgfx::Font*, touchgfx::WideTextAction)
    lcd.o(i._ZN8touchgfx3LCD11getNumLinesERNS_12TextProviderENS_14WideTextActionEhPKNS_4FontEs) refers to lcd.o(i._ZN8touchgfx3LCD22WideTextInternalStruct22getStringLengthForLineEv) for touchgfx::LCD::WideTextInternalStruct::getStringLengthForLine()
    lcd.o(i._ZN8touchgfx3LCD11stringWidthERNS_12TextProviderERKNS_4FontEih) refers to textprovider.o(i._ZN8touchgfx12TextProvider15getNextLigatureEh) for touchgfx::TextProvider::getNextLigature(unsigned char)
    lcd.o(i._ZN8touchgfx3LCD13drawStringLTRERKNS_4RectES3_RKNS0_13StringVisualsEPKtSt9__va_list) refers to channelcontrolpanel.o(i._ZN8touchgfx4RectC1Essss) for touchgfx::Rect::Rect(short, short, short, short)
    lcd.o(i._ZN8touchgfx3LCD13drawStringLTRERKNS_4RectES3_RKNS0_13StringVisualsEPKtSt9__va_list) refers to lcd.o(i._ZN8touchgfx3LCD10rotateRectERNS_4RectERKS1_NS_12TextRotationE) for touchgfx::LCD::rotateRect(touchgfx::Rect&, const touchgfx::Rect&, touchgfx::TextRotation)
    lcd.o(i._ZN8touchgfx3LCD13drawStringLTRERKNS_4RectES3_RKNS0_13StringVisualsEPKtSt9__va_list) refers to textprovider.o(i._ZN8touchgfx12TextProviderC1Ev) for touchgfx::TextProvider::TextProvider()
    lcd.o(i._ZN8touchgfx3LCD13drawStringLTRERKNS_4RectES3_RKNS0_13StringVisualsEPKtSt9__va_list) refers to textprovider.o(i._ZN8touchgfx12TextProvider10initializeEPKtSt9__va_list) for touchgfx::TextProvider::initialize(const unsigned short*, std::__va_list)
    lcd.o(i._ZN8touchgfx3LCD13drawStringLTRERKNS_4RectES3_RKNS0_13StringVisualsEPKtSt9__va_list) refers to lcd.o(i._ZN8touchgfx3LCD22WideTextInternalStructC1ERNS_12TextProviderEthPKNS_4FontENS_14WideTextActionE) for touchgfx::LCD::WideTextInternalStruct::WideTextInternalStruct(touchgfx::TextProvider&, unsigned short, unsigned char, const touchgfx::Font*, touchgfx::WideTextAction)
    lcd.o(i._ZN8touchgfx3LCD13drawStringLTRERKNS_4RectES3_RKNS0_13StringVisualsEPKtSt9__va_list) refers to lcd.o(i._ZN8touchgfx3LCD22WideTextInternalStruct22getStringLengthForLineEv) for touchgfx::LCD::WideTextInternalStruct::getStringLengthForLine()
    lcd.o(i._ZN8touchgfx3LCD13drawStringLTRERKNS_4RectES3_RKNS0_13StringVisualsEPKtSt9__va_list) refers to textprovider.o(i._ZN8touchgfx12TextProvider15getNextLigatureEh) for touchgfx::TextProvider::getNextLigature(unsigned char)
    lcd.o(i._ZN8touchgfx3LCD13drawStringLTRERKNS_4RectES3_RKNS0_13StringVisualsEPKtSt9__va_list) refers to lcd.o(i._ZN8touchgfx3LCD11stringWidthERNS_12TextProviderERKNS_4FontEih) for touchgfx::LCD::stringWidth(touchgfx::TextProvider&, const touchgfx::Font&, int, unsigned char)
    lcd.o(i._ZN8touchgfx3LCD13drawStringLTRERKNS_4RectES3_RKNS0_13StringVisualsEPKtSt9__va_list) refers to lcd.o(i._ZN8touchgfx3LCD18drawStringInternalEPtPKNS_4RectEsRsRS3_PKNS0_13StringVisualsEhRNS_12TextProviderEi) for touchgfx::LCD::drawStringInternal(unsigned short*, const touchgfx::Rect*, short, short&, const touchgfx::Rect&, const touchgfx::LCD::StringVisuals*, unsigned char, touchgfx::TextProvider&, int)
    lcd.o(i._ZN8touchgfx3LCD13drawStringLTRERKNS_4RectES3_RKNS0_13StringVisualsEPKtSt9__va_list) refers to lcd16bpp.o(i._ZNK8touchgfx4Rect6bottomEv) for touchgfx::Rect::bottom() const
    lcd.o(i._ZN8touchgfx3LCD13drawStringLTRERKNS_4RectES3_RKNS0_13StringVisualsEPKtSt9__va_list) refers to hal.o(.data) for touchgfx::HAL::instance
    lcd.o(i._ZN8touchgfx3LCD13drawStringRTLERKNS_4RectES3_RKNS0_13StringVisualsEPKtSt9__va_list) refers to channelcontrolpanel.o(i._ZN8touchgfx4RectC1Essss) for touchgfx::Rect::Rect(short, short, short, short)
    lcd.o(i._ZN8touchgfx3LCD13drawStringRTLERKNS_4RectES3_RKNS0_13StringVisualsEPKtSt9__va_list) refers to lcd.o(i._ZN8touchgfx3LCD10rotateRectERNS_4RectERKS1_NS_12TextRotationE) for touchgfx::LCD::rotateRect(touchgfx::Rect&, const touchgfx::Rect&, touchgfx::TextRotation)
    lcd.o(i._ZN8touchgfx3LCD13drawStringRTLERKNS_4RectES3_RKNS0_13StringVisualsEPKtSt9__va_list) refers to textprovider.o(i._ZN8touchgfx12TextProviderC1Ev) for touchgfx::TextProvider::TextProvider()
    lcd.o(i._ZN8touchgfx3LCD13drawStringRTLERKNS_4RectES3_RKNS0_13StringVisualsEPKtSt9__va_list) refers to textprovider.o(i._ZN8touchgfx12TextProvider10initializeEPKtSt9__va_list) for touchgfx::TextProvider::initialize(const unsigned short*, std::__va_list)
    lcd.o(i._ZN8touchgfx3LCD13drawStringRTLERKNS_4RectES3_RKNS0_13StringVisualsEPKtSt9__va_list) refers to lcd.o(i._ZN8touchgfx3LCD22WideTextInternalStructC1ERNS_12TextProviderEthPKNS_4FontENS_14WideTextActionE) for touchgfx::LCD::WideTextInternalStruct::WideTextInternalStruct(touchgfx::TextProvider&, unsigned short, unsigned char, const touchgfx::Font*, touchgfx::WideTextAction)
    lcd.o(i._ZN8touchgfx3LCD13drawStringRTLERKNS_4RectES3_RKNS0_13StringVisualsEPKtSt9__va_list) refers to lcd.o(i._ZN8touchgfx3LCD22WideTextInternalStruct22getStringLengthForLineEv) for touchgfx::LCD::WideTextInternalStruct::getStringLengthForLine()
    lcd.o(i._ZN8touchgfx3LCD13drawStringRTLERKNS_4RectES3_RKNS0_13StringVisualsEPKtSt9__va_list) refers to textprovider.o(i._ZN8touchgfx12TextProvider15getNextLigatureEh) for touchgfx::TextProvider::getNextLigature(unsigned char)
    lcd.o(i._ZN8touchgfx3LCD13drawStringRTLERKNS_4RectES3_RKNS0_13StringVisualsEPKtSt9__va_list) refers to lcd.o(i._ZN8touchgfx3LCD17drawStringRTLLineERsPKNS_4FontEhRtRNS_12TextProviderES7_MS0_FvS1_S4_hS7_iPKNS0_24DrawStringInternalStructEEiSA_) for touchgfx::LCD::drawStringRTLLine(short&, const touchgfx::Font*, unsigned char, unsigned short&, touchgfx::TextProvider&, touchgfx::TextProvider&, void(touchgfx::LCD::*)(short&, const touchgfx::Font*, unsigned char, touchgfx::TextProvider&, int, const touchgfx::LCD::DrawStringInternalStruct*), int, const touchgfx::LCD::DrawStringInternalStruct*)
    lcd.o(i._ZN8touchgfx3LCD13drawStringRTLERKNS_4RectES3_RKNS0_13StringVisualsEPKtSt9__va_list) refers to lcd16bpp.o(i._ZNK8touchgfx4Rect6bottomEv) for touchgfx::Rect::bottom() const
    lcd.o(i._ZN8touchgfx3LCD13drawStringRTLERKNS_4RectES3_RKNS0_13StringVisualsEPKtSt9__va_list) refers to hal.o(.data) for touchgfx::HAL::instance
    lcd.o(i._ZN8touchgfx3LCD13drawStringRTLERKNS_4RectES3_RKNS0_13StringVisualsEPKtSt9__va_list) refers to lcd.o(.data) for .data
    lcd.o(i._ZN8touchgfx3LCD16drawVerticalLineEssttNS_9colortypeEh) refers to channelcontrolpanel.o(i._ZN8touchgfx4RectC1Essss) for touchgfx::Rect::Rect(short, short, short, short)
    lcd.o(i._ZN8touchgfx3LCD17drawStringRTLLineERsPKNS_4FontEhRtRNS_12TextProviderES7_MS0_FvS1_S4_hS7_iPKNS0_24DrawStringInternalStructEEiSA_) refers to textprovider.o(i._ZN8touchgfx12TextProvider15getNextLigatureEh) for touchgfx::TextProvider::getNextLigature(unsigned char)
    lcd.o(i._ZN8touchgfx3LCD18drawHorizontalLineEssttNS_9colortypeEh) refers to channelcontrolpanel.o(i._ZN8touchgfx4RectC1Essss) for touchgfx::Rect::Rect(short, short, short, short)
    lcd.o(i._ZN8touchgfx3LCD18drawStringInternalEPtPKNS_4RectEsRsRS3_PKNS0_13StringVisualsEhRNS_12TextProviderEi) refers to lcd16bpp.o(i._ZNK8touchgfx4Rect5rightEv) for touchgfx::Rect::right() const
    lcd.o(i._ZN8touchgfx3LCD18drawStringInternalEPtPKNS_4RectEsRsRS3_PKNS0_13StringVisualsEhRNS_12TextProviderEi) refers to textprovider.o(i._ZN8touchgfx12TextProvider15getNextLigatureEh) for touchgfx::TextProvider::getNextLigature(unsigned char)
    lcd.o(i._ZN8touchgfx3LCD21drawStringRTLInternalERsPKNS_4FontEhRNS_12TextProviderEiPKNS0_24DrawStringInternalStructE) refers to lcd.o(i._ZN8touchgfx3LCD11stringWidthERNS_12TextProviderERKNS_4FontEih) for touchgfx::LCD::stringWidth(touchgfx::TextProvider&, const touchgfx::Font&, int, unsigned char)
    lcd.o(i._ZN8touchgfx3LCD21drawStringRTLInternalERsPKNS_4FontEhRNS_12TextProviderEiPKNS0_24DrawStringInternalStructE) refers to lcd.o(i._ZN8touchgfx3LCD18drawStringInternalEPtPKNS_4RectEsRsRS3_PKNS0_13StringVisualsEhRNS_12TextProviderEi) for touchgfx::LCD::drawStringInternal(unsigned short*, const touchgfx::Rect*, short, short&, const touchgfx::Rect&, const touchgfx::LCD::StringVisuals*, unsigned char, touchgfx::TextProvider&, int)
    lcd.o(i._ZN8touchgfx3LCD22WideTextInternalStruct22getStringLengthForLineEv) refers to textprovider.o(i._ZN8touchgfx12TextProvider15getNextLigatureEh) for touchgfx::TextProvider::getNextLigature(unsigned char)
    lcd.o(i._ZN8touchgfx3LCD22WideTextInternalStruct22getStringLengthForLineEv) refers to lcd.o(i._ZN8touchgfx3LCD22WideTextInternalStruct7addWordEtt) for touchgfx::LCD::WideTextInternalStruct::addWord(unsigned short, unsigned short)
    lcd.o(i._ZN8touchgfx3LCD22drawTextureMapTriangleERKNS_14DrawingSurfaceEPKNS_7Point3DERKNS_14TextureSurfaceERKNS_4RectESC_tht) refers to texturemaptypes.o(i._ZN8touchgfx9GradientsC1EPKNS_7Point3DE) for touchgfx::Gradients::Gradients(const touchgfx::Point3D*)
    lcd.o(i._ZN8touchgfx3LCD22drawTextureMapTriangleERKNS_14DrawingSurfaceEPKNS_7Point3DERKNS_14TextureSurfaceERKNS_4RectESC_tht) refers to texturemaptypes.o(i._ZN8touchgfx4EdgeC1ERKNS_9GradientsEPKNS_7Point3DEii) for touchgfx::Edge::Edge(const touchgfx::Gradients&, const touchgfx::Point3D*, int, int)
    lcd.o(i._ZN8touchgfx3LCD22drawTextureMapTriangleERKNS_14DrawingSurfaceEPKNS_7Point3DERKNS_14TextureSurfaceERKNS_4RectESC_tht) refers to lcd16bpp.o(i._ZNK8touchgfx4Rect6bottomEv) for touchgfx::Rect::bottom() const
    lcd.o(i._ZN8touchgfx3LCD22drawTextureMapTriangleERKNS_14DrawingSurfaceEPKNS_7Point3DERKNS_14TextureSurfaceERKNS_4RectESC_tht) refers to lcd.o(i._ZN8touchgfx4Edge4stepEi) for touchgfx::Edge::step(int)
    lcd.o(i._ZN8touchgfx3LCD22drawTextureMapTriangleERKNS_14DrawingSurfaceEPKNS_7Point3DERKNS_14TextureSurfaceERKNS_4RectESC_tht) refers to lcd.o(i._ZN8touchgfx4Edge4stepEv) for touchgfx::Edge::step()
    lcd.o(i._ZN8touchgfx3LCD23drawStringWidthInternalERsPKNS_4FontEhRNS_12TextProviderEiPKNS0_24DrawStringInternalStructE) refers to lcd.o(i._ZN8touchgfx3LCD11stringWidthERNS_12TextProviderERKNS_4FontEih) for touchgfx::LCD::stringWidth(touchgfx::TextProvider&, const touchgfx::Font&, int, unsigned char)
    lcd.o(i._ZN8touchgfx3LCD5realXERKNS_4RectEssNS_12TextRotationE) refers to lcd16bpp.o(i._ZNK8touchgfx4Rect5rightEv) for touchgfx::Rect::right() const
    lcd.o(i._ZN8touchgfx3LCD5realYERKNS_4RectEssNS_12TextRotationE) refers to lcd16bpp.o(i._ZNK8touchgfx4Rect6bottomEv) for touchgfx::Rect::bottom() const
    lcd.o(i._ZN8touchgfx3LCD8drawRectERKNS_4RectENS_9colortypeEh) refers to lcd.o(i._ZN8touchgfx3LCD10drawBorderERKNS_4RectEtNS_9colortypeEh) for touchgfx::LCD::drawBorder(const touchgfx::Rect&, unsigned short, touchgfx::colortype, unsigned char)
    lcd.o(i._ZN8touchgfx3LCD9drawGlyphEssttssPKNS_9GlyphNodeEPKhNS_9colortypeEhh) refers to channelcontrolpanel.o(i._ZN8touchgfx4RectC1Essss) for touchgfx::Rect::Rect(short, short, short, short)
    lcd.o(i._ZN8touchgfx3LCD9drawGlyphEssttssPKNS_9GlyphNodeEPKhNS_9colortypeEhh) refers to hal.o(.data) for touchgfx::HAL::DISPLAY_HEIGHT
    lcd.o(.ARM.exidx) refers to lcd.o(i._ZN8touchgfx3LCD9drawGlyphEssttssPKNS_9GlyphNodeEPKhNS_9colortypeEhh) for i._ZN8touchgfx3LCD9drawGlyphEssttssPKNS_9GlyphNodeEPKhNS_9colortypeEhh
    lcd.o(.ARM.exidx) refers to lcd.o(i._ZN8touchgfx3LCD18drawHorizontalLineEssttNS_9colortypeEh) for i._ZN8touchgfx3LCD18drawHorizontalLineEssttNS_9colortypeEh
    lcd.o(.ARM.exidx) refers to lcd.o(i._ZN8touchgfx3LCD16drawVerticalLineEssttNS_9colortypeEh) for i._ZN8touchgfx3LCD16drawVerticalLineEssttNS_9colortypeEh
    lcd.o(.ARM.exidx) refers to lcd.o(i._ZN8touchgfx3LCD10drawBorderERKNS_4RectEtNS_9colortypeEh) for i._ZN8touchgfx3LCD10drawBorderERKNS_4RectEtNS_9colortypeEh
    lcd.o(.ARM.exidx) refers to lcd.o(i._ZN8touchgfx3LCD8drawRectERKNS_4RectENS_9colortypeEh) for i._ZN8touchgfx3LCD8drawRectERKNS_4RectENS_9colortypeEh
    lcd.o(.ARM.exidx) refers to lcd.o(i._ZN8touchgfx3LCD10drawStringENS_4RectERKS1_RNS0_13StringVisualsEPKtz) for i._ZN8touchgfx3LCD10drawStringENS_4RectERKS1_RNS0_13StringVisualsEPKtz
    lcd.o(.ARM.exidx) refers to lcd.o(i._ZN8touchgfx3LCD22drawTextureMapTriangleERKNS_14DrawingSurfaceEPKNS_7Point3DERKNS_14TextureSurfaceERKNS_4RectESC_tht) for i._ZN8touchgfx3LCD22drawTextureMapTriangleERKNS_14DrawingSurfaceEPKNS_7Point3DERKNS_14TextureSurfaceERKNS_4RectESC_tht
    lcd.o(.ARM.exidx) refers to lcd.o(i._ZN8touchgfx3LCD10rotateRectERNS_4RectERKS1_NS_12TextRotationE) for i._ZN8touchgfx3LCD10rotateRectERNS_4RectERKS1_NS_12TextRotationE
    lcd.o(.ARM.exidx) refers to lcd.o(i._ZN8touchgfx3LCD5realXERKNS_4RectEssNS_12TextRotationE) for i._ZN8touchgfx3LCD5realXERKNS_4RectEssNS_12TextRotationE
    lcd.o(.ARM.exidx) refers to lcd.o(i._ZN8touchgfx3LCD5realYERKNS_4RectEssNS_12TextRotationE) for i._ZN8touchgfx3LCD5realYERKNS_4RectEssNS_12TextRotationE
    lcd.o(.ARM.exidx) refers to lcd.o(i._ZN8touchgfx3LCD18drawStringInternalEPtPKNS_4RectEsRsRS3_PKNS0_13StringVisualsEhRNS_12TextProviderEi) for i._ZN8touchgfx3LCD18drawStringInternalEPtPKNS_4RectEsRsRS3_PKNS0_13StringVisualsEhRNS_12TextProviderEi
    lcd.o(.ARM.exidx) refers to lcd.o(i._ZN8touchgfx3LCD11stringWidthERNS_12TextProviderERKNS_4FontEih) for i._ZN8touchgfx3LCD11stringWidthERNS_12TextProviderERKNS_4FontEih
    lcd.o(.ARM.exidx) refers to lcd.o(i._ZN8touchgfx3LCD22WideTextInternalStruct7addWordEtt) for i._ZN8touchgfx3LCD22WideTextInternalStruct7addWordEtt
    lcd.o(.ARM.exidx) refers to lcd.o(i._ZN8touchgfx3LCD22WideTextInternalStruct22getStringLengthForLineEv) for i._ZN8touchgfx3LCD22WideTextInternalStruct22getStringLengthForLineEv
    lcd.o(.ARM.exidx) refers to lcd.o(i._ZN8touchgfx3LCD13drawStringLTRERKNS_4RectES3_RKNS0_13StringVisualsEPKtSt9__va_list) for i._ZN8touchgfx3LCD13drawStringLTRERKNS_4RectES3_RKNS0_13StringVisualsEPKtSt9__va_list
    lcd.o(.ARM.exidx) refers to lcd.o(i._ZN8touchgfx3LCD17drawStringRTLLineERsPKNS_4FontEhRtRNS_12TextProviderES7_MS0_FvS1_S4_hS7_iPKNS0_24DrawStringInternalStructEEiSA_) for i._ZN8touchgfx3LCD17drawStringRTLLineERsPKNS_4FontEhRtRNS_12TextProviderES7_MS0_FvS1_S4_hS7_iPKNS0_24DrawStringInternalStructEEiSA_
    lcd.o(.ARM.exidx) refers to lcd.o(i._ZN8touchgfx3LCD13drawStringRTLERKNS_4RectES3_RKNS0_13StringVisualsEPKtSt9__va_list) for i._ZN8touchgfx3LCD13drawStringRTLERKNS_4RectES3_RKNS0_13StringVisualsEPKtSt9__va_list
    lcd.o(.ARM.exidx) refers to lcd.o(i._ZN8touchgfx3LCD11getNumLinesERNS_12TextProviderENS_14WideTextActionEhPKNS_4FontEs) for i._ZN8touchgfx3LCD11getNumLinesERNS_12TextProviderENS_14WideTextActionEhPKNS_4FontEs
    lcd.o(.ARM.exidx) refers to lcd.o(i._ZN8touchgfx3LCD23drawStringWidthInternalERsPKNS_4FontEhRNS_12TextProviderEiPKNS0_24DrawStringInternalStructE) for i._ZN8touchgfx3LCD23drawStringWidthInternalERsPKNS_4FontEhRNS_12TextProviderEiPKNS0_24DrawStringInternalStructE
    lcd.o(.ARM.exidx) refers to lcd.o(i._ZN8touchgfx3LCD21drawStringRTLInternalERsPKNS_4FontEhRNS_12TextProviderEiPKNS0_24DrawStringInternalStructE) for i._ZN8touchgfx3LCD21drawStringRTLInternalERsPKNS_4FontEhRNS_12TextProviderEiPKNS0_24DrawStringInternalStructE
    lcd.o(.data) refers to lcd.o(i._ZN8touchgfx3LCD23drawStringWidthInternalERsPKNS_4FontEhRNS_12TextProviderEiPKNS0_24DrawStringInternalStructE) for touchgfx::LCD::drawStringWidthInternal(short&, const touchgfx::Font*, unsigned char, touchgfx::TextProvider&, int, const touchgfx::LCD::DrawStringInternalStruct*)
    lcd.o(.data) refers to lcd.o(i._ZN8touchgfx3LCD21drawStringRTLInternalERsPKNS_4FontEhRNS_12TextProviderEiPKNS0_24DrawStringInternalStructE) for touchgfx::LCD::drawStringRTLInternal(short&, const touchgfx::Font*, unsigned char, touchgfx::TextProvider&, int, const touchgfx::LCD::DrawStringInternalStruct*)
    line.o(i._ZN8touchgfx4Line11updateStartENS_7CWRUtil2Q5ES2_) refers to line.o(i._ZN8touchgfx4Line17updateCachedShapeEv) for touchgfx::Line::updateCachedShape()
    line.o(i._ZN8touchgfx4Line11updateStartENS_7CWRUtil2Q5ES2_) refers to application.o(i._ZN8touchgfx4Rect11expandToFitERKS0_) for touchgfx::Rect::expandToFit(const touchgfx::Rect&)
    line.o(i._ZN8touchgfx4Line17updateCachedShapeEv) refers to line.o(i._ZNK8touchgfx7CWRUtil2Q5miERKS1_) for touchgfx::CWRUtil::Q5::operator -(const touchgfx::CWRUtil::Q5&) const
    line.o(i._ZN8touchgfx4Line17updateCachedShapeEv) refers to line.o(i._ZNK8touchgfx7CWRUtil2Q5mlERKS1_) for touchgfx::CWRUtil::Q5::operator *(const touchgfx::CWRUtil::Q5&) const
    line.o(i._ZN8touchgfx4Line17updateCachedShapeEv) refers to line.o(i._ZN8touchgfx7CWRUtil7sqrtQ10ENS0_3Q10E) for touchgfx::CWRUtil::sqrtQ10(touchgfx::CWRUtil::Q10)
    line.o(i._ZN8touchgfx4Line17updateCachedShapeEv) refers to line.o(i._ZNK8touchgfx7CWRUtil3Q10dvERKNS0_2Q5E) for touchgfx::CWRUtil::Q10::operator /(const touchgfx::CWRUtil::Q5&) const
    line.o(i._ZN8touchgfx4Line17updateCachedShapeEv) refers to line.o(i._ZNK8touchgfx7CWRUtil2Q5dvEi) for touchgfx::CWRUtil::Q5::operator /(int) const
    line.o(i._ZN8touchgfx4Line17updateCachedShapeEv) refers to line.o(i._ZNK8touchgfx7CWRUtil2Q5plERKS1_) for touchgfx::CWRUtil::Q5::operator +(const touchgfx::CWRUtil::Q5&) const
    line.o(i._ZN8touchgfx4Line18setLineEndingStyleENS0_17LINE_ENDING_STYLEE) refers to line.o(i._ZN8touchgfx4Line17updateCachedShapeEv) for touchgfx::Line::updateCachedShape()
    line.o(i._ZN8touchgfx4Line6setEndENS_7CWRUtil2Q5ES2_) refers to line.o(i._ZN8touchgfx4Line17updateCachedShapeEv) for touchgfx::Line::updateCachedShape()
    line.o(i._ZN8touchgfx4Line8setStartENS_7CWRUtil2Q5ES2_) refers to line.o(i._ZN8touchgfx4Line17updateCachedShapeEv) for touchgfx::Line::updateCachedShape()
    line.o(i._ZN8touchgfx4Line9updateEndENS_7CWRUtil2Q5ES2_) refers to line.o(i._ZN8touchgfx4Line17updateCachedShapeEv) for touchgfx::Line::updateCachedShape()
    line.o(i._ZN8touchgfx4Line9updateEndENS_7CWRUtil2Q5ES2_) refers to application.o(i._ZN8touchgfx4Rect11expandToFitERKS0_) for touchgfx::Rect::expandToFit(const touchgfx::Rect&)
    line.o(i._ZN8touchgfx4LineC1Ev) refers to canvaswidget.o(i._ZN8touchgfx12CanvasWidgetC2Ev) for touchgfx::CanvasWidget::CanvasWidget__sub_object()
    line.o(i._ZN8touchgfx4LineC1Ev) refers to aeabi_vec_ctor_nocookie_nodtor.o(i.__aeabi_vec_ctor_nocookie_nodtor) for __aeabi_vec_ctor_nocookie_nodtor
    line.o(i._ZN8touchgfx4LineC1Ev) refers to line.o(.constdata__ZTVN8touchgfx4LineE) for vtable for touchgfx::Line
    line.o(i._ZN8touchgfx4LineC1Ev) refers to line.o(i._ZN8touchgfx7CWRUtil2Q5C1Ev) for touchgfx::CWRUtil::Q5::Q5()
    line.o(i._ZNK8touchgfx4Line14getMinimalRectEv) refers to line.o(t._ZNK8touchgfx7CWRUtil2Q52toIiEET_v) for T1 touchgfx::CWRUtil::Q5::to<int>() const
    line.o(i._ZNK8touchgfx4Line16drawCanvasWidgetERKNS_4RectE) refers to canvas.o(i._ZN8touchgfx6CanvasC1EPKNS_12CanvasWidgetERKNS_4RectE) for touchgfx::Canvas::Canvas(const touchgfx::CanvasWidget*, const touchgfx::Rect&)
    line.o(i._ZNK8touchgfx4Line16drawCanvasWidgetERKNS_4RectE) refers to line.o(i._ZNK8touchgfx7CWRUtil2Q5miERKS1_) for touchgfx::CWRUtil::Q5::operator -(const touchgfx::CWRUtil::Q5&) const
    line.o(i._ZNK8touchgfx4Line16drawCanvasWidgetERKNS_4RectE) refers to line.o(i._ZN8touchgfx7CWRUtil5angleENS0_2Q5ES1_RS1_) for touchgfx::CWRUtil::angle(touchgfx::CWRUtil::Q5, touchgfx::CWRUtil::Q5, touchgfx::CWRUtil::Q5&)
    line.o(i._ZNK8touchgfx4Line16drawCanvasWidgetERKNS_4RectE) refers to canvas.o(i._ZN8touchgfx6Canvas6moveToENS_7CWRUtil2Q5ES2_) for touchgfx::Canvas::moveTo(touchgfx::CWRUtil::Q5, touchgfx::CWRUtil::Q5)
    line.o(i._ZNK8touchgfx4Line16drawCanvasWidgetERKNS_4RectE) refers to canvas.o(i._ZN8touchgfx6Canvas6lineToENS_7CWRUtil2Q5ES2_) for touchgfx::Canvas::lineTo(touchgfx::CWRUtil::Q5, touchgfx::CWRUtil::Q5)
    line.o(i._ZNK8touchgfx4Line16drawCanvasWidgetERKNS_4RectE) refers to line.o(i._ZN8touchgfx7CWRUtil4sineEi) for touchgfx::CWRUtil::sine(int)
    line.o(i._ZNK8touchgfx4Line16drawCanvasWidgetERKNS_4RectE) refers to line.o(i._ZNK8touchgfx7CWRUtil2Q5mlERKNS0_3Q15E) for touchgfx::CWRUtil::Q5::operator *(const touchgfx::CWRUtil::Q15&) const
    line.o(i._ZNK8touchgfx4Line16drawCanvasWidgetERKNS_4RectE) refers to line.o(i._ZNK8touchgfx7CWRUtil2Q5plERKS1_) for touchgfx::CWRUtil::Q5::operator +(const touchgfx::CWRUtil::Q5&) const
    line.o(i._ZNK8touchgfx4Line16drawCanvasWidgetERKNS_4RectE) refers to canvas.o(i._ZN8touchgfx6Canvas6renderEv) for touchgfx::Canvas::render()
    line.o(i._ZNK8touchgfx4Line16drawCanvasWidgetERKNS_4RectE) refers to canvas.o(i._ZN8touchgfx6CanvasD1Ev) for touchgfx::Canvas::~Canvas()
    line.o(.ARM.exidx) refers to line.o(i._ZN8touchgfx4LineC1Ev) for i._ZN8touchgfx4LineC1Ev
    line.o(.ARM.exidx) refers to line.o(i._ZN8touchgfx4Line17updateCachedShapeEv) for i._ZN8touchgfx4Line17updateCachedShapeEv
    line.o(.ARM.exidx) refers to line.o(i._ZN8touchgfx4Line8setStartENS_7CWRUtil2Q5ES2_) for i._ZN8touchgfx4Line8setStartENS_7CWRUtil2Q5ES2_
    line.o(.ARM.exidx) refers to line.o(i._ZN8touchgfx4Line11updateStartENS_7CWRUtil2Q5ES2_) for i._ZN8touchgfx4Line11updateStartENS_7CWRUtil2Q5ES2_
    line.o(.ARM.exidx) refers to line.o(i._ZN8touchgfx4Line6setEndENS_7CWRUtil2Q5ES2_) for i._ZN8touchgfx4Line6setEndENS_7CWRUtil2Q5ES2_
    line.o(.ARM.exidx) refers to line.o(i._ZN8touchgfx4Line9updateEndENS_7CWRUtil2Q5ES2_) for i._ZN8touchgfx4Line9updateEndENS_7CWRUtil2Q5ES2_
    line.o(.ARM.exidx) refers to line.o(i._ZN8touchgfx4Line18setLineEndingStyleENS0_17LINE_ENDING_STYLEE) for i._ZN8touchgfx4Line18setLineEndingStyleENS0_17LINE_ENDING_STYLEE
    line.o(.ARM.exidx) refers to line.o(i._ZNK8touchgfx4Line18getLineEndingStyleEv) for i._ZNK8touchgfx4Line18getLineEndingStyleEv
    line.o(.ARM.exidx) refers to line.o(i._ZN8touchgfx4Line15setCapPrecisionEi) for i._ZN8touchgfx4Line15setCapPrecisionEi
    line.o(.ARM.exidx) refers to line.o(i._ZNK8touchgfx4Line16drawCanvasWidgetERKNS_4RectE) for i._ZNK8touchgfx4Line16drawCanvasWidgetERKNS_4RectE
    line.o(.ARM.exidx) refers to line.o(i._ZNK8touchgfx4Line14getMinimalRectEv) for i._ZNK8touchgfx4Line14getMinimalRectEv
    painterrgb565.o(i._ZN8touchgfx13PainterRGB565C1ENS_9colortypeEh) refers to memseta.o(.text) for __aeabi_memclr4
    painterrgb565.o(i._ZN8touchgfx13PainterRGB565C1ENS_9colortypeEh) refers to abstractpainter.o(i._ZN8touchgfx15AbstractPainterC2Ev) for touchgfx::AbstractPainter::AbstractPainter__sub_object()
    painterrgb565.o(i._ZN8touchgfx13PainterRGB565C1ENS_9colortypeEh) refers to painterrgb565.o(i._ZN8touchgfx13PainterRGB5658setColorENS_9colortypeEh) for touchgfx::PainterRGB565::setColor(touchgfx::colortype, unsigned char)
    painterrgb565.o(i._ZN8touchgfx13PainterRGB565C1ENS_9colortypeEh) refers to painterrgb565.o(.constdata__ZTVN8touchgfx13PainterRGB565E) for vtable for touchgfx::PainterRGB565
    painterrgb565.o(.ARM.exidx) refers to painterrgb565.o(i._ZN8touchgfx13PainterRGB5658setColorENS_9colortypeEh) for i._ZN8touchgfx13PainterRGB5658setColorENS_9colortypeEh
    painterrgb565.o(.ARM.exidx) refers to painterrgb565.o(i._ZN8touchgfx13PainterRGB565C1ENS_9colortypeEh) for i._ZN8touchgfx13PainterRGB565C1ENS_9colortypeEh
    painterrgb565.o(.ARM.exidx) refers to painterrgb565.o(i._ZNK8touchgfx13PainterRGB5658getColorEv) for i._ZNK8touchgfx13PainterRGB5658getColorEv
    painterrgb565.o(.ARM.exidx) refers to painterrgb565.o(i._ZN8touchgfx13PainterRGB5658setAlphaEh) for i._ZN8touchgfx13PainterRGB5658setAlphaEh
    painterrgb565.o(.ARM.exidx) refers to painterrgb565.o(i._ZNK8touchgfx13PainterRGB5658getAlphaEv) for i._ZNK8touchgfx13PainterRGB5658getAlphaEv
    painterrgb565.o(.ARM.exidx) refers to painterrgb565.o(i._ZN8touchgfx13PainterRGB5656renderEPhiiijPKh) for i._ZN8touchgfx13PainterRGB5656renderEPhiiijPKh
    painterrgb565.o(.ARM.exidx) refers to painterrgb565.o(i._ZN8touchgfx13PainterRGB56510renderNextERhS1_S1_S1_) for i._ZN8touchgfx13PainterRGB56510renderNextERhS1_S1_S1_
    repeatbutton.o(i._ZN8touchgfx12RepeatButton16handleClickEventERKNS_10ClickEventE) refers to abstractbutton.o(i._ZN8touchgfx14AbstractButton16handleClickEventERKNS_10ClickEventE) for touchgfx::AbstractButton::handleClickEvent(const touchgfx::ClickEvent&)
    repeatbutton.o(i._ZN8touchgfx12RepeatButton16handleClickEventERKNS_10ClickEventE) refers to application.o(i._ZN8touchgfx11Application11getInstanceEv) for touchgfx::Application::getInstance()
    repeatbutton.o(i._ZN8touchgfx12RepeatButton16handleClickEventERKNS_10ClickEventE) refers to application.o(i._ZN8touchgfx11Application21unregisterTimerWidgetEPKNS_8DrawableE) for touchgfx::Application::unregisterTimerWidget(const touchgfx::Drawable*)
    repeatbutton.o(i._ZN8touchgfx12RepeatButton16handleClickEventERKNS_10ClickEventE) refers to application.o(i._ZN8touchgfx11Application19registerTimerWidgetEPNS_8DrawableE) for touchgfx::Application::registerTimerWidget(touchgfx::Drawable*)
    repeatbutton.o(i._ZN8touchgfx12RepeatButtonC1Ev) refers to channelcontrolpanel.o(i._ZN8touchgfx6ButtonC1Ev) for touchgfx::Button::Button()
    repeatbutton.o(i._ZN8touchgfx12RepeatButtonC1Ev) refers to repeatbutton.o(.constdata__ZTVN8touchgfx12RepeatButtonE) for vtable for touchgfx::RepeatButton
    repeatbutton.o(.ARM.exidx) refers to repeatbutton.o(i._ZN8touchgfx12RepeatButtonC1Ev) for i._ZN8touchgfx12RepeatButtonC1Ev
    repeatbutton.o(.ARM.exidx) refers to repeatbutton.o(i._ZN8touchgfx12RepeatButton8setDelayEi) for i._ZN8touchgfx12RepeatButton8setDelayEi
    repeatbutton.o(.ARM.exidx) refers to repeatbutton.o(i._ZN8touchgfx12RepeatButton8getDelayEv) for i._ZN8touchgfx12RepeatButton8getDelayEv
    repeatbutton.o(.ARM.exidx) refers to repeatbutton.o(i._ZN8touchgfx12RepeatButton11setIntervalEi) for i._ZN8touchgfx12RepeatButton11setIntervalEi
    repeatbutton.o(.ARM.exidx) refers to repeatbutton.o(i._ZN8touchgfx12RepeatButton11getIntervalEv) for i._ZN8touchgfx12RepeatButton11getIntervalEv
    repeatbutton.o(.ARM.exidx) refers to repeatbutton.o(i._ZN8touchgfx12RepeatButton16handleClickEventERKNS_10ClickEventE) for i._ZN8touchgfx12RepeatButton16handleClickEventERKNS_10ClickEventE
    repeatbutton.o(.ARM.exidx) refers to repeatbutton.o(i._ZN8touchgfx12RepeatButton15handleTickEventEv) for i._ZN8touchgfx12RepeatButton15handleTickEventEv
    screen.o(i._ZN8touchgfx6Screen15handleDragEventERKNS_9DragEventE) refers to drawable.o(i._ZNK8touchgfx8Drawable15getAbsoluteRectEv) for touchgfx::Drawable::getAbsoluteRect() const
    screen.o(i._ZN8touchgfx6Screen15handleDragEventERKNS_9DragEventE) refers to screen.o(i._ZNK8touchgfx4Rect9intersectEss) for touchgfx::Rect::intersect(short, short) const
    screen.o(i._ZN8touchgfx6Screen15handleDragEventERKNS_9DragEventE) refers to screen.o(i._ZN8touchgfx10ClickEventC1ENS0_14ClickEventTypeEsss) for touchgfx::ClickEvent::ClickEvent(touchgfx::ClickEvent::ClickEventType, short, short, short)
    screen.o(i._ZN8touchgfx6Screen15handleDragEventERKNS_9DragEventE) refers to screen.o(.constdata__ZTVN8touchgfx9DragEventE) for vtable for touchgfx::DragEvent
    screen.o(i._ZN8touchgfx6Screen16handleClickEventERKNS_10ClickEventE) refers to channelcontrolpanel.o(i._ZN8touchgfx4RectC1Essss) for touchgfx::Rect::Rect(short, short, short, short)
    screen.o(i._ZN8touchgfx6Screen16handleClickEventERKNS_10ClickEventE) refers to memcpya.o(.text) for __aeabi_memcpy4
    screen.o(i._ZN8touchgfx6Screen16handleClickEventERKNS_10ClickEventE) refers to screen.o(i._ZNK8touchgfx4Rect9intersectEss) for touchgfx::Rect::intersect(short, short) const
    screen.o(i._ZN8touchgfx6Screen16handleClickEventERKNS_10ClickEventE) refers to container.o(i._ZN8touchgfx9Container12getLastChildEssPPNS_8DrawableE) for touchgfx::Container::getLastChild(short, short, touchgfx::Drawable**)
    screen.o(i._ZN8touchgfx6Screen16handleClickEventERKNS_10ClickEventE) refers to drawable.o(i._ZNK8touchgfx8Drawable15getAbsoluteRectEv) for touchgfx::Drawable::getAbsoluteRect() const
    screen.o(i._ZN8touchgfx6Screen16handleClickEventERKNS_10ClickEventE) refers to screen.o(i._ZN8touchgfx10ClickEventC1ENS0_14ClickEventTypeEsss) for touchgfx::ClickEvent::ClickEvent(touchgfx::ClickEvent::ClickEventType, short, short, short)
    screen.o(i._ZN8touchgfx6Screen16handleClickEventERKNS_10ClickEventE) refers to hal.o(.data) for touchgfx::HAL::instance
    screen.o(i._ZN8touchgfx6Screen16handleClickEventERKNS_10ClickEventE) refers to screen.o(.constdata) for .constdata
    screen.o(i._ZN8touchgfx6Screen18handleGestureEventERKNS_12GestureEventE) refers to drawable.o(i._ZNK8touchgfx8Drawable15getAbsoluteRectEv) for touchgfx::Drawable::getAbsoluteRect() const
    screen.o(i._ZN8touchgfx6Screen18handleGestureEventERKNS_12GestureEventE) refers to screen.o(.constdata__ZTVN8touchgfx12GestureEventE) for vtable for touchgfx::GestureEvent
    screen.o(i._ZN8touchgfx6Screen4drawERNS_4RectE) refers to application.o(i._ZNK8touchgfx4RectanERKS0_) for touchgfx::Rect::operator &(const touchgfx::Rect&) const
    screen.o(i._ZN8touchgfx6Screen4drawERNS_4RectE) refers to screen.o(i._ZN8touchgfx6Screen9startSMOCERNS_4RectE) for touchgfx::Screen::startSMOC(touchgfx::Rect&)
    screen.o(i._ZN8touchgfx6Screen4drawERNS_4RectE) refers to container.o(i._ZNK8touchgfx9Container4drawERKNS_4RectE) for touchgfx::Container::draw(const touchgfx::Rect&) const
    screen.o(i._ZN8touchgfx6Screen4drawEv) refers to channelcontrolpanel.o(i._ZN8touchgfx4RectC1Essss) for touchgfx::Rect::Rect(short, short, short, short)
    screen.o(i._ZN8touchgfx6Screen4drawEv) refers to hal.o(.data) for touchgfx::HAL::DISPLAY_HEIGHT
    screen.o(i._ZN8touchgfx6Screen5JSMOCERKNS_4RectEPNS_8DrawableE) refers to lcd16bpp.o(i._ZNK8touchgfx4Rect7isEmptyEv) for touchgfx::Rect::isEmpty() const
    screen.o(i._ZN8touchgfx6Screen5JSMOCERKNS_4RectEPNS_8DrawableE) refers to screen.o(i._ZN8touchgfx8Drawable20getCachedVisibleRectEv) for touchgfx::Drawable::getCachedVisibleRect()
    screen.o(i._ZN8touchgfx6Screen5JSMOCERKNS_4RectEPNS_8DrawableE) refers to application.o(i._ZNK8touchgfx4Rect9intersectERKS0_) for touchgfx::Rect::intersect(const touchgfx::Rect&) const
    screen.o(i._ZN8touchgfx6Screen5JSMOCERKNS_4RectEPNS_8DrawableE) refers to application.o(i._ZN8touchgfx4RectC1Ev) for touchgfx::Rect::Rect()
    screen.o(i._ZN8touchgfx6Screen5JSMOCERKNS_4RectEPNS_8DrawableE) refers to screen.o(i._ZN8touchgfx8Drawable13getCachedAbsYEv) for touchgfx::Drawable::getCachedAbsY()
    screen.o(i._ZN8touchgfx6Screen5JSMOCERKNS_4RectEPNS_8DrawableE) refers to screen.o(i._ZN8touchgfx8Drawable13getCachedAbsXEv) for touchgfx::Drawable::getCachedAbsX()
    screen.o(i._ZN8touchgfx6Screen5JSMOCERKNS_4RectEPNS_8DrawableE) refers to channelcontrolpanel.o(i._ZN8touchgfx4RectC1Essss) for touchgfx::Rect::Rect(short, short, short, short)
    screen.o(i._ZN8touchgfx6Screen5JSMOCERKNS_4RectEPNS_8DrawableE) refers to application.o(i._ZNK8touchgfx4RectanERKS0_) for touchgfx::Rect::operator &(const touchgfx::Rect&) const
    screen.o(i._ZN8touchgfx6Screen5JSMOCERKNS_4RectEPNS_8DrawableE) refers to lcd16bpp.o(i._ZNK8touchgfx4Rect5rightEv) for touchgfx::Rect::right() const
    screen.o(i._ZN8touchgfx6Screen5JSMOCERKNS_4RectEPNS_8DrawableE) refers to lcd16bpp.o(i._ZNK8touchgfx4Rect6bottomEv) for touchgfx::Rect::bottom() const
    screen.o(i._ZN8touchgfx6Screen9startSMOCERNS_4RectE) refers to container.o(i._ZN8touchgfx9Container14setupDrawChainERKNS_4RectEPPNS_8DrawableE) for touchgfx::Container::setupDrawChain(const touchgfx::Rect&, touchgfx::Drawable**)
    screen.o(i._ZN8touchgfx6Screen9startSMOCERNS_4RectE) refers to screen.o(i._ZN8touchgfx6Screen5JSMOCERKNS_4RectEPNS_8DrawableE) for touchgfx::Screen::JSMOC(const touchgfx::Rect&, touchgfx::Drawable*)
    screen.o(i._ZN8touchgfx6ScreenC1Ev) refers to channelcontrolpanel.o(i._ZN8touchgfx4RectC1Essss) for touchgfx::Rect::Rect(short, short, short, short)
    screen.o(i._ZN8touchgfx6ScreenC1Ev) refers to application.o(i._ZN8touchgfx4RectC1Ev) for touchgfx::Rect::Rect()
    screen.o(i._ZN8touchgfx6ScreenC1Ev) refers to screen.o(.constdata__ZTVN8touchgfx6ScreenE) for vtable for touchgfx::Screen
    screen.o(i._ZN8touchgfx6ScreenC1Ev) refers to drawable.o(.constdata__ZTVN8touchgfx8DrawableE) for vtable for touchgfx::Drawable
    screen.o(i._ZN8touchgfx6ScreenC1Ev) refers to container.o(.constdata__ZTVN8touchgfx9ContainerE) for vtable for touchgfx::Container
    screen.o(i._ZN8touchgfx6ScreenC1Ev) refers to hal.o(.data) for touchgfx::HAL::DISPLAY_WIDTH
    screen.o(.ARM.exidx) refers to screen.o(i._ZN8touchgfx6ScreenC1Ev) for i._ZN8touchgfx6ScreenC1Ev
    screen.o(.ARM.exidx) refers to screen.o(i._ZN8touchgfx6Screen4drawEv) for i._ZN8touchgfx6Screen4drawEv
    screen.o(.ARM.exidx) refers to screen.o(i._ZN8touchgfx6Screen5JSMOCERKNS_4RectEPNS_8DrawableE) for i._ZN8touchgfx6Screen5JSMOCERKNS_4RectEPNS_8DrawableE
    screen.o(.ARM.exidx) refers to screen.o(i._ZN8touchgfx6Screen9startSMOCERNS_4RectE) for i._ZN8touchgfx6Screen9startSMOCERNS_4RectE
    screen.o(.ARM.exidx) refers to screen.o(i._ZN8touchgfx6Screen4drawERNS_4RectE) for i._ZN8touchgfx6Screen4drawERNS_4RectE
    screen.o(.ARM.exidx) refers to screen.o(i._ZN8touchgfx6Screen16handleClickEventERKNS_10ClickEventE) for i._ZN8touchgfx6Screen16handleClickEventERKNS_10ClickEventE
    screen.o(.ARM.exidx) refers to screen.o(i._ZN8touchgfx6Screen15handleDragEventERKNS_9DragEventE) for i._ZN8touchgfx6Screen15handleDragEventERKNS_9DragEventE
    screen.o(.ARM.exidx) refers to screen.o(i._ZN8touchgfx6Screen18handleGestureEventERKNS_12GestureEventE) for i._ZN8touchgfx6Screen18handleGestureEventERKNS_12GestureEventE
    screen.o(.ARM.exidx) refers to screen.o(i._ZN8touchgfx6Screen14bindTransitionERNS_10TransitionE) for i._ZN8touchgfx6Screen14bindTransitionERNS_10TransitionE
    screen.o(.ARM.exidx) refers to screen.o(i._ZN8touchgfx6Screen14useSMOCDrawingEb) for i._ZN8touchgfx6Screen14useSMOCDrawingEb
    scrollablecontainer.o(i._ZN8touchgfx19ScrollableContainer15handleDragEventERKNS_9DragEventE) refers to drawable.o(i._ZNK8touchgfx8Drawable15getAbsoluteRectEv) for touchgfx::Drawable::getAbsoluteRect() const
    scrollablecontainer.o(i._ZN8touchgfx19ScrollableContainer15handleDragEventERKNS_9DragEventE) refers to scrollablecontainer.o(i._ZN8touchgfx9DragEventC1ENS0_13DragEventTypeEssss) for touchgfx::DragEvent::DragEvent(touchgfx::DragEvent::DragEventType, short, short, short, short)
    scrollablecontainer.o(i._ZN8touchgfx19ScrollableContainer15handleDragEventERKNS_9DragEventE) refers to scrollablecontainer.o(i._ZNK8touchgfx9DragEvent9getDeltaXEv) for touchgfx::DragEvent::getDeltaX() const
    scrollablecontainer.o(i._ZN8touchgfx19ScrollableContainer15handleDragEventERKNS_9DragEventE) refers to scrollablecontainer.o(t._ZN8touchgfx3absIsEET_S1_) for T1 touchgfx::abs<short>(T1)
    scrollablecontainer.o(i._ZN8touchgfx19ScrollableContainer15handleDragEventERKNS_9DragEventE) refers to scrollablecontainer.o(i._ZNK8touchgfx9DragEvent9getDeltaYEv) for touchgfx::DragEvent::getDeltaY() const
    scrollablecontainer.o(i._ZN8touchgfx19ScrollableContainer15handleDragEventERKNS_9DragEventE) refers to container.o(i._ZN8touchgfx9Container12getLastChildEssPPNS_8DrawableE) for touchgfx::Container::getLastChild(short, short, touchgfx::Drawable**)
    scrollablecontainer.o(i._ZN8touchgfx19ScrollableContainer15handleDragEventERKNS_9DragEventE) refers to screen.o(i._ZN8touchgfx10ClickEventC1ENS0_14ClickEventTypeEsss) for touchgfx::ClickEvent::ClickEvent(touchgfx::ClickEvent::ClickEventType, short, short, short)
    scrollablecontainer.o(i._ZN8touchgfx19ScrollableContainer15handleDragEventERKNS_9DragEventE) refers to screen.o(.constdata__ZTVN8touchgfx9DragEventE) for vtable for touchgfx::DragEvent
    scrollablecontainer.o(i._ZN8touchgfx19ScrollableContainer15handleTickEventEv) refers to easingequations.o(i._ZN8touchgfx15EasingEquations12cubicEaseOutEtsst) for touchgfx::EasingEquations::cubicEaseOut(unsigned short, short, short, unsigned short)
    scrollablecontainer.o(i._ZN8touchgfx19ScrollableContainer15handleTickEventEv) refers to application.o(i._ZN8touchgfx11Application11getInstanceEv) for touchgfx::Application::getInstance()
    scrollablecontainer.o(i._ZN8touchgfx19ScrollableContainer15handleTickEventEv) refers to application.o(i._ZN8touchgfx11Application21unregisterTimerWidgetEPKNS_8DrawableE) for touchgfx::Application::unregisterTimerWidget(const touchgfx::Drawable*)
    scrollablecontainer.o(i._ZN8touchgfx19ScrollableContainer16handleClickEventERKNS_10ClickEventE) refers to drawable.o(i._ZNK8touchgfx8Drawable15getAbsoluteRectEv) for touchgfx::Drawable::getAbsoluteRect() const
    scrollablecontainer.o(i._ZN8touchgfx19ScrollableContainer16handleClickEventERKNS_10ClickEventE) refers to screen.o(i._ZN8touchgfx10ClickEventC1ENS0_14ClickEventTypeEsss) for touchgfx::ClickEvent::ClickEvent(touchgfx::ClickEvent::ClickEventType, short, short, short)
    scrollablecontainer.o(i._ZN8touchgfx19ScrollableContainer16handleClickEventERKNS_10ClickEventE) refers to application.o(i._ZN8touchgfx11Application11getInstanceEv) for touchgfx::Application::getInstance()
    scrollablecontainer.o(i._ZN8touchgfx19ScrollableContainer16handleClickEventERKNS_10ClickEventE) refers to application.o(i._ZN8touchgfx11Application21unregisterTimerWidgetEPKNS_8DrawableE) for touchgfx::Application::unregisterTimerWidget(const touchgfx::Drawable*)
    scrollablecontainer.o(i._ZN8touchgfx19ScrollableContainer16handleClickEventERKNS_10ClickEventE) refers to channelcontrolpanel.o(i._ZN8touchgfx4RectC1Essss) for touchgfx::Rect::Rect(short, short, short, short)
    scrollablecontainer.o(i._ZN8touchgfx19ScrollableContainer16handleClickEventERKNS_10ClickEventE) refers to memcpya.o(.text) for __aeabi_memcpy4
    scrollablecontainer.o(i._ZN8touchgfx19ScrollableContainer16handleClickEventERKNS_10ClickEventE) refers to lcd16bpp.o(i._ZNK8touchgfx4Rect5rightEv) for touchgfx::Rect::right() const
    scrollablecontainer.o(i._ZN8touchgfx19ScrollableContainer16handleClickEventERKNS_10ClickEventE) refers to lcd16bpp.o(i._ZNK8touchgfx4Rect6bottomEv) for touchgfx::Rect::bottom() const
    scrollablecontainer.o(i._ZN8touchgfx19ScrollableContainer16handleClickEventERKNS_10ClickEventE) refers to container.o(i._ZN8touchgfx9Container12getLastChildEssPPNS_8DrawableE) for touchgfx::Container::getLastChild(short, short, touchgfx::Drawable**)
    scrollablecontainer.o(i._ZN8touchgfx19ScrollableContainer16handleClickEventERKNS_10ClickEventE) refers to scrollablecontainer.o(i._ZN8touchgfx19ScrollableContainer20invalidateScrollbarsEv) for touchgfx::ScrollableContainer::invalidateScrollbars()
    scrollablecontainer.o(i._ZN8touchgfx19ScrollableContainer16handleClickEventERKNS_10ClickEventE) refers to hal.o(.data) for touchgfx::HAL::instance
    scrollablecontainer.o(i._ZN8touchgfx19ScrollableContainer16handleClickEventERKNS_10ClickEventE) refers to scrollablecontainer.o(.constdata) for .constdata
    scrollablecontainer.o(i._ZN8touchgfx19ScrollableContainer18handleGestureEventERKNS_12GestureEventE) refers to scrollablecontainer.o(t._ZN8touchgfx3absIsEET_S1_) for T1 touchgfx::abs<short>(T1)
    scrollablecontainer.o(i._ZN8touchgfx19ScrollableContainer18handleGestureEventERKNS_12GestureEventE) refers to application.o(i._ZN8touchgfx11Application11getInstanceEv) for touchgfx::Application::getInstance()
    scrollablecontainer.o(i._ZN8touchgfx19ScrollableContainer18handleGestureEventERKNS_12GestureEventE) refers to application.o(i._ZN8touchgfx11Application19registerTimerWidgetEPNS_8DrawableE) for touchgfx::Application::registerTimerWidget(touchgfx::Drawable*)
    scrollablecontainer.o(i._ZN8touchgfx19ScrollableContainer18handleGestureEventERKNS_12GestureEventE) refers to screen.o(i._ZN8touchgfx10ClickEventC1ENS0_14ClickEventTypeEsss) for touchgfx::ClickEvent::ClickEvent(touchgfx::ClickEvent::ClickEventType, short, short, short)
    scrollablecontainer.o(i._ZN8touchgfx19ScrollableContainer20childGeometryChangedEv) refers to lcd16bpp.o(i._ZNK8touchgfx4Rect6bottomEv) for touchgfx::Rect::bottom() const
    scrollablecontainer.o(i._ZN8touchgfx19ScrollableContainer20childGeometryChangedEv) refers to lcd16bpp.o(i._ZNK8touchgfx4Rect5rightEv) for touchgfx::Rect::right() const
    scrollablecontainer.o(i._ZN8touchgfx19ScrollableContainer20childGeometryChangedEv) refers to scrollablecontainer.o(i._ZN8touchgfx19ScrollableContainer20invalidateScrollbarsEv) for touchgfx::ScrollableContainer::invalidateScrollbars()
    scrollablecontainer.o(i._ZN8touchgfx19ScrollableContainer20invalidateScrollbarsEv) refers to scrollablecontainer.o(i._ZNK8touchgfx19ScrollableContainer13getXScrollbarEv) for touchgfx::ScrollableContainer::getXScrollbar() const
    scrollablecontainer.o(i._ZN8touchgfx19ScrollableContainer20invalidateScrollbarsEv) refers to scrollablecontainer.o(i._ZNK8touchgfx19ScrollableContainer13getYScrollbarEv) for touchgfx::ScrollableContainer::getYScrollbar() const
    scrollablecontainer.o(i._ZN8touchgfx19ScrollableContainer20invalidateScrollbarsEv) refers to scrollablecontainer.o(i._ZNK8touchgfx19ScrollableContainer10getXBorderERKNS_4RectES3_) for touchgfx::ScrollableContainer::getXBorder(const touchgfx::Rect&, const touchgfx::Rect&) const
    scrollablecontainer.o(i._ZN8touchgfx19ScrollableContainer20invalidateScrollbarsEv) refers to scrollablecontainer.o(i._ZNK8touchgfx19ScrollableContainer10getYBorderERKNS_4RectES3_) for touchgfx::ScrollableContainer::getYBorder(const touchgfx::Rect&, const touchgfx::Rect&) const
    scrollablecontainer.o(i._ZN8touchgfx19ScrollableContainer20invalidateScrollbarsEv) refers to channelcontrolpanel.o(i._ZN8touchgfx8Drawable11setPositionEssss) for touchgfx::Drawable::setPosition(short, short, short, short)
    scrollablecontainer.o(i._ZN8touchgfx19ScrollableContainer20invalidateScrollbarsEv) refers to lcd16bpp.o(i._ZNK8touchgfx4Rect7isEmptyEv) for touchgfx::Rect::isEmpty() const
    scrollablecontainer.o(i._ZN8touchgfx19ScrollableContainer3addERNS_8DrawableE) refers to container.o(i._ZN8touchgfx9Container3addERNS_8DrawableE) for touchgfx::Container::add(touchgfx::Drawable&)
    scrollablecontainer.o(i._ZN8touchgfx19ScrollableContainer5resetEv) refers to scrollablecontainer.o(i._ZN8touchgfx19ScrollableContainer20invalidateScrollbarsEv) for touchgfx::ScrollableContainer::invalidateScrollbars()
    scrollablecontainer.o(i._ZN8touchgfx19ScrollableContainer8doScrollEss) refers to lcd16bpp.o(i._ZNK8touchgfx4Rect5rightEv) for touchgfx::Rect::right() const
    scrollablecontainer.o(i._ZN8touchgfx19ScrollableContainer8doScrollEss) refers to lcd16bpp.o(i._ZNK8touchgfx4Rect6bottomEv) for touchgfx::Rect::bottom() const
    scrollablecontainer.o(i._ZN8touchgfx19ScrollableContainer8doScrollEss) refers to scrollablecontainer.o(i._ZN8touchgfx19ScrollableContainer20invalidateScrollbarsEv) for touchgfx::ScrollableContainer::invalidateScrollbars()
    scrollablecontainer.o(i._ZN8touchgfx19ScrollableContainerC1Ev) refers to customlistelement.o(i._ZN8touchgfx8DrawableC2Ev) for touchgfx::Drawable::Drawable__sub_object()
    scrollablecontainer.o(i._ZN8touchgfx19ScrollableContainerC1Ev) refers to color.o(i._ZN8touchgfx5Color20getColorFrom24BitRGBEhhh) for touchgfx::Color::getColorFrom24BitRGB(unsigned char, unsigned char, unsigned char)
    scrollablecontainer.o(i._ZN8touchgfx19ScrollableContainerC1Ev) refers to scrollablecontainer.o(i._ZN8touchgfx3BoxC1EttNS_9colortypeEh) for touchgfx::Box::Box(unsigned short, unsigned short, touchgfx::colortype, unsigned char)
    scrollablecontainer.o(i._ZN8touchgfx19ScrollableContainerC1Ev) refers to scrollablecontainer.o(.constdata__ZTVN8touchgfx19ScrollableContainerE) for vtable for touchgfx::ScrollableContainer
    scrollablecontainer.o(i._ZNK8touchgfx19ScrollableContainer10getXBorderERKNS_4RectES3_) refers to channelcontrolpanel.o(i._ZN8touchgfx4RectC1Essss) for touchgfx::Rect::Rect(short, short, short, short)
    scrollablecontainer.o(i._ZNK8touchgfx19ScrollableContainer10getXBorderERKNS_4RectES3_) refers to lcd16bpp.o(i._ZNK8touchgfx4Rect7isEmptyEv) for touchgfx::Rect::isEmpty() const
    scrollablecontainer.o(i._ZNK8touchgfx19ScrollableContainer10getYBorderERKNS_4RectES3_) refers to channelcontrolpanel.o(i._ZN8touchgfx4RectC1Essss) for touchgfx::Rect::Rect(short, short, short, short)
    scrollablecontainer.o(i._ZNK8touchgfx19ScrollableContainer10getYBorderERKNS_4RectES3_) refers to lcd16bpp.o(i._ZNK8touchgfx4Rect7isEmptyEv) for touchgfx::Rect::isEmpty() const
    scrollablecontainer.o(i._ZNK8touchgfx19ScrollableContainer13getXScrollbarEv) refers to channelcontrolpanel.o(i._ZN8touchgfx4RectC1Essss) for touchgfx::Rect::Rect(short, short, short, short)
    scrollablecontainer.o(i._ZNK8touchgfx19ScrollableContainer13getXScrollbarEv) refers to lcd16bpp.o(i._ZNK8touchgfx4Rect5rightEv) for touchgfx::Rect::right() const
    scrollablecontainer.o(i._ZNK8touchgfx19ScrollableContainer13getYScrollbarEv) refers to channelcontrolpanel.o(i._ZN8touchgfx4RectC1Essss) for touchgfx::Rect::Rect(short, short, short, short)
    scrollablecontainer.o(i._ZNK8touchgfx19ScrollableContainer13getYScrollbarEv) refers to lcd16bpp.o(i._ZNK8touchgfx4Rect6bottomEv) for touchgfx::Rect::bottom() const
    scrollablecontainer.o(i._ZNK8touchgfx19ScrollableContainer16getContainedAreaEv) refers to channelcontrolpanel.o(i._ZN8touchgfx4RectC1Essss) for touchgfx::Rect::Rect(short, short, short, short)
    scrollablecontainer.o(i._ZNK8touchgfx19ScrollableContainer16getContainedAreaEv) refers to application.o(i._ZN8touchgfx4Rect11expandToFitERKS0_) for touchgfx::Rect::expandToFit(const touchgfx::Rect&)
    scrollablecontainer.o(.ARM.exidx) refers to scrollablecontainer.o(i._ZN8touchgfx19ScrollableContainerC1Ev) for i._ZN8touchgfx19ScrollableContainerC1Ev
    scrollablecontainer.o(.ARM.exidx) refers to scrollablecontainer.o(i._ZN8touchgfx19ScrollableContainer3addERNS_8DrawableE) for i._ZN8touchgfx19ScrollableContainer3addERNS_8DrawableE
    scrollablecontainer.o(.ARM.exidx) refers to scrollablecontainer.o(i._ZNK8touchgfx19ScrollableContainer10getYBorderERKNS_4RectES3_) for i._ZNK8touchgfx19ScrollableContainer10getYBorderERKNS_4RectES3_
    scrollablecontainer.o(.ARM.exidx) refers to scrollablecontainer.o(i._ZNK8touchgfx19ScrollableContainer10getXBorderERKNS_4RectES3_) for i._ZNK8touchgfx19ScrollableContainer10getXBorderERKNS_4RectES3_
    scrollablecontainer.o(.ARM.exidx) refers to scrollablecontainer.o(i._ZNK8touchgfx19ScrollableContainer13getYScrollbarEv) for i._ZNK8touchgfx19ScrollableContainer13getYScrollbarEv
    scrollablecontainer.o(.ARM.exidx) refers to scrollablecontainer.o(i._ZNK8touchgfx19ScrollableContainer13getXScrollbarEv) for i._ZNK8touchgfx19ScrollableContainer13getXScrollbarEv
    scrollablecontainer.o(.ARM.exidx) refers to scrollablecontainer.o(i._ZN8touchgfx19ScrollableContainer20invalidateScrollbarsEv) for i._ZN8touchgfx19ScrollableContainer20invalidateScrollbarsEv
    scrollablecontainer.o(.ARM.exidx) refers to scrollablecontainer.o(i._ZN8touchgfx19ScrollableContainer16handleClickEventERKNS_10ClickEventE) for i._ZN8touchgfx19ScrollableContainer16handleClickEventERKNS_10ClickEventE
    scrollablecontainer.o(.ARM.exidx) refers to scrollablecontainer.o(i._ZN8touchgfx19ScrollableContainer15handleDragEventERKNS_9DragEventE) for i._ZN8touchgfx19ScrollableContainer15handleDragEventERKNS_9DragEventE
    scrollablecontainer.o(.ARM.exidx) refers to scrollablecontainer.o(i._ZN8touchgfx19ScrollableContainer18handleGestureEventERKNS_12GestureEventE) for i._ZN8touchgfx19ScrollableContainer18handleGestureEventERKNS_12GestureEventE
    scrollablecontainer.o(.ARM.exidx) refers to scrollablecontainer.o(i._ZN8touchgfx19ScrollableContainer15handleTickEventEv) for i._ZN8touchgfx19ScrollableContainer15handleTickEventEv
    scrollablecontainer.o(.ARM.exidx) refers to scrollablecontainer.o(i._ZNK8touchgfx19ScrollableContainer16getContainedAreaEv) for i._ZNK8touchgfx19ScrollableContainer16getContainedAreaEv
    scrollablecontainer.o(.ARM.exidx) refers to scrollablecontainer.o(i._ZN8touchgfx19ScrollableContainer20childGeometryChangedEv) for i._ZN8touchgfx19ScrollableContainer20childGeometryChangedEv
    scrollablecontainer.o(.ARM.exidx) refers to scrollablecontainer.o(i._ZN8touchgfx19ScrollableContainer5resetEv) for i._ZN8touchgfx19ScrollableContainer5resetEv
    scrollablecontainer.o(.ARM.exidx) refers to scrollablecontainer.o(i._ZN8touchgfx19ScrollableContainer20moveChildrenRelativeEss) for i._ZN8touchgfx19ScrollableContainer20moveChildrenRelativeEss
    scrollablecontainer.o(.ARM.exidx) refers to scrollablecontainer.o(i._ZN8touchgfx19ScrollableContainer18setScrollbarsColorENS_9colortypeE) for i._ZN8touchgfx19ScrollableContainer18setScrollbarsColorENS_9colortypeE
    scrollablecontainer.o(.ARM.exidx) refers to scrollablecontainer.o(i._ZN8touchgfx19ScrollableContainer18setScrollbarsAlphaEh) for i._ZN8touchgfx19ScrollableContainer18setScrollbarsAlphaEh
    scrollablecontainer.o(.ARM.exidx) refers to scrollablecontainer.o(i._ZN8touchgfx19ScrollableContainer19setScrollbarPaddingEh) for i._ZN8touchgfx19ScrollableContainer19setScrollbarPaddingEh
    scrollablecontainer.o(.ARM.exidx) refers to scrollablecontainer.o(i._ZN8touchgfx19ScrollableContainer17setScrollbarWidthEh) for i._ZN8touchgfx19ScrollableContainer17setScrollbarWidthEh
    scrollablecontainer.o(.ARM.exidx) refers to scrollablecontainer.o(i._ZN8touchgfx19ScrollableContainer8doScrollEss) for i._ZN8touchgfx19ScrollableContainer8doScrollEss
    slidemenu.o(i._ZN8touchgfx9SlideMenu14animateToStateENS0_5StateE) refers to slidemenu.o(t._ZN8touchgfx12MoveAnimatorINS_9ContainerEE18startMoveAnimationEsstPFstsstES4_) for touchgfx::MoveAnimator<touchgfx::Container>::startMoveAnimation(short, short, unsigned short, short(*)(unsigned short, short, short, unsigned short), short(*)(unsigned short, short, short, unsigned short))
    slidemenu.o(i._ZN8touchgfx9SlideMenu3addERNS_8DrawableE) refers to container.o(i._ZN8touchgfx9Container3addERNS_8DrawableE) for touchgfx::Container::add(touchgfx::Drawable&)
    slidemenu.o(i._ZN8touchgfx9SlideMenu5setupENS0_15ExpandDirectionERKNS_6BitmapES4_S4_) refers to bitmap.o(i._ZNK8touchgfx6Bitmap8getWidthEv) for touchgfx::Bitmap::getWidth() const
    slidemenu.o(i._ZN8touchgfx9SlideMenu5setupENS0_15ExpandDirectionERKNS_6BitmapES4_S4_) refers to bitmap.o(i._ZNK8touchgfx6Bitmap9getHeightEv) for touchgfx::Bitmap::getHeight() const
    slidemenu.o(i._ZN8touchgfx9SlideMenu5setupENS0_15ExpandDirectionERKNS_6BitmapES4_S4_ssss) refers to image.o(i._ZN8touchgfx5Image9setBitmapERKNS_6BitmapE) for touchgfx::Image::setBitmap(const touchgfx::Bitmap&)
    slidemenu.o(i._ZN8touchgfx9SlideMenu5setupENS0_15ExpandDirectionERKNS_6BitmapES4_S4_ssss) refers to channelcontrolpanel.o(i._ZN8touchgfx8Drawable5setXYEss) for touchgfx::Drawable::setXY(short, short)
    slidemenu.o(i._ZN8touchgfx9SlideMenu5setupENS0_15ExpandDirectionERKNS_6BitmapES4_S4_ssss) refers to button.o(i._ZN8touchgfx6Button10setBitmapsERKNS_6BitmapES3_) for touchgfx::Button::setBitmaps(const touchgfx::Bitmap&, const touchgfx::Bitmap&)
    slidemenu.o(i._ZN8touchgfx9SlideMenu5setupENS0_15ExpandDirectionERKNS_6BitmapES4_S4_ssss) refers to application.o(i._ZN8touchgfx4Rect11expandToFitERKS0_) for touchgfx::Rect::expandToFit(const touchgfx::Rect&)
    slidemenu.o(i._ZN8touchgfx9SlideMenu5setupENS0_15ExpandDirectionERKNS_6BitmapES4_S4_ssss) refers to lcd16bpp.o(i._ZNK8touchgfx4Rect5rightEv) for touchgfx::Rect::right() const
    slidemenu.o(i._ZN8touchgfx9SlideMenu5setupENS0_15ExpandDirectionERKNS_6BitmapES4_S4_ssss) refers to lcd16bpp.o(i._ZNK8touchgfx4Rect6bottomEv) for touchgfx::Rect::bottom() const
    slidemenu.o(i._ZN8touchgfx9SlideMenu6removeERNS_8DrawableE) refers to container.o(i._ZN8touchgfx9Container6removeERNS_8DrawableE) for touchgfx::Container::remove(touchgfx::Drawable&)
    slidemenu.o(i._ZN8touchgfx9SlideMenu8setStateENS0_5StateE) refers to channelcontrolpanel.o(i._ZN8touchgfx8Drawable6moveToEss) for touchgfx::Drawable::moveTo(short, short)
    slidemenu.o(i._ZN8touchgfx9SlideMenuC1Ev) refers to channelcontrolpanel.o(i._ZN8touchgfx9ContainerC1Ev) for touchgfx::Container::Container()
    slidemenu.o(i._ZN8touchgfx9SlideMenuC1Ev) refers to channelcontrolpanel.o(i._ZN8touchgfx6WidgetC2Ev) for touchgfx::Widget::Widget__sub_object()
    slidemenu.o(i._ZN8touchgfx9SlideMenuC1Ev) refers to image.o(i._ZN8touchgfx5Image9setBitmapERKNS_6BitmapE) for touchgfx::Image::setBitmap(const touchgfx::Bitmap&)
    slidemenu.o(i._ZN8touchgfx9SlideMenuC1Ev) refers to application.o(i._ZN8touchgfx11Application11getInstanceEv) for touchgfx::Application::getInstance()
    slidemenu.o(i._ZN8touchgfx9SlideMenuC1Ev) refers to application.o(i._ZN8touchgfx11Application19registerTimerWidgetEPNS_8DrawableE) for touchgfx::Application::registerTimerWidget(touchgfx::Drawable*)
    slidemenu.o(i._ZN8touchgfx9SlideMenuC1Ev) refers to container.o(i._ZN8touchgfx9Container3addERNS_8DrawableE) for touchgfx::Container::add(touchgfx::Drawable&)
    slidemenu.o(i._ZN8touchgfx9SlideMenuC1Ev) refers to slidemenu.o(.constdata__ZTVN8touchgfx9SlideMenuE) for vtable for touchgfx::SlideMenu
    slidemenu.o(i._ZN8touchgfx9SlideMenuC1Ev) refers to slidemenu.o(.constdata__ZTVN8touchgfx12MoveAnimatorINS_9ContainerEEE) for vtable for touchgfx::MoveAnimator<touchgfx::Container>
    slidemenu.o(i._ZN8touchgfx9SlideMenuC1Ev) refers to button.o(.constdata__ZTVN8touchgfx6ButtonE) for vtable for touchgfx::Button
    slidemenu.o(i._ZN8touchgfx9SlideMenuC1Ev) refers to image.o(.constdata__ZTVN8touchgfx5ImageE) for vtable for touchgfx::Image
    slidemenu.o(i._ZN8touchgfx9SlideMenuC1Ev) refers to slidemenu.o(.data) for .data
    slidemenu.o(i._ZN8touchgfx9SlideMenuC1Ev) refers to slidemenu.o(.constdata__ZTVN8touchgfx8CallbackINS_9SlideMenuERKNS_14AbstractButtonEvEE) for vtable for touchgfx::Callback<touchgfx::SlideMenu, const touchgfx::AbstractButton&, void>
    slidemenu.o(i._ZN8touchgfx9SlideMenuC1Ev) refers to slidemenu.o(.constdata__ZTVN8touchgfx8CallbackINS_9SlideMenuERKNS_12MoveAnimatorINS_9ContainerEEEvEE) for vtable for touchgfx::Callback<touchgfx::SlideMenu, const touchgfx::MoveAnimator<touchgfx::Container>&, void>
    slidemenu.o(i._ZN8touchgfx9SlideMenuC1Ev) refers to easingequations.o(i._ZN8touchgfx15EasingEquations14cubicEaseInOutEtsst) for touchgfx::EasingEquations::cubicEaseInOut(unsigned short, short, short, unsigned short)
    slidemenu.o(i._ZN8touchgfx9SlideMenuD0Ev) refers to slidemenu.o(i._ZN8touchgfx9SlideMenuD1Ev) for touchgfx::SlideMenu::~SlideMenu()
    slidemenu.o(i._ZN8touchgfx9SlideMenuD0Ev) refers to delete.o(i._ZdlPv) for operator delete (void*)
    slidemenu.o(i._ZN8touchgfx9SlideMenuD1Ev) refers to application.o(i._ZN8touchgfx11Application11getInstanceEv) for touchgfx::Application::getInstance()
    slidemenu.o(i._ZN8touchgfx9SlideMenuD1Ev) refers to application.o(i._ZN8touchgfx11Application21unregisterTimerWidgetEPKNS_8DrawableE) for touchgfx::Application::unregisterTimerWidget(const touchgfx::Drawable*)
    slidemenu.o(i._ZN8touchgfx9SlideMenuD1Ev) refers to slidemenu.o(.constdata__ZTVN8touchgfx9SlideMenuE) for vtable for touchgfx::SlideMenu
    slidemenu.o(.ARM.exidx) refers to slidemenu.o(i._ZN8touchgfx9SlideMenuC1Ev) for i._ZN8touchgfx9SlideMenuC1Ev
    slidemenu.o(.ARM.exidx) refers to slidemenu.o(i._ZN8touchgfx9SlideMenuD1Ev) for i._ZN8touchgfx9SlideMenuD1Ev
    slidemenu.o(.ARM.exidx) refers to slidemenu.o(i._ZN8touchgfx9SlideMenuD0Ev) for i._ZN8touchgfx9SlideMenuD0Ev
    slidemenu.o(.ARM.exidx) refers to slidemenu.o(i._ZN8touchgfx9SlideMenu5setupENS0_15ExpandDirectionERKNS_6BitmapES4_S4_) for i._ZN8touchgfx9SlideMenu5setupENS0_15ExpandDirectionERKNS_6BitmapES4_S4_
    slidemenu.o(.ARM.exidx) refers to slidemenu.o(i._ZN8touchgfx9SlideMenu5setupENS0_15ExpandDirectionERKNS_6BitmapES4_S4_ssss) for i._ZN8touchgfx9SlideMenu5setupENS0_15ExpandDirectionERKNS_6BitmapES4_S4_ssss
    slidemenu.o(.ARM.exidx) refers to slidemenu.o(i._ZN8touchgfx9SlideMenu18setExpandDirectionENS0_15ExpandDirectionE) for i._ZN8touchgfx9SlideMenu18setExpandDirectionENS0_15ExpandDirectionE
    slidemenu.o(.ARM.exidx) refers to slidemenu.o(i._ZNK8touchgfx9SlideMenu18getExpandDirectionEv) for i._ZNK8touchgfx9SlideMenu18getExpandDirectionEv
    slidemenu.o(.ARM.exidx) refers to slidemenu.o(i._ZN8touchgfx9SlideMenu29setVisiblePixelsWhenCollapsedEs) for i._ZN8touchgfx9SlideMenu29setVisiblePixelsWhenCollapsedEs
    slidemenu.o(.ARM.exidx) refers to slidemenu.o(i._ZNK8touchgfx9SlideMenu29getVisiblePixelsWhenCollapsedEv) for i._ZNK8touchgfx9SlideMenu29getVisiblePixelsWhenCollapsedEv
    slidemenu.o(.ARM.exidx) refers to slidemenu.o(i._ZN8touchgfx9SlideMenu27setHiddenPixelsWhenExpandedEs) for i._ZN8touchgfx9SlideMenu27setHiddenPixelsWhenExpandedEs
    slidemenu.o(.ARM.exidx) refers to slidemenu.o(i._ZNK8touchgfx9SlideMenu27getHiddenPixelsWhenExpandedEv) for i._ZNK8touchgfx9SlideMenu27getHiddenPixelsWhenExpandedEv
    slidemenu.o(.ARM.exidx) refers to slidemenu.o(i._ZN8touchgfx9SlideMenu23setExpandedStateTimeoutEt) for i._ZN8touchgfx9SlideMenu23setExpandedStateTimeoutEt
    slidemenu.o(.ARM.exidx) refers to slidemenu.o(i._ZNK8touchgfx9SlideMenu23getExpandedStateTimeoutEv) for i._ZNK8touchgfx9SlideMenu23getExpandedStateTimeoutEv
    slidemenu.o(.ARM.exidx) refers to slidemenu.o(i._ZN8touchgfx9SlideMenu20setAnimationDurationEt) for i._ZN8touchgfx9SlideMenu20setAnimationDurationEt
    slidemenu.o(.ARM.exidx) refers to slidemenu.o(i._ZNK8touchgfx9SlideMenu20getAnimationDurationEv) for i._ZNK8touchgfx9SlideMenu20getAnimationDurationEv
    slidemenu.o(.ARM.exidx) refers to slidemenu.o(i._ZN8touchgfx9SlideMenu26setAnimationEasingEquationEPFstsstE) for i._ZN8touchgfx9SlideMenu26setAnimationEasingEquationEPFstsstE
    slidemenu.o(.ARM.exidx) refers to slidemenu.o(i._ZNK8touchgfx9SlideMenu26getAnimationEasingEquationEv) for i._ZNK8touchgfx9SlideMenu26getAnimationEasingEquationEv
    slidemenu.o(.ARM.exidx) refers to slidemenu.o(i._ZN8touchgfx9SlideMenu8setStateENS0_5StateE) for i._ZN8touchgfx9SlideMenu8setStateENS0_5StateE
    slidemenu.o(.ARM.exidx) refers to slidemenu.o(i._ZN8touchgfx9SlideMenu14animateToStateENS0_5StateE) for i._ZN8touchgfx9SlideMenu14animateToStateENS0_5StateE
    slidemenu.o(.ARM.exidx) refers to slidemenu.o(i._ZN8touchgfx9SlideMenu8getStateEv) for i._ZN8touchgfx9SlideMenu8getStateEv
    slidemenu.o(.ARM.exidx) refers to slidemenu.o(i._ZN8touchgfx9SlideMenu23resetExpandedStateTimerEv) for i._ZN8touchgfx9SlideMenu23resetExpandedStateTimerEv
    slidemenu.o(.ARM.exidx) refers to slidemenu.o(i._ZNK8touchgfx9SlideMenu21getExpandedStateTimerEv) for i._ZNK8touchgfx9SlideMenu21getExpandedStateTimerEv
    slidemenu.o(.ARM.exidx) refers to slidemenu.o(i._ZNK8touchgfx9SlideMenu14getBackgroundXEv) for i._ZNK8touchgfx9SlideMenu14getBackgroundXEv
    slidemenu.o(.ARM.exidx) refers to slidemenu.o(i._ZNK8touchgfx9SlideMenu14getBackgroundYEv) for i._ZNK8touchgfx9SlideMenu14getBackgroundYEv
    slidemenu.o(.ARM.exidx) refers to slidemenu.o(i._ZNK8touchgfx9SlideMenu21getStateChangeButtonXEv) for i._ZNK8touchgfx9SlideMenu21getStateChangeButtonXEv
    slidemenu.o(.ARM.exidx) refers to slidemenu.o(i._ZNK8touchgfx9SlideMenu21getStateChangeButtonYEv) for i._ZNK8touchgfx9SlideMenu21getStateChangeButtonYEv
    slidemenu.o(.ARM.exidx) refers to slidemenu.o(i._ZN8touchgfx9SlideMenu23setStateChangedCallbackERNS_15GenericCallbackIRKS0_vEE) for i._ZN8touchgfx9SlideMenu23setStateChangedCallbackERNS_15GenericCallbackIRKS0_vEE
    slidemenu.o(.ARM.exidx) refers to slidemenu.o(i._ZN8touchgfx9SlideMenu37setStateChangedAnimationEndedCallbackERNS_15GenericCallbackIRKS0_vEE) for i._ZN8touchgfx9SlideMenu37setStateChangedAnimationEndedCallbackERNS_15GenericCallbackIRKS0_vEE
    slidemenu.o(.ARM.exidx) refers to slidemenu.o(i._ZN8touchgfx9SlideMenu3addERNS_8DrawableE) for i._ZN8touchgfx9SlideMenu3addERNS_8DrawableE
    slidemenu.o(.ARM.exidx) refers to slidemenu.o(i._ZN8touchgfx9SlideMenu6removeERNS_8DrawableE) for i._ZN8touchgfx9SlideMenu6removeERNS_8DrawableE
    slidemenu.o(.ARM.exidx) refers to slidemenu.o(i._ZN8touchgfx9SlideMenu31stateChangeButtonClickedHandlerERKNS_14AbstractButtonE) for i._ZN8touchgfx9SlideMenu31stateChangeButtonClickedHandlerERKNS_14AbstractButtonE
    slidemenu.o(.ARM.exidx) refers to slidemenu.o(i._ZN8touchgfx9SlideMenu21animationEndedHandlerERKNS_12MoveAnimatorINS_9ContainerEEE) for i._ZN8touchgfx9SlideMenu21animationEndedHandlerERKNS_12MoveAnimatorINS_9ContainerEEE
    slidemenu.o(.ARM.exidx) refers to slidemenu.o(i._ZN8touchgfx9SlideMenu15handleTickEventEv) for i._ZN8touchgfx9SlideMenu15handleTickEventEv
    slidemenu.o(.ARM.exidx) refers to slidemenu.o(i._ZN8touchgfx9SlideMenu23getCollapsedXCoordinateEv) for i._ZN8touchgfx9SlideMenu23getCollapsedXCoordinateEv
    slidemenu.o(.ARM.exidx) refers to slidemenu.o(i._ZN8touchgfx9SlideMenu23getCollapsedYCoordinateEv) for i._ZN8touchgfx9SlideMenu23getCollapsedYCoordinateEv
    slidemenu.o(.ARM.exidx) refers to slidemenu.o(i._ZN8touchgfx9SlideMenu22getExpandedXCoordinateEv) for i._ZN8touchgfx9SlideMenu22getExpandedXCoordinateEv
    slidemenu.o(.ARM.exidx) refers to slidemenu.o(i._ZN8touchgfx9SlideMenu22getExpandedYCoordinateEv) for i._ZN8touchgfx9SlideMenu22getExpandedYCoordinateEv
    slidemenu.o(.data) refers to slidemenu.o(i._ZN8touchgfx9SlideMenu31stateChangeButtonClickedHandlerERKNS_14AbstractButtonE) for touchgfx::SlideMenu::stateChangeButtonClickedHandler(const touchgfx::AbstractButton&)
    slidemenu.o(.data) refers to slidemenu.o(i._ZN8touchgfx9SlideMenu21animationEndedHandlerERKNS_12MoveAnimatorINS_9ContainerEEE) for touchgfx::SlideMenu::animationEndedHandler(const touchgfx::MoveAnimator<touchgfx::Container>&)
    textarea.o(i._ZN8touchgfx8TextArea12setTypedTextENS_9TypedTextE) refers to textarea.o(i._ZN8touchgfx8TextArea19resizeToCurrentTextEv) for touchgfx::TextArea::resizeToCurrentText()
    textarea.o(i._ZN8touchgfx8TextArea13getTextHeightEv) refers to frontendapplication.o(i._ZNK8touchgfx9TypedText10hasValidIdEv) for touchgfx::TypedText::hasValidId() const
    textarea.o(i._ZN8touchgfx8TextArea13getTextHeightEv) refers to frontendapplication.o(i._ZNK8touchgfx9TypedText7getTextEv) for touchgfx::TypedText::getText() const
    textarea.o(i._ZN8touchgfx8TextArea13getTextHeightEv) refers to textarea.o(i._ZNK8touchgfx8TextArea21getTextHeightInternalEPKtz) for touchgfx::TextArea::getTextHeightInternal(const unsigned short*, ...) const
    textarea.o(i._ZN8touchgfx8TextArea19resizeToCurrentTextEv) refers to frontendapplication.o(i._ZNK8touchgfx9TypedText10hasValidIdEv) for touchgfx::TypedText::hasValidId() const
    textarea.o(i._ZN8touchgfx8TextArea25resizeHeightToCurrentTextEv) refers to frontendapplication.o(i._ZNK8touchgfx9TypedText10hasValidIdEv) for touchgfx::TypedText::hasValidId() const
    textarea.o(i._ZNK8touchgfx8TextArea12getTextWidthEv) refers to frontendapplication.o(i._ZNK8touchgfx9TypedText10hasValidIdEv) for touchgfx::TypedText::hasValidId() const
    textarea.o(i._ZNK8touchgfx8TextArea12getTextWidthEv) refers to frontendapplication.o(i._ZNK8touchgfx9TypedText7getFontEv) for touchgfx::TypedText::getFont() const
    textarea.o(i._ZNK8touchgfx8TextArea12getTextWidthEv) refers to frontendapplication.o(i._ZNK8touchgfx9TypedText7getTextEv) for touchgfx::TypedText::getText() const
    textarea.o(i._ZNK8touchgfx8TextArea12getTextWidthEv) refers to frontendapplication.o(i._ZNK8touchgfx9TypedText16getTextDirectionEv) for touchgfx::TypedText::getTextDirection() const
    textarea.o(i._ZNK8touchgfx8TextArea21getTextHeightInternalEPKtz) refers to textprovider.o(i._ZN8touchgfx12TextProviderC1Ev) for touchgfx::TextProvider::TextProvider()
    textarea.o(i._ZNK8touchgfx8TextArea21getTextHeightInternalEPKtz) refers to textprovider.o(i._ZN8touchgfx12TextProvider10initializeEPKtSt9__va_list) for touchgfx::TextProvider::initialize(const unsigned short*, std::__va_list)
    textarea.o(i._ZNK8touchgfx8TextArea21getTextHeightInternalEPKtz) refers to frontendapplication.o(i._ZNK8touchgfx9TypedText7getFontEv) for touchgfx::TypedText::getFont() const
    textarea.o(i._ZNK8touchgfx8TextArea21getTextHeightInternalEPKtz) refers to frontendapplication.o(i._ZNK8touchgfx9TypedText16getTextDirectionEv) for touchgfx::TypedText::getTextDirection() const
    textarea.o(i._ZNK8touchgfx8TextArea21getTextHeightInternalEPKtz) refers to lcd.o(i._ZN8touchgfx3LCD11getNumLinesERNS_12TextProviderENS_14WideTextActionEhPKNS_4FontEs) for touchgfx::LCD::getNumLines(touchgfx::TextProvider&, touchgfx::WideTextAction, unsigned char, const touchgfx::Font*, short)
    textarea.o(i._ZNK8touchgfx8TextArea4drawERKNS_4RectE) refers to frontendapplication.o(i._ZNK8touchgfx9TypedText10hasValidIdEv) for touchgfx::TypedText::hasValidId() const
    textarea.o(i._ZNK8touchgfx8TextArea4drawERKNS_4RectE) refers to frontendapplication.o(i._ZNK8touchgfx9TypedText7getFontEv) for touchgfx::TypedText::getFont() const
    textarea.o(i._ZNK8touchgfx8TextArea4drawERKNS_4RectE) refers to frontendapplication.o(i._ZNK8touchgfx9TypedText11assertValidEv) for touchgfx::TypedText::assertValid() const
    textarea.o(i._ZNK8touchgfx8TextArea4drawERKNS_4RectE) refers to frontendapplication.o(i._ZNK8touchgfx9TypedText16getTextDirectionEv) for touchgfx::TypedText::getTextDirection() const
    textarea.o(i._ZNK8touchgfx8TextArea4drawERKNS_4RectE) refers to frontendapplication.o(i._ZNK8touchgfx9TypedText7getTextEv) for touchgfx::TypedText::getText() const
    textarea.o(i._ZNK8touchgfx8TextArea4drawERKNS_4RectE) refers to drawable.o(i._ZNK8touchgfx8Drawable15getAbsoluteRectEv) for touchgfx::Drawable::getAbsoluteRect() const
    textarea.o(i._ZNK8touchgfx8TextArea4drawERKNS_4RectE) refers to lcd.o(i._ZN8touchgfx3LCD10drawStringENS_4RectERKS1_RNS0_13StringVisualsEPKtz) for touchgfx::LCD::drawString(touchgfx::Rect, const touchgfx::Rect&, touchgfx::LCD::StringVisuals&, const unsigned short*, ...)
    textarea.o(i._ZNK8touchgfx8TextArea4drawERKNS_4RectE) refers to typedtext.o(.data) for touchgfx::TypedText::typedTexts
    textarea.o(i._ZNK8touchgfx8TextArea4drawERKNS_4RectE) refers to hal.o(.data) for touchgfx::HAL::instance
    textarea.o(.ARM.exidx) refers to textarea.o(i._ZNK8touchgfx8TextArea21getTextHeightInternalEPKtz) for i._ZNK8touchgfx8TextArea21getTextHeightInternalEPKtz
    textarea.o(.ARM.exidx) refers to textarea.o(i._ZN8touchgfx8TextArea13getTextHeightEv) for i._ZN8touchgfx8TextArea13getTextHeightEv
    textarea.o(.ARM.exidx) refers to textarea.o(i._ZNK8touchgfx8TextArea12getTextWidthEv) for i._ZNK8touchgfx8TextArea12getTextWidthEv
    textarea.o(.ARM.exidx) refers to textarea.o(i._ZNK8touchgfx8TextArea4drawERKNS_4RectE) for i._ZNK8touchgfx8TextArea4drawERKNS_4RectE
    textarea.o(.ARM.exidx) refers to textarea.o(i._ZN8touchgfx8TextArea19resizeToCurrentTextEv) for i._ZN8touchgfx8TextArea19resizeToCurrentTextEv
    textarea.o(.ARM.exidx) refers to textarea.o(i._ZN8touchgfx8TextArea12setTypedTextENS_9TypedTextE) for i._ZN8touchgfx8TextArea12setTypedTextENS_9TypedTextE
    textarea.o(.ARM.exidx) refers to textarea.o(i._ZN8touchgfx8TextArea25resizeHeightToCurrentTextEv) for i._ZN8touchgfx8TextArea25resizeHeightToCurrentTextEv
    textareawithwildcard.o(i._ZNK8touchgfx24TextAreaWithWildcardBase19calculateTextHeightEPKtz) refers to textprovider.o(i._ZN8touchgfx12TextProviderC1Ev) for touchgfx::TextProvider::TextProvider()
    textareawithwildcard.o(i._ZNK8touchgfx24TextAreaWithWildcardBase19calculateTextHeightEPKtz) refers to textprovider.o(i._ZN8touchgfx12TextProvider10initializeEPKtSt9__va_list) for touchgfx::TextProvider::initialize(const unsigned short*, std::__va_list)
    textareawithwildcard.o(i._ZNK8touchgfx24TextAreaWithWildcardBase19calculateTextHeightEPKtz) refers to frontendapplication.o(i._ZNK8touchgfx9TypedText7getFontEv) for touchgfx::TypedText::getFont() const
    textareawithwildcard.o(i._ZNK8touchgfx24TextAreaWithWildcardBase19calculateTextHeightEPKtz) refers to frontendapplication.o(i._ZNK8touchgfx9TypedText11assertValidEv) for touchgfx::TypedText::assertValid() const
    textareawithwildcard.o(i._ZNK8touchgfx24TextAreaWithWildcardBase19calculateTextHeightEPKtz) refers to lcd.o(i._ZN8touchgfx3LCD11getNumLinesERNS_12TextProviderENS_14WideTextActionEhPKNS_4FontEs) for touchgfx::LCD::getNumLines(touchgfx::TextProvider&, touchgfx::WideTextAction, unsigned char, const touchgfx::Font*, short)
    textareawithwildcard.o(i._ZNK8touchgfx24TextAreaWithWildcardBase19calculateTextHeightEPKtz) refers to typedtext.o(.data) for touchgfx::TypedText::typedTexts
    textareawithwildcard.o(.ARM.exidx) refers to textareawithwildcard.o(i._ZNK8touchgfx24TextAreaWithWildcardBase19calculateTextHeightEPKtz) for i._ZNK8touchgfx24TextAreaWithWildcardBase19calculateTextHeightEPKtz
    togglebutton.o(i._ZN8touchgfx12ToggleButton10forceStateEb) refers to togglebutton.o(i._ZNK8touchgfx6BitmapneERKS0_) for touchgfx::Bitmap::operator !=(const touchgfx::Bitmap&) const
    togglebutton.o(i._ZN8touchgfx12ToggleButton16handleClickEventERKNS_10ClickEventE) refers to abstractbutton.o(i._ZN8touchgfx14AbstractButton16handleClickEventERKNS_10ClickEventE) for touchgfx::AbstractButton::handleClickEvent(const touchgfx::ClickEvent&)
    togglebutton.o(i._ZN8touchgfx12ToggleButtonC1Ev) refers to channelcontrolpanel.o(i._ZN8touchgfx6ButtonC1Ev) for touchgfx::Button::Button()
    togglebutton.o(i._ZN8touchgfx12ToggleButtonC1Ev) refers to togglebutton.o(.constdata__ZTVN8touchgfx12ToggleButtonE) for vtable for touchgfx::ToggleButton
    togglebutton.o(.ARM.exidx) refers to togglebutton.o(i._ZN8touchgfx12ToggleButtonC1Ev) for i._ZN8touchgfx12ToggleButtonC1Ev
    togglebutton.o(.ARM.exidx) refers to togglebutton.o(i._ZN8touchgfx12ToggleButton10forceStateEb) for i._ZN8touchgfx12ToggleButton10forceStateEb
    togglebutton.o(.ARM.exidx) refers to togglebutton.o(i._ZN8touchgfx12ToggleButton16handleClickEventERKNS_10ClickEventE) for i._ZN8touchgfx12ToggleButton16handleClickEventERKNS_10ClickEventE
    unicode.o(i._ZN8touchgfx7Unicode13composeStringERPKttS2_bbibibRitPt) refers to unicode.o(i._ZN8touchgfx7Unicode6strlenEPKt) for touchgfx::Unicode::strlen(const unsigned short*)
    unicode.o(i._ZN8touchgfx7Unicode14snprintfFloatsEPttPKcPKf) refers to unicode.o(i._ZN8touchgfx7Unicode6strlenEPKc) for touchgfx::Unicode::strlen(const char*)
    unicode.o(i._ZN8touchgfx7Unicode14snprintfFloatsEPttPKcPKf) refers to unicode.o(i._ZN8touchgfx7Unicode7strncpyEPtPKct) for touchgfx::Unicode::strncpy(unsigned short*, const char*, unsigned short)
    unicode.o(i._ZN8touchgfx7Unicode14snprintfFloatsEPttPKcPKf) refers to unicode.o(i._ZN8touchgfx7Unicode14snprintfFloatsEPttPKtPKf) for touchgfx::Unicode::snprintfFloats(unsigned short*, unsigned short, const unsigned short*, const float*)
    unicode.o(i._ZN8touchgfx7Unicode14snprintfFloatsEPttPKtPKf) refers to utils.o(i._ZN8touchgfx6memsetEPvhj) for touchgfx::memset(void*, unsigned char, unsigned)
    unicode.o(i._ZN8touchgfx7Unicode14snprintfFloatsEPttPKtPKf) refers to unicode.o(i._ZN8touchgfx7Unicode22parseFlagsAndPrecisionERPKtRtRbS5_S5_S5_RiS5_S6_) for touchgfx::Unicode::parseFlagsAndPrecision(const unsigned short*&, unsigned short&, bool&, bool&, bool&, bool&, int&, bool&, int&)
    unicode.o(i._ZN8touchgfx7Unicode14snprintfFloatsEPttPKtPKf) refers to unicode.o(i._ZN8touchgfx7Unicode4itoaEiPtti) for touchgfx::Unicode::itoa(int, unsigned short*, unsigned short, int)
    unicode.o(i._ZN8touchgfx7Unicode14snprintfFloatsEPttPKtPKf) refers to unicode.o(i._ZN8touchgfx7Unicode13composeStringERPKttS2_bbibibRitPt) for touchgfx::Unicode::composeString(const unsigned short*&, unsigned short, const unsigned short*, bool, bool, int, bool, int, bool, int&, unsigned short, unsigned short*)
    unicode.o(i._ZN8touchgfx7Unicode14snprintfFloatsEPttPKtPKf) refers to hal.o(.data) for touchgfx::HAL::instance
    unicode.o(i._ZN8touchgfx7Unicode22parseFlagsAndPrecisionERPKtRtRbS5_S5_S5_RiS5_S6_) refers to unicode.o(i._ZN8touchgfx7Unicode4atoiEPKt) for touchgfx::Unicode::atoi(const unsigned short*)
    unicode.o(i._ZN8touchgfx7Unicode27strncmp_ignore_white_spacesEPKtS2_t) refers to unicode.o(i._ZN8touchgfx7Unicode17skip_white_spacesEPKt) for touchgfx::Unicode::skip_white_spaces(const unsigned short*)
    unicode.o(i._ZN8touchgfx7Unicode4itoaEiPtti) refers to unicode.o(i._ZN8touchgfx7Unicode7strncpyEPtPKct) for touchgfx::Unicode::strncpy(unsigned short*, const char*, unsigned short)
    unicode.o(i._ZN8touchgfx7Unicode4utoaEjPtti) refers to unicode.o(i._ZN8touchgfx7Unicode7strncpyEPtPKct) for touchgfx::Unicode::strncpy(unsigned short*, const char*, unsigned short)
    unicode.o(i._ZN8touchgfx7Unicode8snprintfEPttPKcz) refers to unicode.o(i._ZN8touchgfx7Unicode9vsnprintfEPttPKcSt9__va_list) for touchgfx::Unicode::vsnprintf(unsigned short*, unsigned short, const char*, std::__va_list)
    unicode.o(i._ZN8touchgfx7Unicode8snprintfEPttPKtz) refers to unicode.o(i._ZN8touchgfx7Unicode9vsnprintfEPttPKtSt9__va_list) for touchgfx::Unicode::vsnprintf(unsigned short*, unsigned short, const unsigned short*, std::__va_list)
    unicode.o(i._ZN8touchgfx7Unicode9vsnprintfEPttPKcSt9__va_list) refers to unicode.o(i._ZN8touchgfx7Unicode6strlenEPKc) for touchgfx::Unicode::strlen(const char*)
    unicode.o(i._ZN8touchgfx7Unicode9vsnprintfEPttPKcSt9__va_list) refers to unicode.o(i._ZN8touchgfx7Unicode7strncpyEPtPKct) for touchgfx::Unicode::strncpy(unsigned short*, const char*, unsigned short)
    unicode.o(i._ZN8touchgfx7Unicode9vsnprintfEPttPKcSt9__va_list) refers to unicode.o(i._ZN8touchgfx7Unicode9vsnprintfEPttPKtSt9__va_list) for touchgfx::Unicode::vsnprintf(unsigned short*, unsigned short, const unsigned short*, std::__va_list)
    unicode.o(i._ZN8touchgfx7Unicode9vsnprintfEPttPKtSt9__va_list) refers to utils.o(i._ZN8touchgfx6memsetEPvhj) for touchgfx::memset(void*, unsigned char, unsigned)
    unicode.o(i._ZN8touchgfx7Unicode9vsnprintfEPttPKtSt9__va_list) refers to unicode.o(i._ZN8touchgfx7Unicode22parseFlagsAndPrecisionERPKtRtRbS5_S5_S5_RiS5_S6_) for touchgfx::Unicode::parseFlagsAndPrecision(const unsigned short*&, unsigned short&, bool&, bool&, bool&, bool&, int&, bool&, int&)
    unicode.o(i._ZN8touchgfx7Unicode9vsnprintfEPttPKtSt9__va_list) refers to unicode.o(i._ZN8touchgfx7Unicode13composeStringERPKttS2_bbibibRitPt) for touchgfx::Unicode::composeString(const unsigned short*&, unsigned short, const unsigned short*, bool, bool, int, bool, int, bool, int&, unsigned short, unsigned short*)
    unicode.o(i._ZN8touchgfx7Unicode9vsnprintfEPttPKtSt9__va_list) refers to unicode.o(i._ZN8touchgfx7Unicode4itoaEiPtti) for touchgfx::Unicode::itoa(int, unsigned short*, unsigned short, int)
    unicode.o(i._ZN8touchgfx7Unicode9vsnprintfEPttPKtSt9__va_list) refers to unicode.o(i._ZN8touchgfx7Unicode4utoaEjPtti) for touchgfx::Unicode::utoa(unsigned, unsigned short*, unsigned short, int)
    unicode.o(i._ZN8touchgfx7Unicode9vsnprintfEPttPKtSt9__va_list) refers to hal.o(.data) for touchgfx::HAL::instance
    unicode.o(.ARM.exidx) refers to unicode.o(i._ZN8touchgfx7Unicode6strlenEPKt) for i._ZN8touchgfx7Unicode6strlenEPKt
    unicode.o(.ARM.exidx) refers to unicode.o(i._ZN8touchgfx7Unicode6strlenEPKc) for i._ZN8touchgfx7Unicode6strlenEPKc
    unicode.o(.ARM.exidx) refers to unicode.o(i._ZN8touchgfx7Unicode7strncpyEPtPKtt) for i._ZN8touchgfx7Unicode7strncpyEPtPKtt
    unicode.o(.ARM.exidx) refers to unicode.o(i._ZN8touchgfx7Unicode7strncpyEPtPKct) for i._ZN8touchgfx7Unicode7strncpyEPtPKct
    unicode.o(.ARM.exidx) refers to unicode.o(i._ZN8touchgfx7Unicode4itoaEiPtti) for i._ZN8touchgfx7Unicode4itoaEiPtti
    unicode.o(.ARM.exidx) refers to unicode.o(i._ZN8touchgfx7Unicode4utoaEjPtti) for i._ZN8touchgfx7Unicode4utoaEjPtti
    unicode.o(.ARM.exidx) refers to unicode.o(i._ZN8touchgfx7Unicode4atoiEPKt) for i._ZN8touchgfx7Unicode4atoiEPKt
    unicode.o(.ARM.exidx) refers to unicode.o(i._ZN8touchgfx7Unicode13composeStringERPKttS2_bbibibRitPt) for i._ZN8touchgfx7Unicode13composeStringERPKttS2_bbibibRitPt
    unicode.o(.ARM.exidx) refers to unicode.o(i._ZN8touchgfx7Unicode22parseFlagsAndPrecisionERPKtRtRbS5_S5_S5_RiS5_S6_) for i._ZN8touchgfx7Unicode22parseFlagsAndPrecisionERPKtRtRbS5_S5_S5_RiS5_S6_
    unicode.o(.ARM.exidx) refers to unicode.o(i._ZN8touchgfx7Unicode9vsnprintfEPttPKtSt9__va_list) for i._ZN8touchgfx7Unicode9vsnprintfEPttPKtSt9__va_list
    unicode.o(.ARM.exidx) refers to unicode.o(i._ZN8touchgfx7Unicode8snprintfEPttPKtz) for i._ZN8touchgfx7Unicode8snprintfEPttPKtz
    unicode.o(.ARM.exidx) refers to unicode.o(i._ZN8touchgfx7Unicode9vsnprintfEPttPKcSt9__va_list) for i._ZN8touchgfx7Unicode9vsnprintfEPttPKcSt9__va_list
    unicode.o(.ARM.exidx) refers to unicode.o(i._ZN8touchgfx7Unicode8snprintfEPttPKcz) for i._ZN8touchgfx7Unicode8snprintfEPttPKcz
    unicode.o(.ARM.exidx) refers to unicode.o(i._ZN8touchgfx7Unicode14snprintfFloatsEPttPKtPKf) for i._ZN8touchgfx7Unicode14snprintfFloatsEPttPKtPKf
    unicode.o(.ARM.exidx) refers to unicode.o(i._ZN8touchgfx7Unicode14snprintfFloatsEPttPKcPKf) for i._ZN8touchgfx7Unicode14snprintfFloatsEPttPKcPKf
    unicode.o(.ARM.exidx) refers to unicode.o(i._ZN8touchgfx7Unicode7strncmpEPKtS2_t) for i._ZN8touchgfx7Unicode7strncmpEPKtS2_t
    unicode.o(.ARM.exidx) refers to unicode.o(i._ZN8touchgfx7Unicode17skip_white_spacesEPKt) for i._ZN8touchgfx7Unicode17skip_white_spacesEPKt
    unicode.o(.ARM.exidx) refers to unicode.o(i._ZN8touchgfx7Unicode27strncmp_ignore_white_spacesEPKtS2_t) for i._ZN8touchgfx7Unicode27strncmp_ignore_white_spacesEPKtS2_t
    abstractbutton.o(.ARM.exidx) refers to abstractbutton.o(i._ZN8touchgfx14AbstractButton16handleClickEventERKNS_10ClickEventE) for i._ZN8touchgfx14AbstractButton16handleClickEventERKNS_10ClickEventE
    abstractpainterrgb565.o(.ARM.exidx) refers to abstractpainterrgb565.o(i._ZN8touchgfx21AbstractPainterRGB5656renderEPhiiijPKh) for i._ZN8touchgfx21AbstractPainterRGB5656renderEPhiiijPKh
    abstractpainterrgb565.o(.ARM.exidx) refers to abstractpainterrgb565.o(i._ZN8touchgfx21AbstractPainterRGB56511renderPixelEPthhh) for i._ZN8touchgfx21AbstractPainterRGB56511renderPixelEPthhh
    canvas.o(i._ZN8touchgfx6Canvas5closeEv) refers to canvas.o(i._ZN8touchgfx10Rasterizer6lineToEii) for touchgfx::Rasterizer::lineTo(int, int)
    canvas.o(i._ZN8touchgfx6Canvas6lineToENS_7CWRUtil2Q5ES2_) refers to canvas.o(i._ZNK8touchgfx6Canvas29transformFrameBufferToDisplayERNS_7CWRUtil2Q5ES3_) for touchgfx::Canvas::transformFrameBufferToDisplay(touchgfx::CWRUtil::Q5&, touchgfx::CWRUtil::Q5&) const
    canvas.o(i._ZN8touchgfx6Canvas6lineToENS_7CWRUtil2Q5ES2_) refers to line.o(i._ZNK8touchgfx7CWRUtil2Q5miERKS1_) for touchgfx::CWRUtil::Q5::operator -(const touchgfx::CWRUtil::Q5&) const
    canvas.o(i._ZN8touchgfx6Canvas6lineToENS_7CWRUtil2Q5ES2_) refers to canvas.o(i._ZNK8touchgfx6Canvas9isOutsideERKNS_7CWRUtil2Q5ES4_) for touchgfx::Canvas::isOutside(const touchgfx::CWRUtil::Q5&, const touchgfx::CWRUtil::Q5&) const
    canvas.o(i._ZN8touchgfx6Canvas6lineToENS_7CWRUtil2Q5ES2_) refers to outline.o(i._ZN8touchgfx7Outline6moveToEii) for touchgfx::Outline::moveTo(int, int)
    canvas.o(i._ZN8touchgfx6Canvas6lineToENS_7CWRUtil2Q5ES2_) refers to canvas.o(i._ZN8touchgfx10Rasterizer6lineToEii) for touchgfx::Rasterizer::lineTo(int, int)
    canvas.o(i._ZN8touchgfx6Canvas6moveToENS_7CWRUtil2Q5ES2_) refers to canvas.o(i._ZN8touchgfx6Canvas5closeEv) for touchgfx::Canvas::close()
    canvas.o(i._ZN8touchgfx6Canvas6moveToENS_7CWRUtil2Q5ES2_) refers to canvas.o(i._ZNK8touchgfx6Canvas29transformFrameBufferToDisplayERNS_7CWRUtil2Q5ES3_) for touchgfx::Canvas::transformFrameBufferToDisplay(touchgfx::CWRUtil::Q5&, touchgfx::CWRUtil::Q5&) const
    canvas.o(i._ZN8touchgfx6Canvas6moveToENS_7CWRUtil2Q5ES2_) refers to line.o(i._ZNK8touchgfx7CWRUtil2Q5miERKS1_) for touchgfx::CWRUtil::Q5::operator -(const touchgfx::CWRUtil::Q5&) const
    canvas.o(i._ZN8touchgfx6Canvas6moveToENS_7CWRUtil2Q5ES2_) refers to canvas.o(i._ZNK8touchgfx6Canvas9isOutsideERKNS_7CWRUtil2Q5ES4_) for touchgfx::Canvas::isOutside(const touchgfx::CWRUtil::Q5&, const touchgfx::CWRUtil::Q5&) const
    canvas.o(i._ZN8touchgfx6Canvas6moveToENS_7CWRUtil2Q5ES2_) refers to outline.o(i._ZN8touchgfx7Outline6moveToEii) for touchgfx::Outline::moveTo(int, int)
    canvas.o(i._ZN8touchgfx6Canvas6renderEv) refers to canvas.o(i._ZN8touchgfx6Canvas5closeEv) for touchgfx::Canvas::close()
    canvas.o(i._ZN8touchgfx6Canvas6renderEv) refers to abstractpainter.o(i._ZN8touchgfx15AbstractPainter9setOffsetEtt) for touchgfx::AbstractPainter::setOffset(unsigned short, unsigned short)
    canvas.o(i._ZN8touchgfx6Canvas6renderEv) refers to abstractpainter.o(i._ZN8touchgfx15AbstractPainter14setWidgetAlphaEh) for touchgfx::AbstractPainter::setWidgetAlpha(unsigned char)
    canvas.o(i._ZN8touchgfx6Canvas6renderEv) refers to canvas.o(t._ZN8touchgfx10Rasterizer6renderINS_8RendererEEEbRT_) for bool touchgfx::Rasterizer::render<touchgfx::Renderer>(T1&)
    canvas.o(i._ZN8touchgfx6CanvasC1EPKNS_12CanvasWidgetERKNS_4RectE) refers to renderingbuffer.o(i._ZN8touchgfx15RenderingBufferC1Ev) for touchgfx::RenderingBuffer::RenderingBuffer()
    canvas.o(i._ZN8touchgfx6CanvasC1EPKNS_12CanvasWidgetERKNS_4RectE) refers to outline.o(i._ZN8touchgfx7OutlineC1Ev) for touchgfx::Outline::Outline()
    canvas.o(i._ZN8touchgfx6CanvasC1EPKNS_12CanvasWidgetERKNS_4RectE) refers to scanline.o(i._ZN8touchgfx8ScanlineC1Ev) for touchgfx::Scanline::Scanline()
    canvas.o(i._ZN8touchgfx6CanvasC1EPKNS_12CanvasWidgetERKNS_4RectE) refers to canvaswidgetrenderer.o(i._ZN8touchgfx20CanvasWidgetRenderer9hasBufferEv) for touchgfx::CanvasWidgetRenderer::hasBuffer()
    canvas.o(i._ZN8touchgfx6CanvasC1EPKNS_12CanvasWidgetERKNS_4RectE) refers to application.o(i._ZN8touchgfx4RectaNERKS0_) for touchgfx::Rect::operator &=(const touchgfx::Rect&)
    canvas.o(i._ZN8touchgfx6CanvasC1EPKNS_12CanvasWidgetERKNS_4RectE) refers to displaytransformation.o(i._ZN8touchgfx21DisplayTransformation29transformDisplayToFrameBufferERNS_4RectERKS1_) for touchgfx::DisplayTransformation::transformDisplayToFrameBuffer(touchgfx::Rect&, const touchgfx::Rect&)
    canvas.o(i._ZN8touchgfx6CanvasC1EPKNS_12CanvasWidgetERKNS_4RectE) refers to displaytransformation.o(i._ZN8touchgfx21DisplayTransformation29transformDisplayToFrameBufferERNS_4RectE) for touchgfx::DisplayTransformation::transformDisplayToFrameBuffer(touchgfx::Rect&)
    canvas.o(i._ZN8touchgfx6CanvasC1EPKNS_12CanvasWidgetERKNS_4RectE) refers to canvaswidgetrenderer.o(i._ZN8touchgfx20CanvasWidgetRenderer16setScanlineWidthEj) for touchgfx::CanvasWidgetRenderer::setScanlineWidth(unsigned)
    canvas.o(i._ZN8touchgfx6CanvasC1EPKNS_12CanvasWidgetERKNS_4RectE) refers to outline.o(i._ZN8touchgfx7Outline5resetEv) for touchgfx::Outline::reset()
    canvas.o(i._ZN8touchgfx6CanvasC1EPKNS_12CanvasWidgetERKNS_4RectE) refers to renderingbuffer.o(i._ZN8touchgfx15RenderingBuffer6attachEPhhjji) for touchgfx::RenderingBuffer::attach(unsigned char*, unsigned char, unsigned, unsigned, int)
    canvas.o(i._ZN8touchgfx6CanvasC1EPKNS_12CanvasWidgetERKNS_4RectE) refers to canvas.o(.constdata__ZTVN8touchgfx6CanvasE) for vtable for touchgfx::Canvas
    canvas.o(i._ZN8touchgfx6CanvasC1EPKNS_12CanvasWidgetERKNS_4RectE) refers to hal.o(.data) for touchgfx::HAL::instance
    canvas.o(i._ZN8touchgfx6CanvasD0Ev) refers to canvas.o(i._ZN8touchgfx6CanvasD1Ev) for touchgfx::Canvas::~Canvas()
    canvas.o(i._ZN8touchgfx6CanvasD0Ev) refers to delete.o(i._ZdlPv) for operator delete (void*)
    canvas.o(i._ZN8touchgfx6CanvasD1Ev) refers to outline.o(i._ZN8touchgfx7OutlineD1Ev) for touchgfx::Outline::~Outline()
    canvas.o(i._ZN8touchgfx6CanvasD1Ev) refers to renderingbuffer.o(i._ZN8touchgfx15RenderingBufferD1Ev) for touchgfx::RenderingBuffer::~RenderingBuffer()
    canvas.o(i._ZN8touchgfx6CanvasD1Ev) refers to canvas.o(.constdata__ZTVN8touchgfx6CanvasE) for vtable for touchgfx::Canvas
    canvas.o(i._ZN8touchgfx6CanvasD1Ev) refers to hal.o(.data) for touchgfx::HAL::instance
    canvas.o(i._ZNK8touchgfx6Canvas29transformFrameBufferToDisplayERNS_7CWRUtil2Q5ES3_) refers to line.o(i._ZNK8touchgfx7CWRUtil2Q5miERKS1_) for touchgfx::CWRUtil::Q5::operator -(const touchgfx::CWRUtil::Q5&) const
    canvas.o(i._ZNK8touchgfx6Canvas29transformFrameBufferToDisplayERNS_7CWRUtil2Q5ES3_) refers to hal.o(.data) for touchgfx::HAL::DISPLAY_ROTATION
    canvas.o(.ARM.exidx) refers to canvas.o(i._ZN8touchgfx6CanvasC1EPKNS_12CanvasWidgetERKNS_4RectE) for i._ZN8touchgfx6CanvasC1EPKNS_12CanvasWidgetERKNS_4RectE
    canvas.o(.ARM.exidx) refers to canvas.o(i._ZN8touchgfx6CanvasD1Ev) for i._ZN8touchgfx6CanvasD1Ev
    canvas.o(.ARM.exidx) refers to canvas.o(i._ZN8touchgfx6CanvasD0Ev) for i._ZN8touchgfx6CanvasD0Ev
    canvas.o(.ARM.exidx) refers to canvas.o(i._ZNK8touchgfx6Canvas9isOutsideERKNS_7CWRUtil2Q5ES4_) for i._ZNK8touchgfx6Canvas9isOutsideERKNS_7CWRUtil2Q5ES4_
    canvas.o(.ARM.exidx) refers to canvas.o(i._ZNK8touchgfx6Canvas29transformFrameBufferToDisplayERNS_7CWRUtil2Q5ES3_) for i._ZNK8touchgfx6Canvas29transformFrameBufferToDisplayERNS_7CWRUtil2Q5ES3_
    canvas.o(.ARM.exidx) refers to canvas.o(i._ZN8touchgfx6Canvas5closeEv) for i._ZN8touchgfx6Canvas5closeEv
    canvas.o(.ARM.exidx) refers to canvas.o(i._ZN8touchgfx6Canvas6moveToENS_7CWRUtil2Q5ES2_) for i._ZN8touchgfx6Canvas6moveToENS_7CWRUtil2Q5ES2_
    canvas.o(.ARM.exidx) refers to canvas.o(i._ZN8touchgfx6Canvas6lineToENS_7CWRUtil2Q5ES2_) for i._ZN8touchgfx6Canvas6lineToENS_7CWRUtil2Q5ES2_
    canvas.o(.ARM.exidx) refers to canvas.o(i._ZN8touchgfx6Canvas6renderEv) for i._ZN8touchgfx6Canvas6renderEv
    constfont.o(i._ZN8touchgfx9ConstFontC2EPKNS_9GlyphNodeEtthhhht) refers to constfont.o(.constdata__ZTVN8touchgfx9ConstFontE) for vtable for touchgfx::ConstFont
    constfont.o(i._ZNK8touchgfx9ConstFont8getGlyphEtRPKhRh) refers to constfont.o(i._ZNK8touchgfx9ConstFont4findEt) for touchgfx::ConstFont::find(unsigned short) const
    constfont.o(.ARM.exidx) refers to constfont.o(i._ZN8touchgfx9ConstFontC2EPKNS_9GlyphNodeEtthhhht) for i._ZN8touchgfx9ConstFontC2EPKNS_9GlyphNodeEtthhhht
    constfont.o(.ARM.exidx) refers to constfont.o(i._ZNK8touchgfx9ConstFont4findEt) for i._ZNK8touchgfx9ConstFont4findEt
    constfont.o(.ARM.exidx) refers to constfont.o(i._ZNK8touchgfx9ConstFont8getGlyphEtRPKhRh) for i._ZNK8touchgfx9ConstFont8getGlyphEtRPKhRh
    displaytransformation.o(i._ZN8touchgfx21DisplayTransformation29transformDisplayToFrameBufferERNS_4RectE) refers to displaytransformation.o(i._ZN8touchgfx21DisplayTransformation29transformDisplayToFrameBufferERNS_4RectERKS1_) for touchgfx::DisplayTransformation::transformDisplayToFrameBuffer(touchgfx::Rect&, const touchgfx::Rect&)
    displaytransformation.o(i._ZN8touchgfx21DisplayTransformation29transformDisplayToFrameBufferERNS_4RectE) refers to hal.o(.data) for touchgfx::HAL::DISPLAY_WIDTH
    displaytransformation.o(i._ZN8touchgfx21DisplayTransformation29transformDisplayToFrameBufferERNS_4RectERKS1_) refers to displaytransformation.o(i._ZN8touchgfx21DisplayTransformation29transformDisplayToFrameBufferERsS1_RKNS_4RectE) for touchgfx::DisplayTransformation::transformDisplayToFrameBuffer(short&, short&, const touchgfx::Rect&)
    displaytransformation.o(i._ZN8touchgfx21DisplayTransformation29transformDisplayToFrameBufferERNS_4RectERKS1_) refers to hal.o(.data) for touchgfx::HAL::DISPLAY_ROTATION
    displaytransformation.o(i._ZN8touchgfx21DisplayTransformation29transformDisplayToFrameBufferERfS1_) refers to displaytransformation.o(i._ZN8touchgfx21DisplayTransformation29transformDisplayToFrameBufferERfS1_RKNS_4RectE) for touchgfx::DisplayTransformation::transformDisplayToFrameBuffer(float&, float&, const touchgfx::Rect&)
    displaytransformation.o(i._ZN8touchgfx21DisplayTransformation29transformDisplayToFrameBufferERfS1_) refers to hal.o(.data) for touchgfx::HAL::DISPLAY_WIDTH
    displaytransformation.o(i._ZN8touchgfx21DisplayTransformation29transformDisplayToFrameBufferERfS1_RKNS_4RectE) refers to hal.o(.data) for touchgfx::HAL::DISPLAY_ROTATION
    displaytransformation.o(i._ZN8touchgfx21DisplayTransformation29transformDisplayToFrameBufferERsS1_) refers to displaytransformation.o(i._ZN8touchgfx21DisplayTransformation29transformDisplayToFrameBufferERsS1_RKNS_4RectE) for touchgfx::DisplayTransformation::transformDisplayToFrameBuffer(short&, short&, const touchgfx::Rect&)
    displaytransformation.o(i._ZN8touchgfx21DisplayTransformation29transformDisplayToFrameBufferERsS1_) refers to hal.o(.data) for touchgfx::HAL::DISPLAY_WIDTH
    displaytransformation.o(i._ZN8touchgfx21DisplayTransformation29transformDisplayToFrameBufferERsS1_RKNS_4RectE) refers to hal.o(.data) for touchgfx::HAL::DISPLAY_ROTATION
    displaytransformation.o(i._ZN8touchgfx21DisplayTransformation29transformFrameBufferToDisplayERsS1_) refers to hal.o(.data) for touchgfx::HAL::DISPLAY_ROTATION
    displaytransformation.o(.ARM.exidx) refers to displaytransformation.o(i._ZN8touchgfx21DisplayTransformation29transformDisplayToFrameBufferERsS1_RKNS_4RectE) for i._ZN8touchgfx21DisplayTransformation29transformDisplayToFrameBufferERsS1_RKNS_4RectE
    displaytransformation.o(.ARM.exidx) refers to displaytransformation.o(i._ZN8touchgfx21DisplayTransformation29transformDisplayToFrameBufferERsS1_) for i._ZN8touchgfx21DisplayTransformation29transformDisplayToFrameBufferERsS1_
    displaytransformation.o(.ARM.exidx) refers to displaytransformation.o(i._ZN8touchgfx21DisplayTransformation29transformDisplayToFrameBufferERfS1_RKNS_4RectE) for i._ZN8touchgfx21DisplayTransformation29transformDisplayToFrameBufferERfS1_RKNS_4RectE
    displaytransformation.o(.ARM.exidx) refers to displaytransformation.o(i._ZN8touchgfx21DisplayTransformation29transformDisplayToFrameBufferERfS1_) for i._ZN8touchgfx21DisplayTransformation29transformDisplayToFrameBufferERfS1_
    displaytransformation.o(.ARM.exidx) refers to displaytransformation.o(i._ZN8touchgfx21DisplayTransformation29transformFrameBufferToDisplayERsS1_) for i._ZN8touchgfx21DisplayTransformation29transformFrameBufferToDisplayERsS1_
    displaytransformation.o(.ARM.exidx) refers to displaytransformation.o(i._ZN8touchgfx21DisplayTransformation29transformDisplayToFrameBufferERNS_4RectERKS1_) for i._ZN8touchgfx21DisplayTransformation29transformDisplayToFrameBufferERNS_4RectERKS1_
    displaytransformation.o(.ARM.exidx) refers to displaytransformation.o(i._ZN8touchgfx21DisplayTransformation29transformDisplayToFrameBufferERNS_4RectE) for i._ZN8touchgfx21DisplayTransformation29transformDisplayToFrameBufferERNS_4RectE
    gestures.o(i._ZN8touchgfx8Gestures17registerDragEventEtttt) refers to scrollablecontainer.o(t._ZN8touchgfx3absIsEET_S1_) for T1 touchgfx::abs<short>(T1)
    gestures.o(i._ZN8touchgfx8Gestures17registerDragEventEtttt) refers to screen.o(.constdata__ZTVN8touchgfx9DragEventE) for vtable for touchgfx::DragEvent
    gestures.o(i._ZN8touchgfx8Gestures18registerClickEventENS_10ClickEvent14ClickEventTypeEtt) refers to gestures.o(i._ZN8touchgfx12GestureEventC1ENS0_11GestureTypeEsss) for touchgfx::GestureEvent::GestureEvent(touchgfx::GestureEvent::GestureType, short, short, short)
    gestures.o(i._ZN8touchgfx8Gestures18registerClickEventENS_10ClickEvent14ClickEventTypeEtt) refers to screen.o(.constdata__ZTVN8touchgfx10ClickEventE) for vtable for touchgfx::ClickEvent
    gestures.o(.ARM.exidx) refers to gestures.o(i._ZN8touchgfx8Gestures21registerEventListenerERNS_15UIEventListenerE) for i._ZN8touchgfx8Gestures21registerEventListenerERNS_15UIEventListenerE
    gestures.o(.ARM.exidx) refers to gestures.o(i._ZN8touchgfx8Gestures4tickEv) for i._ZN8touchgfx8Gestures4tickEv
    gestures.o(.ARM.exidx) refers to gestures.o(i._ZN8touchgfx8Gestures17registerDragEventEtttt) for i._ZN8touchgfx8Gestures17registerDragEventEtttt
    gestures.o(.ARM.exidx) refers to gestures.o(i._ZN8touchgfx8Gestures18registerClickEventENS_10ClickEvent14ClickEventTypeEtt) for i._ZN8touchgfx8Gestures18registerClickEventENS_10ClickEvent14ClickEventTypeEtt
    textprovider.o(i._ZN8touchgfx12TextProvider10initializeEPKtSt9__va_list) refers to textprovider.o(i._ZN8touchgfx12TextProvider18initializeInternalEv) for touchgfx::TextProvider::initializeInternal()
    textprovider.o(i._ZN8touchgfx12TextProvider11getNextCharEv) refers to textprovider.o(i._ZN8touchgfx12TextProvider19getNextCharInternalEv) for touchgfx::TextProvider::getNextCharInternal()
    textprovider.o(i._ZN8touchgfx12TextProvider15getNextLigatureEh) refers to textprovider.o(i._ZN8touchgfx12TextProvider11getNextCharEv) for touchgfx::TextProvider::getNextChar()
    textprovider.o(i._ZN8touchgfx12TextProvider15getNextLigatureEh) refers to texts.o(.data) for touchgfx::TextProvider::unicodeConverterFunction
    textprovider.o(i._ZN8touchgfx12TextProvider16unicodeConverterEtPKth) refers to textprovider.o(.constdata) for .constdata
    textprovider.o(i._ZN8touchgfx12TextProvider16unicodeConverterEtPKth) refers to textprovider.o(.data) for .data
    textprovider.o(i._ZN8touchgfx12TextProvider18initializeInternalEv) refers to textprovider.o(i._ZN8touchgfx12TextProvider19getNextCharInternalEv) for touchgfx::TextProvider::getNextCharInternal()
    textprovider.o(i._ZN8touchgfx12TextProvider18initializeInternalEv) refers to texts.o(.data) for touchgfx::TextProvider::unicodeConverterInitFunction
    textprovider.o(i._ZN8touchgfx12TextProvider19getNextCharInternalEv) refers to hal.o(.data) for touchgfx::HAL::instance
    textprovider.o(i._ZN8touchgfx12TextProviderC1Ev) refers to textprovider.o(i._ZN8touchgfx12TextProvider18initializeInternalEv) for touchgfx::TextProvider::initializeInternal()
    textprovider.o(.ARM.exidx) refers to textprovider.o(i._ZN8touchgfx12TextProvider19getNextCharInternalEv) for i._ZN8touchgfx12TextProvider19getNextCharInternalEv
    textprovider.o(.ARM.exidx) refers to textprovider.o(i._ZN8touchgfx12TextProvider18initializeInternalEv) for i._ZN8touchgfx12TextProvider18initializeInternalEv
    textprovider.o(.ARM.exidx) refers to textprovider.o(i._ZN8touchgfx12TextProviderC1Ev) for i._ZN8touchgfx12TextProviderC1Ev
    textprovider.o(.ARM.exidx) refers to textprovider.o(i._ZN8touchgfx12TextProvider10initializeEPKtSt9__va_list) for i._ZN8touchgfx12TextProvider10initializeEPKtSt9__va_list
    textprovider.o(.ARM.exidx) refers to textprovider.o(i._ZN8touchgfx12TextProvider11getNextCharEv) for i._ZN8touchgfx12TextProvider11getNextCharEv
    textprovider.o(.ARM.exidx) refers to textprovider.o(i._ZN8touchgfx12TextProvider15getNextLigatureEh) for i._ZN8touchgfx12TextProvider15getNextLigatureEh
    textprovider.o(.ARM.exidx) refers to textprovider.o(i._ZN8touchgfx12TextProvider20unicodeConverterInitEv) for i._ZN8touchgfx12TextProvider20unicodeConverterInitEv
    textprovider.o(.ARM.exidx) refers to textprovider.o(i._ZN8touchgfx12TextProvider16unicodeConverterEtPKth) for i._ZN8touchgfx12TextProvider16unicodeConverterEtPKth
    texturemaptypes.o(i._ZN8touchgfx4EdgeC1ERKNS_9GradientsEPKNS_7Point3DEii) refers to texturemaptypes.o(i._ZN8touchgfx8ceil28_4Ei) for touchgfx::ceil28_4(int)
    texturemaptypes.o(i._ZN8touchgfx4EdgeC1ERKNS_9GradientsEPKNS_7Point3DEii) refers to texturemaptypes.o(i._ZN8touchgfx11floorDivModEiiRiS0_) for touchgfx::floorDivMod(int, int, int&, int&)
    texturemaptypes.o(i._ZN8touchgfx4EdgeC1ERKNS_9GradientsEPKNS_7Point3DEii) refers to texturemaptypes.o(i._ZN8touchgfx16fixed28_4ToFloatEi) for touchgfx::fixed28_4ToFloat(int)
    texturemaptypes.o(i._ZN8touchgfx9GradientsC1EPKNS_7Point3DE) refers to texturemaptypes.o(i._ZN8touchgfx12fixed28_4MulEii) for touchgfx::fixed28_4Mul(int, int)
    texturemaptypes.o(i._ZN8touchgfx9GradientsC1EPKNS_7Point3DE) refers to texturemaptypes.o(i._ZN8touchgfx16fixed28_4ToFloatEi) for touchgfx::fixed28_4ToFloat(int)
    texturemaptypes.o(.ARM.exidx) refers to texturemaptypes.o(i._ZN8touchgfx9GradientsC1EPKNS_7Point3DE) for i._ZN8touchgfx9GradientsC1EPKNS_7Point3DE
    texturemaptypes.o(.ARM.exidx) refers to texturemaptypes.o(i._ZN8touchgfx4EdgeC1ERKNS_9GradientsEPKNS_7Point3DEii) for i._ZN8touchgfx4EdgeC1ERKNS_9GradientsEPKNS_7Point3DEii
    touchcalibration.o(i._ZN8touchgfx16TouchCalibration14translatePointERNS_5PointE) refers to touchcalibration.o(i._ZN8touchgfx16TouchCalibration6muldivEiiiiiiRi) for touchgfx::TouchCalibration::muldiv(int, int, int, int, int, int, int&)
    touchcalibration.o(i._ZN8touchgfx16TouchCalibration14translatePointERNS_5PointE) refers to touchcalibration.o(.bss) for .bss
    touchcalibration.o(i._ZN8touchgfx16TouchCalibration20setCalibrationMatrixEPKNS_5PointES3_) refers to utils.o(i._ZN8touchgfx6memsetEPvhj) for touchgfx::memset(void*, unsigned char, unsigned)
    touchcalibration.o(i._ZN8touchgfx16TouchCalibration20setCalibrationMatrixEPKNS_5PointES3_) refers to touchcalibration.o(i._ZN8touchgfx16TouchCalibration3clzEi) for touchgfx::TouchCalibration::clz(int)
    touchcalibration.o(i._ZN8touchgfx16TouchCalibration20setCalibrationMatrixEPKNS_5PointES3_) refers to touchcalibration.o(.bss) for .bss
    touchcalibration.o(.ARM.exidx) refers to touchcalibration.o(i._ZN8touchgfx16TouchCalibration3clzEi) for i._ZN8touchgfx16TouchCalibration3clzEi
    touchcalibration.o(.ARM.exidx) refers to touchcalibration.o(i._ZN8touchgfx16TouchCalibration20setCalibrationMatrixEPKNS_5PointES3_) for i._ZN8touchgfx16TouchCalibration20setCalibrationMatrixEPKNS_5PointES3_
    touchcalibration.o(.ARM.exidx) refers to touchcalibration.o(i._ZN8touchgfx16TouchCalibration6muldivEiiiiiiRi) for i._ZN8touchgfx16TouchCalibration6muldivEiiiiiiRi
    touchcalibration.o(.ARM.exidx) refers to touchcalibration.o(i._ZN8touchgfx16TouchCalibration14translatePointERNS_5PointE) for i._ZN8touchgfx16TouchCalibration14translatePointERNS_5PointE
    utils.o(i._ZN8touchgfx27lookupBilinearRenderVariantERKNS_6BitmapE) refers to bitmap.o(i._ZNK8touchgfx6Bitmap9getFormatEv) for touchgfx::Bitmap::getFormat() const
    utils.o(i._ZN8touchgfx27lookupBilinearRenderVariantERKNS_6BitmapE) refers to bitmap.o(i._ZNK8touchgfx6Bitmap20hasTransparentPixelsEv) for touchgfx::Bitmap::hasTransparentPixels() const
    utils.o(i._ZN8touchgfx34lookupNearestNeighborRenderVariantERKNS_6BitmapE) refers to bitmap.o(i._ZNK8touchgfx6Bitmap9getFormatEv) for touchgfx::Bitmap::getFormat() const
    utils.o(i._ZN8touchgfx34lookupNearestNeighborRenderVariantERKNS_6BitmapE) refers to bitmap.o(i._ZNK8touchgfx6Bitmap20hasTransparentPixelsEv) for touchgfx::Bitmap::hasTransparentPixels() const
    utils.o(.ARM.exidx) refers to utils.o(i._ZN8touchgfx6memsetEPvhj) for i._ZN8touchgfx6memsetEPvhj
    utils.o(.ARM.exidx) refers to utils.o(i._ZN8touchgfx34lookupNearestNeighborRenderVariantERKNS_6BitmapE) for i._ZN8touchgfx34lookupNearestNeighborRenderVariantERKNS_6BitmapE
    utils.o(.ARM.exidx) refers to utils.o(i._ZN8touchgfx27lookupBilinearRenderVariantERKNS_6BitmapE) for i._ZN8touchgfx27lookupBilinearRenderVariantERKNS_6BitmapE
    outline.o(i._ZN8touchgfx7Outline10renderLineEiiii) refers to outline.o(i._ZN8touchgfx4Cell3setEiiii) for touchgfx::Cell::set(int, int, int, int)
    outline.o(i._ZN8touchgfx7Outline10renderLineEiiii) refers to outline.o(i._ZN8touchgfx4Cell8addCoverEii) for touchgfx::Cell::addCover(int, int)
    outline.o(i._ZN8touchgfx7Outline5resetEv) refers to canvaswidgetrenderer.o(i._ZN8touchgfx20CanvasWidgetRenderer16getOutlineBufferEv) for touchgfx::CanvasWidgetRenderer::getOutlineBuffer()
    outline.o(i._ZN8touchgfx7Outline5resetEv) refers to canvaswidgetrenderer.o(i._ZN8touchgfx20CanvasWidgetRenderer20getOutlineBufferSizeEv) for touchgfx::CanvasWidgetRenderer::getOutlineBufferSize()
    outline.o(i._ZN8touchgfx7Outline5resetEv) refers to outline.o(i._ZN8touchgfx4Cell3setEiiii) for touchgfx::Cell::set(int, int, int, int)
    outline.o(i._ZN8touchgfx7Outline6lineToEii) refers to outline.o(i._ZN8touchgfx7Outline10renderLineEiiii) for touchgfx::Outline::renderLine(int, int, int, int)
    outline.o(i._ZN8touchgfx7Outline6moveToEii) refers to outline.o(i._ZN8touchgfx7Outline5resetEv) for touchgfx::Outline::reset()
    outline.o(i._ZN8touchgfx7Outline6moveToEii) refers to outline.o(i._ZN8touchgfx7Outline6lineToEii) for touchgfx::Outline::lineTo(int, int)
    outline.o(i._ZN8touchgfx7Outline6moveToEii) refers to outline.o(i._ZN8touchgfx4Cell3setEiiii) for touchgfx::Cell::set(int, int, int, int)
    outline.o(i._ZN8touchgfx7Outline8getCellsEv) refers to outline.o(i._ZN8touchgfx7Outline6lineToEii) for touchgfx::Outline::lineTo(int, int)
    outline.o(i._ZN8touchgfx7Outline8getCellsEv) refers to outline.o(i._ZN8touchgfx7Outline9sortCellsEv) for touchgfx::Outline::sortCells()
    outline.o(i._ZN8touchgfx7Outline9sortCellsEv) refers to outline.o(i._ZN8touchgfx7Outline10qsortCellsEPNS_4CellEj) for touchgfx::Outline::qsortCells(touchgfx::Cell*, unsigned)
    outline.o(i._ZN8touchgfx7OutlineC1Ev) refers to outline.o(i._ZN8touchgfx7Outline5resetEv) for touchgfx::Outline::reset()
    outline.o(i._ZN8touchgfx7OutlineC1Ev) refers to outline.o(.constdata__ZTVN8touchgfx7OutlineE) for vtable for touchgfx::Outline
    outline.o(i._ZN8touchgfx7OutlineD0Ev) refers to outline.o(i._ZN8touchgfx7OutlineD1Ev) for touchgfx::Outline::~Outline()
    outline.o(i._ZN8touchgfx7OutlineD0Ev) refers to delete.o(i._ZdlPv) for operator delete (void*)
    outline.o(i._ZN8touchgfx7OutlineD1Ev) refers to outline.o(.constdata__ZTVN8touchgfx7OutlineE) for vtable for touchgfx::Outline
    outline.o(.ARM.exidx) refers to outline.o(i._ZN8touchgfx7Outline5resetEv) for i._ZN8touchgfx7Outline5resetEv
    outline.o(.ARM.exidx) refers to outline.o(i._ZN8touchgfx7OutlineC1Ev) for i._ZN8touchgfx7OutlineC1Ev
    outline.o(.ARM.exidx) refers to outline.o(i._ZN8touchgfx7OutlineD1Ev) for i._ZN8touchgfx7OutlineD1Ev
    outline.o(.ARM.exidx) refers to outline.o(i._ZN8touchgfx7OutlineD0Ev) for i._ZN8touchgfx7OutlineD0Ev
    outline.o(.ARM.exidx) refers to outline.o(i._ZN8touchgfx7Outline10renderLineEiiii) for i._ZN8touchgfx7Outline10renderLineEiiii
    outline.o(.ARM.exidx) refers to outline.o(i._ZN8touchgfx7Outline6lineToEii) for i._ZN8touchgfx7Outline6lineToEii
    outline.o(.ARM.exidx) refers to outline.o(i._ZN8touchgfx7Outline6moveToEii) for i._ZN8touchgfx7Outline6moveToEii
    outline.o(.ARM.exidx) refers to outline.o(i._ZN8touchgfx7Outline10qsortCellsEPNS_4CellEj) for i._ZN8touchgfx7Outline10qsortCellsEPNS_4CellEj
    outline.o(.ARM.exidx) refers to outline.o(i._ZN8touchgfx7Outline9sortCellsEv) for i._ZN8touchgfx7Outline9sortCellsEv
    outline.o(.ARM.exidx) refers to outline.o(i._ZN8touchgfx7Outline8getCellsEv) for i._ZN8touchgfx7Outline8getCellsEv
    renderingbuffer.o(.ARM.exidx) refers to renderingbuffer.o(i._ZN8touchgfx15RenderingBufferC1Ev) for i._ZN8touchgfx15RenderingBufferC1Ev
    renderingbuffer.o(.ARM.exidx) refers to renderingbuffer.o(i._ZN8touchgfx15RenderingBufferD1Ev) for i._ZN8touchgfx15RenderingBufferD1Ev
    renderingbuffer.o(.ARM.exidx) refers to renderingbuffer.o(i._ZN8touchgfx15RenderingBufferC1EPhhjji) for i._ZN8touchgfx15RenderingBufferC1EPhhjji
    renderingbuffer.o(.ARM.exidx) refers to renderingbuffer.o(i._ZN8touchgfx15RenderingBuffer6attachEPhhjji) for i._ZN8touchgfx15RenderingBuffer6attachEPhhjji
    scanline.o(i._ZN8touchgfx8Scanline5resetEv) refers to canvaswidgetrenderer.o(i._ZN8touchgfx20CanvasWidgetRenderer17getScanlineCoversEv) for touchgfx::CanvasWidgetRenderer::getScanlineCovers()
    scanline.o(i._ZN8touchgfx8Scanline5resetEv) refers to canvaswidgetrenderer.o(i._ZN8touchgfx20CanvasWidgetRenderer23getScanlineStartIndicesEv) for touchgfx::CanvasWidgetRenderer::getScanlineStartIndices()
    scanline.o(i._ZN8touchgfx8Scanline5resetEv) refers to canvaswidgetrenderer.o(i._ZN8touchgfx20CanvasWidgetRenderer17getScanlineCountsEv) for touchgfx::CanvasWidgetRenderer::getScanlineCounts()
    scanline.o(i._ZN8touchgfx8Scanline7addSpanEiijj) refers to canvaswidgetrenderer.o(i._ZN8touchgfx20CanvasWidgetRenderer16getScanlineWidthEv) for touchgfx::CanvasWidgetRenderer::getScanlineWidth()
    scanline.o(i._ZN8touchgfx8Scanline7addSpanEiijj) refers to utils.o(i._ZN8touchgfx6memsetEPvhj) for touchgfx::memset(void*, unsigned char, unsigned)
    scanline.o(i._ZN8touchgfx8ScanlineC1Ev) refers to scanline.o(i._ZN8touchgfx8Scanline5resetEv) for touchgfx::Scanline::reset()
    scanline.o(i._ZN8touchgfx8ScanlineC1Ev) refers to scanline.o(.constdata__ZTVN8touchgfx8ScanlineE) for vtable for touchgfx::Scanline
    scanline.o(.ARM.exidx) refers to scanline.o(i._ZN8touchgfx8Scanline5resetEv) for i._ZN8touchgfx8Scanline5resetEv
    scanline.o(.ARM.exidx) refers to scanline.o(i._ZN8touchgfx8ScanlineC1Ev) for i._ZN8touchgfx8ScanlineC1Ev
    scanline.o(.ARM.exidx) refers to scanline.o(i._ZN8touchgfx8Scanline7addSpanEiijj) for i._ZN8touchgfx8Scanline7addSpanEiijj
    delete.o(i._ZdlPv) refers to malloc.o(i.free) for free
    delete.o(.ARM.exidx) refers to delete.o(i._ZdlPv) for i._ZdlPv
    pure_virt.o(i.__cxa_pure_virtual) refers to cpp_signal.o(.text) for __rt_SIGPVFN
    pure_virt.o(.ARM.exidx) refers to pure_virt.o(i.__cxa_pure_virtual) for i.__cxa_pure_virtual
    cxa_guard_acquire.o(.ARM.exidx) refers to cxa_guard_acquire.o(i.__cxa_guard_acquire) for i.__cxa_guard_acquire
    cxa_guard_release.o(.ARM.exidx) refers to cxa_guard_release.o(i.__cxa_guard_release) for i.__cxa_guard_release
    lib_rtti_impl.o(i._ZN10__cxxabiv116__enum_type_infoD0Ev) refers to lib_rtti_impl.o(i._ZN10__cxxabiv116__enum_type_infoD1Ev) for __cxxabiv1::__enum_type_info::~__enum_type_info()
    lib_rtti_impl.o(i._ZN10__cxxabiv117__array_type_infoD0Ev) refers to lib_rtti_impl.o(i._ZN10__cxxabiv117__array_type_infoD1Ev) for __cxxabiv1::__array_type_info::~__array_type_info()
    lib_rtti_impl.o(i._ZN10__cxxabiv117__class_type_infoD0Ev) refers to lib_rtti_impl.o(i._ZN10__cxxabiv117__class_type_infoD1Ev) for __cxxabiv1::__class_type_info::~__class_type_info()
    lib_rtti_impl.o(i._ZN10__cxxabiv117__pbase_type_infoD0Ev) refers to lib_rtti_impl.o(i._ZN10__cxxabiv117__pbase_type_infoD1Ev) for __cxxabiv1::__pbase_type_info::~__pbase_type_info()
    lib_rtti_impl.o(i._ZN10__cxxabiv119__pointer_type_infoD0Ev) refers to lib_rtti_impl.o(i._ZN10__cxxabiv119__pointer_type_infoD1Ev) for __cxxabiv1::__pointer_type_info::~__pointer_type_info()
    lib_rtti_impl.o(i._ZN10__cxxabiv119__pointer_type_infoD1Ev) refers to lib_rtti_impl.o(i._ZN10__cxxabiv117__pbase_type_infoD1Ev) for __cxxabiv1::__pbase_type_info::~__pbase_type_info()
    lib_rtti_impl.o(i._ZN10__cxxabiv120__function_type_infoD0Ev) refers to lib_rtti_impl.o(i._ZN10__cxxabiv120__function_type_infoD1Ev) for __cxxabiv1::__function_type_info::~__function_type_info()
    lib_rtti_impl.o(i._ZN10__cxxabiv120__si_class_type_infoD0Ev) refers to lib_rtti_impl.o(i._ZN10__cxxabiv120__si_class_type_infoD1Ev) for __cxxabiv1::__si_class_type_info::~__si_class_type_info()
    lib_rtti_impl.o(i._ZN10__cxxabiv120__si_class_type_infoD1Ev) refers to lib_rtti_impl.o(i._ZN10__cxxabiv117__class_type_infoD1Ev) for __cxxabiv1::__class_type_info::~__class_type_info()
    lib_rtti_impl.o(i._ZN10__cxxabiv121__vmi_class_type_infoD0Ev) refers to lib_rtti_impl.o(i._ZN10__cxxabiv121__vmi_class_type_infoD1Ev) for __cxxabiv1::__vmi_class_type_info::~__vmi_class_type_info()
    lib_rtti_impl.o(i._ZN10__cxxabiv121__vmi_class_type_infoD1Ev) refers to lib_rtti_impl.o(i._ZN10__cxxabiv117__class_type_infoD1Ev) for __cxxabiv1::__class_type_info::~__class_type_info()
    lib_rtti_impl.o(i._ZN10__cxxabiv123__fundamental_type_infoD0Ev) refers to lib_rtti_impl.o(i._ZN10__cxxabiv123__fundamental_type_infoD1Ev) for __cxxabiv1::__fundamental_type_info::~__fundamental_type_info()
    lib_rtti_impl.o(i._ZN10__cxxabiv129__pointer_to_member_type_infoD0Ev) refers to lib_rtti_impl.o(i._ZN10__cxxabiv129__pointer_to_member_type_infoD1Ev) for __cxxabiv1::__pointer_to_member_type_info::~__pointer_to_member_type_info()
    lib_rtti_impl.o(i._ZN10__cxxabiv129__pointer_to_member_type_infoD1Ev) refers to lib_rtti_impl.o(i._ZN10__cxxabiv117__pbase_type_infoD1Ev) for __cxxabiv1::__pbase_type_info::~__pbase_type_info()
    lib_rtti_impl.o(.ARM.exidx) refers to lib_rtti_impl.o(i._ZN10__cxxabiv123__fundamental_type_infoD1Ev) for i._ZN10__cxxabiv123__fundamental_type_infoD1Ev
    lib_rtti_impl.o(.ARM.exidx) refers to lib_rtti_impl.o(i._ZN10__cxxabiv123__fundamental_type_infoD0Ev) for i._ZN10__cxxabiv123__fundamental_type_infoD0Ev
    lib_rtti_impl.o(.ARM.exidx) refers to lib_rtti_impl.o(i._ZN10__cxxabiv117__array_type_infoD1Ev) for i._ZN10__cxxabiv117__array_type_infoD1Ev
    lib_rtti_impl.o(.ARM.exidx) refers to lib_rtti_impl.o(i._ZN10__cxxabiv117__array_type_infoD0Ev) for i._ZN10__cxxabiv117__array_type_infoD0Ev
    lib_rtti_impl.o(.ARM.exidx) refers to lib_rtti_impl.o(i._ZN10__cxxabiv120__function_type_infoD1Ev) for i._ZN10__cxxabiv120__function_type_infoD1Ev
    lib_rtti_impl.o(.ARM.exidx) refers to lib_rtti_impl.o(i._ZN10__cxxabiv120__function_type_infoD0Ev) for i._ZN10__cxxabiv120__function_type_infoD0Ev
    lib_rtti_impl.o(.ARM.exidx) refers to lib_rtti_impl.o(i._ZN10__cxxabiv116__enum_type_infoD1Ev) for i._ZN10__cxxabiv116__enum_type_infoD1Ev
    lib_rtti_impl.o(.ARM.exidx) refers to lib_rtti_impl.o(i._ZN10__cxxabiv116__enum_type_infoD0Ev) for i._ZN10__cxxabiv116__enum_type_infoD0Ev
    lib_rtti_impl.o(.ARM.exidx) refers to lib_rtti_impl.o(i._ZN10__cxxabiv117__class_type_infoD1Ev) for i._ZN10__cxxabiv117__class_type_infoD1Ev
    lib_rtti_impl.o(.ARM.exidx) refers to lib_rtti_impl.o(i._ZN10__cxxabiv117__class_type_infoD0Ev) for i._ZN10__cxxabiv117__class_type_infoD0Ev
    lib_rtti_impl.o(.ARM.exidx) refers to lib_rtti_impl.o(i._ZN10__cxxabiv120__si_class_type_infoD1Ev) for i._ZN10__cxxabiv120__si_class_type_infoD1Ev
    lib_rtti_impl.o(.ARM.exidx) refers to lib_rtti_impl.o(i._ZN10__cxxabiv120__si_class_type_infoD0Ev) for i._ZN10__cxxabiv120__si_class_type_infoD0Ev
    lib_rtti_impl.o(.ARM.exidx) refers to lib_rtti_impl.o(i._ZN10__cxxabiv121__vmi_class_type_infoD1Ev) for i._ZN10__cxxabiv121__vmi_class_type_infoD1Ev
    lib_rtti_impl.o(.ARM.exidx) refers to lib_rtti_impl.o(i._ZN10__cxxabiv121__vmi_class_type_infoD0Ev) for i._ZN10__cxxabiv121__vmi_class_type_infoD0Ev
    lib_rtti_impl.o(.ARM.exidx) refers to lib_rtti_impl.o(i._ZN10__cxxabiv117__pbase_type_infoD1Ev) for i._ZN10__cxxabiv117__pbase_type_infoD1Ev
    lib_rtti_impl.o(.ARM.exidx) refers to lib_rtti_impl.o(i._ZN10__cxxabiv117__pbase_type_infoD0Ev) for i._ZN10__cxxabiv117__pbase_type_infoD0Ev
    lib_rtti_impl.o(.ARM.exidx) refers to lib_rtti_impl.o(i._ZN10__cxxabiv119__pointer_type_infoD1Ev) for i._ZN10__cxxabiv119__pointer_type_infoD1Ev
    lib_rtti_impl.o(.ARM.exidx) refers to lib_rtti_impl.o(i._ZN10__cxxabiv119__pointer_type_infoD0Ev) for i._ZN10__cxxabiv119__pointer_type_infoD0Ev
    lib_rtti_impl.o(.ARM.exidx) refers to lib_rtti_impl.o(i._ZN10__cxxabiv129__pointer_to_member_type_infoD1Ev) for i._ZN10__cxxabiv129__pointer_to_member_type_infoD1Ev
    lib_rtti_impl.o(.ARM.exidx) refers to lib_rtti_impl.o(i._ZN10__cxxabiv129__pointer_to_member_type_infoD0Ev) for i._ZN10__cxxabiv129__pointer_to_member_type_infoD0Ev
    aeabi_vec_ctor_nocookie_nodtor.o(.ARM.exidx) refers to aeabi_vec_ctor_nocookie_nodtor.o(i.__aeabi_vec_ctor_nocookie_nodtor) for i.__aeabi_vec_ctor_nocookie_nodtor
    aeabi_vec_ctor_nocookie_nodtor.o(.ARM.exidx) refers to unwind_pr0.o(.text) for __aeabi_unwind_cpp_pr0
    aeabi_vec_dtor_noexceptions.o(.ARM.exidx) refers to aeabi_vec_dtor_noexceptions.o(.text) for .text
    cosf.o(i.__hardfp_cosf) refers (Special) to iusefp.o(.text) for __I$use$fp
    cosf.o(i.__hardfp_cosf) refers to rredf.o(i.__mathlib_rredf2) for __mathlib_rredf2
    cosf.o(i.__hardfp_cosf) refers to errno.o(i.__set_errno) for __set_errno
    cosf.o(i.__hardfp_cosf) refers to funder.o(i.__mathlib_flt_invalid) for __mathlib_flt_invalid
    cosf.o(i.__hardfp_cosf) refers to funder.o(i.__mathlib_flt_infnan) for __mathlib_flt_infnan
    cosf.o(i.__softfp_cosf) refers (Special) to iusefp.o(.text) for __I$use$fp
    cosf.o(i.__softfp_cosf) refers to cosf.o(i.__hardfp_cosf) for __hardfp_cosf
    cosf.o(i.cosf) refers (Special) to iusefp.o(.text) for __I$use$fp
    cosf.o(i.cosf) refers to cosf.o(i.__hardfp_cosf) for __hardfp_cosf
    cosf_x.o(i.____hardfp_cosf$lsc) refers (Special) to iusefp.o(.text) for __I$use$fp
    cosf_x.o(i.____hardfp_cosf$lsc) refers to rredf.o(i.__mathlib_rredf2) for __mathlib_rredf2
    cosf_x.o(i.____hardfp_cosf$lsc) refers to errno.o(i.__set_errno) for __set_errno
    cosf_x.o(i.____hardfp_cosf$lsc) refers to funder.o(i.__mathlib_flt_infnan) for __mathlib_flt_infnan
    cosf_x.o(i.____softfp_cosf$lsc) refers (Special) to iusefp.o(.text) for __I$use$fp
    cosf_x.o(i.____softfp_cosf$lsc) refers to cosf_x.o(i.____hardfp_cosf$lsc) for ____hardfp_cosf$lsc
    cosf_x.o(i.__cosf$lsc) refers (Special) to iusefp.o(.text) for __I$use$fp
    cosf_x.o(i.__cosf$lsc) refers to cosf_x.o(i.____hardfp_cosf$lsc) for ____hardfp_cosf$lsc
    floorf.o(i.__hardfp_floorf) refers (Special) to iusefp.o(.text) for __I$use$fp
    floorf.o(i.__softfp_floorf) refers (Special) to iusefp.o(.text) for __I$use$fp
    floorf.o(i.floorf) refers (Special) to iusefp.o(.text) for __I$use$fp
    powf.o(i.__hardfp_powf) refers (Special) to iusefp.o(.text) for __I$use$fp
    powf.o(i.__hardfp_powf) refers to fpstat.o(.text) for __ieee_status
    powf.o(i.__hardfp_powf) refers to errno.o(i.__set_errno) for __set_errno
    powf.o(i.__hardfp_powf) refers to funder.o(i.__mathlib_flt_overflow) for __mathlib_flt_overflow
    powf.o(i.__hardfp_powf) refers to fpclassifyf.o(i.__ARM_fpclassifyf) for __ARM_fpclassifyf
    powf.o(i.__hardfp_powf) refers to funder.o(i.__mathlib_flt_underflow) for __mathlib_flt_underflow
    powf.o(i.__hardfp_powf) refers to funder.o(i.__mathlib_flt_invalid) for __mathlib_flt_invalid
    powf.o(i.__hardfp_powf) refers to powf.o(.constdata) for .constdata
    powf.o(i.__hardfp_powf) refers to funder.o(i.__mathlib_flt_infnan2) for __mathlib_flt_infnan2
    powf.o(i.__hardfp_powf) refers to funder.o(i.__mathlib_flt_divzero) for __mathlib_flt_divzero
    powf.o(i.__softfp_powf) refers (Special) to iusefp.o(.text) for __I$use$fp
    powf.o(i.__softfp_powf) refers to powf.o(i.__hardfp_powf) for __hardfp_powf
    powf.o(i.powf) refers (Special) to iusefp.o(.text) for __I$use$fp
    powf.o(i.powf) refers to powf.o(i.__hardfp_powf) for __hardfp_powf
    powf.o(.constdata) refers (Special) to iusefp.o(.text) for __I$use$fp
    powf_x.o(i.____hardfp_powf$lsc) refers (Special) to iusefp.o(.text) for __I$use$fp
    powf_x.o(i.____hardfp_powf$lsc) refers to fpstat.o(.text) for __ieee_status
    powf_x.o(i.____hardfp_powf$lsc) refers to errno.o(i.__set_errno) for __set_errno
    powf_x.o(i.____hardfp_powf$lsc) refers to powf_x.o(.constdata) for .constdata
    powf_x.o(i.____hardfp_powf$lsc) refers to funder.o(i.__mathlib_flt_infnan2) for __mathlib_flt_infnan2
    powf_x.o(i.____softfp_powf$lsc) refers (Special) to iusefp.o(.text) for __I$use$fp
    powf_x.o(i.____softfp_powf$lsc) refers to powf_x.o(i.____hardfp_powf$lsc) for ____hardfp_powf$lsc
    powf_x.o(i.__powf$lsc) refers (Special) to iusefp.o(.text) for __I$use$fp
    powf_x.o(i.__powf$lsc) refers to powf_x.o(i.____hardfp_powf$lsc) for ____hardfp_powf$lsc
    powf_x.o(.constdata) refers (Special) to iusefp.o(.text) for __I$use$fp
    sinf.o(i.__hardfp_sinf) refers (Special) to iusefp.o(.text) for __I$use$fp
    sinf.o(i.__hardfp_sinf) refers to rredf.o(i.__mathlib_rredf2) for __mathlib_rredf2
    sinf.o(i.__hardfp_sinf) refers to fpclassifyf.o(i.__ARM_fpclassifyf) for __ARM_fpclassifyf
    sinf.o(i.__hardfp_sinf) refers to funder.o(i.__mathlib_flt_underflow) for __mathlib_flt_underflow
    sinf.o(i.__hardfp_sinf) refers to errno.o(i.__set_errno) for __set_errno
    sinf.o(i.__hardfp_sinf) refers to funder.o(i.__mathlib_flt_invalid) for __mathlib_flt_invalid
    sinf.o(i.__hardfp_sinf) refers to funder.o(i.__mathlib_flt_infnan) for __mathlib_flt_infnan
    sinf.o(i.__softfp_sinf) refers (Special) to iusefp.o(.text) for __I$use$fp
    sinf.o(i.__softfp_sinf) refers to sinf.o(i.__hardfp_sinf) for __hardfp_sinf
    sinf.o(i.sinf) refers (Special) to iusefp.o(.text) for __I$use$fp
    sinf.o(i.sinf) refers to sinf.o(i.__hardfp_sinf) for __hardfp_sinf
    sinf_x.o(i.____hardfp_sinf$lsc) refers (Special) to iusefp.o(.text) for __I$use$fp
    sinf_x.o(i.____hardfp_sinf$lsc) refers to rredf.o(i.__mathlib_rredf2) for __mathlib_rredf2
    sinf_x.o(i.____hardfp_sinf$lsc) refers to errno.o(i.__set_errno) for __set_errno
    sinf_x.o(i.____hardfp_sinf$lsc) refers to funder.o(i.__mathlib_flt_infnan) for __mathlib_flt_infnan
    sinf_x.o(i.____softfp_sinf$lsc) refers (Special) to iusefp.o(.text) for __I$use$fp
    sinf_x.o(i.____softfp_sinf$lsc) refers to sinf_x.o(i.____hardfp_sinf$lsc) for ____hardfp_sinf$lsc
    sinf_x.o(i.__sinf$lsc) refers (Special) to iusefp.o(.text) for __I$use$fp
    sinf_x.o(i.__sinf$lsc) refers to sinf_x.o(i.____hardfp_sinf$lsc) for ____hardfp_sinf$lsc
    sqrtf.o(i.__hardfp_sqrtf) refers (Special) to iusefp.o(.text) for __I$use$fp
    sqrtf.o(i.__hardfp_sqrtf) refers to errno.o(i.__set_errno) for __set_errno
    sqrtf.o(i.__softfp_sqrtf) refers (Special) to iusefp.o(.text) for __I$use$fp
    sqrtf.o(i.__softfp_sqrtf) refers to errno.o(i.__set_errno) for __set_errno
    sqrtf.o(i.sqrtf) refers (Special) to iusefp.o(.text) for __I$use$fp
    sqrtf.o(i.sqrtf) refers to errno.o(i.__set_errno) for __set_errno
    sqrtf_x.o(i.____hardfp_sqrtf$lsc) refers (Special) to iusefp.o(.text) for __I$use$fp
    sqrtf_x.o(i.____hardfp_sqrtf$lsc) refers to errno.o(i.__set_errno) for __set_errno
    sqrtf_x.o(i.____softfp_sqrtf$lsc) refers (Special) to iusefp.o(.text) for __I$use$fp
    sqrtf_x.o(i.____softfp_sqrtf$lsc) refers to errno.o(i.__set_errno) for __set_errno
    sqrtf_x.o(i.__sqrtf$lsc) refers (Special) to iusefp.o(.text) for __I$use$fp
    sqrtf_x.o(i.__sqrtf$lsc) refers to errno.o(i.__set_errno) for __set_errno
    entry.o(.ARM.Collect$$$$00000000) refers (Special) to entry10a.o(.ARM.Collect$$$$0000000D) for __rt_final_cpp
    entry.o(.ARM.Collect$$$$00000000) refers (Special) to entry11a.o(.ARM.Collect$$$$0000000F) for __rt_final_exit
    entry.o(.ARM.Collect$$$$00000000) refers (Special) to entry7b.o(.ARM.Collect$$$$00000008) for _main_clock
    entry.o(.ARM.Collect$$$$00000000) refers (Special) to entry8b.o(.ARM.Collect$$$$0000000A) for _main_cpp_init
    entry.o(.ARM.Collect$$$$00000000) refers (Special) to entry9a.o(.ARM.Collect$$$$0000000B) for _main_init
    entry.o(.ARM.Collect$$$$00000000) refers (Special) to entry5.o(.ARM.Collect$$$$00000004) for _main_scatterload
    entry.o(.ARM.Collect$$$$00000000) refers (Special) to entry2.o(.ARM.Collect$$$$00000001) for _main_stk
    printfb.o(i.__0fprintf$bare) refers to printfb.o(i._printf_core) for _printf_core
    printfb.o(i.__0fprintf$bare) refers to main.o(i.fputc) for fputc
    printfb.o(i.__0printf$bare) refers to printfb.o(i._printf_core) for _printf_core
    printfb.o(i.__0printf$bare) refers to main.o(i.fputc) for fputc
    printfb.o(i.__0printf$bare) refers to stdout.o(.data) for __stdout
    printfb.o(i.__0snprintf$bare) refers to printfb.o(i._printf_core) for _printf_core
    printfb.o(i.__0snprintf$bare) refers to printfb.o(i._snputc) for _snputc
    printfb.o(i.__0sprintf$bare) refers to printfb.o(i._printf_core) for _printf_core
    printfb.o(i.__0sprintf$bare) refers to printfb.o(i._sputc) for _sputc
    printfb.o(i.__0vfprintf$bare) refers to printfb.o(i._printf_core) for _printf_core
    printfb.o(i.__0vfprintf$bare) refers to main.o(i.fputc) for fputc
    printfb.o(i.__0vprintf$bare) refers to printfb.o(i._printf_core) for _printf_core
    printfb.o(i.__0vprintf$bare) refers to main.o(i.fputc) for fputc
    printfb.o(i.__0vprintf$bare) refers to stdout.o(.data) for __stdout
    printfb.o(i.__0vsnprintf$bare) refers to printfb.o(i._printf_core) for _printf_core
    printfb.o(i.__0vsnprintf$bare) refers to printfb.o(i._snputc) for _snputc
    printfb.o(i.__0vsprintf$bare) refers to printfb.o(i._printf_core) for _printf_core
    printfb.o(i.__0vsprintf$bare) refers to printfb.o(i._sputc) for _sputc
    printf0.o(i.__0fprintf$0) refers to printf0.o(i._printf_core) for _printf_core
    printf0.o(i.__0fprintf$0) refers to main.o(i.fputc) for fputc
    printf0.o(i.__0printf$0) refers to printf0.o(i._printf_core) for _printf_core
    printf0.o(i.__0printf$0) refers to main.o(i.fputc) for fputc
    printf0.o(i.__0printf$0) refers to stdout.o(.data) for __stdout
    printf0.o(i.__0snprintf$0) refers to printf0.o(i._printf_core) for _printf_core
    printf0.o(i.__0snprintf$0) refers to printf0.o(i._snputc) for _snputc
    printf0.o(i.__0sprintf$0) refers to printf0.o(i._printf_core) for _printf_core
    printf0.o(i.__0sprintf$0) refers to printf0.o(i._sputc) for _sputc
    printf0.o(i.__0vfprintf$0) refers to printf0.o(i._printf_core) for _printf_core
    printf0.o(i.__0vfprintf$0) refers to main.o(i.fputc) for fputc
    printf0.o(i.__0vprintf$0) refers to printf0.o(i._printf_core) for _printf_core
    printf0.o(i.__0vprintf$0) refers to main.o(i.fputc) for fputc
    printf0.o(i.__0vprintf$0) refers to stdout.o(.data) for __stdout
    printf0.o(i.__0vsnprintf$0) refers to printf0.o(i._printf_core) for _printf_core
    printf0.o(i.__0vsnprintf$0) refers to printf0.o(i._snputc) for _snputc
    printf0.o(i.__0vsprintf$0) refers to printf0.o(i._printf_core) for _printf_core
    printf0.o(i.__0vsprintf$0) refers to printf0.o(i._sputc) for _sputc
    printf1.o(i.__0fprintf$1) refers to printf1.o(i._printf_core) for _printf_core
    printf1.o(i.__0fprintf$1) refers to main.o(i.fputc) for fputc
    printf1.o(i.__0printf$1) refers to printf1.o(i._printf_core) for _printf_core
    printf1.o(i.__0printf$1) refers to main.o(i.fputc) for fputc
    printf1.o(i.__0printf$1) refers to stdout.o(.data) for __stdout
    printf1.o(i.__0snprintf$1) refers to printf1.o(i._printf_core) for _printf_core
    printf1.o(i.__0snprintf$1) refers to printf1.o(i._snputc) for _snputc
    printf1.o(i.__0sprintf$1) refers to printf1.o(i._printf_core) for _printf_core
    printf1.o(i.__0sprintf$1) refers to printf1.o(i._sputc) for _sputc
    printf1.o(i.__0vfprintf$1) refers to printf1.o(i._printf_core) for _printf_core
    printf1.o(i.__0vfprintf$1) refers to main.o(i.fputc) for fputc
    printf1.o(i.__0vprintf$1) refers to printf1.o(i._printf_core) for _printf_core
    printf1.o(i.__0vprintf$1) refers to main.o(i.fputc) for fputc
    printf1.o(i.__0vprintf$1) refers to stdout.o(.data) for __stdout
    printf1.o(i.__0vsnprintf$1) refers to printf1.o(i._printf_core) for _printf_core
    printf1.o(i.__0vsnprintf$1) refers to printf1.o(i._snputc) for _snputc
    printf1.o(i.__0vsprintf$1) refers to printf1.o(i._printf_core) for _printf_core
    printf1.o(i.__0vsprintf$1) refers to printf1.o(i._sputc) for _sputc
    printf1.o(i._printf_core) refers to uidiv.o(.text) for __aeabi_uidivmod
    printf2.o(i.__0fprintf$2) refers to printf2.o(i._printf_core) for _printf_core
    printf2.o(i.__0fprintf$2) refers to main.o(i.fputc) for fputc
    printf2.o(i.__0printf$2) refers to printf2.o(i._printf_core) for _printf_core
    printf2.o(i.__0printf$2) refers to main.o(i.fputc) for fputc
    printf2.o(i.__0printf$2) refers to stdout.o(.data) for __stdout
    printf2.o(i.__0snprintf$2) refers to printf2.o(i._printf_core) for _printf_core
    printf2.o(i.__0snprintf$2) refers to printf2.o(i._snputc) for _snputc
    printf2.o(i.__0sprintf$2) refers to printf2.o(i._printf_core) for _printf_core
    printf2.o(i.__0sprintf$2) refers to printf2.o(i._sputc) for _sputc
    printf2.o(i.__0vfprintf$2) refers to printf2.o(i._printf_core) for _printf_core
    printf2.o(i.__0vfprintf$2) refers to main.o(i.fputc) for fputc
    printf2.o(i.__0vprintf$2) refers to printf2.o(i._printf_core) for _printf_core
    printf2.o(i.__0vprintf$2) refers to main.o(i.fputc) for fputc
    printf2.o(i.__0vprintf$2) refers to stdout.o(.data) for __stdout
    printf2.o(i.__0vsnprintf$2) refers to printf2.o(i._printf_core) for _printf_core
    printf2.o(i.__0vsnprintf$2) refers to printf2.o(i._snputc) for _snputc
    printf2.o(i.__0vsprintf$2) refers to printf2.o(i._printf_core) for _printf_core
    printf2.o(i.__0vsprintf$2) refers to printf2.o(i._sputc) for _sputc
    printf3.o(i.__0fprintf$3) refers to printf3.o(i._printf_core) for _printf_core
    printf3.o(i.__0fprintf$3) refers to main.o(i.fputc) for fputc
    printf3.o(i.__0printf$3) refers to printf3.o(i._printf_core) for _printf_core
    printf3.o(i.__0printf$3) refers to main.o(i.fputc) for fputc
    printf3.o(i.__0printf$3) refers to stdout.o(.data) for __stdout
    printf3.o(i.__0snprintf$3) refers to printf3.o(i._printf_core) for _printf_core
    printf3.o(i.__0snprintf$3) refers to printf3.o(i._snputc) for _snputc
    printf3.o(i.__0sprintf$3) refers to printf3.o(i._printf_core) for _printf_core
    printf3.o(i.__0sprintf$3) refers to printf3.o(i._sputc) for _sputc
    printf3.o(i.__0vfprintf$3) refers to printf3.o(i._printf_core) for _printf_core
    printf3.o(i.__0vfprintf$3) refers to main.o(i.fputc) for fputc
    printf3.o(i.__0vprintf$3) refers to printf3.o(i._printf_core) for _printf_core
    printf3.o(i.__0vprintf$3) refers to main.o(i.fputc) for fputc
    printf3.o(i.__0vprintf$3) refers to stdout.o(.data) for __stdout
    printf3.o(i.__0vsnprintf$3) refers to printf3.o(i._printf_core) for _printf_core
    printf3.o(i.__0vsnprintf$3) refers to printf3.o(i._snputc) for _snputc
    printf3.o(i.__0vsprintf$3) refers to printf3.o(i._printf_core) for _printf_core
    printf3.o(i.__0vsprintf$3) refers to printf3.o(i._sputc) for _sputc
    printf3.o(i._printf_core) refers to uidiv.o(.text) for __aeabi_uidivmod
    printf4.o(i.__0fprintf$4) refers to printf4.o(i._printf_core) for _printf_core
    printf4.o(i.__0fprintf$4) refers to main.o(i.fputc) for fputc
    printf4.o(i.__0printf$4) refers to printf4.o(i._printf_core) for _printf_core
    printf4.o(i.__0printf$4) refers to main.o(i.fputc) for fputc
    printf4.o(i.__0printf$4) refers to stdout.o(.data) for __stdout
    printf4.o(i.__0snprintf$4) refers to printf4.o(i._printf_core) for _printf_core
    printf4.o(i.__0snprintf$4) refers to printf4.o(i._snputc) for _snputc
    printf4.o(i.__0sprintf$4) refers to printf4.o(i._printf_core) for _printf_core
    printf4.o(i.__0sprintf$4) refers to printf4.o(i._sputc) for _sputc
    printf4.o(i.__0vfprintf$4) refers to printf4.o(i._printf_core) for _printf_core
    printf4.o(i.__0vfprintf$4) refers to main.o(i.fputc) for fputc
    printf4.o(i.__0vprintf$4) refers to printf4.o(i._printf_core) for _printf_core
    printf4.o(i.__0vprintf$4) refers to main.o(i.fputc) for fputc
    printf4.o(i.__0vprintf$4) refers to stdout.o(.data) for __stdout
    printf4.o(i.__0vsnprintf$4) refers to printf4.o(i._printf_core) for _printf_core
    printf4.o(i.__0vsnprintf$4) refers to printf4.o(i._snputc) for _snputc
    printf4.o(i.__0vsprintf$4) refers to printf4.o(i._printf_core) for _printf_core
    printf4.o(i.__0vsprintf$4) refers to printf4.o(i._sputc) for _sputc
    printf4.o(i._printf_core) refers to uldiv.o(.text) for __aeabi_uldivmod
    printf5.o(i.__0fprintf$5) refers to printf5.o(i._printf_core) for _printf_core
    printf5.o(i.__0fprintf$5) refers to main.o(i.fputc) for fputc
    printf5.o(i.__0printf$5) refers to printf5.o(i._printf_core) for _printf_core
    printf5.o(i.__0printf$5) refers to main.o(i.fputc) for fputc
    printf5.o(i.__0printf$5) refers to stdout.o(.data) for __stdout
    printf5.o(i.__0snprintf$5) refers to printf5.o(i._printf_core) for _printf_core
    printf5.o(i.__0snprintf$5) refers to printf5.o(i._snputc) for _snputc
    printf5.o(i.__0sprintf$5) refers to printf5.o(i._printf_core) for _printf_core
    printf5.o(i.__0sprintf$5) refers to printf5.o(i._sputc) for _sputc
    printf5.o(i.__0vfprintf$5) refers to printf5.o(i._printf_core) for _printf_core
    printf5.o(i.__0vfprintf$5) refers to main.o(i.fputc) for fputc
    printf5.o(i.__0vprintf$5) refers to printf5.o(i._printf_core) for _printf_core
    printf5.o(i.__0vprintf$5) refers to main.o(i.fputc) for fputc
    printf5.o(i.__0vprintf$5) refers to stdout.o(.data) for __stdout
    printf5.o(i.__0vsnprintf$5) refers to printf5.o(i._printf_core) for _printf_core
    printf5.o(i.__0vsnprintf$5) refers to printf5.o(i._snputc) for _snputc
    printf5.o(i.__0vsprintf$5) refers to printf5.o(i._printf_core) for _printf_core
    printf5.o(i.__0vsprintf$5) refers to printf5.o(i._sputc) for _sputc
    printf5.o(i._printf_core) refers to uldiv.o(.text) for __aeabi_uldivmod
    printf6.o(i.__0fprintf$6) refers to printf6.o(i._printf_core) for _printf_core
    printf6.o(i.__0fprintf$6) refers to main.o(i.fputc) for fputc
    printf6.o(i.__0printf$6) refers to printf6.o(i._printf_core) for _printf_core
    printf6.o(i.__0printf$6) refers to main.o(i.fputc) for fputc
    printf6.o(i.__0printf$6) refers to stdout.o(.data) for __stdout
    printf6.o(i.__0snprintf$6) refers to printf6.o(i._printf_core) for _printf_core
    printf6.o(i.__0snprintf$6) refers to printf6.o(i._snputc) for _snputc
    printf6.o(i.__0sprintf$6) refers to printf6.o(i._printf_core) for _printf_core
    printf6.o(i.__0sprintf$6) refers to printf6.o(i._sputc) for _sputc
    printf6.o(i.__0vfprintf$6) refers to printf6.o(i._printf_core) for _printf_core
    printf6.o(i.__0vfprintf$6) refers to main.o(i.fputc) for fputc
    printf6.o(i.__0vprintf$6) refers to printf6.o(i._printf_core) for _printf_core
    printf6.o(i.__0vprintf$6) refers to main.o(i.fputc) for fputc
    printf6.o(i.__0vprintf$6) refers to stdout.o(.data) for __stdout
    printf6.o(i.__0vsnprintf$6) refers to printf6.o(i._printf_core) for _printf_core
    printf6.o(i.__0vsnprintf$6) refers to printf6.o(i._snputc) for _snputc
    printf6.o(i.__0vsprintf$6) refers to printf6.o(i._printf_core) for _printf_core
    printf6.o(i.__0vsprintf$6) refers to printf6.o(i._sputc) for _sputc
    printf6.o(i._printf_core) refers to printf6.o(i._printf_pre_padding) for _printf_pre_padding
    printf6.o(i._printf_core) refers to uidiv.o(.text) for __aeabi_uidivmod
