; Listing generated by Microsoft (R) Optimizing Compiler Version 19.00.24210.0 

	TITLE	C:\MyFiles\SoftwareTeam\Technologies_Boards\Graphic\TouchGFX\Scope\Project\Oscilloscope\Graphic\generated\images\src\appBackground.cpp
	.686P
	.XMM
	include listing.inc
	.model	flat

INCLUDELIB MSVCRTD
INCLUDELIB OLDNAMES

PUBLIC	?_appBackground@@3QBEB				; _appBackground
CONST	SEGMENT
?_appBackground@@3QBEB DB 0a7H				; _appBackground
	DB	039H
	DB	0a7H
	DB	039H
	DB	0c7H
	DB	039H
	DB	0a7H
	DB	039H
	DB	0a7H
	DB	039H
	DB	0c7H
	DB	039H
	DB	0a7H
	DB	039H
	DB	0a7H
	DB	039H
	DB	0c7H
	DB	039H
	DB	0a7H
	DB	039H
	DB	0a7H
	DB	039H
	DB	0c7H
	DB	039H
	DB	0a7H
	DB	039H
	DB	0a7H
	DB	039H
	DB	0c7H
	DB	039H
	DB	0a7H
	DB	039H
	DB	0a7H
	DB	039H
	DB	0c7H
	DB	039H
	DB	0a7H
	DB	039H
	DB	0a7H
	DB	039H
	DB	0c7H
	DB	039H
	DB	0a7H
	DB	039H
	DB	0a7H
	DB	039H
	DB	0c7H
	DB	039H
	DB	0a7H
	DB	039H
	DB	0a7H
	DB	039H
	DB	0c7H
	DB	039H
	DB	0a7H
	DB	039H
	DB	0a7H
	DB	039H
	DB	0c7H
	DB	039H
	DB	0a7H
	DB	039H
	DB	0a7H
	DB	039H
	DB	0c7H
	DB	039H
	DB	0a7H
	DB	039H
	DB	0a7H
	DB	039H
	DB	0c7H
	DB	039H
	DB	0a7H
	DB	039H
	DB	0a7H
	DB	039H
	DB	0c7H
	DB	039H
	DB	0a7H
	DB	039H
	DB	0a7H
	DB	039H
	DB	0c7H
	DB	039H
	DB	0a7H
	DB	039H
	DB	0a7H
	DB	039H
	DB	0c7H
	DB	039H
	DB	0a7H
	DB	039H
	DB	0a7H
	DB	039H
	DB	0c7H
	DB	039H
	DB	0a7H
	DB	039H
	DB	0a7H
	DB	039H
	DB	0c7H
	DB	039H
	DB	0a7H
	DB	039H
	DB	0a7H
	DB	039H
	DB	0c7H
	DB	039H
	DB	0a7H
	DB	039H
	DB	0a7H
	DB	039H
	DB	0c7H
	DB	039H
	DB	0a7H
	DB	039H
	DB	0a7H
	DB	039H
	DB	0c7H
	DB	039H
	DB	0a7H
	DB	039H
	DB	0a7H
	DB	039H
	DB	0c7H
	DB	039H
	DB	0a7H
	DB	039H
	DB	0a7H
	DB	039H
	DB	0c7H
	DB	039H
	DB	0a7H
	DB	039H
	DB	0a7H
	DB	039H
	DB	0c7H
	DB	039H
	DB	0a7H
	DB	039H
	DB	0a7H
	DB	039H
	DB	0c7H
	DB	039H
	DB	0a7H
	DB	039H
	DB	0a7H
	DB	039H
	DB	0c7H
	DB	039H
	DB	0a7H
	DB	039H
	DB	0a7H
	DB	039H
	DB	0c7H
	DB	039H
	DB	0a7H
	DB	039H
	DB	0a7H
	DB	039H
	DB	0c7H
	DB	039H
	DB	0a7H
	DB	039H
	DB	0a7H
	DB	039H
	DB	0c7H
	DB	039H
	DB	0a7H
	DB	039H
	DB	0a7H
	DB	039H
	DB	0c7H
	DB	039H
	DB	0a7H
	DB	039H
	DB	0a7H
	DB	039H
	DB	0c7H
	DB	039H
	DB	0a7H
	DB	039H
	DB	0a7H
	DB	039H
	DB	0c7H
	DB	039H
	DB	0a7H
	DB	039H
	DB	0a7H
	DB	039H
	DB	0c7H
	DB	039H
	DB	0a7H
	DB	039H
	DB	0a7H
	DB	039H
	DB	0c7H
	DB	039H
	DB	0a7H
	DB	039H
	DB	0a7H
	DB	039H
	DB	0c7H
	DB	039H
	DB	0a7H
	DB	039H
	DB	0a7H
	DB	039H
	DB	0c7H
	DB	039H
	DB	0a7H
	DB	039H
	DB	0a7H
	DB	039H
	DB	0c7H
	DB	039H
	DB	0a7H
	DB	039H
	DB	0a7H
	DB	039H
	DB	0c7H
	DB	039H
	DB	0a7H
	DB	039H
	DB	0a7H
	DB	039H
	DB	0c7H
	DB	039H
	DB	0a7H
	DB	039H
	DB	0a7H
	DB	039H
	DB	0c7H
	DB	039H
	DB	0a7H
	DB	039H
	DB	0a7H
	DB	039H
	DB	0c7H
	DB	039H
	DB	0a7H
	DB	039H
	DB	0a7H
	DB	039H
	DB	0c7H
	DB	039H
	DB	0a7H
	DB	039H
	DB	0a7H
	DB	039H
	DB	0c7H
	DB	039H
	DB	0a7H
	DB	039H
	DB	0a7H
	DB	039H
	DB	0c7H
	DB	039H
	DB	0a7H
	DB	039H
	DB	0a7H
	DB	039H
	DB	0c7H
	DB	039H
	DB	0a7H
	DB	039H
	DB	0a7H
	DB	039H
	DB	0c7H
	DB	039H
	DB	0a7H
	DB	039H
	DB	0a7H
	DB	039H
	DB	0c7H
	DB	039H
	DB	0a7H
	DB	039H
	DB	0a7H
	DB	039H
	DB	0c7H
	DB	039H
	DB	0a7H
	DB	039H
	DB	0a7H
	DB	039H
	DB	0c7H
	DB	039H
	DB	0a7H
	DB	039H
	DB	0a7H
	DB	039H
	DB	0c7H
	DB	039H
	DB	0a7H
	DB	039H
	DB	0a7H
	DB	039H
	DB	0c7H
	DB	039H
	DB	0a7H
	DB	039H
	DB	0a7H
	DB	039H
	DB	0c7H
	DB	039H
	DB	0a7H
	DB	039H
	DB	0a7H
	DB	039H
	DB	0c7H
	DB	039H
	DB	0a7H
	DB	039H
	DB	0a7H
	DB	039H
	DB	0c7H
	DB	039H
	DB	0a7H
	DB	039H
	DB	0a7H
	DB	039H
	DB	0c7H
	DB	039H
	DB	0a7H
	DB	039H
	DB	0a7H
	DB	039H
	DB	0c7H
	DB	039H
	DB	0a7H
	DB	039H
	DB	0a7H
	DB	039H
	DB	0c7H
	DB	039H
	DB	0a7H
	DB	039H
	DB	0a7H
	DB	039H
	DB	0c7H
	DB	039H
	DB	0a7H
	DB	039H
	DB	0a7H
	DB	039H
	DB	0c7H
	DB	039H
	DB	0a7H
	DB	039H
	DB	0a7H
	DB	039H
	DB	0c7H
	DB	039H
	DB	0a7H
	DB	039H
	DB	0a7H
	DB	039H
	DB	0c7H
	DB	039H
	DB	0a7H
	DB	039H
	DB	0a7H
	DB	039H
	DB	0c7H
	DB	039H
	DB	0a7H
	DB	039H
	DB	0a7H
	DB	039H
	DB	0c7H
	DB	039H
	DB	0a7H
	DB	039H
	DB	0a7H
	DB	039H
	DB	0c7H
	DB	039H
	DB	0a7H
	DB	039H
	DB	0a7H
	DB	039H
	DB	0c7H
	DB	039H
	DB	0a7H
	DB	039H
	DB	0a7H
	DB	039H
	DB	0c7H
	DB	039H
	DB	0a7H
	DB	039H
	DB	0a7H
	DB	039H
	DB	0c7H
	DB	039H
	DB	0a7H
	DB	039H
	DB	0a7H
	DB	039H
	DB	0c7H
	DB	039H
	DB	0a7H
	DB	039H
	DB	0a7H
	DB	039H
	DB	0c7H
	DB	039H
	DB	0a7H
	DB	039H
	DB	0a7H
	DB	039H
	DB	0c7H
	DB	039H
	DB	0a7H
	DB	039H
	DB	0a7H
	DB	039H
	DB	0c7H
	DB	039H
	DB	0a7H
	DB	039H
	DB	0a7H
	DB	039H
	DB	0c7H
	DB	039H
	DB	0a7H
	DB	039H
	DB	0a7H
	DB	039H
	DB	0c7H
	DB	039H
	DB	0a7H
	DB	039H
	DB	0a7H
	DB	039H
	DB	0c7H
	DB	039H
	DB	0a7H
	DB	039H
	DB	0a7H
	DB	039H
	DB	0c7H
	DB	039H
	DB	0a7H
	DB	039H
	DB	0a7H
	DB	039H
	DB	0c7H
	DB	039H
	DB	0a7H
	DB	039H
	DB	0a7H
	DB	039H
	DB	0c7H
	DB	039H
	DB	0a7H
	DB	039H
	DB	0a7H
	DB	039H
	DB	0c7H
	DB	039H
	DB	0a7H
	DB	039H
	DB	0a7H
	DB	039H
	DB	0c7H
	DB	039H
	DB	0a7H
	DB	039H
	DB	0a7H
	DB	039H
	DB	0c7H
	DB	039H
	DB	0a7H
	DB	039H
	DB	0a7H
	DB	039H
	DB	0c7H
	DB	039H
	DB	0a7H
	DB	039H
	DB	0a7H
	DB	039H
	DB	0c7H
	DB	039H
	DB	0a7H
	DB	039H
	DB	0a7H
	DB	039H
	DB	0c7H
	DB	039H
	DB	0a7H
	DB	039H
	DB	0a7H
	DB	039H
	DB	0c7H
	DB	039H
	DB	0a7H
	DB	039H
	DB	0a7H
	DB	039H
	DB	0c7H
	DB	039H
	DB	0a7H
	DB	039H
	DB	0a7H
	DB	039H
	DB	0c7H
	DB	039H
	DB	0a7H
	DB	039H
	DB	0a7H
	DB	039H
	DB	0c7H
	DB	039H
	DB	0a7H
	DB	039H
	DB	0a7H
	DB	039H
	DB	0c7H
	DB	039H
	DB	0a7H
	DB	039H
	DB	0a7H
	DB	039H
	DB	0c7H
	DB	039H
	DB	0a7H
	DB	039H
	DB	0a7H
	DB	039H
	DB	0c7H
	DB	039H
	DB	0a7H
	DB	039H
	DB	0a7H
	DB	039H
	DB	0c7H
	DB	039H
	DB	0a7H
	DB	039H
	DB	0a7H
	DB	039H
	DB	0c7H
	DB	039H
	DB	0a7H
	DB	039H
	DB	0a7H
	DB	039H
	DB	0c7H
	DB	039H
	DB	0a7H
	DB	039H
	DB	0a7H
	DB	039H
	DB	0c7H
	DB	039H
	DB	0a7H
	DB	039H
	DB	0a7H
	DB	039H
	DB	0c7H
	DB	039H
	DB	0a7H
	DB	039H
	DB	0a7H
	DB	039H
	DB	0c7H
	DB	039H
	DB	0a7H
	DB	039H
	DB	0a7H
	DB	039H
	DB	0c7H
	DB	039H
	DB	0a7H
	DB	039H
	DB	0a7H
	DB	039H
	DB	0c7H
	DB	039H
	DB	0a7H
	DB	039H
	DB	0a7H
	DB	039H
	DB	0c7H
	DB	039H
	DB	0a7H
	DB	039H
	DB	0a7H
	DB	039H
	DB	0c7H
	DB	039H
	DB	0a7H
	DB	039H
	DB	0a7H
	DB	039H
	DB	0c7H
	DB	039H
	DB	0a7H
	DB	039H
	DB	0a7H
	DB	039H
	DB	0c7H
	DB	039H
	DB	0a7H
	DB	039H
	DB	0a7H
	DB	039H
	DB	0c7H
	DB	039H
	DB	0a7H
	DB	039H
	DB	0a7H
	DB	039H
	DB	0c7H
	DB	039H
	DB	0a7H
	DB	039H
	DB	0a7H
	DB	039H
	DB	0c7H
	DB	039H
	DB	0a7H
	DB	039H
	DB	0a7H
	DB	039H
	DB	0c7H
	DB	039H
	DB	0a7H
	DB	039H
	DB	0a7H
	DB	039H
	DB	0c7H
	DB	039H
	DB	0a7H
	DB	039H
	DB	0a7H
	DB	039H
	DB	0c7H
	DB	039H
	DB	0a7H
	DB	039H
	DB	0a7H
	DB	039H
	DB	0c7H
	DB	039H
	DB	0a7H
	DB	039H
	DB	0a7H
	DB	039H
	DB	0c7H
	DB	039H
	DB	0a7H
	DB	039H
	DB	0a7H
	DB	039H
	DB	0c7H
	DB	039H
	DB	0a7H
	DB	039H
	DB	0a7H
	DB	039H
	DB	0c7H
	DB	039H
	DB	0a7H
	DB	039H
	DB	0a7H
	DB	039H
	DB	0c7H
	DB	039H
	DB	0a7H
	DB	039H
	DB	0a7H
	DB	039H
	DB	0c7H
	DB	039H
	DB	0a7H
	DB	039H
	DB	0a7H
	DB	039H
	DB	0c7H
	DB	039H
	DB	0a7H
	DB	039H
	DB	0a7H
	DB	039H
	DB	0c7H
	DB	039H
	DB	0a7H
	DB	039H
	DB	0a7H
	DB	039H
	DB	0c7H
	DB	039H
	DB	0a7H
	DB	039H
	DB	0a7H
	DB	039H
	DB	0c7H
	DB	039H
	DB	0a7H
	DB	039H
	DB	0a7H
	DB	039H
	DB	0c7H
	DB	039H
	DB	0a7H
	DB	039H
	DB	0a7H
	DB	039H
	DB	0c7H
	DB	039H
	DB	0a7H
	DB	039H
	DB	0a7H
	DB	039H
	DB	0c7H
	DB	039H
	DB	0a7H
	DB	039H
	DB	0a7H
	DB	039H
	DB	0c7H
	DB	039H
	DB	0a7H
	DB	039H
	DB	0a7H
	DB	039H
	DB	0c7H
	DB	039H
	DB	0a7H
	DB	039H
	DB	0a7H
	DB	039H
	DB	0c7H
	DB	039H
	DB	0a7H
	DB	039H
	DB	0a7H
	DB	039H
	DB	0c7H
	DB	039H
	DB	0a7H
	DB	039H
	DB	0a7H
	DB	039H
	DB	0c7H
	DB	039H
	DB	0a7H
	DB	039H
	DB	0a7H
	DB	039H
	DB	0c7H
	DB	039H
	DB	0a7H
	DB	039H
	DB	0a7H
	DB	039H
	DB	0c7H
	DB	039H
	DB	0a7H
	DB	039H
	DB	0a7H
	DB	039H
	DB	0c7H
	DB	039H
	DB	0a7H
	DB	039H
	DB	0a7H
	DB	039H
	DB	0c7H
	DB	039H
	DB	0a7H
	DB	039H
	DB	0a7H
	DB	039H
	DB	0c7H
	DB	039H
	DB	0a7H
	DB	039H
	DB	0a7H
	DB	039H
	DB	0c7H
	DB	039H
	DB	0a7H
	DB	039H
	DB	0a7H
	DB	039H
	DB	0c7H
	DB	039H
	DB	0a7H
	DB	039H
	DB	0a7H
	DB	039H
	DB	0c7H
	DB	039H
	DB	0a7H
	DB	039H
	DB	0a7H
	DB	039H
	DB	0c7H
	DB	039H
	DB	0a7H
	DB	039H
	DB	0a7H
	DB	039H
	DB	0c7H
	DB	039H
	DB	0a7H
	DB	039H
	DB	0a7H
	DB	039H
	DB	0c7H
	DB	039H
	DB	0a7H
	DB	039H
	DB	0a7H
	DB	039H
	DB	0c7H
	DB	039H
	DB	0a7H
	DB	039H
	DB	0a7H
	DB	039H
	DB	0c7H
	DB	039H
	DB	0a7H
	DB	039H
	DB	0a7H
	DB	039H
	DB	0c7H
	DB	039H
	DB	0a7H
	DB	039H
	DB	0a7H
	DB	039H
	DB	0c7H
	DB	039H
	DB	0a7H
	DB	039H
	DB	0a7H
	DB	039H
	DB	0c7H
	DB	039H
	DB	0a7H
	DB	039H
	DB	0a7H
	DB	039H
	DB	0c7H
	DB	039H
	DB	0a7H
	DB	039H
	DB	0a7H
	DB	039H
	DB	0c7H
	DB	039H
	DB	0a7H
	DB	039H
	DB	0a7H
	DB	039H
	DB	0c7H
	DB	039H
	DB	0a7H
	DB	039H
	DB	0a7H
	DB	039H
	DB	0c7H
	DB	039H
	DB	0a7H
	DB	039H
	DB	0a7H
	DB	039H
	DB	0c7H
	DB	039H
	DB	0a7H
	DB	039H
	DB	0a7H
	DB	039H
	DB	0c7H
	DB	039H
	DB	0a7H
	DB	039H
	DB	0a7H
	DB	039H
	DB	0c7H
	DB	039H
	DB	0a7H
	DB	039H
	DB	0a7H
	DB	039H
	DB	0c7H
	DB	039H
	DB	0a7H
	DB	039H
	DB	0a7H
	DB	039H
	DB	0c7H
	DB	039H
	DB	0a7H
	DB	039H
	DB	0a7H
	DB	039H
	DB	0c7H
	DB	039H
	DB	0a7H
	DB	039H
	DB	0a7H
	DB	039H
	DB	0c7H
	DB	039H
	DB	0a7H
	DB	039H
	DB	0a7H
	DB	039H
	DB	0c7H
	DB	039H
	DB	0a7H
	DB	039H
	DB	0a7H
	DB	039H
	DB	0c7H
	DB	039H
	DB	0a7H
	DB	039H
	DB	0a7H
	DB	039H
	DB	0c7H
	DB	039H
	DB	0a7H
	DB	039H
	DB	0a7H
	DB	039H
	DB	0c7H
	DB	039H
	DB	0a7H
	DB	039H
	DB	0a7H
	DB	039H
	DB	0c7H
	DB	039H
	DB	0a7H
	DB	039H
	DB	0a7H
	DB	039H
	DB	0c7H
	DB	039H
	DB	0a7H
	DB	039H
	DB	0a7H
	DB	039H
	DB	0c7H
	DB	039H
	DB	0a7H
	DB	039H
	DB	0a7H
	DB	039H
	DB	0c7H
	DB	039H
	DB	0a7H
	DB	039H
	DB	0c7H
	DB	039H
	DB	0c6H
	DB	031H
	DB	0a7H
	DB	039H
	DB	0c7H
	DB	039H
	DB	0a6H
	DB	031H
	DB	0c7H
	DB	039H
	DB	0a7H
	DB	039H
	DB	0c6H
	DB	031H
	DB	0a7H
	DB	039H
	DB	0c7H
	DB	039H
	DB	0c6H
	DB	031H
	DB	0a7H
	DB	039H
	DB	0c7H
	DB	039H
	DB	0a6H
	DB	031H
	DB	0c7H
	DB	039H
	DB	0a7H
	DB	039H
	DB	0c6H
	DB	031H
	DB	0a7H
	DB	039H
	DB	0c7H
	DB	039H
	DB	0c6H
	DB	031H
	DB	0a7H
	DB	039H
	DB	0c7H
	DB	039H
	DB	0a6H
	DB	031H
	DB	0c7H
	DB	039H
	DB	0a7H
	DB	039H
	DB	0c6H
	DB	031H
	DB	0a7H
	DB	039H
	DB	0c7H
	DB	039H
	DB	0c6H
	DB	031H
	DB	0a7H
	DB	039H
	DB	0c7H
	DB	039H
	DB	0a6H
	DB	031H
	DB	0c7H
	DB	039H
	DB	0a7H
	DB	039H
	DB	0c6H
	DB	031H
	DB	0a7H
	DB	039H
	DB	0c7H
	DB	039H
	DB	0c6H
	DB	031H
	DB	0a7H
	DB	039H
	DB	0c7H
	DB	039H
	DB	0a6H
	DB	031H
	DB	0c7H
	DB	039H
	DB	0a7H
	DB	039H
	DB	0c6H
	DB	031H
	DB	0a7H
	DB	039H
	DB	0c7H
	DB	039H
	DB	0c6H
	DB	031H
	DB	0a7H
	DB	039H
	DB	0c7H
	DB	039H
	DB	0a6H
	DB	031H
	DB	0c7H
	DB	039H
	DB	0a7H
	DB	039H
	DB	0c6H
	DB	031H
	DB	0a7H
	DB	039H
	DB	0c7H
	DB	039H
	DB	0c6H
	DB	031H
	DB	0a7H
	DB	039H
	DB	0c7H
	DB	039H
	DB	0a6H
	DB	031H
	DB	0c7H
	DB	039H
	DB	0a7H
	DB	039H
	DB	0c6H
	DB	031H
	DB	0a7H
	DB	039H
	DB	0c7H
	DB	039H
	DB	0c6H
	DB	031H
	DB	0a7H
	DB	039H
	DB	0c7H
	DB	039H
	DB	0a6H
	DB	031H
	DB	0c7H
	DB	039H
	DB	0a7H
	DB	039H
	DB	0c6H
	DB	031H
	DB	0a7H
	DB	039H
	DB	0c7H
	DB	039H
	DB	0c6H
	DB	031H
	DB	0a7H
	DB	039H
	DB	0c7H
	DB	039H
	DB	0a6H
	DB	031H
	DB	0c7H
	DB	039H
	DB	0a7H
	DB	039H
	DB	0c6H
	DB	031H
	DB	0a7H
	DB	039H
	DB	0c7H
	DB	039H
	DB	0c6H
	DB	031H
	DB	0a7H
	DB	039H
	DB	0c7H
	DB	039H
	DB	0a6H
	DB	031H
	DB	0c7H
	DB	039H
	DB	0a7H
	DB	039H
	DB	0c6H
	DB	031H
	DB	0a7H
	DB	039H
	DB	0c7H
	DB	039H
	DB	0c6H
	DB	031H
	DB	0a7H
	DB	039H
	DB	0c7H
	DB	039H
	DB	0a6H
	DB	031H
	DB	0c7H
	DB	039H
	DB	0a7H
	DB	039H
	DB	0c6H
	DB	031H
	DB	0a7H
	DB	039H
	DB	0c7H
	DB	039H
	DB	0c6H
	DB	031H
	DB	0a7H
	DB	039H
	DB	0c7H
	DB	039H
	DB	0a6H
	DB	031H
	DB	0c7H
	DB	039H
	DB	0a7H
	DB	039H
	DB	0c6H
	DB	031H
	DB	0a7H
	DB	039H
	DB	0c7H
	DB	039H
	DB	0c6H
	DB	031H
	DB	0a7H
	DB	039H
	DB	0c7H
	DB	039H
	DB	0a6H
	DB	031H
	DB	0c7H
	DB	039H
	DB	0a7H
	DB	039H
	DB	0c6H
	DB	031H
	DB	0a7H
	DB	039H
	DB	0c7H
	DB	039H
	DB	0c6H
	DB	031H
	DB	0a7H
	DB	039H
	DB	0c7H
	DB	039H
	DB	0a6H
	DB	031H
	DB	0c7H
	DB	039H
	DB	0a7H
	DB	039H
	DB	0c6H
	DB	031H
	DB	0a7H
	DB	039H
	DB	0c7H
	DB	039H
	DB	0c6H
	DB	031H
	DB	0a7H
	DB	039H
	DB	0c7H
	DB	039H
	DB	0a6H
	DB	031H
	DB	0c7H
	DB	039H
	DB	0a7H
	DB	039H
	DB	0c6H
	DB	031H
	DB	0a7H
	DB	039H
	DB	0c7H
	DB	039H
	DB	0c6H
	DB	031H
	DB	0a7H
	DB	039H
	DB	0c7H
	DB	039H
	DB	0a6H
	DB	031H
	DB	0c7H
	DB	039H
	DB	0a7H
	DB	039H
	DB	0c6H
	DB	031H
	DB	0a7H
	DB	039H
	DB	0c7H
	DB	039H
	DB	0c6H
	DB	031H
	DB	0a7H
	DB	039H
	DB	0c7H
	DB	039H
	DB	0a6H
	DB	031H
	DB	0c7H
	DB	039H
	DB	0a7H
	DB	039H
	DB	0c6H
	DB	031H
	DB	0a7H
	DB	039H
	DB	0c7H
	DB	039H
	DB	0c6H
	DB	031H
	DB	0a7H
	DB	039H
	DB	0c7H
	DB	039H
	DB	0a6H
	DB	031H
	DB	0c7H
	DB	039H
	DB	0a7H
	DB	039H
	DB	0c6H
	DB	031H
	DB	0a7H
	DB	039H
	DB	0c7H
	DB	039H
	DB	0c6H
	DB	031H
	DB	0a7H
	DB	039H
	DB	0c7H
	DB	039H
	DB	0a6H
	DB	031H
	DB	0c7H
	DB	039H
	DB	0a7H
	DB	039H
	DB	0c6H
	DB	031H
	DB	0a7H
	DB	039H
	DB	0c7H
	DB	039H
	DB	0c6H
	DB	031H
	DB	0a7H
	DB	039H
	DB	0c7H
	DB	039H
	DB	0a6H
	DB	031H
	DB	0c7H
	DB	039H
	DB	0a7H
	DB	039H
	DB	0c6H
	DB	031H
	DB	0a7H
	DB	039H
	DB	0c7H
	DB	039H
	DB	0c6H
	DB	031H
	DB	0a7H
	DB	039H
	DB	0c7H
	DB	039H
	DB	0a6H
	DB	031H
	DB	0c7H
	DB	039H
	DB	0a7H
	DB	039H
	DB	0c6H
	DB	031H
	DB	0a7H
	DB	039H
	DB	0c7H
	DB	039H
	DB	0c6H
	DB	031H
	DB	0a7H
	DB	039H
	DB	0c7H
	DB	039H
	DB	0a6H
	DB	031H
	DB	0c7H
	DB	039H
	DB	0a7H
	DB	039H
	DB	0c6H
	DB	031H
	DB	0a7H
	DB	039H
	DB	0c7H
	DB	039H
	DB	0c6H
	DB	031H
	DB	0a7H
	DB	039H
	DB	0c7H
	DB	039H
	DB	0a6H
	DB	031H
	DB	0c7H
	DB	039H
	DB	0a7H
	DB	039H
	DB	0c6H
	DB	031H
	DB	0a7H
	DB	039H
	DB	0c7H
	DB	039H
	DB	0c6H
	DB	031H
	DB	0a7H
	DB	039H
	DB	0c7H
	DB	039H
	DB	0a6H
	DB	031H
	DB	0c7H
	DB	039H
	DB	0a7H
	DB	039H
	DB	0c6H
	DB	031H
	DB	0a7H
	DB	039H
	DB	0c7H
	DB	039H
	DB	0c6H
	DB	031H
	DB	0a7H
	DB	039H
	DB	0c7H
	DB	039H
	DB	0a6H
	DB	031H
	DB	0c7H
	DB	039H
	DB	0a7H
	DB	039H
	DB	0c6H
	DB	031H
	DB	0a7H
	DB	039H
	DB	0c7H
	DB	039H
	DB	0c6H
	DB	031H
	DB	0a7H
	DB	039H
	DB	0c7H
	DB	039H
	DB	0a6H
	DB	031H
	DB	0c7H
	DB	039H
	DB	0a7H
	DB	039H
	DB	0c6H
	DB	031H
	DB	0a7H
	DB	039H
	DB	0c7H
	DB	039H
	DB	0c6H
	DB	031H
	DB	0a7H
	DB	039H
	DB	0c7H
	DB	039H
	DB	0a6H
	DB	031H
	DB	0c7H
	DB	039H
	DB	0a7H
	DB	039H
	DB	0c6H
	DB	031H
	DB	0a7H
	DB	039H
	DB	0c7H
	DB	039H
	DB	0c6H
	DB	031H
	DB	0a7H
	DB	039H
	DB	0c7H
	DB	039H
	DB	0a6H
	DB	031H
	DB	0c7H
	DB	039H
	DB	0a7H
	DB	039H
	DB	0c6H
	DB	031H
	DB	0a7H
	DB	039H
	DB	0c7H
	DB	039H
	DB	0c6H
	DB	031H
	DB	0a7H
	DB	039H
	DB	0c7H
	DB	039H
	DB	0a6H
	DB	031H
	DB	0c7H
	DB	039H
	DB	0a7H
	DB	039H
	DB	0c6H
	DB	031H
	DB	0a7H
	DB	039H
	DB	0c7H
	DB	039H
	DB	0c6H
	DB	031H
	DB	0a7H
	DB	039H
	DB	0c7H
	DB	039H
	DB	0a6H
	DB	031H
	DB	0c7H
	DB	039H
	DB	0a7H
	DB	039H
	DB	0c6H
	DB	031H
	DB	0a7H
	DB	039H
	DB	0c7H
	DB	039H
	DB	0c6H
	DB	031H
	DB	0a7H
	DB	039H
	DB	0c7H
	DB	039H
	DB	0a6H
	DB	031H
	DB	0c7H
	DB	039H
	DB	0a7H
	DB	039H
	DB	0c6H
	DB	031H
	DB	0a7H
	DB	039H
	DB	0c7H
	DB	039H
	DB	0c6H
	DB	031H
	DB	0a7H
	DB	039H
	DB	0c7H
	DB	039H
	DB	0a6H
	DB	031H
	DB	0c7H
	DB	039H
	DB	0a7H
	DB	039H
	DB	0c6H
	DB	031H
	DB	0a7H
	DB	039H
	DB	0c7H
	DB	039H
	DB	0c6H
	DB	031H
	DB	0a7H
	DB	039H
	DB	0c7H
	DB	039H
	DB	0a6H
	DB	031H
	DB	0c7H
	DB	039H
	DB	0a7H
	DB	039H
	DB	0c6H
	DB	031H
	DB	0a7H
	DB	039H
	DB	0c7H
	DB	039H
	DB	0c6H
	DB	031H
	DB	0a7H
	DB	039H
	DB	0c7H
	DB	039H
	DB	0a6H
	DB	031H
	DB	0c7H
	DB	039H
	DB	0a7H
	DB	039H
	DB	0c6H
	DB	031H
	DB	0a7H
	DB	039H
	DB	0c7H
	DB	039H
	DB	0c6H
	DB	031H
	DB	0a7H
	DB	039H
	DB	0c7H
	DB	039H
	DB	0a6H
	DB	031H
	DB	0c7H
	DB	039H
	DB	0a7H
	DB	039H
	DB	0c6H
	DB	031H
	DB	0a7H
	DB	039H
	DB	0c7H
	DB	039H
	DB	0c6H
	DB	031H
	DB	0a7H
	DB	039H
	DB	0c7H
	DB	039H
	DB	0a6H
	DB	031H
	DB	0c7H
	DB	039H
	DB	0a7H
	DB	039H
	DB	0c6H
	DB	031H
	DB	0a7H
	DB	039H
	DB	0c7H
	DB	039H
	DB	0c6H
	DB	031H
	DB	0a7H
	DB	039H
	DB	0c7H
	DB	039H
	DB	0a6H
	DB	031H
	DB	0c7H
	DB	039H
	DB	0a7H
	DB	039H
	DB	0c6H
	DB	031H
	DB	0a7H
	DB	039H
	DB	0c7H
	DB	039H
	DB	0c6H
	DB	031H
	DB	0a7H
	DB	039H
	DB	0c7H
	DB	039H
	DB	0a6H
	DB	031H
	DB	0c7H
	DB	039H
	DB	0a7H
	DB	039H
	DB	0c6H
	DB	031H
	DB	0a7H
	DB	039H
	DB	0c7H
	DB	039H
	DB	0c6H
	DB	031H
	DB	0a7H
	DB	039H
	DB	0c7H
	DB	039H
	DB	0a6H
	DB	031H
	DB	0c7H
	DB	039H
	DB	0a7H
	DB	039H
	DB	0c6H
	DB	031H
	DB	0a7H
	DB	039H
	DB	0c7H
	DB	039H
	DB	0c6H
	DB	031H
	DB	0a7H
	DB	039H
	DB	0c7H
	DB	039H
	DB	0a6H
	DB	031H
	DB	0c7H
	DB	039H
	DB	0a7H
	DB	039H
	DB	0c6H
	DB	031H
	DB	0a7H
	DB	039H
	DB	0c7H
	DB	039H
	DB	0c6H
	DB	031H
	DB	0a7H
	DB	039H
	DB	0c7H
	DB	039H
	DB	0a6H
	DB	031H
	DB	0c7H
	DB	039H
	DB	0a7H
	DB	039H
	DB	0c6H
	DB	031H
	DB	0a7H
	DB	039H
	DB	0c7H
	DB	039H
	DB	0c6H
	DB	031H
	DB	0a7H
	DB	039H
	DB	0c7H
	DB	039H
	DB	0a6H
	DB	031H
	DB	0c7H
	DB	039H
	DB	0a7H
	DB	039H
	DB	0c6H
	DB	031H
	DB	0a7H
	DB	039H
	DB	0c7H
	DB	039H
	DB	0c6H
	DB	031H
	DB	0a7H
	DB	039H
	DB	0c7H
	DB	039H
	DB	0a6H
	DB	031H
	DB	0c7H
	DB	039H
	DB	0a7H
	DB	039H
	DB	0c6H
	DB	031H
	DB	0a7H
	DB	039H
	DB	0c7H
	DB	039H
	DB	0c6H
	DB	031H
	DB	0a7H
	DB	039H
	DB	0c7H
	DB	039H
	DB	0a6H
	DB	031H
	DB	0c7H
	DB	039H
	DB	0a7H
	DB	039H
	DB	0c6H
	DB	031H
	DB	0a7H
	DB	039H
	DB	0c7H
	DB	039H
	DB	0c6H
	DB	031H
	DB	0a7H
	DB	039H
	DB	0c7H
	DB	039H
	DB	0a6H
	DB	031H
	DB	0c7H
	DB	039H
	DB	0a7H
	DB	039H
	DB	0c6H
	DB	031H
	DB	0a7H
	DB	039H
	DB	0c7H
	DB	039H
	DB	0c6H
	DB	031H
	DB	0a7H
	DB	039H
	DB	0c7H
	DB	039H
	DB	0a6H
	DB	031H
	DB	0c7H
	DB	039H
	DB	0a7H
	DB	039H
	DB	0c6H
	DB	031H
	DB	0a7H
	DB	039H
	DB	0c7H
	DB	039H
	DB	0c6H
	DB	031H
	DB	0a7H
	DB	039H
	DB	0c7H
	DB	039H
	DB	0a6H
	DB	031H
	DB	0c7H
	DB	039H
	DB	0a7H
	DB	039H
	DB	0c6H
	DB	031H
	DB	0a7H
	DB	039H
	DB	0c7H
	DB	039H
	DB	0c6H
	DB	031H
	DB	0a7H
	DB	039H
	DB	0c7H
	DB	039H
	DB	0a6H
	DB	031H
	DB	0c7H
	DB	039H
	DB	0a7H
	DB	039H
	DB	0c6H
	DB	031H
	DB	0a7H
	DB	039H
	DB	0c7H
	DB	039H
	DB	0c6H
	DB	031H
	DB	0a7H
	DB	039H
	DB	0c7H
	DB	039H
	DB	0a6H
	DB	031H
	DB	0c7H
	DB	039H
	DB	0a7H
	DB	039H
	DB	0c6H
	DB	031H
	DB	0a7H
	DB	039H
	DB	0c7H
	DB	039H
	DB	0c6H
	DB	031H
	DB	0a7H
	DB	039H
	DB	0c7H
	DB	039H
	DB	0a6H
	DB	031H
	DB	0c7H
	DB	039H
	DB	0a7H
	DB	039H
	DB	0c6H
	DB	031H
	DB	0a7H
	DB	039H
	DB	0c7H
	DB	039H
	DB	0c6H
	DB	031H
	DB	0a7H
	DB	039H
	DB	0c7H
	DB	039H
	DB	0a6H
	DB	031H
	DB	0c7H
	DB	039H
	DB	0a7H
	DB	039H
	DB	0c6H
	DB	031H
	DB	0a7H
	DB	039H
	DB	0c7H
	DB	039H
	DB	0c6H
	DB	031H
	DB	0a7H
	DB	039H
	DB	0c7H
	DB	039H
	DB	0a6H
	DB	031H
	DB	0c7H
	DB	039H
	DB	0a7H
	DB	039H
	DB	0c6H
	DB	031H
	DB	0a7H
	DB	039H
	DB	0c7H
	DB	039H
	DB	0c6H
	DB	031H
	DB	0a7H
	DB	039H
	DB	0c7H
	DB	039H
	DB	0a6H
	DB	031H
	DB	0c7H
	DB	039H
	DB	0a7H
	DB	039H
	DB	0c6H
	DB	031H
	DB	0a7H
	DB	039H
	DB	0a7H
	DB	039H
	DB	0c6H
	DB	031H
	DB	0a7H
	DB	039H
	DB	0c6H
	DB	031H
	DB	0a7H
	DB	039H
	DB	0c7H
	DB	039H
	DB	0a6H
	DB	031H
	DB	0c7H
	DB	039H
	DB	0a7H
	DB	039H
	DB	0c6H
	DB	031H
	DB	0a7H
	DB	039H
	DB	0c7H
	DB	039H
	DB	0a6H
	DB	031H
	DB	0a7H
	DB	039H
	DB	0c7H
	DB	039H
	DB	0a6H
	DB	031H
	DB	0c7H
	DB	039H
	DB	0a7H
	DB	039H
	DB	0c6H
	DB	031H
	DB	0a7H
	DB	039H
	DB	0c7H
	DB	039H
	DB	0a6H
	DB	031H
	DB	0a7H
	DB	039H
	DB	0c7H
	DB	039H
	DB	0a6H
	DB	031H
	DB	0c7H
	DB	039H
	DB	0a7H
	DB	039H
	DB	0c6H
	DB	031H
	DB	0a7H
	DB	039H
	DB	0c7H
	DB	039H
	DB	0a6H
	DB	031H
	DB	0a7H
	DB	039H
	DB	0c7H
	DB	039H
	DB	0a6H
	DB	031H
	DB	0c7H
	DB	039H
	DB	0a7H
	DB	039H
	DB	0c6H
	DB	031H
	DB	0a7H
	DB	039H
	DB	0c7H
	DB	039H
	DB	0a6H
	DB	031H
	DB	0a7H
	DB	039H
	DB	0c7H
	DB	039H
	DB	0a6H
	DB	031H
	DB	0c7H
	DB	039H
	DB	0a7H
	DB	039H
	DB	0c6H
	DB	031H
	DB	0a7H
	DB	039H
	DB	0c7H
	DB	039H
	DB	0a6H
	DB	031H
	DB	0a7H
	DB	039H
	DB	0c7H
	DB	039H
	DB	0a6H
	DB	031H
	DB	0c7H
	DB	039H
	DB	0a7H
	DB	039H
	DB	0c6H
	DB	031H
	DB	0a7H
	DB	039H
	DB	0c7H
	DB	039H
	DB	0a6H
	DB	031H
	DB	0a7H
	DB	039H
	DB	0c7H
	DB	039H
	DB	0a6H
	DB	031H
	DB	0c7H
	DB	039H
	DB	0a7H
	DB	039H
	DB	0c6H
	DB	031H
	DB	0a7H
	DB	039H
	DB	0c7H
	DB	039H
	DB	0a6H
	DB	031H
	DB	0a7H
	DB	039H
	DB	0c7H
	DB	039H
	DB	0a6H
	DB	031H
	DB	0c7H
	DB	039H
	DB	0a7H
	DB	039H
	DB	0c6H
	DB	031H
	DB	0a7H
	DB	039H
	DB	0c7H
	DB	039H
	DB	0a6H
	DB	031H
	DB	0a7H
	DB	039H
	DB	0c7H
	DB	039H
	DB	0a6H
	DB	031H
	DB	0c7H
	DB	039H
	DB	0a7H
	DB	039H
	DB	0c6H
	DB	031H
	DB	0a7H
	DB	039H
	DB	0c7H
	DB	039H
	DB	0a6H
	DB	031H
	DB	0a7H
	DB	039H
	DB	0c7H
	DB	039H
	DB	0a6H
	DB	031H
	DB	0c7H
	DB	039H
	DB	0a7H
	DB	039H
	DB	0c6H
	DB	031H
	DB	0a7H
	DB	039H
	DB	0c7H
	DB	039H
	DB	0a6H
	DB	031H
	DB	0a7H
	DB	039H
	DB	0c7H
	DB	039H
	DB	0a6H
	DB	031H
	DB	0c7H
	DB	039H
	DB	0a7H
	DB	039H
	DB	0c6H
	DB	031H
	DB	0a7H
	DB	039H
	DB	0c7H
	DB	039H
	DB	0a6H
	DB	031H
	DB	0a7H
	DB	039H
	DB	0c7H
	DB	039H
	DB	0a6H
	DB	031H
	DB	0c7H
	DB	039H
	DB	0a7H
	DB	039H
	DB	0c6H
	DB	031H
	DB	0a7H
	DB	039H
	DB	0c7H
	DB	039H
	DB	0a6H
	DB	031H
	DB	0a7H
	DB	039H
	DB	0c7H
	DB	039H
	DB	0a6H
	DB	031H
	DB	0c7H
	DB	039H
	DB	0a7H
	DB	039H
	DB	0c6H
	DB	031H
	DB	0a7H
	DB	039H
	DB	0c7H
	DB	039H
	DB	0a6H
	DB	031H
	DB	0a7H
	DB	039H
	DB	0c7H
	DB	039H
	DB	0a6H
	DB	031H
	DB	0c7H
	DB	039H
	DB	0a7H
	DB	039H
	DB	0c6H
	DB	031H
	DB	0a7H
	DB	039H
	DB	0c7H
	DB	039H
	DB	0a6H
	DB	031H
	DB	0a7H
	DB	039H
	DB	0c7H
	DB	039H
	DB	0a6H
	DB	031H
	DB	0c7H
	DB	039H
	DB	0a7H
	DB	039H
	DB	0c6H
	DB	031H
	DB	0a7H
	DB	039H
	DB	0c7H
	DB	039H
	DB	0a6H
	DB	031H
	DB	0a7H
	DB	039H
	DB	0c7H
	DB	039H
	DB	0a6H
	DB	031H
	DB	0c7H
	DB	039H
	DB	0a7H
	DB	039H
	DB	0c6H
	DB	031H
	DB	0a7H
	DB	039H
	DB	0c7H
	DB	039H
	DB	0a6H
	DB	031H
	DB	0a7H
	DB	039H
	DB	0c7H
	DB	039H
	DB	0a6H
	DB	031H
	DB	0c7H
	DB	039H
	DB	0a7H
	DB	039H
	DB	0c6H
	DB	031H
	DB	0a7H
	DB	039H
	DB	0c7H
	DB	039H
	DB	0a6H
	DB	031H
	DB	0a7H
	DB	039H
	DB	0c7H
	DB	039H
	DB	0a6H
	DB	031H
	DB	0c7H
	DB	039H
	DB	0a7H
	DB	039H
	DB	0c6H
	DB	031H
	DB	0a7H
	DB	039H
	DB	0c7H
	DB	039H
	DB	0a6H
	DB	031H
	DB	0a7H
	DB	039H
	DB	0c7H
	DB	039H
	DB	0a6H
	DB	031H
	DB	0c7H
	DB	039H
	DB	0a7H
	DB	039H
	DB	0c6H
	DB	031H
	DB	0a7H
	DB	039H
	DB	0c7H
	DB	039H
	DB	0a6H
	DB	031H
	DB	0a7H
	DB	039H
	DB	0c7H
	DB	039H
	DB	0a6H
	DB	031H
	DB	0c7H
	DB	039H
	DB	0a7H
	DB	039H
	DB	0c6H
	DB	031H
	DB	0a7H
	DB	039H
	DB	0c7H
	DB	039H
	DB	0a6H
	DB	031H
	DB	0a7H
	DB	039H
	DB	0c7H
	DB	039H
	DB	0a6H
	DB	031H
	DB	0c7H
	DB	039H
	DB	0a7H
	DB	039H
	DB	0c6H
	DB	031H
	DB	0a7H
	DB	039H
	DB	0c7H
	DB	039H
	DB	0a6H
	DB	031H
	DB	0a7H
	DB	039H
	DB	0c7H
	DB	039H
	DB	0a6H
	DB	031H
	DB	0c7H
	DB	039H
	DB	0a7H
	DB	039H
	DB	0c6H
	DB	031H
	DB	0a7H
	DB	039H
	DB	0c7H
	DB	039H
	DB	0a6H
	DB	031H
	DB	0a7H
	DB	039H
	DB	0c7H
	DB	039H
	DB	0a6H
	DB	031H
	DB	0c7H
	DB	039H
	DB	0a7H
	DB	039H
	DB	0c6H
	DB	031H
	DB	0a7H
	DB	039H
	DB	0c7H
	DB	039H
	DB	0a6H
	DB	031H
	DB	0a7H
	DB	039H
	DB	0c7H
	DB	039H
	DB	0a6H
	DB	031H
	DB	0c7H
	DB	039H
	DB	0a7H
	DB	039H
	DB	0c6H
	DB	031H
	DB	0a7H
	DB	039H
	DB	0c7H
	DB	039H
	DB	0a6H
	DB	031H
	DB	0a7H
	DB	039H
	DB	0c7H
	DB	039H
	DB	0a6H
	DB	031H
	DB	0c7H
	DB	039H
	DB	0a7H
	DB	039H
	DB	0c6H
	DB	031H
	DB	0a7H
	DB	039H
	DB	0c7H
	DB	039H
	DB	0a6H
	DB	031H
	DB	0a7H
	DB	039H
	DB	0c7H
	DB	039H
	DB	0a6H
	DB	031H
	DB	0c7H
	DB	039H
	DB	0a7H
	DB	039H
	DB	0c6H
	DB	031H
	DB	0a7H
	DB	039H
	DB	0c7H
	DB	039H
	DB	0a6H
	DB	031H
	DB	0a7H
	DB	039H
	DB	0c7H
	DB	039H
	DB	0a6H
	DB	031H
	DB	0c7H
	DB	039H
	DB	0a7H
	DB	039H
	DB	0c6H
	DB	031H
	DB	0a7H
	DB	039H
	DB	0c7H
	DB	039H
	DB	0a6H
	DB	031H
	DB	0a7H
	DB	039H
	DB	0c7H
	DB	039H
	DB	0a6H
	DB	031H
	DB	0c7H
	DB	039H
	DB	0a7H
	DB	039H
	DB	0c6H
	DB	031H
	DB	0a7H
	DB	039H
	DB	0c7H
	DB	039H
	DB	0a6H
	DB	031H
	DB	0a7H
	DB	039H
	DB	0c7H
	DB	039H
	DB	0a6H
	DB	031H
	DB	0c7H
	DB	039H
	DB	0a7H
	DB	039H
	DB	0c6H
	DB	031H
	DB	0a7H
	DB	039H
	DB	0c7H
	DB	039H
	DB	0a6H
	DB	031H
	DB	0a7H
	DB	039H
	DB	0c7H
	DB	039H
	DB	0a6H
	DB	031H
	DB	0c7H
	DB	039H
	DB	0a7H
	DB	039H
	DB	0c6H
	DB	031H
	DB	0a7H
	DB	039H
	DB	0c7H
	DB	039H
	DB	0a6H
	DB	031H
	DB	0a7H
	DB	039H
	DB	0c7H
	DB	039H
	DB	0a6H
	DB	031H
	DB	0c7H
	DB	039H
	DB	0a7H
	DB	039H
	DB	0c6H
	DB	031H
	DB	0a7H
	DB	039H
	DB	0c7H
	DB	039H
	DB	0a6H
	DB	031H
	DB	0a7H
	DB	039H
	DB	0c7H
	DB	039H
	DB	0a6H
	DB	031H
	DB	0c7H
	DB	039H
	DB	0a7H
	DB	039H
	DB	0c6H
	DB	031H
	DB	0a7H
	DB	039H
	DB	0c7H
	DB	039H
	DB	0a6H
	DB	031H
	DB	0a7H
	DB	039H
	DB	0c7H
	DB	039H
	DB	0a6H
	DB	031H
	DB	0c7H
	DB	039H
	DB	0a7H
	DB	039H
	DB	0c6H
	DB	031H
	DB	0a7H
	DB	039H
	DB	0c7H
	DB	039H
	DB	0a6H
	DB	031H
	DB	0a7H
	DB	039H
	DB	0c7H
	DB	039H
	DB	0a6H
	DB	031H
	DB	0c7H
	DB	039H
	DB	0a7H
	DB	039H
	DB	0c6H
	DB	031H
	DB	0a7H
	DB	039H
	DB	0c7H
	DB	039H
	DB	0a6H
	DB	031H
	DB	0a7H
	DB	039H
	DB	0c7H
	DB	039H
	DB	0a6H
	DB	031H
	DB	0c7H
	DB	039H
	DB	0a7H
	DB	039H
	DB	0c6H
	DB	031H
	DB	0a7H
	DB	039H
	DB	0c7H
	DB	039H
	DB	0a6H
	DB	031H
	DB	0a7H
	DB	039H
	DB	0c7H
	DB	039H
	DB	0a6H
	DB	031H
	DB	0c7H
	DB	039H
	DB	0a7H
	DB	039H
	DB	0c6H
	DB	031H
	DB	0a7H
	DB	039H
	DB	0c7H
	DB	039H
	DB	0a6H
	DB	031H
	DB	0a7H
	DB	039H
	DB	0c7H
	DB	039H
	DB	0a6H
	DB	031H
	DB	0c7H
	DB	039H
	DB	0a7H
	DB	039H
	DB	0c6H
	DB	031H
	DB	0a7H
	DB	039H
	DB	0c7H
	DB	039H
	DB	0a6H
	DB	031H
	DB	0a7H
	DB	039H
	DB	0c7H
	DB	039H
	DB	0a6H
	DB	031H
	DB	0c7H
	DB	039H
	DB	0a7H
	DB	039H
	DB	0c6H
	DB	031H
	DB	0a7H
	DB	039H
	DB	0c7H
	DB	039H
	DB	0a6H
	DB	031H
	DB	0a7H
	DB	039H
	DB	0c7H
	DB	039H
	DB	0a6H
	DB	031H
	DB	0c7H
	DB	039H
	DB	0a7H
	DB	039H
	DB	0c6H
	DB	031H
	DB	0a7H
	DB	039H
	DB	0c7H
	DB	039H
	DB	0a6H
	DB	031H
	DB	0a7H
	DB	039H
	DB	0c7H
	DB	039H
	DB	0a6H
	DB	031H
	DB	0c7H
	DB	039H
	DB	0a7H
	DB	039H
	DB	0c6H
	DB	031H
	DB	0a7H
	DB	039H
	DB	0c7H
	DB	039H
	DB	0a6H
	DB	031H
	DB	0a7H
	DB	039H
	DB	0c7H
	DB	039H
	DB	0a6H
	DB	031H
	DB	0c7H
	DB	039H
	DB	0a7H
	DB	039H
	DB	0c6H
	DB	031H
	DB	0a7H
	DB	039H
	DB	0c7H
	DB	039H
	DB	0a6H
	DB	031H
	DB	0a7H
	DB	039H
	DB	0c7H
	DB	039H
	DB	0a6H
	DB	031H
	DB	0c7H
	DB	039H
	DB	0a7H
	DB	039H
	DB	0c6H
	DB	031H
	DB	0a7H
	DB	039H
	DB	0c7H
	DB	039H
	DB	0a6H
	DB	031H
	DB	0a7H
	DB	039H
	DB	0c7H
	DB	039H
	DB	0a6H
	DB	031H
	DB	0c7H
	DB	039H
	DB	0a7H
	DB	039H
	DB	0c6H
	DB	031H
	DB	0a7H
	DB	039H
	DB	0c7H
	DB	039H
	DB	0a6H
	DB	031H
	DB	0a7H
	DB	039H
	DB	0c7H
	DB	039H
	DB	0a6H
	DB	031H
	DB	0c7H
	DB	039H
	DB	0a7H
	DB	039H
	DB	0c6H
	DB	031H
	DB	0a7H
	DB	039H
	DB	0c7H
	DB	039H
	DB	0a6H
	DB	031H
	DB	0a7H
	DB	039H
	DB	0c7H
	DB	039H
	DB	0a6H
	DB	031H
	DB	0c7H
	DB	039H
	DB	0a7H
	DB	039H
	DB	0c6H
	DB	031H
	DB	0a7H
	DB	039H
	DB	0c7H
	DB	039H
	DB	0a6H
	DB	031H
	DB	0a7H
	DB	039H
	DB	0c7H
	DB	039H
	DB	0a6H
	DB	031H
	DB	0c7H
	DB	039H
	DB	0a7H
	DB	039H
	DB	0c6H
	DB	031H
	DB	0a7H
	DB	039H
	DB	0c7H
	DB	039H
	DB	0a6H
	DB	031H
	DB	0a7H
	DB	039H
	DB	0c7H
	DB	039H
	DB	0a6H
	DB	031H
	DB	0c7H
	DB	039H
	DB	0a7H
	DB	039H
	DB	0c6H
	DB	031H
	DB	0a7H
	DB	039H
	DB	0c7H
	DB	039H
	DB	0a6H
	DB	031H
	DB	0a7H
	DB	039H
	DB	0c7H
	DB	039H
	DB	0a6H
	DB	031H
	DB	0c7H
	DB	039H
	DB	0a7H
	DB	039H
	DB	0c6H
	DB	031H
	DB	0a7H
	DB	039H
	DB	0c7H
	DB	039H
	DB	0a6H
	DB	031H
	DB	0a7H
	DB	039H
	DB	0c7H
	DB	039H
	DB	0a6H
	DB	031H
	DB	0c7H
	DB	039H
	DB	0a7H
	DB	039H
	DB	0c6H
	DB	031H
	DB	0a7H
	DB	039H
	DB	0c7H
	DB	039H
	DB	0a6H
	DB	031H
	DB	0a7H
	DB	039H
	DB	0c7H
	DB	039H
	DB	0a6H
	DB	031H
	DB	0c7H
	DB	039H
	DB	0a7H
	DB	039H
	DB	0c6H
	DB	031H
	DB	0a7H
	DB	039H
	DB	0c7H
	DB	039H
	DB	0a6H
	DB	031H
	DB	0a7H
	DB	039H
	DB	0c7H
	DB	039H
	DB	0a6H
	DB	031H
	DB	0c7H
	DB	039H
	DB	0a7H
	DB	039H
	DB	0c6H
	DB	031H
	DB	0a7H
	DB	039H
	DB	0c7H
	DB	039H
	DB	0a6H
	DB	031H
	DB	0a7H
	DB	039H
	DB	0c7H
	DB	039H
	DB	0a6H
	DB	031H
	DB	0c7H
	DB	039H
	DB	0a7H
	DB	039H
	DB	0c6H
	DB	031H
	DB	0a7H
	DB	039H
	DB	0c7H
	DB	039H
	DB	0a6H
	DB	031H
	DB	0a7H
	DB	039H
	DB	0c7H
	DB	039H
	DB	0a6H
	DB	031H
	DB	0c7H
	DB	039H
	DB	0a7H
	DB	039H
	DB	0c6H
	DB	031H
	DB	0c7H
	DB	039H
	DB	0c7H
	DB	039H
	DB	0a7H
	DB	039H
	DB	0a7H
	DB	039H
	DB	0c7H
	DB	039H
	DB	0a7H
	DB	039H
	DB	0a7H
	DB	039H
	DB	0c7H
	DB	039H
	DB	0c7H
	DB	039H
	DB	0a7H
	DB	039H
	DB	0c7H
	DB	039H
	DB	0a7H
	DB	039H
	DB	0c7H
	DB	039H
	DB	0c7H
	DB	039H
	DB	0a7H
	DB	039H
	DB	0c7H
	DB	039H
	DB	0a7H
	DB	039H
	DB	0c7H
	DB	039H
	DB	0a7H
	DB	039H
	DB	0c7H
	DB	039H
	DB	0a7H
	DB	039H
	DB	0c7H
	DB	039H
	DB	0c7H
	DB	039H
	DB	0a7H
	DB	039H
	DB	0c7H
	DB	039H
	DB	0a7H
	DB	039H
	DB	0c7H
	DB	039H
	DB	0a7H
	DB	039H
	DB	0c7H
	DB	039H
	DB	0a7H
	DB	039H
	DB	0c7H
	DB	039H
	DB	0c7H
	DB	039H
	DB	0a7H
	DB	039H
	DB	0c7H
	DB	039H
	DB	0a7H
	DB	039H
	DB	0c7H
	DB	039H
	DB	0a7H
	DB	039H
	DB	0c7H
	DB	039H
	DB	0a7H
	DB	039H
	DB	0c7H
	DB	039H
	DB	0c7H
	DB	039H
	DB	0a7H
	DB	039H
	DB	0c7H
	DB	039H
	DB	0a7H
	DB	039H
	DB	0c7H
	DB	039H
	DB	0a7H
	DB	039H
	DB	0c7H
	DB	039H
	DB	0a7H
	DB	039H
	DB	0c7H
	DB	039H
	DB	0c7H
	DB	039H
	DB	0a7H
	DB	039H
	DB	0c7H
	DB	039H
	DB	0a7H
	DB	039H
	DB	0c7H
	DB	039H
	DB	0a7H
	DB	039H
	DB	0c7H
	DB	039H
	DB	0a7H
	DB	039H
	DB	0c7H
	DB	039H
	DB	0c7H
	DB	039H
	DB	0a7H
	DB	039H
	DB	0c7H
	DB	039H
	DB	0a7H
	DB	039H
	DB	0c7H
	DB	039H
	DB	0a7H
	DB	039H
	DB	0c7H
	DB	039H
	DB	0a7H
	DB	039H
	DB	0c7H
	DB	039H
	DB	0c7H
	DB	039H
	DB	0a7H
	DB	039H
	DB	0c7H
	DB	039H
	DB	0a7H
	DB	039H
	DB	0c7H
	DB	039H
	DB	0a7H
	DB	039H
	DB	0c7H
	DB	039H
	DB	0a7H
	DB	039H
	DB	0c7H
	DB	039H
	DB	0c7H
	DB	039H
	DB	0a7H
	DB	039H
	DB	0c7H
	DB	039H
	DB	0a7H
	DB	039H
	DB	0c7H
	DB	039H
	DB	0a7H
	DB	039H
	DB	0c7H
	DB	039H
	DB	0a7H
	DB	039H
	DB	0c7H
	DB	039H
	DB	0c7H
	DB	039H
	DB	0a7H
	DB	039H
	DB	0c7H
	DB	039H
	DB	0a7H
	DB	039H
	DB	0c7H
	DB	039H
	DB	0a7H
	DB	039H
	DB	0c7H
	DB	039H
	DB	0a7H
	DB	039H
	DB	0c7H
	DB	039H
	DB	0c7H
	DB	039H
	DB	0a7H
	DB	039H
	DB	0c7H
	DB	039H
	DB	0a7H
	DB	039H
	DB	0c7H
	DB	039H
	DB	0a7H
	DB	039H
	DB	0c7H
	DB	039H
	DB	0a7H
	DB	039H
	DB	0c7H
	DB	039H
	DB	0c7H
	DB	039H
	DB	0a7H
	DB	039H
	DB	0c7H
	DB	039H
	DB	0a7H
	DB	039H
	DB	0c7H
	DB	039H
	DB	0a7H
	DB	039H
	DB	0c7H
	DB	039H
	DB	0a7H
	DB	039H
	DB	0c7H
	DB	039H
	DB	0c7H
	DB	039H
	DB	0a7H
	DB	039H
	DB	0c7H
	DB	039H
	DB	0a7H
	DB	039H
	DB	0c7H
	DB	039H
	DB	0a7H
	DB	039H
	DB	0c7H
	DB	039H
	DB	0a7H
	DB	039H
	DB	0c7H
	DB	039H
	DB	0c7H
	DB	039H
	DB	0a7H
	DB	039H
	DB	0c7H
	DB	039H
	DB	0a7H
	DB	039H
	DB	0c7H
	DB	039H
	DB	0a7H
	DB	039H
	DB	0c7H
	DB	039H
	DB	0a7H
	DB	039H
	DB	0c7H
	DB	039H
	DB	0c7H
	DB	039H
	DB	0a7H
	DB	039H
	DB	0c7H
	DB	039H
	DB	0a7H
	DB	039H
	DB	0c7H
	DB	039H
	DB	0a7H
	DB	039H
	DB	0c7H
	DB	039H
	DB	0a7H
	DB	039H
	DB	0c7H
	DB	039H
	DB	0c7H
	DB	039H
	DB	0a7H
	DB	039H
	DB	0c7H
	DB	039H
	DB	0a7H
	DB	039H
	DB	0c7H
	DB	039H
	DB	0a7H
	DB	039H
	DB	0c7H
	DB	039H
	DB	0a7H
	DB	039H
	DB	0c7H
	DB	039H
	DB	0c7H
	DB	039H
	DB	0a7H
	DB	039H
	DB	0c7H
	DB	039H
	DB	0a7H
	DB	039H
	DB	0c7H
	DB	039H
	DB	0a7H
	DB	039H
	DB	0c7H
	DB	039H
	DB	0a7H
	DB	039H
	DB	0c7H
	DB	039H
	DB	0c7H
	DB	039H
	DB	0a7H
	DB	039H
	DB	0c7H
	DB	039H
	DB	0a7H
	DB	039H
	DB	0c7H
	DB	039H
	DB	0a7H
	DB	039H
	DB	0c7H
	DB	039H
	DB	0a7H
	DB	039H
	DB	0c7H
	DB	039H
	DB	0c7H
	DB	039H
	DB	0a7H
	DB	039H
	DB	0c7H
	DB	039H
	DB	0a7H
	DB	039H
	DB	0c7H
	DB	039H
	DB	0a7H
	DB	039H
	DB	0c7H
	DB	039H
	DB	0a7H
	DB	039H
	DB	0c7H
	DB	039H
	DB	0c7H
	DB	039H
	DB	0a7H
	DB	039H
	DB	0c7H
	DB	039H
	DB	0a7H
	DB	039H
	DB	0c7H
	DB	039H
	DB	0a7H
	DB	039H
	DB	0c7H
	DB	039H
	DB	0a7H
	DB	039H
	DB	0c7H
	DB	039H
	DB	0c7H
	DB	039H
	DB	0a7H
	DB	039H
	DB	0c7H
	DB	039H
	DB	0a7H
	DB	039H
	DB	0c7H
	DB	039H
	DB	0a7H
	DB	039H
	DB	0c7H
	DB	039H
	DB	0a7H
	DB	039H
	DB	0c7H
	DB	039H
	DB	0c7H
	DB	039H
	DB	0a7H
	DB	039H
	DB	0c7H
	DB	039H
	DB	0a7H
	DB	039H
	DB	0c7H
	DB	039H
	DB	0a7H
	DB	039H
	DB	0c7H
	DB	039H
	DB	0a7H
	DB	039H
	DB	0c7H
	DB	039H
	DB	0c7H
	DB	039H
	DB	0a7H
	DB	039H
	DB	0c7H
	DB	039H
	DB	0a7H
	DB	039H
	DB	0c7H
	DB	039H
	DB	0a7H
	DB	039H
	DB	0c7H
	DB	039H
	DB	0a7H
	DB	039H
	DB	0c7H
	DB	039H
	DB	0c7H
	DB	039H
	DB	0a7H
	DB	039H
	DB	0c7H
	DB	039H
	DB	0a7H
	DB	039H
	DB	0c7H
	DB	039H
	DB	0a7H
	DB	039H
	DB	0c7H
	DB	039H
	DB	0a7H
	DB	039H
	DB	0c7H
	DB	039H
	DB	0c7H
	DB	039H
	DB	0a7H
	DB	039H
	DB	0c7H
	DB	039H
	DB	0a7H
	DB	039H
	DB	0c7H
	DB	039H
	DB	0a7H
	DB	039H
	DB	0c7H
	DB	039H
	DB	0a7H
	DB	039H
	DB	0c7H
	DB	039H
	DB	0c7H
	DB	039H
	DB	0a7H
	DB	039H
	DB	0c7H
	DB	039H
	DB	0a7H
	DB	039H
	DB	0c7H
	DB	039H
	DB	0a7H
	DB	039H
	DB	0c7H
	DB	039H
	DB	0a7H
	DB	039H
	DB	0c7H
	DB	039H
	DB	0c7H
	DB	039H
	DB	0a7H
	DB	039H
	DB	0c7H
	DB	039H
	DB	0a7H
	DB	039H
	DB	0c7H
	DB	039H
	DB	0a7H
	DB	039H
	DB	0c7H
	DB	039H
	DB	0a7H
	DB	039H
	DB	0c7H
	DB	039H
	DB	0c7H
	DB	039H
	DB	0a7H
	DB	039H
	DB	0c7H
	DB	039H
	DB	0a7H
	DB	039H
	DB	0c7H
	DB	039H
	DB	0a7H
	DB	039H
	DB	0c7H
	DB	039H
	DB	0a7H
	DB	039H
	DB	0c7H
	DB	039H
	DB	0c7H
	DB	039H
	DB	0a7H
	DB	039H
	DB	0c7H
	DB	039H
	DB	0a7H
	DB	039H
	DB	0c7H
	DB	039H
	DB	0a7H
	DB	039H
	DB	0c7H
	DB	039H
	DB	0a7H
	DB	039H
	DB	0c7H
	DB	039H
	DB	0c7H
	DB	039H
	DB	0a7H
	DB	039H
	DB	0c7H
	DB	039H
	DB	0a7H
	DB	039H
	DB	0c7H
	DB	039H
	DB	0a7H
	DB	039H
	DB	0c7H
	DB	039H
	DB	0a7H
	DB	039H
	DB	0c7H
	DB	039H
	DB	0c7H
	DB	039H
	DB	0a7H
	DB	039H
	DB	0c7H
	DB	039H
	DB	0a7H
	DB	039H
	DB	0c7H
	DB	039H
	DB	0a7H
	DB	039H
	DB	0c7H
	DB	039H
	DB	0a7H
	DB	039H
	DB	0c7H
	DB	039H
	DB	0c7H
	DB	039H
	DB	0a7H
	DB	039H
	DB	0c7H
	DB	039H
	DB	0a7H
	DB	039H
	DB	0c7H
	DB	039H
	DB	0a7H
	DB	039H
	DB	0c7H
	DB	039H
	DB	0a7H
	DB	039H
	DB	0c7H
	DB	039H
	DB	0c7H
	DB	039H
	DB	0a7H
	DB	039H
	DB	0c7H
	DB	039H
	DB	0a7H
	DB	039H
	DB	0c7H
	DB	039H
	DB	0a7H
	DB	039H
	DB	0c7H
	DB	039H
	DB	0a7H
	DB	039H
	DB	0c7H
	DB	039H
	DB	0c7H
	DB	039H
	DB	0a7H
	DB	039H
	DB	0c7H
	DB	039H
	DB	0a7H
	DB	039H
	DB	0c7H
	DB	039H
	DB	0a7H
	DB	039H
	DB	0c7H
	DB	039H
	DB	0a7H
	DB	039H
	DB	0c7H
	DB	039H
	DB	0c7H
	DB	039H
	DB	0a7H
	DB	039H
	DB	0c7H
	DB	039H
	DB	0a7H
	DB	039H
	DB	0c7H
	DB	039H
	DB	0a7H
	DB	039H
	DB	0c7H
	DB	039H
	DB	0a7H
	DB	039H
	DB	0c7H
	DB	039H
	DB	0c7H
	DB	039H
	DB	0a7H
	DB	039H
	DB	0c7H
	DB	039H
	DB	0a7H
	DB	039H
	DB	0c7H
	DB	039H
	DB	0a7H
	DB	039H
	DB	0c7H
	DB	039H
	DB	0a7H
	DB	039H
	DB	0c7H
	DB	039H
	DB	0c7H
	DB	039H
	DB	0a7H
	DB	039H
	DB	0c7H
	DB	039H
	DB	0a7H
	DB	039H
	DB	0c7H
	DB	039H
	DB	0a7H
	DB	039H
	DB	0c7H
	DB	039H
	DB	0a7H
	DB	039H
	DB	0c7H
	DB	039H
	DB	0c7H
	DB	039H
	DB	0a7H
	DB	039H
	DB	0c7H
	DB	039H
	DB	0a7H
	DB	039H
	DB	0c7H
	DB	039H
	DB	0a7H
	DB	039H
	DB	0c7H
	DB	039H
	DB	0a7H
	DB	039H
	DB	0c7H
	DB	039H
	DB	0c7H
	DB	039H
	DB	0a7H
	DB	039H
	DB	0c7H
	DB	039H
	DB	0a7H
	DB	039H
	DB	0c7H
	DB	039H
	DB	0a7H
	DB	039H
	DB	0c7H
	DB	039H
	DB	0a7H
	DB	039H
	DB	0c7H
	DB	039H
	DB	0c7H
	DB	039H
	DB	0a7H
	DB	039H
	DB	0c7H
	DB	039H
	DB	0a7H
	DB	039H
	DB	0c7H
	DB	039H
	DB	0a7H
	DB	039H
	DB	0c7H
	DB	039H
	DB	0a7H
	DB	039H
	DB	0c7H
	DB	039H
	DB	0c7H
	DB	039H
	DB	0a7H
	DB	039H
	DB	0c7H
	DB	039H
	DB	0a7H
	DB	039H
	DB	0c7H
	DB	039H
	DB	0a7H
	DB	039H
	DB	0c7H
	DB	039H
	DB	0a7H
	DB	039H
	DB	0c7H
	DB	039H
	DB	0c7H
	DB	039H
	DB	0a7H
	DB	039H
	DB	0c7H
	DB	039H
	DB	0a7H
	DB	039H
	DB	0c7H
	DB	039H
	DB	0a7H
	DB	039H
	DB	0c7H
	DB	039H
	DB	0a7H
	DB	039H
	DB	0c7H
	DB	039H
	DB	0c7H
	DB	039H
	DB	0a7H
	DB	039H
	DB	0c7H
	DB	039H
	DB	0a7H
	DB	039H
	DB	0c7H
	DB	039H
	DB	0a7H
	DB	039H
	DB	0c7H
	DB	039H
	DB	0a7H
	DB	039H
	DB	0c7H
	DB	039H
	DB	0c7H
	DB	039H
	DB	0a7H
	DB	039H
	DB	0c7H
	DB	039H
	DB	0a7H
	DB	039H
	DB	0c7H
	DB	039H
	DB	0a7H
	DB	039H
	DB	0c7H
	DB	039H
	DB	0a7H
	DB	039H
	DB	0c7H
	DB	039H
	DB	0c7H
	DB	039H
	DB	0a7H
	DB	039H
	DB	0c7H
	DB	039H
	DB	0a7H
	DB	039H
	DB	0c7H
	DB	039H
	DB	0a7H
	DB	039H
	DB	0c7H
	DB	039H
	DB	0a7H
	DB	039H
	DB	0c7H
	DB	039H
	DB	0c7H
	DB	039H
	DB	0a7H
	DB	039H
	DB	0c7H
	DB	039H
	DB	0a7H
	DB	039H
	DB	0c7H
	DB	039H
	DB	0a7H
	DB	039H
	DB	0c7H
	DB	039H
	DB	0a7H
	DB	039H
	DB	0c7H
	DB	039H
	DB	0c7H
	DB	039H
	DB	0a7H
	DB	039H
	DB	0c7H
	DB	039H
	DB	0a7H
	DB	039H
	DB	0c7H
	DB	039H
	DB	0a7H
	DB	039H
	DB	0c7H
	DB	039H
	DB	0a7H
	DB	039H
	DB	0c7H
	DB	039H
	DB	0c7H
	DB	039H
	DB	0a7H
	DB	039H
	DB	0c7H
	DB	039H
	DB	0a7H
	DB	039H
	DB	0c7H
	DB	039H
	DB	0a7H
	DB	039H
	DB	0c7H
	DB	039H
	DB	0a7H
	DB	039H
	DB	0c7H
	DB	039H
	DB	0c7H
	DB	039H
	DB	0a7H
	DB	039H
	DB	0c7H
	DB	039H
	DB	0a7H
	DB	039H
	DB	0c7H
	DB	039H
	DB	0a7H
	DB	039H
	DB	0c7H
	DB	039H
	DB	0a7H
	DB	039H
	DB	0c7H
	DB	039H
	DB	0c7H
	DB	039H
	DB	0a7H
	DB	039H
	DB	0c7H
	DB	039H
	DB	0a7H
	DB	039H
	DB	0c7H
	DB	039H
	DB	0a7H
	DB	039H
	DB	0c7H
	DB	039H
	DB	0a7H
	DB	039H
	DB	0c7H
	DB	039H
	DB	0c7H
	DB	039H
	DB	0a7H
	DB	039H
	DB	0c7H
	DB	039H
	DB	0a7H
	DB	039H
	DB	0c7H
	DB	039H
	DB	0a7H
	DB	039H
	DB	0c7H
	DB	039H
	DB	0a7H
	DB	039H
	DB	0c7H
	DB	039H
	DB	0c7H
	DB	039H
	DB	0a7H
	DB	039H
	DB	0c7H
	DB	039H
	DB	0a7H
	DB	039H
	DB	0c7H
	DB	039H
	DB	0a7H
	DB	039H
	DB	0c7H
	DB	039H
	DB	0a7H
	DB	039H
	DB	0c7H
	DB	039H
	DB	0c7H
	DB	039H
	DB	0a7H
	DB	039H
	DB	0c7H
	DB	039H
	DB	0a7H
	DB	039H
	DB	0c7H
	DB	039H
	DB	0a7H
	DB	039H
	DB	0c7H
	DB	039H
	DB	0a7H
	DB	039H
	DB	0a6H
	DB	031H
	DB	0c7H
	DB	039H
	DB	0c7H
	DB	039H
	DB	0a6H
	DB	031H
	DB	0a7H
	DB	039H
	DB	0c6H
	DB	031H
	DB	0a7H
	DB	039H
	DB	0a6H
	DB	031H
	DB	0c7H
	DB	039H
	DB	0a6H
	DB	031H
	DB	0a6H
	DB	031H
	DB	0c7H
	DB	039H
	DB	0a6H
	DB	031H
	DB	0a7H
	DB	039H
	DB	0c6H
	DB	031H
	DB	0c6H
	DB	031H
	DB	0a7H
	DB	039H
	DB	0c6H
	DB	031H
	DB	0c7H
	DB	039H
	DB	0a6H
	DB	031H
	DB	0a7H
	DB	039H
	DB	0c6H
	DB	031H
	DB	0a6H
	DB	031H
	DB	0c7H
	DB	039H
	DB	0a6H
	DB	031H
	DB	0c7H
	DB	039H
	DB	0a6H
	DB	031H
	DB	0c6H
	DB	031H
	DB	0a7H
	DB	039H
	DB	0c6H
	DB	031H
	DB	0a7H
	DB	039H
	DB	0a6H
	DB	031H
	DB	0c7H
	DB	039H
	DB	0c6H
	DB	031H
	DB	0a6H
	DB	031H
	DB	0c7H
	DB	039H
	DB	0c6H
	DB	031H
	DB	0a7H
	DB	039H
	DB	0a6H
	DB	031H
	DB	0c6H
	DB	031H
	DB	0a7H
	DB	039H
	DB	0c6H
	DB	031H
	DB	0a7H
	DB	039H
	DB	0c6H
	DB	031H
	DB	0a7H
	DB	039H
	DB	0c6H
	DB	031H
	DB	0a6H
	DB	031H
	DB	0c7H
	DB	039H
	DB	0a6H
	DB	031H
	DB	0a7H
	DB	039H
	DB	0c6H
	DB	031H
	DB	0c6H
	DB	031H
	DB	0a7H
	DB	039H
	DB	0c6H
	DB	031H
	DB	0c7H
	DB	039H
	DB	0a6H
	DB	031H
	DB	0a7H
	DB	039H
	DB	0c6H
	DB	031H
	DB	0a6H
	DB	031H
	DB	0c7H
	DB	039H
	DB	0a6H
	DB	031H
	DB	0c7H
	DB	039H
	DB	0a6H
	DB	031H
	DB	0c6H
	DB	031H
	DB	0a7H
	DB	039H
	DB	0c6H
	DB	031H
	DB	0a7H
	DB	039H
	DB	0a6H
	DB	031H
	DB	0c7H
	DB	039H
	DB	0c6H
	DB	031H
	DB	0a6H
	DB	031H
	DB	0c7H
	DB	039H
	DB	0c6H
	DB	031H
	DB	0a7H
	DB	039H
	DB	0a6H
	DB	031H
	DB	0c6H
	DB	031H
	DB	0a7H
	DB	039H
	DB	0c6H
	DB	031H
	DB	0a7H
	DB	039H
	DB	0c6H
	DB	031H
	DB	0a7H
	DB	039H
	DB	0c6H
	DB	031H
	DB	0a6H
	DB	031H
	DB	0c7H
	DB	039H
	DB	0a6H
	DB	031H
	DB	0a7H
	DB	039H
	DB	0c6H
	DB	031H
	DB	0c6H
	DB	031H
	DB	0a7H
	DB	039H
	DB	0c6H
	DB	031H
	DB	0c7H
	DB	039H
	DB	0a6H
	DB	031H
	DB	0a7H
	DB	039H
	DB	0c6H
	DB	031H
	DB	0a6H
	DB	031H
	DB	0c7H
	DB	039H
	DB	0a6H
	DB	031H
	DB	0c7H
	DB	039H
	DB	0a6H
	DB	031H
	DB	0c6H
	DB	031H
	DB	0a7H
	DB	039H
	DB	0c6H
	DB	031H
	DB	0a7H
	DB	039H
	DB	0a6H
	DB	031H
	DB	0c7H
	DB	039H
	DB	0c6H
	DB	031H
	DB	0a6H
	DB	031H
	DB	0c7H
	DB	039H
	DB	0c6H
	DB	031H
	DB	0a7H
	DB	039H
	DB	0a6H
	DB	031H
	DB	0c6H
	DB	031H
	DB	0a7H
	DB	039H
	DB	0c6H
	DB	031H
	DB	0a7H
	DB	039H
	DB	0c6H
	DB	031H
	DB	0a7H
	DB	039H
	DB	0c6H
	DB	031H
	DB	0a6H
	DB	031H
	DB	0c7H
	DB	039H
	DB	0a6H
	DB	031H
	DB	0a7H
	DB	039H
	DB	0c6H
	DB	031H
	DB	0c6H
	DB	031H
	DB	0a7H
	DB	039H
	DB	0c6H
	DB	031H
	DB	0c7H
	DB	039H
	DB	0a6H
	DB	031H
	DB	0a7H
	DB	039H
	DB	0c6H
	DB	031H
	DB	0a6H
	DB	031H
	DB	0c7H
	DB	039H
	DB	0a6H
	DB	031H
	DB	0c7H
	DB	039H
	DB	0a6H
	DB	031H
	DB	0c6H
	DB	031H
	DB	0a7H
	DB	039H
	DB	0c6H
	DB	031H
	DB	0a7H
	DB	039H
	DB	0a6H
	DB	031H
	DB	0c7H
	DB	039H
	DB	0c6H
	DB	031H
	DB	0a6H
	DB	031H
	DB	0c7H
	DB	039H
	DB	0c6H
	DB	031H
	DB	0a7H
	DB	039H
	DB	0a6H
	DB	031H
	DB	0c6H
	DB	031H
	DB	0a7H
	DB	039H
	DB	0c6H
	DB	031H
	DB	0a7H
	DB	039H
	DB	0c6H
	DB	031H
	DB	0a7H
	DB	039H
	DB	0c6H
	DB	031H
	DB	0a6H
	DB	031H
	DB	0c7H
	DB	039H
	DB	0a6H
	DB	031H
	DB	0a7H
	DB	039H
	DB	0c6H
	DB	031H
	DB	0c6H
	DB	031H
	DB	0a7H
	DB	039H
	DB	0c6H
	DB	031H
	DB	0c7H
	DB	039H
	DB	0a6H
	DB	031H
	DB	0a7H
	DB	039H
	DB	0c6H
	DB	031H
	DB	0a6H
	DB	031H
	DB	0c7H
	DB	039H
	DB	0a6H
	DB	031H
	DB	0c7H
	DB	039H
	DB	0a6H
	DB	031H
	DB	0c6H
	DB	031H
	DB	0a7H
	DB	039H
	DB	0c6H
	DB	031H
	DB	0a7H
	DB	039H
	DB	0a6H
	DB	031H
	DB	0c7H
	DB	039H
	DB	0c6H
	DB	031H
	DB	0a6H
	DB	031H
	DB	0c7H
	DB	039H
	DB	0c6H
	DB	031H
	DB	0a7H
	DB	039H
	DB	0a6H
	DB	031H
	DB	0c6H
	DB	031H
	DB	0a7H
	DB	039H
	DB	0c6H
	DB	031H
	DB	0a7H
	DB	039H
	DB	0c6H
	DB	031H
	DB	0a7H
	DB	039H
	DB	0c6H
	DB	031H
	DB	0a6H
	DB	031H
	DB	0c7H
	DB	039H
	DB	0a6H
	DB	031H
	DB	0a7H
	DB	039H
	DB	0c6H
	DB	031H
	DB	0c6H
	DB	031H
	DB	0a7H
	DB	039H
	DB	0c6H
	DB	031H
	DB	0c7H
	DB	039H
	DB	0a6H
	DB	031H
	DB	0a7H
	DB	039H
	DB	0c6H
	DB	031H
	DB	0a6H
	DB	031H
	DB	0c7H
	DB	039H
	DB	0a6H
	DB	031H
	DB	0c7H
	DB	039H
	DB	0a6H
	DB	031H
	DB	0c6H
	DB	031H
	DB	0a7H
	DB	039H
	DB	0c6H
	DB	031H
	DB	0a7H
	DB	039H
	DB	0a6H
	DB	031H
	DB	0c7H
	DB	039H
	DB	0c6H
	DB	031H
	DB	0a6H
	DB	031H
	DB	0c7H
	DB	039H
	DB	0c6H
	DB	031H
	DB	0a7H
	DB	039H
	DB	0a6H
	DB	031H
	DB	0c6H
	DB	031H
	DB	0a7H
	DB	039H
	DB	0c6H
	DB	031H
	DB	0a7H
	DB	039H
	DB	0c6H
	DB	031H
	DB	0a7H
	DB	039H
	DB	0c6H
	DB	031H
	DB	0a6H
	DB	031H
	DB	0c7H
	DB	039H
	DB	0a6H
	DB	031H
	DB	0a7H
	DB	039H
	DB	0c6H
	DB	031H
	DB	0c6H
	DB	031H
	DB	0a7H
	DB	039H
	DB	0c6H
	DB	031H
	DB	0c7H
	DB	039H
	DB	0a6H
	DB	031H
	DB	0a7H
	DB	039H
	DB	0c6H
	DB	031H
	DB	0a6H
	DB	031H
	DB	0c7H
	DB	039H
	DB	0a6H
	DB	031H
	DB	0c7H
	DB	039H
	DB	0a6H
	DB	031H
	DB	0c6H
	DB	031H
	DB	0a7H
	DB	039H
	DB	0c6H
	DB	031H
	DB	0a7H
	DB	039H
	DB	0a6H
	DB	031H
	DB	0c7H
	DB	039H
	DB	0c6H
	DB	031H
	DB	0a6H
	DB	031H
	DB	0c7H
	DB	039H
	DB	0c6H
	DB	031H
	DB	0a7H
	DB	039H
	DB	0a6H
	DB	031H
	DB	0c6H
	DB	031H
	DB	0a7H
	DB	039H
	DB	0c6H
	DB	031H
	DB	0a7H
	DB	039H
	DB	0c6H
	DB	031H
	DB	0a7H
	DB	039H
	DB	0c6H
	DB	031H
	DB	0a6H
	DB	031H
	DB	0c7H
	DB	039H
	DB	0a6H
	DB	031H
	DB	0a7H
	DB	039H
	DB	0c6H
	DB	031H
	DB	0c6H
	DB	031H
	DB	0a7H
	DB	039H
	DB	0c6H
	DB	031H
	DB	0c7H
	DB	039H
	DB	0a6H
	DB	031H
	DB	0a7H
	DB	039H
	DB	0c6H
	DB	031H
	DB	0a6H
	DB	031H
	DB	0c7H
	DB	039H
	DB	0a6H
	DB	031H
	DB	0c7H
	DB	039H
	DB	0a6H
	DB	031H
	DB	0c6H
	DB	031H
	DB	0a7H
	DB	039H
	DB	0c6H
	DB	031H
	DB	0a7H
	DB	039H
	DB	0a6H
	DB	031H
	DB	0c7H
	DB	039H
	DB	0c6H
	DB	031H
	DB	0a6H
	DB	031H
	DB	0c7H
	DB	039H
	DB	0c6H
	DB	031H
	DB	0a7H
	DB	039H
	DB	0a6H
	DB	031H
	DB	0c6H
	DB	031H
	DB	0a7H
	DB	039H
	DB	0c6H
	DB	031H
	DB	0a7H
	DB	039H
	DB	0c6H
	DB	031H
	DB	0a7H
	DB	039H
	DB	0c6H
	DB	031H
	DB	0a6H
	DB	031H
	DB	0c7H
	DB	039H
	DB	0a6H
	DB	031H
	DB	0a7H
	DB	039H
	DB	0c6H
	DB	031H
	DB	0c6H
	DB	031H
	DB	0a7H
	DB	039H
	DB	0c6H
	DB	031H
	DB	0c7H
	DB	039H
	DB	0a6H
	DB	031H
	DB	0a7H
	DB	039H
	DB	0c6H
	DB	031H
	DB	0a6H
	DB	031H
	DB	0c7H
	DB	039H
	DB	0a6H
	DB	031H
	DB	0c7H
	DB	039H
	DB	0a6H
	DB	031H
	DB	0c6H
	DB	031H
	DB	0a7H
	DB	039H
	DB	0c6H
	DB	031H
	DB	0a7H
	DB	039H
	DB	0a6H
	DB	031H
	DB	0c7H
	DB	039H
	DB	0c6H
	DB	031H
	DB	0a6H
	DB	031H
	DB	0c7H
	DB	039H
	DB	0c6H
	DB	031H
	DB	0a7H
	DB	039H
	DB	0a6H
	DB	031H
	DB	0c6H
	DB	031H
	DB	0a7H
	DB	039H
	DB	0c6H
	DB	031H
	DB	0a7H
	DB	039H
	DB	0c6H
	DB	031H
	DB	0a7H
	DB	039H
	DB	0c6H
	DB	031H
	DB	0a6H
	DB	031H
	DB	0c7H
	DB	039H
	DB	0a6H
	DB	031H
	DB	0a7H
	DB	039H
	DB	0c6H
	DB	031H
	DB	0c6H
	DB	031H
	DB	0a7H
	DB	039H
	DB	0c6H
	DB	031H
	DB	0c7H
	DB	039H
	DB	0a6H
	DB	031H
	DB	0a7H
	DB	039H
	DB	0c6H
	DB	031H
	DB	0a6H
	DB	031H
	DB	0c7H
	DB	039H
	DB	0a6H
	DB	031H
	DB	0c7H
	DB	039H
	DB	0a6H
	DB	031H
	DB	0c6H
	DB	031H
	DB	0a7H
	DB	039H
	DB	0c6H
	DB	031H
	DB	0a7H
	DB	039H
	DB	0a6H
	DB	031H
	DB	0c7H
	DB	039H
	DB	0c6H
	DB	031H
	DB	0a6H
	DB	031H
	DB	0c7H
	DB	039H
	DB	0c6H
	DB	031H
	DB	0a7H
	DB	039H
	DB	0a6H
	DB	031H
	DB	0c6H
	DB	031H
	DB	0a7H
	DB	039H
	DB	0c6H
	DB	031H
	DB	0a7H
	DB	039H
	DB	0c6H
	DB	031H
	DB	0a7H
	DB	039H
	DB	0c6H
	DB	031H
	DB	0a6H
	DB	031H
	DB	0c7H
	DB	039H
	DB	0a6H
	DB	031H
	DB	0a7H
	DB	039H
	DB	0c6H
	DB	031H
	DB	0c6H
	DB	031H
	DB	0a7H
	DB	039H
	DB	0c6H
	DB	031H
	DB	0c7H
	DB	039H
	DB	0a6H
	DB	031H
	DB	0a7H
	DB	039H
	DB	0c6H
	DB	031H
	DB	0a6H
	DB	031H
	DB	0c7H
	DB	039H
	DB	0a6H
	DB	031H
	DB	0c7H
	DB	039H
	DB	0a6H
	DB	031H
	DB	0c6H
	DB	031H
	DB	0a7H
	DB	039H
	DB	0c6H
	DB	031H
	DB	0a7H
	DB	039H
	DB	0a6H
	DB	031H
	DB	0c7H
	DB	039H
	DB	0c6H
	DB	031H
	DB	0a6H
	DB	031H
	DB	0c7H
	DB	039H
	DB	0c6H
	DB	031H
	DB	0a7H
	DB	039H
	DB	0a6H
	DB	031H
	DB	0c6H
	DB	031H
	DB	0a7H
	DB	039H
	DB	0c6H
	DB	031H
	DB	0a7H
	DB	039H
	DB	0c6H
	DB	031H
	DB	0a7H
	DB	039H
	DB	0c6H
	DB	031H
	DB	0a6H
	DB	031H
	DB	0c7H
	DB	039H
	DB	0a6H
	DB	031H
	DB	0a7H
	DB	039H
	DB	0c6H
	DB	031H
	DB	0c6H
	DB	031H
	DB	0a7H
	DB	039H
	DB	0c6H
	DB	031H
	DB	0c7H
	DB	039H
	DB	0a6H
	DB	031H
	DB	0a7H
	DB	039H
	DB	0c6H
	DB	031H
	DB	0a6H
	DB	031H
	DB	0c7H
	DB	039H
	DB	0a6H
	DB	031H
	DB	0c7H
	DB	039H
	DB	0a6H
	DB	031H
	DB	0c6H
	DB	031H
	DB	0a7H
	DB	039H
	DB	0c6H
	DB	031H
	DB	0a7H
	DB	039H
	DB	0a6H
	DB	031H
	DB	0c7H
	DB	039H
	DB	0c6H
	DB	031H
	DB	0a6H
	DB	031H
	DB	0c7H
	DB	039H
	DB	0c6H
	DB	031H
	DB	0a7H
	DB	039H
	DB	0a6H
	DB	031H
	DB	0c6H
	DB	031H
	DB	0a7H
	DB	039H
	DB	0c6H
	DB	031H
	DB	0a7H
	DB	039H
	DB	0c6H
	DB	031H
	DB	0a7H
	DB	039H
	DB	0c6H
	DB	031H
	DB	0a6H
	DB	031H
	DB	0c7H
	DB	039H
	DB	0a6H
	DB	031H
	DB	0a7H
	DB	039H
	DB	0c6H
	DB	031H
	DB	0c6H
	DB	031H
	DB	0a7H
	DB	039H
	DB	0c6H
	DB	031H
	DB	0c7H
	DB	039H
	DB	0a6H
	DB	031H
	DB	0a7H
	DB	039H
	DB	0c6H
	DB	031H
	DB	0a6H
	DB	031H
	DB	0c7H
	DB	039H
	DB	0a6H
	DB	031H
	DB	0c7H
	DB	039H
	DB	0a6H
	DB	031H
	DB	0c6H
	DB	031H
	DB	0a7H
	DB	039H
	DB	0c6H
	DB	031H
	DB	0a7H
	DB	039H
	DB	0a6H
	DB	031H
	DB	0c7H
	DB	039H
	DB	0c6H
	DB	031H
	DB	0a6H
	DB	031H
	DB	0c7H
	DB	039H
	DB	0c6H
	DB	031H
	DB	0a7H
	DB	039H
	DB	0a6H
	DB	031H
	DB	0c6H
	DB	031H
	DB	0a7H
	DB	039H
	DB	0c6H
	DB	031H
	DB	0a7H
	DB	039H
	DB	0c6H
	DB	031H
	DB	0a7H
	DB	039H
	DB	0c6H
	DB	031H
	DB	0a7H
	DB	039H
	DB	0c7H
	DB	039H
	DB	0a6H
	DB	031H
	DB	0a7H
	DB	039H
	DB	0c7H
	DB	039H
	DB	0c7H
	DB	039H
	DB	0a7H
	DB	039H
	DB	0c7H
	DB	039H
	DB	0c7H
	DB	039H
	DB	0a7H
	DB	039H
	DB	0c7H
	DB	039H
	DB	0c7H
	DB	039H
	DB	0a7H
	DB	039H
	DB	0c7H
	DB	039H
	DB	0c7H
	DB	039H
	DB	0a7H
	DB	039H
	DB	0a7H
	DB	039H
	DB	0c7H
	DB	039H
	DB	0a7H
	DB	039H
	DB	0a7H
	DB	039H
	DB	0c6H
	DB	031H
	DB	0a7H
	DB	039H
	DB	0c7H
	DB	039H
	DB	0a7H
	DB	039H
	DB	0a7H
	DB	039H
	DB	0c7H
	DB	039H
	DB	0c7H
	DB	039H
	DB	0a7H
	DB	039H
	DB	0c7H
	DB	039H
	DB	0a7H
	DB	039H
	DB	0c7H
	DB	039H
	DB	0c7H
	DB	039H
	DB	0a6H
	DB	031H
	DB	0a7H
	DB	039H
	DB	0c7H
	DB	039H
	DB	0a7H
	DB	039H
	DB	0a7H
	DB	039H
	DB	0c7H
	DB	039H
	DB	0a7H
	DB	039H
	DB	0c7H
	DB	039H
	DB	0c7H
	DB	039H
	DB	0a7H
	DB	039H
	DB	0a7H
	DB	039H
	DB	0c7H
	DB	039H
	DB	0c6H
	DB	031H
	DB	0a7H
	DB	039H
	DB	0c7H
	DB	039H
	DB	0a7H
	DB	039H
	DB	0c7H
	DB	039H
	DB	0c7H
	DB	039H
	DB	0a7H
	DB	039H
	DB	0a7H
	DB	039H
	DB	0c7H
	DB	039H
	DB	0a7H
	DB	039H
	DB	0a7H
	DB	039H
	DB	0c7H
	DB	039H
	DB	0a6H
	DB	031H
	DB	0c7H
	DB	039H
	DB	0c7H
	DB	039H
	DB	0a7H
	DB	039H
	DB	0a7H
	DB	039H
	DB	0c7H
	DB	039H
	DB	0c7H
	DB	039H
	DB	0a7H
	DB	039H
	DB	0c7H
	DB	039H
	DB	0a7H
	DB	039H
	DB	0c7H
	DB	039H
	DB	0c7H
	DB	039H
	DB	0a6H
	DB	031H
	DB	0a7H
	DB	039H
	DB	0c7H
	DB	039H
	DB	0a7H
	DB	039H
	DB	0a7H
	DB	039H
	DB	0c7H
	DB	039H
	DB	0a7H
	DB	039H
	DB	0c7H
	DB	039H
	DB	0c7H
	DB	039H
	DB	0a7H
	DB	039H
	DB	0a7H
	DB	039H
	DB	0c7H
	DB	039H
	DB	0c6H
	DB	031H
	DB	0a7H
	DB	039H
	DB	0c7H
	DB	039H
	DB	0a7H
	DB	039H
	DB	0c7H
	DB	039H
	DB	0c7H
	DB	039H
	DB	0a7H
	DB	039H
	DB	0a7H
	DB	039H
	DB	0c7H
	DB	039H
	DB	0a7H
	DB	039H
	DB	0a7H
	DB	039H
	DB	0c7H
	DB	039H
	DB	0a6H
	DB	031H
	DB	0c7H
	DB	039H
	DB	0c7H
	DB	039H
	DB	0a7H
	DB	039H
	DB	0a7H
	DB	039H
	DB	0c7H
	DB	039H
	DB	0c7H
	DB	039H
	DB	0a7H
	DB	039H
	DB	0c7H
	DB	039H
	DB	0a7H
	DB	039H
	DB	0c7H
	DB	039H
	DB	0c7H
	DB	039H
	DB	0a6H
	DB	031H
	DB	0a7H
	DB	039H
	DB	0c7H
	DB	039H
	DB	0a7H
	DB	039H
	DB	0a7H
	DB	039H
	DB	0c7H
	DB	039H
	DB	0a7H
	DB	039H
	DB	0c7H
	DB	039H
	DB	0c7H
	DB	039H
	DB	0a7H
	DB	039H
	DB	0a7H
	DB	039H
	DB	0c7H
	DB	039H
	DB	0c6H
	DB	031H
	DB	0a7H
	DB	039H
	DB	0c7H
	DB	039H
	DB	0a7H
	DB	039H
	DB	0c7H
	DB	039H
	DB	0c7H
	DB	039H
	DB	0a7H
	DB	039H
	DB	0a7H
	DB	039H
	DB	0c7H
	DB	039H
	DB	0a7H
	DB	039H
	DB	0a7H
	DB	039H
	DB	0c7H
	DB	039H
	DB	0a6H
	DB	031H
	DB	0c7H
	DB	039H
	DB	0c7H
	DB	039H
	DB	0a7H
	DB	039H
	DB	0a7H
	DB	039H
	DB	0c7H
	DB	039H
	DB	0c7H
	DB	039H
	DB	0a7H
	DB	039H
	DB	0c7H
	DB	039H
	DB	0a7H
	DB	039H
	DB	0c7H
	DB	039H
	DB	0c7H
	DB	039H
	DB	0a6H
	DB	031H
	DB	0a7H
	DB	039H
	DB	0c7H
	DB	039H
	DB	0a7H
	DB	039H
	DB	0a7H
	DB	039H
	DB	0c7H
	DB	039H
	DB	0a7H
	DB	039H
	DB	0c7H
	DB	039H
	DB	0c7H
	DB	039H
	DB	0a7H
	DB	039H
	DB	0a7H
	DB	039H
	DB	0c7H
	DB	039H
	DB	0c6H
	DB	031H
	DB	0a7H
	DB	039H
	DB	0c7H
	DB	039H
	DB	0a7H
	DB	039H
	DB	0c7H
	DB	039H
	DB	0c7H
	DB	039H
	DB	0a7H
	DB	039H
	DB	0a7H
	DB	039H
	DB	0c7H
	DB	039H
	DB	0a7H
	DB	039H
	DB	0a7H
	DB	039H
	DB	0c7H
	DB	039H
	DB	0a6H
	DB	031H
	DB	0c7H
	DB	039H
	DB	0c7H
	DB	039H
	DB	0a7H
	DB	039H
	DB	0a7H
	DB	039H
	DB	0c7H
	DB	039H
	DB	0c7H
	DB	039H
	DB	0a7H
	DB	039H
	DB	0c7H
	DB	039H
	DB	0a7H
	DB	039H
	DB	0c7H
	DB	039H
	DB	0c7H
	DB	039H
	DB	0a6H
	DB	031H
	DB	0a7H
	DB	039H
	DB	0c7H
	DB	039H
	DB	0a7H
	DB	039H
	DB	0a7H
	DB	039H
	DB	0c7H
	DB	039H
	DB	0a7H
	DB	039H
	DB	0c7H
	DB	039H
	DB	0c7H
	DB	039H
	DB	0a7H
	DB	039H
	DB	0a7H
	DB	039H
	DB	0c7H
	DB	039H
	DB	0c6H
	DB	031H
	DB	0a7H
	DB	039H
	DB	0c7H
	DB	039H
	DB	0a7H
	DB	039H
	DB	0c7H
	DB	039H
	DB	0c7H
	DB	039H
	DB	0a7H
	DB	039H
	DB	0a7H
	DB	039H
	DB	0c7H
	DB	039H
	DB	0a7H
	DB	039H
	DB	0a7H
	DB	039H
	DB	0c7H
	DB	039H
	DB	0a6H
	DB	031H
	DB	0c7H
	DB	039H
	DB	0c7H
	DB	039H
	DB	0a7H
	DB	039H
	DB	0a7H
	DB	039H
	DB	0c7H
	DB	039H
	DB	0c7H
	DB	039H
	DB	0a7H
	DB	039H
	DB	0c7H
	DB	039H
	DB	0a7H
	DB	039H
	DB	0c7H
	DB	039H
	DB	0c7H
	DB	039H
	DB	0a6H
	DB	031H
	DB	0a7H
	DB	039H
	DB	0c7H
	DB	039H
	DB	0a7H
	DB	039H
	DB	0a7H
	DB	039H
	DB	0c7H
	DB	039H
	DB	0a7H
	DB	039H
	DB	0c7H
	DB	039H
	DB	0c7H
	DB	039H
	DB	0a7H
	DB	039H
	DB	0a7H
	DB	039H
	DB	0c7H
	DB	039H
	DB	0c6H
	DB	031H
	DB	0a7H
	DB	039H
	DB	0c7H
	DB	039H
	DB	0a7H
	DB	039H
	DB	0c7H
	DB	039H
	DB	0c7H
	DB	039H
	DB	0a7H
	DB	039H
	DB	0a7H
	DB	039H
	DB	0c7H
	DB	039H
	DB	0a7H
	DB	039H
	DB	0a7H
	DB	039H
	DB	0c7H
	DB	039H
	DB	0a6H
	DB	031H
	DB	0c7H
	DB	039H
	DB	0c7H
	DB	039H
	DB	0a7H
	DB	039H
	DB	0a7H
	DB	039H
	DB	0c7H
	DB	039H
	DB	0c7H
	DB	039H
	DB	0a7H
	DB	039H
	DB	0c7H
	DB	039H
	DB	0a7H
	DB	039H
	DB	0c7H
	DB	039H
	DB	0c7H
	DB	039H
	DB	0a6H
	DB	031H
	DB	0a7H
	DB	039H
	DB	0c7H
	DB	039H
	DB	0a7H
	DB	039H
	DB	0a7H
	DB	039H
	DB	0c7H
	DB	039H
	DB	0a7H
	DB	039H
	DB	0c7H
	DB	039H
	DB	0c7H
	DB	039H
	DB	0a7H
	DB	039H
	DB	0a7H
	DB	039H
	DB	0c7H
	DB	039H
	DB	0c6H
	DB	031H
	DB	0a7H
	DB	039H
	DB	0c7H
	DB	039H
	DB	0a7H
	DB	039H
	DB	0c7H
	DB	039H
	DB	0c7H
	DB	039H
	DB	0a7H
	DB	039H
	DB	0a7H
	DB	039H
	DB	0c7H
	DB	039H
	DB	0a7H
	DB	039H
	DB	0a7H
	DB	039H
	DB	0c7H
	DB	039H
	DB	0a6H
	DB	031H
	DB	0c7H
	DB	039H
	DB	0c7H
	DB	039H
	DB	0a7H
	DB	039H
	DB	0a7H
	DB	039H
	DB	0c7H
	DB	039H
	DB	0c7H
	DB	039H
	DB	0a7H
	DB	039H
	DB	0c7H
	DB	039H
	DB	0a7H
	DB	039H
	DB	0c7H
	DB	039H
	DB	0c7H
	DB	039H
	DB	0a6H
	DB	031H
	DB	0a7H
	DB	039H
	DB	0c7H
	DB	039H
	DB	0a7H
	DB	039H
	DB	0a7H
	DB	039H
	DB	0c7H
	DB	039H
	DB	0a7H
	DB	039H
	DB	0c7H
	DB	039H
	DB	0c7H
	DB	039H
	DB	0a7H
	DB	039H
	DB	0a7H
	DB	039H
	DB	0c7H
	DB	039H
	DB	0c6H
	DB	031H
	DB	0a7H
	DB	039H
	DB	0c7H
	DB	039H
	DB	0a7H
	DB	039H
	DB	0c7H
	DB	039H
	DB	0c7H
	DB	039H
	DB	0a7H
	DB	039H
	DB	0a7H
	DB	039H
	DB	0c7H
	DB	039H
	DB	0a7H
	DB	039H
	DB	0a7H
	DB	039H
	DB	0c7H
	DB	039H
	DB	0a6H
	DB	031H
	DB	0c7H
	DB	039H
	DB	0c7H
	DB	039H
	DB	0a7H
	DB	039H
	DB	0a7H
	DB	039H
	DB	0c7H
	DB	039H
	DB	0c7H
	DB	039H
	DB	0a7H
	DB	039H
	DB	0c7H
	DB	039H
	DB	0a7H
	DB	039H
	DB	0c7H
	DB	039H
	DB	0c7H
	DB	039H
	DB	0a6H
	DB	031H
	DB	0a7H
	DB	039H
	DB	0c7H
	DB	039H
	DB	0a7H
	DB	039H
	DB	0a7H
	DB	039H
	DB	0c7H
	DB	039H
	DB	0a7H
	DB	039H
	DB	0c7H
	DB	039H
	DB	0c7H
	DB	039H
	DB	0a7H
	DB	039H
	DB	0a7H
	DB	039H
	DB	0c7H
	DB	039H
	DB	0c6H
	DB	031H
	DB	0a7H
	DB	039H
	DB	0c7H
	DB	039H
	DB	0a7H
	DB	039H
	DB	0c7H
	DB	039H
	DB	0c7H
	DB	039H
	DB	0a7H
	DB	039H
	DB	0a7H
	DB	039H
	DB	0c7H
	DB	039H
	DB	0a7H
	DB	039H
	DB	0a7H
	DB	039H
	DB	0c7H
	DB	039H
	DB	0a6H
	DB	031H
	DB	0c7H
	DB	039H
	DB	0c7H
	DB	039H
	DB	0a7H
	DB	039H
	DB	0a7H
	DB	039H
	DB	0c7H
	DB	039H
	DB	0c7H
	DB	039H
	DB	0a7H
	DB	039H
	DB	0c7H
	DB	039H
	DB	0a7H
	DB	039H
	DB	0c7H
	DB	039H
	DB	0c7H
	DB	039H
	DB	0a6H
	DB	031H
	DB	0a7H
	DB	039H
	DB	0c7H
	DB	039H
	DB	0a7H
	DB	039H
	DB	0a7H
	DB	039H
	DB	0c7H
	DB	039H
	DB	0a7H
	DB	039H
	DB	0c7H
	DB	039H
	DB	0c7H
	DB	039H
	DB	0a7H
	DB	039H
	DB	0a7H
	DB	039H
	DB	0c7H
	DB	039H
	DB	0c6H
	DB	031H
	DB	0a7H
	DB	039H
	DB	0c7H
	DB	039H
	DB	0a7H
	DB	039H
	DB	0c7H
	DB	039H
	DB	0c7H
	DB	039H
	DB	0a7H
	DB	039H
	DB	0a7H
	DB	039H
	DB	0c7H
	DB	039H
	DB	0a7H
	DB	039H
	DB	0a7H
	DB	039H
	DB	0c7H
	DB	039H
	DB	0a6H
	DB	031H
	DB	0c7H
	DB	039H
	DB	0c7H
	DB	039H
	DB	0a7H
	DB	039H
	DB	0a7H
	DB	039H
	DB	0c7H
	DB	039H
	DB	0c7H
	DB	039H
	DB	0a7H
	DB	039H
	DB	0c7H
	DB	039H
	DB	0a7H
	DB	039H
	DB	0c7H
	DB	039H
	DB	0c7H
	DB	039H
	DB	0a6H
	DB	031H
	DB	0a7H
	DB	039H
	DB	0c7H
	DB	039H
	DB	0a7H
	DB	039H
	DB	0a7H
	DB	039H
	DB	0c7H
	DB	039H
	DB	0a7H
	DB	039H
	DB	0c7H
	DB	039H
	DB	0c7H
	DB	039H
	DB	0a7H
	DB	039H
	DB	0a7H
	DB	039H
	DB	0c7H
	DB	039H
	DB	0c6H
	DB	031H
	DB	0a7H
	DB	039H
	DB	0c7H
	DB	039H
	DB	0a7H
	DB	039H
	DB	0c7H
	DB	039H
	DB	0c7H
	DB	039H
	DB	0a7H
	DB	039H
	DB	0a7H
	DB	039H
	DB	0c7H
	DB	039H
	DB	0a7H
	DB	039H
	DB	0a7H
	DB	039H
	DB	0c7H
	DB	039H
	DB	0a6H
	DB	031H
	DB	0c7H
	DB	039H
	DB	0c7H
	DB	039H
	DB	0a7H
	DB	039H
	DB	0a7H
	DB	039H
	DB	0c7H
	DB	039H
	DB	0c7H
	DB	039H
	DB	0a7H
	DB	039H
	DB	0c7H
	DB	039H
	DB	0a7H
	DB	039H
	DB	0c7H
	DB	039H
	DB	0c7H
	DB	039H
	DB	0a6H
	DB	031H
	DB	0a7H
	DB	039H
	DB	0c7H
	DB	039H
	DB	0a7H
	DB	039H
	DB	0a7H
	DB	039H
	DB	0c7H
	DB	039H
	DB	0a7H
	DB	039H
	DB	0c7H
	DB	039H
	DB	0c7H
	DB	039H
	DB	0a7H
	DB	039H
	DB	0a7H
	DB	039H
	DB	0c7H
	DB	039H
	DB	0c6H
	DB	031H
	DB	0a7H
	DB	039H
	DB	0c7H
	DB	039H
	DB	0a7H
	DB	039H
	DB	0c7H
	DB	039H
	DB	0c7H
	DB	039H
	DB	0a7H
	DB	039H
	DB	0a7H
	DB	039H
	DB	0c7H
	DB	039H
	DB	0a7H
	DB	039H
	DB	0a7H
	DB	039H
	DB	0c7H
	DB	039H
	DB	0a6H
	DB	031H
	DB	0c7H
	DB	039H
	DB	0c7H
	DB	039H
	DB	0a7H
	DB	039H
	DB	0a7H
	DB	039H
	DB	0c7H
	DB	039H
	DB	0c7H
	DB	039H
	DB	0a7H
	DB	039H
	DB	0c7H
	DB	039H
	DB	0a7H
	DB	039H
	DB	0c7H
	DB	039H
	DB	0c7H
	DB	039H
	DB	0a6H
	DB	031H
	DB	0a7H
	DB	039H
	DB	0c7H
	DB	039H
	DB	0a7H
	DB	039H
	DB	0a7H
	DB	039H
	DB	0c7H
	DB	039H
	DB	0a7H
	DB	039H
	DB	0c7H
	DB	039H
	DB	0c7H
	DB	039H
	DB	0a7H
	DB	039H
	DB	0a7H
	DB	039H
	DB	0c7H
	DB	039H
	DB	0c6H
	DB	031H
	DB	0a7H
	DB	039H
	DB	0c7H
	DB	039H
	DB	0a6H
	DB	031H
	DB	0c7H
	DB	039H
	DB	0c7H
	DB	039H
	DB	0a7H
	DB	039H
	DB	0a6H
	DB	031H
	DB	0c7H
	DB	039H
	DB	0a7H
	DB	039H
	DB	0a7H
	DB	039H
	DB	0c6H
	DB	031H
	DB	0a7H
	DB	039H
	DB	0c7H
	DB	039H
	DB	0a6H
	DB	031H
	DB	0c7H
	DB	039H
	DB	0a7H
	DB	039H
	DB	0a6H
	DB	031H
	DB	0c7H
	DB	039H
	DB	0c7H
	DB	039H
	DB	0a6H
	DB	031H
	DB	0c7H
	DB	039H
	DB	0a7H
	DB	039H
	DB	0c7H
	DB	039H
	DB	0a7H
	DB	039H
	DB	0c7H
	DB	039H
	DB	0c7H
	DB	039H
	DB	0a6H
	DB	031H
	DB	0c7H
	DB	039H
	DB	0a7H
	DB	039H
	DB	0a6H
	DB	031H
	DB	0c7H
	DB	039H
	DB	0a7H
	DB	039H
	DB	0a6H
	DB	031H
	DB	0c7H
	DB	039H
	DB	0a7H
	DB	039H
	DB	0c7H
	DB	039H
	DB	0c7H
	DB	039H
	DB	0a7H
	DB	039H
	DB	0c7H
	DB	039H
	DB	0c6H
	DB	031H
	DB	0a7H
	DB	039H
	DB	0a7H
	DB	039H
	DB	0c6H
	DB	031H
	DB	0a7H
	DB	039H
	DB	0c7H
	DB	039H
	DB	0a7H
	DB	039H
	DB	0a7H
	DB	039H
	DB	0c7H
	DB	039H
	DB	0a7H
	DB	039H
	DB	0a7H
	DB	039H
	DB	0c6H
	DB	031H
	DB	0a7H
	DB	039H
	DB	0c7H
	DB	039H
	DB	0c6H
	DB	031H
	DB	0a7H
	DB	039H
	DB	0c7H
	DB	039H
	DB	0a6H
	DB	031H
	DB	0c7H
	DB	039H
	DB	0a7H
	DB	039H
	DB	0a7H
	DB	039H
	DB	0c7H
	DB	039H
	DB	0c7H
	DB	039H
	DB	0a7H
	DB	039H
	DB	0c6H
	DB	031H
	DB	0a7H
	DB	039H
	DB	0a7H
	DB	039H
	DB	0c6H
	DB	031H
	DB	0a7H
	DB	039H
	DB	0a7H
	DB	039H
	DB	0c7H
	DB	039H
	DB	0a7H
	DB	039H
	DB	0c7H
	DB	039H
	DB	0c7H
	DB	039H
	DB	0a7H
	DB	039H
	DB	0c6H
	DB	031H
	DB	0c7H
	DB	039H
	DB	0a7H
	DB	039H
	DB	0a6H
	DB	031H
	DB	0c7H
	DB	039H
	DB	0a7H
	DB	039H
	DB	0c6H
	DB	031H
	DB	0a7H
	DB	039H
	DB	0a7H
	DB	039H
	DB	0c7H
	DB	039H
	DB	0a7H
	DB	039H
	DB	0a7H
	DB	039H
	DB	0c7H
	DB	039H
	DB	0a6H
	DB	031H
	DB	0c7H
	DB	039H
	DB	0c7H
	DB	039H
	DB	0a6H
	DB	031H
	DB	0c7H
	DB	039H
	DB	0a7H
	DB	039H
	DB	0c7H
	DB	039H
	DB	0a7H
	DB	039H
	DB	0a7H
	DB	039H
	DB	0c7H
	DB	039H
	DB	0c7H
	DB	039H
	DB	0a6H
	DB	031H
	DB	0c7H
	DB	039H
	DB	0a7H
	DB	039H
	DB	0a6H
	DB	031H
	DB	0c7H
	DB	039H
	DB	0a7H
	DB	039H
	DB	0a6H
	DB	031H
	DB	0c7H
	DB	039H
	DB	0a7H
	DB	039H
	DB	0c7H
	DB	039H
	DB	0c7H
	DB	039H
	DB	0a7H
	DB	039H
	DB	0c7H
	DB	039H
	DB	0c6H
	DB	031H
	DB	0a7H
	DB	039H
	DB	0a7H
	DB	039H
	DB	0c6H
	DB	031H
	DB	0a7H
	DB	039H
	DB	0c7H
	DB	039H
	DB	0a7H
	DB	039H
	DB	0a7H
	DB	039H
	DB	0c7H
	DB	039H
	DB	0a7H
	DB	039H
	DB	0a7H
	DB	039H
	DB	0c6H
	DB	031H
	DB	0a7H
	DB	039H
	DB	0c7H
	DB	039H
	DB	0c6H
	DB	031H
	DB	0a7H
	DB	039H
	DB	0c7H
	DB	039H
	DB	0a6H
	DB	031H
	DB	0c7H
	DB	039H
	DB	0a7H
	DB	039H
	DB	0a7H
	DB	039H
	DB	0c7H
	DB	039H
	DB	0c7H
	DB	039H
	DB	0a7H
	DB	039H
	DB	0c6H
	DB	031H
	DB	0a7H
	DB	039H
	DB	0a7H
	DB	039H
	DB	0c6H
	DB	031H
	DB	0a7H
	DB	039H
	DB	0a7H
	DB	039H
	DB	0c7H
	DB	039H
	DB	0a7H
	DB	039H
	DB	0c7H
	DB	039H
	DB	0c7H
	DB	039H
	DB	0a7H
	DB	039H
	DB	0c6H
	DB	031H
	DB	0c7H
	DB	039H
	DB	0a7H
	DB	039H
	DB	0a6H
	DB	031H
	DB	0c7H
	DB	039H
	DB	0a7H
	DB	039H
	DB	0c6H
	DB	031H
	DB	0a7H
	DB	039H
	DB	0a7H
	DB	039H
	DB	0c7H
	DB	039H
	DB	0a7H
	DB	039H
	DB	0a7H
	DB	039H
	DB	0c7H
	DB	039H
	DB	0a6H
	DB	031H
	DB	0c7H
	DB	039H
	DB	0c7H
	DB	039H
	DB	0a6H
	DB	031H
	DB	0c7H
	DB	039H
	DB	0a7H
	DB	039H
	DB	0c7H
	DB	039H
	DB	0a7H
	DB	039H
	DB	0a7H
	DB	039H
	DB	0c7H
	DB	039H
	DB	0c7H
	DB	039H
	DB	0a6H
	DB	031H
	DB	0c7H
	DB	039H
	DB	0a7H
	DB	039H
	DB	0a6H
	DB	031H
	DB	0c7H
	DB	039H
	DB	0a7H
	DB	039H
	DB	0a6H
	DB	031H
	DB	0c7H
	DB	039H
	DB	0a7H
	DB	039H
	DB	0c7H
	DB	039H
	DB	0c7H
	DB	039H
	DB	0a7H
	DB	039H
	DB	0c7H
	DB	039H
	DB	0c6H
	DB	031H
	DB	0a7H
	DB	039H
	DB	0a7H
	DB	039H
	DB	0c6H
	DB	031H
	DB	0a7H
	DB	039H
	DB	0c7H
	DB	039H
	DB	0a7H
	DB	039H
	DB	0a7H
	DB	039H
	DB	0c7H
	DB	039H
	DB	0a7H
	DB	039H
	DB	0a7H
	DB	039H
	DB	0c6H
	DB	031H
	DB	0a7H
	DB	039H
	DB	0c7H
	DB	039H
	DB	0c6H
	DB	031H
	DB	0a7H
	DB	039H
	DB	0c7H
	DB	039H
	DB	0a6H
	DB	031H
	DB	0c7H
	DB	039H
	DB	0a7H
	DB	039H
	DB	0a7H
	DB	039H
	DB	0c7H
	DB	039H
	DB	0c7H
	DB	039H
	DB	0a7H
	DB	039H
	DB	0c6H
	DB	031H
	DB	0a7H
	DB	039H
	DB	0a7H
	DB	039H
	DB	0c6H
	DB	031H
	DB	0a7H
	DB	039H
	DB	0a7H
	DB	039H
	DB	0c7H
	DB	039H
	DB	0a7H
	DB	039H
	DB	0c7H
	DB	039H
	DB	0c7H
	DB	039H
	DB	0a7H
	DB	039H
	DB	0c6H
	DB	031H
	DB	0c7H
	DB	039H
	DB	0a7H
	DB	039H
	DB	0a6H
	DB	031H
	DB	0c7H
	DB	039H
	DB	0a7H
	DB	039H
	DB	0c6H
	DB	031H
	DB	0a7H
	DB	039H
	DB	0a7H
	DB	039H
	DB	0c7H
	DB	039H
	DB	0a7H
	DB	039H
	DB	0a7H
	DB	039H
	DB	0c7H
	DB	039H
	DB	0a6H
	DB	031H
	DB	0c7H
	DB	039H
	DB	0c7H
	DB	039H
	DB	0a6H
	DB	031H
	DB	0c7H
	DB	039H
	DB	0a7H
	DB	039H
	DB	0c7H
	DB	039H
	DB	0a7H
	DB	039H
	DB	0a7H
	DB	039H
	DB	0c7H
	DB	039H
	DB	0c7H
	DB	039H
	DB	0a6H
	DB	031H
	DB	0c7H
	DB	039H
	DB	0a7H
	DB	039H
	DB	0a6H
	DB	031H
	DB	0c7H
	DB	039H
	DB	0a7H
	DB	039H
	DB	0a6H
	DB	031H
	DB	0c7H
	DB	039H
	DB	0a7H
	DB	039H
	DB	0c7H
	DB	039H
	DB	0c7H
	DB	039H
	DB	0a7H
	DB	039H
	DB	0c7H
	DB	039H
	DB	0c6H
	DB	031H
	DB	0a7H
	DB	039H
	DB	0a7H
	DB	039H
	DB	0c6H
	DB	031H
	DB	0a7H
	DB	039H
	DB	0c7H
	DB	039H
	DB	0a7H
	DB	039H
	DB	0a7H
	DB	039H
	DB	0c7H
	DB	039H
	DB	0a7H
	DB	039H
	DB	0a7H
	DB	039H
	DB	0c6H
	DB	031H
	DB	0a7H
	DB	039H
	DB	0c7H
	DB	039H
	DB	0c6H
	DB	031H
	DB	0a7H
	DB	039H
	DB	0c7H
	DB	039H
	DB	0a6H
	DB	031H
	DB	0c7H
	DB	039H
	DB	0a7H
	DB	039H
	DB	0a7H
	DB	039H
	DB	0c7H
	DB	039H
	DB	0c7H
	DB	039H
	DB	0a7H
	DB	039H
	DB	0c6H
	DB	031H
	DB	0a7H
	DB	039H
	DB	0a7H
	DB	039H
	DB	0c6H
	DB	031H
	DB	0a7H
	DB	039H
	DB	0a7H
	DB	039H
	DB	0c7H
	DB	039H
	DB	0a7H
	DB	039H
	DB	0c7H
	DB	039H
	DB	0c7H
	DB	039H
	DB	0a7H
	DB	039H
	DB	0c6H
	DB	031H
	DB	0c7H
	DB	039H
	DB	0a7H
	DB	039H
	DB	0a6H
	DB	031H
	DB	0c7H
	DB	039H
	DB	0a7H
	DB	039H
	DB	0c6H
	DB	031H
	DB	0a7H
	DB	039H
	DB	0a7H
	DB	039H
	DB	0c7H
	DB	039H
	DB	0a7H
	DB	039H
	DB	0a7H
	DB	039H
	DB	0c7H
	DB	039H
	DB	0a6H
	DB	031H
	DB	0c7H
	DB	039H
	DB	0c7H
	DB	039H
	DB	0a6H
	DB	031H
	DB	0c7H
	DB	039H
	DB	0a7H
	DB	039H
	DB	0c7H
	DB	039H
	DB	0a7H
	DB	039H
	DB	0a7H
	DB	039H
	DB	0c7H
	DB	039H
	DB	0c7H
	DB	039H
	DB	0a6H
	DB	031H
	DB	0c7H
	DB	039H
	DB	0a7H
	DB	039H
	DB	0a6H
	DB	031H
	DB	0c7H
	DB	039H
	DB	0a7H
	DB	039H
	DB	0a6H
	DB	031H
	DB	0c7H
	DB	039H
	DB	0a7H
	DB	039H
	DB	0c7H
	DB	039H
	DB	0c7H
	DB	039H
	DB	0a7H
	DB	039H
	DB	0c7H
	DB	039H
	DB	0c6H
	DB	031H
	DB	0a7H
	DB	039H
	DB	0a7H
	DB	039H
	DB	0c6H
	DB	031H
	DB	0a7H
	DB	039H
	DB	0c7H
	DB	039H
	DB	0a7H
	DB	039H
	DB	0a7H
	DB	039H
	DB	0c7H
	DB	039H
	DB	0a7H
	DB	039H
	DB	0a7H
	DB	039H
	DB	0c6H
	DB	031H
	DB	0a7H
	DB	039H
	DB	0c7H
	DB	039H
	DB	0c6H
	DB	031H
	DB	0a7H
	DB	039H
	DB	0c7H
	DB	039H
	DB	0a6H
	DB	031H
	DB	0c7H
	DB	039H
	DB	0a7H
	DB	039H
	DB	0a7H
	DB	039H
	DB	0c7H
	DB	039H
	DB	0c7H
	DB	039H
	DB	0a7H
	DB	039H
	DB	0c6H
	DB	031H
	DB	0a7H
	DB	039H
	DB	0a7H
	DB	039H
	DB	0c6H
	DB	031H
	DB	0a7H
	DB	039H
	DB	0a7H
	DB	039H
	DB	0c7H
	DB	039H
	DB	0a7H
	DB	039H
	DB	0c7H
	DB	039H
	DB	0c7H
	DB	039H
	DB	0a7H
	DB	039H
	DB	0c6H
	DB	031H
	DB	0c7H
	DB	039H
	DB	0a7H
	DB	039H
	DB	0a6H
	DB	031H
	DB	0c7H
	DB	039H
	DB	0a7H
	DB	039H
	DB	0c6H
	DB	031H
	DB	0a7H
	DB	039H
	DB	0a7H
	DB	039H
	DB	0c7H
	DB	039H
	DB	0a7H
	DB	039H
	DB	0a7H
	DB	039H
	DB	0c7H
	DB	039H
	DB	0a6H
	DB	031H
	DB	0c7H
	DB	039H
	DB	0c7H
	DB	039H
	DB	0a6H
	DB	031H
	DB	0c7H
	DB	039H
	DB	0a7H
	DB	039H
	DB	0c7H
	DB	039H
	DB	0a7H
	DB	039H
	DB	0a7H
	DB	039H
	DB	0c7H
	DB	039H
	DB	0c7H
	DB	039H
	DB	0a6H
	DB	031H
	DB	0c7H
	DB	039H
	DB	0a7H
	DB	039H
	DB	0a6H
	DB	031H
	DB	0c7H
	DB	039H
	DB	0a7H
	DB	039H
	DB	0a6H
	DB	031H
	DB	0c7H
	DB	039H
	DB	0a7H
	DB	039H
	DB	0c7H
	DB	039H
	DB	0c7H
	DB	039H
	DB	0a7H
	DB	039H
	DB	0c7H
	DB	039H
	DB	0c6H
	DB	031H
	DB	0a7H
	DB	039H
	DB	0a7H
	DB	039H
	DB	0c6H
	DB	031H
	DB	0a7H
	DB	039H
	DB	0c7H
	DB	039H
	DB	0a7H
	DB	039H
	DB	0a7H
	DB	039H
	DB	0c7H
	DB	039H
	DB	0a7H
	DB	039H
	DB	0a7H
	DB	039H
	DB	0c6H
	DB	031H
	DB	0a7H
	DB	039H
	DB	0c7H
	DB	039H
	DB	0c6H
	DB	031H
	DB	0a7H
	DB	039H
	DB	0c7H
	DB	039H
	DB	0a6H
	DB	031H
	DB	0c7H
	DB	039H
	DB	0a7H
	DB	039H
	DB	0a7H
	DB	039H
	DB	0c7H
	DB	039H
	DB	0c7H
	DB	039H
	DB	0a7H
	DB	039H
	DB	0c6H
	DB	031H
	DB	0a7H
	DB	039H
	DB	0a7H
	DB	039H
	DB	0c6H
	DB	031H
	DB	0a7H
	DB	039H
	DB	0a7H
	DB	039H
	DB	0c7H
	DB	039H
	DB	0a7H
	DB	039H
	DB	0c7H
	DB	039H
	DB	0c7H
	DB	039H
	DB	0a7H
	DB	039H
	DB	0c6H
	DB	031H
	DB	0c7H
	DB	039H
	DB	0a7H
	DB	039H
	DB	0a6H
	DB	031H
	DB	0c7H
	DB	039H
	DB	0a7H
	DB	039H
	DB	0c6H
	DB	031H
	DB	0a7H
	DB	039H
	DB	0a7H
	DB	039H
	DB	0c7H
	DB	039H
	DB	0a7H
	DB	039H
	DB	0a7H
	DB	039H
	DB	0c7H
	DB	039H
	DB	0a6H
	DB	031H
	DB	0c7H
	DB	039H
	DB	0c7H
	DB	039H
	DB	0a6H
	DB	031H
	DB	0c7H
	DB	039H
	DB	0a7H
	DB	039H
	DB	0c7H
	DB	039H
	DB	0a7H
	DB	039H
	DB	0a7H
	DB	039H
	DB	0c7H
	DB	039H
	DB	0c7H
	DB	039H
	DB	0a6H
	DB	031H
	DB	0c7H
	DB	039H
	DB	0a7H
	DB	039H
	DB	0a6H
	DB	031H
	DB	0c7H
	DB	039H
	DB	0a7H
	DB	039H
	DB	0a6H
	DB	031H
	DB	0c7H
	DB	039H
	DB	0a7H
	DB	039H
	DB	0c7H
	DB	039H
	DB	0c7H
	DB	039H
	DB	0a7H
	DB	039H
	DB	0c7H
	DB	039H
	DB	0c6H
	DB	031H
	DB	0a7H
	DB	039H
	DB	0a7H
	DB	039H
	DB	0c6H
	DB	031H
	DB	0a7H
	DB	039H
	DB	0c7H
	DB	039H
	DB	0a7H
	DB	039H
	DB	0a7H
	DB	039H
	DB	0c7H
	DB	039H
	DB	0a7H
	DB	039H
	DB	0a7H
	DB	039H
	DB	0c7H
	DB	039H
	DB	0a7H
	DB	039H
	DB	0c7H
	DB	039H
	DB	0c7H
	DB	039H
	DB	0a7H
	DB	039H
	DB	0c6H
	DB	031H
	DB	0a7H
	DB	039H
	DB	0c7H
	DB	039H
	DB	0a7H
	DB	039H
	DB	0c6H
	DB	031H
	DB	0a7H
	DB	039H
	DB	0a7H
	DB	039H
	DB	0c6H
	DB	031H
	DB	0c7H
	DB	039H
	DB	0a7H
	DB	039H
	DB	0a6H
	DB	031H
	DB	0c7H
	DB	039H
	DB	0a7H
	DB	039H
	DB	0c6H
	DB	031H
	DB	0c7H
	DB	039H
	DB	0a6H
	DB	031H
	DB	0c7H
	DB	039H
	DB	0a7H
	DB	039H
	DB	0a6H
	DB	031H
	DB	0c7H
	DB	039H
	DB	0c7H
	DB	039H
	DB	0a6H
	DB	031H
	DB	0c7H
	DB	039H
	DB	0c7H
	DB	039H
	DB	0a6H
	DB	031H
	DB	0c7H
	DB	039H
	DB	0a7H
	DB	039H
	DB	0a6H
	DB	031H
	DB	0c7H
	DB	039H
	DB	0a6H
	DB	031H
	DB	0a7H
	DB	039H
	DB	0c7H
	DB	039H
	DB	0a6H
	DB	031H
	DB	0c7H
	DB	039H
	DB	0c7H
	DB	039H
	DB	0a6H
	DB	031H
	DB	0a7H
	DB	039H
	DB	0c6H
	DB	031H
	DB	0c6H
	DB	031H
	DB	0a7H
	DB	039H
	DB	0c7H
	DB	039H
	DB	0c6H
	DB	031H
	DB	0a7H
	DB	039H
	DB	0c7H
	DB	039H
	DB	0a6H
	DB	031H
	DB	0a7H
	DB	039H
	DB	0c7H
	DB	039H
	DB	0a6H
	DB	031H
	DB	0c7H
	DB	039H
	DB	0c7H
	DB	039H
	DB	0a6H
	DB	031H
	DB	0c7H
	DB	039H
	DB	0a7H
	DB	039H
	DB	0a6H
	DB	031H
	DB	0a7H
	DB	039H
	DB	0c6H
	DB	031H
	DB	0c7H
	DB	039H
	DB	0a7H
	DB	039H
	DB	0c6H
	DB	031H
	DB	0c7H
	DB	039H
	DB	0a7H
	DB	039H
	DB	0c6H
	DB	031H
	DB	0a6H
	DB	031H
	DB	0a7H
	DB	039H
	DB	0c7H
	DB	039H
	DB	0a6H
	DB	031H
	DB	0a7H
	DB	039H
	DB	0c7H
	DB	039H
	DB	0a6H
	DB	031H
	DB	0c7H
	DB	039H
	DB	0c7H
	DB	039H
	DB	0a6H
	DB	031H
	DB	0a7H
	DB	039H
	DB	0c7H
	DB	039H
	DB	0c6H
	DB	031H
	DB	0a7H
	DB	039H
	DB	0c7H
	DB	039H
	DB	0c6H
	DB	031H
	DB	0a7H
	DB	039H
	DB	0c6H
	DB	031H
	DB	0a7H
	DB	039H
	DB	0a7H
	DB	039H
	DB	0c6H
	DB	031H
	DB	0a7H
	DB	039H
	DB	0c7H
	DB	039H
	DB	0c6H
	DB	031H
	DB	0a6H
	DB	031H
	DB	0c7H
	DB	039H
	DB	0a7H
	DB	039H
	DB	0a6H
	DB	031H
	DB	0a7H
	DB	039H
	DB	0c7H
	DB	039H
	DB	0c6H
	DB	031H
	DB	0a7H
	DB	039H
	DB	0c7H
	DB	039H
	DB	0c6H
	DB	031H
	DB	0a7H
	DB	039H
	DB	0c7H
	DB	039H
	DB	0a6H
	DB	031H
	DB	0a7H
	DB	039H
	DB	0c7H
	DB	039H
	DB	0a6H
	DB	031H
	DB	0a7H
	DB	039H
	DB	0c6H
	DB	031H
	DB	0a7H
	DB	039H
	DB	0c7H
	DB	039H
	DB	0c6H
	DB	031H
	DB	0a7H
	DB	039H
	DB	0a7H
	DB	039H
	DB	0c6H
	DB	031H
	DB	0c6H
	DB	031H
	DB	0a7H
	DB	039H
	DB	0c7H
	DB	039H
	DB	0c6H
	DB	031H
	DB	0a7H
	DB	039H
	DB	0c7H
	DB	039H
	DB	0a6H
	DB	031H
	DB	0a7H
	DB	039H
	DB	0c7H
	DB	039H
	DB	0a6H
	DB	031H
	DB	0c7H
	DB	039H
	DB	0c7H
	DB	039H
	DB	0a6H
	DB	031H
	DB	0c7H
	DB	039H
	DB	0a7H
	DB	039H
	DB	0a6H
	DB	031H
	DB	0a7H
	DB	039H
	DB	0c6H
	DB	031H
	DB	0c7H
	DB	039H
	DB	0a7H
	DB	039H
	DB	0c6H
	DB	031H
	DB	0c7H
	DB	039H
	DB	0a7H
	DB	039H
	DB	0c6H
	DB	031H
	DB	0a6H
	DB	031H
	DB	0a7H
	DB	039H
	DB	0c7H
	DB	039H
	DB	0a6H
	DB	031H
	DB	0a7H
	DB	039H
	DB	0c7H
	DB	039H
	DB	0a6H
	DB	031H
	DB	0c7H
	DB	039H
	DB	0c7H
	DB	039H
	DB	0a6H
	DB	031H
	DB	0a7H
	DB	039H
	DB	0c7H
	DB	039H
	DB	0c6H
	DB	031H
	DB	0a7H
	DB	039H
	DB	0c7H
	DB	039H
	DB	0c6H
	DB	031H
	DB	0a7H
	DB	039H
	DB	0c6H
	DB	031H
	DB	0a7H
	DB	039H
	DB	0a7H
	DB	039H
	DB	0c6H
	DB	031H
	DB	0a7H
	DB	039H
	DB	0c7H
	DB	039H
	DB	0c6H
	DB	031H
	DB	0a6H
	DB	031H
	DB	0c7H
	DB	039H
	DB	0a7H
	DB	039H
	DB	0a6H
	DB	031H
	DB	0a7H
	DB	039H
	DB	0c7H
	DB	039H
	DB	0c6H
	DB	031H
	DB	0a7H
	DB	039H
	DB	0c7H
	DB	039H
	DB	0c6H
	DB	031H
	DB	0a7H
	DB	039H
	DB	0c7H
	DB	039H
	DB	0a6H
	DB	031H
	DB	0a7H
	DB	039H
	DB	0c7H
	DB	039H
	DB	0a6H
	DB	031H
	DB	0a7H
	DB	039H
	DB	0c6H
	DB	031H
	DB	0a7H
	DB	039H
	DB	0c7H
	DB	039H
	DB	0c6H
	DB	031H
	DB	0a7H
	DB	039H
	DB	0a7H
	DB	039H
	DB	0c6H
	DB	031H
	DB	0c6H
	DB	031H
	DB	0a7H
	DB	039H
	DB	0c7H
	DB	039H
	DB	0c6H
	DB	031H
	DB	0a7H
	DB	039H
	DB	0c7H
	DB	039H
	DB	0a6H
	DB	031H
	DB	0a7H
	DB	039H
	DB	0c7H
	DB	039H
	DB	0a6H
	DB	031H
	DB	0c7H
	DB	039H
	DB	0c7H
	DB	039H
	DB	0a6H
	DB	031H
	DB	0c7H
	DB	039H
	DB	0a7H
	DB	039H
	DB	0a6H
	DB	031H
	DB	0a7H
	DB	039H
	DB	0c6H
	DB	031H
	DB	0c7H
	DB	039H
	DB	0a7H
	DB	039H
	DB	0c6H
	DB	031H
	DB	0c7H
	DB	039H
	DB	0a7H
	DB	039H
	DB	0c6H
	DB	031H
	DB	0a6H
	DB	031H
	DB	0a7H
	DB	039H
	DB	0c7H
	DB	039H
	DB	0a6H
	DB	031H
	DB	0a7H
	DB	039H
	DB	0c7H
	DB	039H
	DB	0a6H
	DB	031H
	DB	0c7H
	DB	039H
	DB	0c7H
	DB	039H
	DB	0a6H
	DB	031H
	DB	0a7H
	DB	039H
	DB	0c7H
	DB	039H
	DB	0c6H
	DB	031H
	DB	0a7H
	DB	039H
	DB	0c7H
	DB	039H
	DB	0c6H
	DB	031H
	DB	0a7H
	DB	039H
	DB	0c6H
	DB	031H
	DB	0a7H
	DB	039H
	DB	0a7H
	DB	039H
	DB	0c6H
	DB	031H
	DB	0a7H
	DB	039H
	DB	0c7H
	DB	039H
	DB	0c6H
	DB	031H
	DB	0a6H
	DB	031H
	DB	0c7H
	DB	039H
	DB	0a7H
	DB	039H
	DB	0a6H
	DB	031H
	DB	0a7H
	DB	039H
	DB	0c7H
	DB	039H
	DB	0c6H
	DB	031H
	DB	0a7H
	DB	039H
	DB	0c7H
	DB	039H
	DB	0c6H
	DB	031H
	DB	0a7H
	DB	039H
	DB	0c7H
	DB	039H
	DB	0a6H
	DB	031H
	DB	0a7H
	DB	039H
	DB	0c7H
	DB	039H
	DB	0a6H
	DB	031H
	DB	0a7H
	DB	039H
	DB	0c6H
	DB	031H
	DB	0a7H
	DB	039H
	DB	0c7H
	DB	039H
	DB	0c6H
	DB	031H
	DB	0a7H
	DB	039H
	DB	0a7H
	DB	039H
	DB	0c6H
	DB	031H
	DB	0c6H
	DB	031H
	DB	0a7H
	DB	039H
	DB	0c7H
	DB	039H
	DB	0c6H
	DB	031H
	DB	0a7H
	DB	039H
	DB	0c7H
	DB	039H
	DB	0a6H
	DB	031H
	DB	0a7H
	DB	039H
	DB	0c7H
	DB	039H
	DB	0a6H
	DB	031H
	DB	0c7H
	DB	039H
	DB	0c7H
	DB	039H
	DB	0a6H
	DB	031H
	DB	0c7H
	DB	039H
	DB	0a7H
	DB	039H
	DB	0a6H
	DB	031H
	DB	0a7H
	DB	039H
	DB	0c6H
	DB	031H
	DB	0c7H
	DB	039H
	DB	0a7H
	DB	039H
	DB	0c6H
	DB	031H
	DB	0c7H
	DB	039H
	DB	0a7H
	DB	039H
	DB	0c6H
	DB	031H
	DB	0a6H
	DB	031H
	DB	0a7H
	DB	039H
	DB	0c7H
	DB	039H
	DB	0a6H
	DB	031H
	DB	0a7H
	DB	039H
	DB	0c7H
	DB	039H
	DB	0a6H
	DB	031H
	DB	0c7H
	DB	039H
	DB	0c7H
	DB	039H
	DB	0a6H
	DB	031H
	DB	0a7H
	DB	039H
	DB	0c7H
	DB	039H
	DB	0c6H
	DB	031H
	DB	0a7H
	DB	039H
	DB	0c7H
	DB	039H
	DB	0c6H
	DB	031H
	DB	0a7H
	DB	039H
	DB	0c6H
	DB	031H
	DB	0a7H
	DB	039H
	DB	0a7H
	DB	039H
	DB	0c6H
	DB	031H
	DB	0a7H
	DB	039H
	DB	0c7H
	DB	039H
	DB	0c6H
	DB	031H
	DB	0a6H
	DB	031H
	DB	0c7H
	DB	039H
	DB	0a7H
	DB	039H
	DB	0a6H
	DB	031H
	DB	0a7H
	DB	039H
	DB	0c7H
	DB	039H
	DB	0c6H
	DB	031H
	DB	0a7H
	DB	039H
	DB	0c7H
	DB	039H
	DB	0c6H
	DB	031H
	DB	0a7H
	DB	039H
	DB	0c7H
	DB	039H
	DB	0a6H
	DB	031H
	DB	0a7H
	DB	039H
	DB	0c7H
	DB	039H
	DB	0a6H
	DB	031H
	DB	0a7H
	DB	039H
	DB	0c6H
	DB	031H
	DB	0a7H
	DB	039H
	DB	0c7H
	DB	039H
	DB	0c6H
	DB	031H
	DB	0a7H
	DB	039H
	DB	0a7H
	DB	039H
	DB	0c6H
	DB	031H
	DB	0c6H
	DB	031H
	DB	0a7H
	DB	039H
	DB	0c7H
	DB	039H
	DB	0c6H
	DB	031H
	DB	0a7H
	DB	039H
	DB	0c7H
	DB	039H
	DB	0a6H
	DB	031H
	DB	0a7H
	DB	039H
	DB	0c7H
	DB	039H
	DB	0a6H
	DB	031H
	DB	0c7H
	DB	039H
	DB	0c7H
	DB	039H
	DB	0a6H
	DB	031H
	DB	0c7H
	DB	039H
	DB	0a7H
	DB	039H
	DB	0a6H
	DB	031H
	DB	0a7H
	DB	039H
	DB	0c6H
	DB	031H
	DB	0c7H
	DB	039H
	DB	0a7H
	DB	039H
	DB	0c6H
	DB	031H
	DB	0c7H
	DB	039H
	DB	0a7H
	DB	039H
	DB	0c6H
	DB	031H
	DB	0a6H
	DB	031H
	DB	0a7H
	DB	039H
	DB	0c7H
	DB	039H
	DB	0a6H
	DB	031H
	DB	0a7H
	DB	039H
	DB	0c7H
	DB	039H
	DB	0a6H
	DB	031H
	DB	0c7H
	DB	039H
	DB	0c7H
	DB	039H
	DB	0a6H
	DB	031H
	DB	0a7H
	DB	039H
	DB	0c7H
	DB	039H
	DB	0c6H
	DB	031H
	DB	0a7H
	DB	039H
	DB	0c7H
	DB	039H
	DB	0c6H
	DB	031H
	DB	0a7H
	DB	039H
	DB	0c6H
	DB	031H
	DB	0a7H
	DB	039H
	DB	0a7H
	DB	039H
	DB	0c6H
	DB	031H
	DB	0a7H
	DB	039H
	DB	0c7H
	DB	039H
	DB	0c6H
	DB	031H
	DB	0a6H
	DB	031H
	DB	0c7H
	DB	039H
	DB	0a7H
	DB	039H
	DB	0a6H
	DB	031H
	DB	0a7H
	DB	039H
	DB	0c7H
	DB	039H
	DB	0c6H
	DB	031H
	DB	0a7H
	DB	039H
	DB	0c7H
	DB	039H
	DB	0c6H
	DB	031H
	DB	0a7H
	DB	039H
	DB	0c7H
	DB	039H
	DB	0a6H
	DB	031H
	DB	0a7H
	DB	039H
	DB	0c7H
	DB	039H
	DB	0a6H
	DB	031H
	DB	0a7H
	DB	039H
	DB	0c6H
	DB	031H
	DB	0a7H
	DB	039H
	DB	0c7H
	DB	039H
	DB	0c6H
	DB	031H
	DB	0a7H
	DB	039H
	DB	0a7H
	DB	039H
	DB	0c6H
	DB	031H
	DB	0c6H
	DB	031H
	DB	0a7H
	DB	039H
	DB	0c7H
	DB	039H
	DB	0c6H
	DB	031H
	DB	0a7H
	DB	039H
	DB	0c7H
	DB	039H
	DB	0a6H
	DB	031H
	DB	0a7H
	DB	039H
	DB	0c7H
	DB	039H
	DB	0a6H
	DB	031H
	DB	0c7H
	DB	039H
	DB	0c7H
	DB	039H
	DB	0a6H
	DB	031H
	DB	0c7H
	DB	039H
	DB	0a7H
	DB	039H
	DB	0a6H
	DB	031H
	DB	0a7H
	DB	039H
	DB	0c6H
	DB	031H
	DB	0c7H
	DB	039H
	DB	0a7H
	DB	039H
	DB	0c6H
	DB	031H
	DB	0c7H
	DB	039H
	DB	0a7H
	DB	039H
	DB	0c6H
	DB	031H
	DB	0a6H
	DB	031H
	DB	0a7H
	DB	039H
	DB	0c7H
	DB	039H
	DB	0a6H
	DB	031H
	DB	0a7H
	DB	039H
	DB	0c7H
	DB	039H
	DB	0a6H
	DB	031H
	DB	0c7H
	DB	039H
	DB	0c7H
	DB	039H
	DB	0a6H
	DB	031H
	DB	0a7H
	DB	039H
	DB	0c7H
	DB	039H
	DB	0c6H
	DB	031H
	DB	0a7H
	DB	039H
	DB	0c7H
	DB	039H
	DB	0c6H
	DB	031H
	DB	0a7H
	DB	039H
	DB	0c6H
	DB	031H
	DB	0a7H
	DB	039H
	DB	0a7H
	DB	039H
	DB	0c6H
	DB	031H
	DB	0a7H
	DB	039H
	DB	0c7H
	DB	039H
	DB	0c6H
	DB	031H
	DB	0a6H
	DB	031H
	DB	0c7H
	DB	039H
	DB	0a7H
	DB	039H
	DB	0a6H
	DB	031H
	DB	0a7H
	DB	039H
	DB	0c7H
	DB	039H
	DB	0c6H
	DB	031H
	DB	0a7H
	DB	039H
	DB	0c7H
	DB	039H
	DB	0c6H
	DB	031H
	DB	0a7H
	DB	039H
	DB	0c7H
	DB	039H
	DB	0a6H
	DB	031H
	DB	0a7H
	DB	039H
	DB	0c7H
	DB	039H
	DB	0a6H
	DB	031H
	DB	0a7H
	DB	039H
	DB	0c6H
	DB	031H
	DB	0a7H
	DB	039H
	DB	0c7H
	DB	039H
	DB	0c6H
	DB	031H
	DB	0a7H
	DB	039H
	DB	0a7H
	DB	039H
	DB	0c6H
	DB	031H
	DB	0c6H
	DB	031H
	DB	0a7H
	DB	039H
	DB	0c7H
	DB	039H
	DB	0c6H
	DB	031H
	DB	0a7H
	DB	039H
	DB	0c6H
	DB	031H
	DB	0a6H
	DB	031H
	DB	0a7H
	DB	039H
	DB	0c7H
	DB	039H
	DB	0a6H
	DB	031H
	DB	0c7H
	DB	039H
	DB	0c7H
	DB	039H
	DB	0a7H
	DB	039H
	DB	0c7H
	DB	039H
	DB	0a7H
	DB	039H
	DB	0c7H
	DB	039H
	DB	0c7H
	DB	039H
	DB	0a7H
	DB	039H
	DB	0c7H
	DB	039H
	DB	0c7H
	DB	039H
	DB	0a7H
	DB	039H
	DB	0a7H
	DB	039H
	DB	0c7H
	DB	039H
	DB	0a7H
	DB	039H
	DB	0a7H
	DB	039H
	DB	0c6H
	DB	031H
	DB	0a7H
	DB	039H
	DB	0c7H
	DB	039H
	DB	0a7H
	DB	039H
	DB	0c7H
	DB	039H
	DB	0a7H
	DB	039H
	DB	0a7H
	DB	039H
	DB	0c7H
	DB	039H
	DB	0a7H
	DB	039H
	DB	0c7H
	DB	039H
	DB	0c7H
	DB	039H
	DB	0a7H
	DB	039H
	DB	0c7H
	DB	039H
	DB	0c7H
	DB	039H
	DB	0a6H
	DB	031H
	DB	0c7H
	DB	039H
	DB	0a7H
	DB	039H
	DB	0a7H
	DB	039H
	DB	0c7H
	DB	039H
	DB	0a7H
	DB	039H
	DB	0c7H
	DB	039H
	DB	0c7H
	DB	039H
	DB	0a7H
	DB	039H
	DB	0c7H
	DB	039H
	DB	0a7H
	DB	039H
	DB	0a6H
	DB	031H
	DB	0c7H
	DB	039H
	DB	0c7H
	DB	039H
	DB	0a7H
	DB	039H
	DB	0c7H
	DB	039H
	DB	0a7H
	DB	039H
	DB	0a7H
	DB	039H
	DB	0c7H
	DB	039H
	DB	0a7H
	DB	039H
	DB	0a7H
	DB	039H
	DB	0c7H
	DB	039H
	DB	0c6H
	DB	031H
	DB	0c7H
	DB	039H
	DB	0a7H
	DB	039H
	DB	0c7H
	DB	039H
	DB	0a7H
	DB	039H
	DB	0a7H
	DB	039H
	DB	0c7H
	DB	039H
	DB	0a7H
	DB	039H
	DB	0a7H
	DB	039H
	DB	0c7H
	DB	039H
	DB	0c7H
	DB	039H
	DB	0a7H
	DB	039H
	DB	0c6H
	DB	031H
	DB	0c7H
	DB	039H
	DB	0a7H
	DB	039H
	DB	0c7H
	DB	039H
	DB	0a7H
	DB	039H
	DB	0a7H
	DB	039H
	DB	0c7H
	DB	039H
	DB	0a7H
	DB	039H
	DB	0c7H
	DB	039H
	DB	0c7H
	DB	039H
	DB	0a7H
	DB	039H
	DB	0c7H
	DB	039H
	DB	0a6H
	DB	031H
	DB	0a7H
	DB	039H
	DB	0c7H
	DB	039H
	DB	0c7H
	DB	039H
	DB	0a7H
	DB	039H
	DB	0c7H
	DB	039H
	DB	0a7H
	DB	039H
	DB	0a7H
	DB	039H
	DB	0c7H
	DB	039H
	DB	0a7H
	DB	039H
	DB	0a7H
	DB	039H
	DB	0c7H
	DB	039H
	DB	0c6H
	DB	031H
	DB	0c7H
	DB	039H
	DB	0a7H
	DB	039H
	DB	0c7H
	DB	039H
	DB	0a7H
	DB	039H
	DB	0a7H
	DB	039H
	DB	0c7H
	DB	039H
	DB	0a7H
	DB	039H
	DB	0a7H
	DB	039H
	DB	0c7H
	DB	039H
	DB	0c7H
	DB	039H
	DB	0a7H
	DB	039H
	DB	0c6H
	DB	031H
	DB	0c7H
	DB	039H
	DB	0a7H
	DB	039H
	DB	0c7H
	DB	039H
	DB	0a7H
	DB	039H
	DB	0a7H
	DB	039H
	DB	0c7H
	DB	039H
	DB	0a7H
	DB	039H
	DB	0c7H
	DB	039H
	DB	0c7H
	DB	039H
	DB	0a7H
	DB	039H
	DB	0c7H
	DB	039H
	DB	0a6H
	DB	031H
	DB	0a7H
	DB	039H
	DB	0c7H
	DB	039H
	DB	0c7H
	DB	039H
	DB	0a7H
	DB	039H
	DB	0c7H
	DB	039H
	DB	0a7H
	DB	039H
	DB	0a7H
	DB	039H
	DB	0c7H
	DB	039H
	DB	0a7H
	DB	039H
	DB	0a7H
	DB	039H
	DB	0c7H
	DB	039H
	DB	0c6H
	DB	031H
	DB	0c7H
	DB	039H
	DB	0a7H
	DB	039H
	DB	0c7H
	DB	039H
	DB	0a7H
	DB	039H
	DB	0a7H
	DB	039H
	DB	0c7H
	DB	039H
	DB	0a7H
	DB	039H
	DB	0a7H
	DB	039H
	DB	0c7H
	DB	039H
	DB	0c7H
	DB	039H
	DB	0a7H
	DB	039H
	DB	0c6H
	DB	031H
	DB	0c7H
	DB	039H
	DB	0a7H
	DB	039H
	DB	0c7H
	DB	039H
	DB	0a7H
	DB	039H
	DB	0a7H
	DB	039H
	DB	0c7H
	DB	039H
	DB	0a7H
	DB	039H
	DB	0c7H
	DB	039H
	DB	0c7H
	DB	039H
	DB	0a7H
	DB	039H
	DB	0c7H
	DB	039H
	DB	0a6H
	DB	031H
	DB	0a7H
	DB	039H
	DB	0c7H
	DB	039H
	DB	0c7H
	DB	039H
	DB	0a7H
	DB	039H
	DB	0c7H
	DB	039H
	DB	0a7H
	DB	039H
	DB	0a7H
	DB	039H
	DB	0c7H
	DB	039H
	DB	0a7H
	DB	039H
	DB	0a7H
	DB	039H
	DB	0c7H
	DB	039H
	DB	0c6H
	DB	031H
	DB	0c7H
	DB	039H
	DB	0a7H
	DB	039H
	DB	0c7H
	DB	039H
	DB	0a7H
	DB	039H
	DB	0a7H
	DB	039H
	DB	0c7H
	DB	039H
	DB	0a7H
	DB	039H
	DB	0a7H
	DB	039H
	DB	0c7H
	DB	039H
	DB	0c7H
	DB	039H
	DB	0a7H
	DB	039H
	DB	0c6H
	DB	031H
	DB	0c7H
	DB	039H
	DB	0a7H
	DB	039H
	DB	0c7H
	DB	039H
	DB	0a7H
	DB	039H
	DB	0a7H
	DB	039H
	DB	0c7H
	DB	039H
	DB	0a7H
	DB	039H
	DB	0c7H
	DB	039H
	DB	0c7H
	DB	039H
	DB	0a7H
	DB	039H
	DB	0c7H
	DB	039H
	DB	0a6H
	DB	031H
	DB	0a7H
	DB	039H
	DB	0c7H
	DB	039H
	DB	0c7H
	DB	039H
	DB	0a7H
	DB	039H
	DB	0c7H
	DB	039H
	DB	0a7H
	DB	039H
	DB	0a7H
	DB	039H
	DB	0c7H
	DB	039H
	DB	0a7H
	DB	039H
	DB	0a7H
	DB	039H
	DB	0c7H
	DB	039H
	DB	0c6H
	DB	031H
	DB	0c7H
	DB	039H
	DB	0a7H
	DB	039H
	DB	0c7H
	DB	039H
	DB	0a7H
	DB	039H
	DB	0a7H
	DB	039H
	DB	0c7H
	DB	039H
	DB	0a7H
	DB	039H
	DB	0a7H
	DB	039H
	DB	0c7H
	DB	039H
	DB	0c7H
	DB	039H
	DB	0a7H
	DB	039H
	DB	0c6H
	DB	031H
	DB	0c7H
	DB	039H
	DB	0a7H
	DB	039H
	DB	0c7H
	DB	039H
	DB	0a7H
	DB	039H
	DB	0a7H
	DB	039H
	DB	0c7H
	DB	039H
	DB	0a7H
	DB	039H
	DB	0c7H
	DB	039H
	DB	0c7H
	DB	039H
	DB	0a7H
	DB	039H
	DB	0c7H
	DB	039H
	DB	0a6H
	DB	031H
	DB	0a7H
	DB	039H
	DB	0c7H
	DB	039H
	DB	0c7H
	DB	039H
	DB	0a7H
	DB	039H
	DB	0c7H
	DB	039H
	DB	0a7H
	DB	039H
	DB	0a7H
	DB	039H
	DB	0c7H
	DB	039H
	DB	0a7H
	DB	039H
	DB	0a7H
	DB	039H
	DB	0c7H
	DB	039H
	DB	0c6H
	DB	031H
	DB	0c7H
	DB	039H
	DB	0a7H
	DB	039H
	DB	0c7H
	DB	039H
	DB	0a7H
	DB	039H
	DB	0a7H
	DB	039H
	DB	0c7H
	DB	039H
	DB	0a7H
	DB	039H
	DB	0a7H
	DB	039H
	DB	0c7H
	DB	039H
	DB	0c7H
	DB	039H
	DB	0a7H
	DB	039H
	DB	0c6H
	DB	031H
	DB	0c7H
	DB	039H
	DB	0a7H
	DB	039H
	DB	0c7H
	DB	039H
	DB	0a7H
	DB	039H
	DB	0a7H
	DB	039H
	DB	0c7H
	DB	039H
	DB	0a7H
	DB	039H
	DB	0c7H
	DB	039H
	DB	0c7H
	DB	039H
	DB	0a7H
	DB	039H
	DB	0c7H
	DB	039H
	DB	0a6H
	DB	031H
	DB	0a7H
	DB	039H
	DB	0c7H
	DB	039H
	DB	0c7H
	DB	039H
	DB	0a7H
	DB	039H
	DB	0c7H
	DB	039H
	DB	0a7H
	DB	039H
	DB	0a7H
	DB	039H
	DB	0c7H
	DB	039H
	DB	0a7H
	DB	039H
	DB	0a7H
	DB	039H
	DB	0c7H
	DB	039H
	DB	0c6H
	DB	031H
	DB	0c7H
	DB	039H
	DB	0a7H
	DB	039H
	DB	0c7H
	DB	039H
	DB	0a7H
	DB	039H
	DB	0a7H
	DB	039H
	DB	0c7H
	DB	039H
	DB	0a7H
	DB	039H
	DB	0a7H
	DB	039H
	DB	0c7H
	DB	039H
	DB	0c7H
	DB	039H
	DB	0a7H
	DB	039H
	DB	0c6H
	DB	031H
	DB	0c7H
	DB	039H
	DB	0a7H
	DB	039H
	DB	0c7H
	DB	039H
	DB	0a7H
	DB	039H
	DB	0a7H
	DB	039H
	DB	0c7H
	DB	039H
	DB	0a7H
	DB	039H
	DB	0c7H
	DB	039H
	DB	0c7H
	DB	039H
	DB	0a7H
	DB	039H
	DB	0c7H
	DB	039H
	DB	0a6H
	DB	031H
	DB	0a7H
	DB	039H
	DB	0c7H
	DB	039H
	DB	0c7H
	DB	039H
	DB	0a7H
	DB	039H
	DB	0c7H
	DB	039H
	DB	0a7H
	DB	039H
	DB	0a7H
	DB	039H
	DB	0c7H
	DB	039H
	DB	0a7H
	DB	039H
	DB	0a7H
	DB	039H
	DB	0c7H
	DB	039H
	DB	0c6H
	DB	031H
	DB	0c7H
	DB	039H
	DB	0a7H
	DB	039H
	DB	0c7H
	DB	039H
	DB	0a7H
	DB	039H
	DB	0a7H
	DB	039H
	DB	0c7H
	DB	039H
	DB	0a7H
	DB	039H
	DB	0a7H
	DB	039H
	DB	0c7H
	DB	039H
	DB	0c7H
	DB	039H
	DB	0a7H
	DB	039H
	DB	0c6H
	DB	031H
	DB	0c7H
	DB	039H
	DB	0a7H
	DB	039H
	DB	0c7H
	DB	039H
	DB	0a7H
	DB	039H
	DB	0a7H
	DB	039H
	DB	0c7H
	DB	039H
	DB	0a7H
	DB	039H
	DB	0c7H
	DB	039H
	DB	0c7H
	DB	039H
	DB	0a7H
	DB	039H
	DB	0c7H
	DB	039H
	DB	0a6H
	DB	031H
	DB	0a7H
	DB	039H
	DB	0c7H
	DB	039H
	DB	0c7H
	DB	039H
	DB	0a7H
	DB	039H
	DB	0c7H
	DB	039H
	DB	0a7H
	DB	039H
	DB	0a7H
	DB	039H
	DB	0c7H
	DB	039H
	DB	0a7H
	DB	039H
	DB	0a7H
	DB	039H
	DB	0c7H
	DB	039H
	DB	0c6H
	DB	031H
	DB	0c7H
	DB	039H
	DB	0a7H
	DB	039H
	DB	0c7H
	DB	039H
	DB	0a7H
	DB	039H
	DB	0a7H
	DB	039H
	DB	0c7H
	DB	039H
	DB	0a7H
	DB	039H
	DB	0a7H
	DB	039H
	DB	0c7H
	DB	039H
	DB	0c7H
	DB	039H
	DB	0a7H
	DB	039H
	DB	0c6H
	DB	031H
	DB	0c7H
	DB	039H
	DB	0a7H
	DB	039H
	DB	0c7H
	DB	039H
	DB	0a7H
	DB	039H
	DB	0a7H
	DB	039H
	DB	0c7H
	DB	039H
	DB	0a7H
	DB	039H
	DB	0c7H
	DB	039H
	DB	0c7H
	DB	039H
	DB	0a7H
	DB	039H
	DB	0c7H
	DB	039H
	DB	0a6H
	DB	031H
	DB	0a7H
	DB	039H
	DB	0c7H
	DB	039H
	DB	0c7H
	DB	039H
	DB	0a7H
	DB	039H
	DB	0c7H
	DB	039H
	DB	0a7H
	DB	039H
	DB	0a7H
	DB	039H
	DB	0c7H
	DB	039H
	DB	0a7H
	DB	039H
	DB	0a7H
	DB	039H
	DB	0c7H
	DB	039H
	DB	0c6H
	DB	031H
	DB	0c7H
	DB	039H
	DB	0a7H
	DB	039H
	DB	0c7H
	DB	039H
	DB	0a7H
	DB	039H
	DB	0a7H
	DB	039H
	DB	0c7H
	DB	039H
	DB	0a7H
	DB	039H
	DB	0a7H
	DB	039H
	DB	0c7H
	DB	039H
	DB	0c7H
	DB	039H
	DB	0a7H
	DB	039H
	DB	0c6H
	DB	031H
	DB	0c7H
	DB	039H
	DB	0a7H
	DB	039H
	DB	0c7H
	DB	039H
	DB	0a7H
	DB	039H
	DB	0a7H
	DB	039H
	DB	0c7H
	DB	039H
	DB	0a7H
	DB	039H
	DB	0c7H
	DB	039H
	DB	0c7H
	DB	039H
	DB	0a7H
	DB	039H
	DB	0c7H
	DB	039H
	DB	0a6H
	DB	031H
	DB	0a7H
	DB	039H
	DB	0c7H
	DB	039H
	DB	0c7H
	DB	039H
	DB	0a7H
	DB	039H
	DB	0c7H
	DB	039H
	DB	0a7H
	DB	039H
	DB	0a7H
	DB	039H
	DB	0c7H
	DB	039H
	DB	0a7H
	DB	039H
	DB	0a7H
	DB	039H
	DB	0c7H
	DB	039H
	DB	0c6H
	DB	031H
	DB	0c7H
	DB	039H
	DB	0a7H
	DB	039H
	DB	0c7H
	DB	039H
	DB	0a7H
	DB	039H
	DB	0a7H
	DB	039H
	DB	0c7H
	DB	039H
	DB	0a7H
	DB	039H
	DB	0a7H
	DB	039H
	DB	0c7H
	DB	039H
	DB	0c7H
	DB	039H
	DB	0a7H
	DB	039H
	DB	0c6H
	DB	031H
	DB	0c7H
	DB	039H
	DB	0a7H
	DB	039H
	DB	0c7H
	DB	039H
	DB	0a7H
	DB	039H
	DB	0a7H
	DB	039H
	DB	0c7H
	DB	039H
	DB	0a7H
	DB	039H
	DB	0c7H
	DB	039H
	DB	0c7H
	DB	039H
	DB	0a7H
	DB	039H
	DB	0c7H
	DB	039H
	DB	0a6H
	DB	031H
	DB	0a7H
	DB	039H
	DB	0c7H
	DB	039H
	DB	0c7H
	DB	039H
	DB	0a7H
	DB	039H
	DB	0c7H
	DB	039H
	DB	0a7H
	DB	039H
	DB	0a7H
	DB	039H
	DB	0c7H
	DB	039H
	DB	0a7H
	DB	039H
	DB	0a7H
	DB	039H
	DB	0c7H
	DB	039H
	DB	0c6H
	DB	031H
	DB	0c7H
	DB	039H
	DB	0a7H
	DB	039H
	DB	0c7H
	DB	039H
	DB	0a7H
	DB	039H
	DB	0a7H
	DB	039H
	DB	0c7H
	DB	039H
	DB	0a7H
	DB	039H
	DB	0a7H
	DB	039H
	DB	0c7H
	DB	039H
	DB	0c7H
	DB	039H
	DB	0a7H
	DB	039H
	DB	0c6H
	DB	031H
	DB	0c7H
	DB	039H
	DB	0a7H
	DB	039H
	DB	0c7H
	DB	039H
	DB	0a7H
	DB	039H
	DB	0a7H
	DB	039H
	DB	0c7H
	DB	039H
	DB	0a7H
	DB	039H
	DB	0c7H
	DB	039H
	DB	0c7H
	DB	039H
	DB	0a7H
	DB	039H
	DB	0c7H
	DB	039H
	DB	0a6H
	DB	031H
	DB	0a7H
	DB	039H
	DB	0c7H
	DB	039H
	DB	0c7H
	DB	039H
	DB	0a7H
	DB	039H
	DB	0c7H
	DB	039H
	DB	0a7H
	DB	039H
	DB	0c6H
	DB	031H
	DB	0a7H
	DB	039H
	DB	0a7H
	DB	039H
	DB	0c7H
	DB	039H
	DB	0a7H
	DB	039H
	DB	0c6H
	DB	031H
	DB	0a7H
	DB	039H
	DB	0a6H
	DB	031H
	DB	0c6H
	DB	031H
	DB	0a7H
	DB	039H
	DB	0a6H
	DB	031H
	DB	0c7H
	DB	039H
	DB	0c6H
	DB	031H
	DB	0a7H
	DB	039H
	DB	0c6H
	DB	031H
	DB	0c7H
	DB	039H
	DB	0a7H
	DB	039H
	DB	0c7H
	DB	039H
	DB	0c6H
	DB	031H
	DB	0a7H
	DB	039H
	DB	0c6H
	DB	031H
	DB	0a7H
	DB	039H
	DB	0c6H
	DB	031H
	DB	0c7H
	DB	039H
	DB	0a6H
	DB	031H
	DB	0a7H
	DB	039H
	DB	0c6H
	DB	031H
	DB	0a7H
	DB	039H
	DB	0a6H
	DB	031H
	DB	0c7H
	DB	039H
	DB	0a7H
	DB	039H
	DB	0c7H
	DB	039H
	DB	0c6H
	DB	031H
	DB	0a7H
	DB	039H
	DB	0c6H
	DB	031H
	DB	0a7H
	DB	039H
	DB	0a6H
	DB	031H
	DB	0c7H
	DB	039H
	DB	0a7H
	DB	039H
	DB	0a6H
	DB	031H
	DB	0c7H
	DB	039H
	DB	0c7H
	DB	039H
	DB	0a7H
	DB	039H
	DB	0a6H
	DB	031H
	DB	0c7H
	DB	039H
	DB	0a6H
	DB	031H
	DB	0c7H
	DB	039H
	DB	0c6H
	DB	031H
	DB	0a7H
	DB	039H
	DB	0c6H
	DB	031H
	DB	0c7H
	DB	039H
	DB	0a7H
	DB	039H
	DB	0a6H
	DB	031H
	DB	0c7H
	DB	039H
	DB	0a7H
	DB	039H
	DB	0c6H
	DB	031H
	DB	0c7H
	DB	039H
	DB	0a7H
	DB	039H
	DB	0c6H
	DB	031H
	DB	0c6H
	DB	031H
	DB	0a7H
	DB	039H
	DB	0a6H
	DB	031H
	DB	0c7H
	DB	039H
	DB	0a7H
	DB	039H
	DB	0c7H
	DB	039H
	DB	0a7H
	DB	039H
	DB	0a6H
	DB	031H
	DB	0c7H
	DB	039H
	DB	0c6H
	DB	031H
	DB	0a7H
	DB	039H
	DB	0c6H
	DB	031H
	DB	0a7H
	DB	039H
	DB	0a6H
	DB	031H
	DB	0c7H
	DB	039H
	DB	0a6H
	DB	031H
	DB	0a7H
	DB	039H
	DB	0c7H
	DB	039H
	DB	0c7H
	DB	039H
	DB	0a6H
	DB	031H
	DB	0a7H
	DB	039H
	DB	0c7H
	DB	039H
	DB	0a6H
	DB	031H
	DB	0c6H
	DB	031H
	DB	0c7H
	DB	039H
	DB	0a6H
	DB	031H
	DB	0c7H
	DB	039H
	DB	0c6H
	DB	031H
	DB	0a7H
	DB	039H
	DB	0a7H
	DB	039H
	DB	0c7H
	DB	039H
	DB	0a6H
	DB	031H
	DB	0c7H
	DB	039H
	DB	0c6H
	DB	031H
	DB	0a7H
	DB	039H
	DB	0c6H
	DB	031H
	DB	0c7H
	DB	039H
	DB	0a6H
	DB	031H
	DB	0a7H
	DB	039H
	DB	0c6H
	DB	031H
	DB	0a7H
	DB	039H
	DB	0c7H
	DB	039H
	DB	0a7H
	DB	039H
	DB	0a6H
	DB	031H
	DB	0c7H
	DB	039H
	DB	0c7H
	DB	039H
	DB	0a6H
	DB	031H
	DB	0c6H
	DB	031H
	DB	0a7H
	DB	039H
	DB	0a6H
	DB	031H
	DB	0c7H
	DB	039H
	DB	0a6H
	DB	031H
	DB	0a7H
	DB	039H
	DB	0c7H
	DB	039H
	DB	0c7H
	DB	039H
	DB	0a6H
	DB	031H
	DB	0a7H
	DB	039H
	DB	0c6H
	DB	031H
	DB	0a7H
	DB	039H
	DB	0c6H
	DB	031H
	DB	0c7H
	DB	039H
	DB	0a6H
	DB	031H
	DB	0c7H
	DB	039H
	DB	0c6H
	DB	031H
	DB	0a7H
	DB	039H
	DB	0a7H
	DB	039H
	DB	0c7H
	DB	039H
	DB	0a6H
	DB	031H
	DB	0c7H
	DB	039H
	DB	0c7H
	DB	039H
	DB	0a6H
	DB	031H
	DB	0c6H
	DB	031H
	DB	0c7H
	DB	039H
	DB	0a6H
	DB	031H
	DB	0a7H
	DB	039H
	DB	0c6H
	DB	031H
	DB	0a7H
	DB	039H
	DB	0c7H
	DB	039H
	DB	0a7H
	DB	039H
	DB	0a6H
	DB	031H
	DB	0c7H
	DB	039H
	DB	0c6H
	DB	031H
	DB	0a7H
	DB	039H
	DB	0c6H
	DB	031H
	DB	0a7H
	DB	039H
	DB	0a6H
	DB	031H
	DB	0c7H
	DB	039H
	DB	0a6H
	DB	031H
	DB	0a7H
	DB	039H
	DB	0c7H
	DB	039H
	DB	0c7H
	DB	039H
	DB	0a6H
	DB	031H
	DB	0a7H
	DB	039H
	DB	0c7H
	DB	039H
	DB	0a6H
	DB	031H
	DB	0c6H
	DB	031H
	DB	0c7H
	DB	039H
	DB	0a6H
	DB	031H
	DB	0c7H
	DB	039H
	DB	0c6H
	DB	031H
	DB	0a7H
	DB	039H
	DB	0a7H
	DB	039H
	DB	0c7H
	DB	039H
	DB	0a6H
	DB	031H
	DB	0c7H
	DB	039H
	DB	0c6H
	DB	031H
	DB	0a7H
	DB	039H
	DB	0c6H
	DB	031H
	DB	0c7H
	DB	039H
	DB	0a6H
	DB	031H
	DB	0a7H
	DB	039H
	DB	0c6H
	DB	031H
	DB	0a7H
	DB	039H
	DB	0c7H
	DB	039H
	DB	0a7H
	DB	039H
	DB	0a6H
	DB	031H
	DB	0c7H
	DB	039H
	DB	0c7H
	DB	039H
	DB	0a6H
	DB	031H
	DB	0c6H
	DB	031H
	DB	0a7H
	DB	039H
	DB	0a6H
	DB	031H
	DB	0c7H
	DB	039H
	DB	0a6H
	DB	031H
	DB	0a7H
	DB	039H
	DB	0c7H
	DB	039H
	DB	0c7H
	DB	039H
	DB	0a6H
	DB	031H
	DB	0a7H
	DB	039H
	DB	0c6H
	DB	031H
	DB	0a7H
	DB	039H
	DB	0c6H
	DB	031H
	DB	0c7H
	DB	039H
	DB	0a6H
	DB	031H
	DB	0c7H
	DB	039H
	DB	0c6H
	DB	031H
	DB	0a7H
	DB	039H
	DB	0a7H
	DB	039H
	DB	0c7H
	DB	039H
	DB	0a6H
	DB	031H
	DB	0c7H
	DB	039H
	DB	0c7H
	DB	039H
	DB	0a6H
	DB	031H
	DB	0c6H
	DB	031H
	DB	0c7H
	DB	039H
	DB	0a6H
	DB	031H
	DB	0a7H
	DB	039H
	DB	0c6H
	DB	031H
	DB	0a7H
	DB	039H
	DB	0c7H
	DB	039H
	DB	0a7H
	DB	039H
	DB	0a6H
	DB	031H
	DB	0c7H
	DB	039H
	DB	0c6H
	DB	031H
	DB	0a7H
	DB	039H
	DB	0c6H
	DB	031H
	DB	0a7H
	DB	039H
	DB	0a6H
	DB	031H
	DB	0c7H
	DB	039H
	DB	0a6H
	DB	031H
	DB	0a7H
	DB	039H
	DB	0c7H
	DB	039H
	DB	0c7H
	DB	039H
	DB	0a6H
	DB	031H
	DB	0a7H
	DB	039H
	DB	0c7H
	DB	039H
	DB	0a6H
	DB	031H
	DB	0c6H
	DB	031H
	DB	0c7H
	DB	039H
	DB	0a6H
	DB	031H
	DB	0c7H
	DB	039H
	DB	0c6H
	DB	031H
	DB	0a7H
	DB	039H
	DB	0a7H
	DB	039H
	DB	0c7H
	DB	039H
	DB	0a6H
	DB	031H
	DB	0c7H
	DB	039H
	DB	0c6H
	DB	031H
	DB	0a7H
	DB	039H
	DB	0c6H
	DB	031H
	DB	0c7H
	DB	039H
	DB	0a6H
	DB	031H
	DB	0a7H
	DB	039H
	DB	0c6H
	DB	031H
	DB	0a7H
	DB	039H
	DB	0c7H
	DB	039H
	DB	0a7H
	DB	039H
	DB	0a6H
	DB	031H
	DB	0c7H
	DB	039H
	DB	0c7H
	DB	039H
	DB	0a6H
	DB	031H
	DB	0c6H
	DB	031H
	DB	0a7H
	DB	039H
	DB	0a6H
	DB	031H
	DB	0c7H
	DB	039H
	DB	0a6H
	DB	031H
	DB	0a7H
	DB	039H
	DB	0c7H
	DB	039H
	DB	0c7H
	DB	039H
	DB	0a6H
	DB	031H
	DB	0a7H
	DB	039H
	DB	0c6H
	DB	031H
	DB	0a7H
	DB	039H
	DB	0c6H
	DB	031H
	DB	0c7H
	DB	039H
	DB	0a6H
	DB	031H
	DB	0c7H
	DB	039H
	DB	0c6H
	DB	031H
	DB	0a7H
	DB	039H
	DB	0a7H
	DB	039H
	DB	0c7H
	DB	039H
	DB	0a6H
	DB	031H
	DB	0c7H
	DB	039H
	DB	0c7H
	DB	039H
	DB	0a6H
	DB	031H
	DB	0c6H
	DB	031H
	DB	0c7H
	DB	039H
	DB	0a6H
	DB	031H
	DB	0a7H
	DB	039H
	DB	0c6H
	DB	031H
	DB	0a7H
	DB	039H
	DB	0c7H
	DB	039H
	DB	0a7H
	DB	039H
	DB	0a6H
	DB	031H
	DB	0c7H
	DB	039H
	DB	0c6H
	DB	031H
	DB	0a7H
	DB	039H
	DB	0c6H
	DB	031H
	DB	0a7H
	DB	039H
	DB	0a6H
	DB	031H
	DB	0c7H
	DB	039H
	DB	0a6H
	DB	031H
	DB	0a7H
	DB	039H
	DB	0c7H
	DB	039H
	DB	0c7H
	DB	039H
	DB	0a6H
	DB	031H
	DB	0a7H
	DB	039H
	DB	0c7H
	DB	039H
	DB	0a6H
	DB	031H
	DB	0c6H
	DB	031H
	DB	0c7H
	DB	039H
	DB	0a6H
	DB	031H
	DB	0c7H
	DB	039H
	DB	0c6H
	DB	031H
	DB	0a7H
	DB	039H
	DB	0a7H
	DB	039H
	DB	0c7H
	DB	039H
	DB	0a6H
	DB	031H
	DB	0c7H
	DB	039H
	DB	0c6H
	DB	031H
	DB	0a7H
	DB	039H
	DB	0c6H
	DB	031H
	DB	0c7H
	DB	039H
	DB	0a6H
	DB	031H
	DB	0a7H
	DB	039H
	DB	0c6H
	DB	031H
	DB	0a7H
	DB	039H
	DB	0c7H
	DB	039H
	DB	0a7H
	DB	039H
	DB	0a6H
	DB	031H
	DB	0c7H
	DB	039H
	DB	0c7H
	DB	039H
	DB	0a6H
	DB	031H
	DB	0c6H
	DB	031H
	DB	0a7H
	DB	039H
	DB	0a6H
	DB	031H
	DB	0c7H
	DB	039H
	DB	0a6H
	DB	031H
	DB	0a7H
	DB	039H
	DB	0c7H
	DB	039H
	DB	0c7H
	DB	039H
	DB	0a6H
	DB	031H
	DB	0a7H
	DB	039H
	DB	0c6H
	DB	031H
	DB	0a7H
	DB	039H
	DB	0c6H
	DB	031H
	DB	0c7H
	DB	039H
	DB	0a6H
	DB	031H
	DB	0c7H
	DB	039H
	DB	0c6H
	DB	031H
	DB	0a7H
	DB	039H
	DB	0a7H
	DB	039H
	DB	0c7H
	DB	039H
	DB	0a6H
	DB	031H
	DB	0c7H
	DB	039H
	DB	0c7H
	DB	039H
	DB	0a6H
	DB	031H
	DB	0c6H
	DB	031H
	DB	0c7H
	DB	039H
	DB	0a6H
	DB	031H
	DB	0a7H
	DB	039H
	DB	0c6H
	DB	031H
	DB	0a7H
	DB	039H
	DB	0c7H
	DB	039H
	DB	0a7H
	DB	039H
	DB	0a6H
	DB	031H
	DB	0c7H
	DB	039H
	DB	0c6H
	DB	031H
	DB	0a7H
	DB	039H
	DB	0c6H
	DB	031H
	DB	0a7H
	DB	039H
	DB	0a6H
	DB	031H
	DB	0c7H
	DB	039H
	DB	0a6H
	DB	031H
	DB	0a7H
	DB	039H
	DB	0c7H
	DB	039H
	DB	0c7H
	DB	039H
	DB	0a6H
	DB	031H
	DB	0a7H
	DB	039H
	DB	0c7H
	DB	039H
	DB	0a6H
	DB	031H
	DB	0c6H
	DB	031H
	DB	0c7H
	DB	039H
	DB	0a6H
	DB	031H
	DB	0c7H
	DB	039H
	DB	0c6H
	DB	031H
	DB	0a7H
	DB	039H
	DB	0a7H
	DB	039H
	DB	0c7H
	DB	039H
	DB	0a6H
	DB	031H
	DB	0c7H
	DB	039H
	DB	0c6H
	DB	031H
	DB	0a7H
	DB	039H
	DB	0c6H
	DB	031H
	DB	0c7H
	DB	039H
	DB	0a6H
	DB	031H
	DB	0a7H
	DB	039H
	DB	0c6H
	DB	031H
	DB	0a7H
	DB	039H
	DB	0c7H
	DB	039H
	DB	0a7H
	DB	039H
	DB	0a6H
	DB	031H
	DB	0c7H
	DB	039H
	DB	0c7H
	DB	039H
	DB	0a6H
	DB	031H
	DB	0c6H
	DB	031H
	DB	0a7H
	DB	039H
	DB	0a6H
	DB	031H
	DB	0c7H
	DB	039H
	DB	0a6H
	DB	031H
	DB	0a7H
	DB	039H
	DB	0c7H
	DB	039H
	DB	0c7H
	DB	039H
	DB	0a6H
	DB	031H
	DB	0a7H
	DB	039H
	DB	0c6H
	DB	031H
	DB	0a7H
	DB	039H
	DB	0c6H
	DB	031H
	DB	0c7H
	DB	039H
	DB	0a6H
	DB	031H
	DB	0c7H
	DB	039H
	DB	0c6H
	DB	031H
	DB	0a7H
	DB	039H
	DB	0a7H
	DB	039H
	DB	0c7H
	DB	039H
	DB	0a6H
	DB	031H
	DB	0c7H
	DB	039H
	DB	0c7H
	DB	039H
	DB	0a6H
	DB	031H
	DB	0c6H
	DB	031H
	DB	0c7H
	DB	039H
	DB	0a6H
	DB	031H
	DB	0a7H
	DB	039H
	DB	0c6H
	DB	031H
	DB	0a7H
	DB	039H
	DB	0c7H
	DB	039H
	DB	0a7H
	DB	039H
	DB	0a6H
	DB	031H
	DB	0c7H
	DB	039H
	DB	0c6H
	DB	031H
	DB	0a7H
	DB	039H
	DB	0c6H
	DB	031H
	DB	0a7H
	DB	039H
	DB	0a6H
	DB	031H
	DB	0c7H
	DB	039H
	DB	0a6H
	DB	031H
	DB	0a7H
	DB	039H
	DB	0c7H
	DB	039H
	DB	0c7H
	DB	039H
	DB	0a6H
	DB	031H
	DB	0a7H
	DB	039H
	DB	0c7H
	DB	039H
	DB	0a6H
	DB	031H
	DB	0c6H
	DB	031H
	DB	0c7H
	DB	039H
	DB	0a6H
	DB	031H
	DB	0c7H
	DB	039H
	DB	0c6H
	DB	031H
	DB	0a7H
	DB	039H
	DB	0a7H
	DB	039H
	DB	0c7H
	DB	039H
	DB	0a6H
	DB	031H
	DB	0c7H
	DB	039H
	DB	0c6H
	DB	031H
	DB	0a7H
	DB	039H
	DB	0c6H
	DB	031H
	DB	0c7H
	DB	039H
	DB	0a6H
	DB	031H
	DB	0a7H
	DB	039H
	DB	0c6H
	DB	031H
	DB	0a7H
	DB	039H
	DB	0c7H
	DB	039H
	DB	0a7H
	DB	039H
	DB	0a6H
	DB	031H
	DB	0c7H
	DB	039H
	DB	0c7H
	DB	039H
	DB	0a6H
	DB	031H
	DB	0c6H
	DB	031H
	DB	0a7H
	DB	039H
	DB	0a6H
	DB	031H
	DB	0c7H
	DB	039H
	DB	0a6H
	DB	031H
	DB	0a7H
	DB	039H
	DB	0c7H
	DB	039H
	DB	0c7H
	DB	039H
	DB	0a6H
	DB	031H
	DB	0a7H
	DB	039H
	DB	0c7H
	DB	039H
	DB	0a6H
	DB	031H
	DB	0c7H
	DB	039H
	DB	0c7H
	DB	039H
	DB	0a7H
	DB	039H
	DB	0c7H
	DB	039H
	DB	0a6H
	DB	031H
	DB	0a7H
	DB	039H
	DB	0c7H
	DB	039H
	DB	0a7H
	DB	039H
	DB	0c7H
	DB	039H
	DB	0c7H
	DB	039H
	DB	0a7H
	DB	039H
	DB	0c7H
	DB	039H
	DB	0a7H
	DB	039H
	DB	0a6H
	DB	031H
	DB	0c7H
	DB	039H
	DB	0a7H
	DB	039H
	DB	0a7H
	DB	039H
	DB	0c6H
	DB	031H
	DB	0a7H
	DB	039H
	DB	0a7H
	DB	039H
	DB	0c7H
	DB	039H
	DB	0a7H
	DB	039H
	DB	0c7H
	DB	039H
	DB	0a6H
	DB	031H
	DB	0a7H
	DB	039H
	DB	0c7H
	DB	039H
	DB	0c7H
	DB	039H
	DB	0a6H
	DB	031H
	DB	0c7H
	DB	039H
	DB	0c7H
	DB	039H
	DB	0a7H
	DB	039H
	DB	0c6H
	DB	031H
	DB	0a7H
	DB	039H
	DB	0a7H
	DB	039H
	DB	0c7H
	DB	039H
	DB	0c7H
	DB	039H
	DB	0a7H
	DB	039H
	DB	0c6H
	DB	031H
	DB	0c7H
	DB	039H
	DB	0a7H
	DB	039H
	DB	0c6H
	DB	031H
	DB	0a7H
	DB	039H
	DB	0c7H
	DB	039H
	DB	0c6H
	DB	031H
	DB	0a7H
	DB	039H
	DB	0c7H
	DB	039H
	DB	0a7H
	DB	039H
	DB	0a7H
	DB	039H
	DB	0c6H
	DB	031H
	DB	0a7H
	DB	039H
	DB	0c7H
	DB	039H
	DB	0a7H
	DB	039H
	DB	0c6H
	DB	031H
	DB	0c7H
	DB	039H
	DB	0a7H
	DB	039H
	DB	0a7H
	DB	039H
	DB	0c7H
	DB	039H
	DB	0a6H
	DB	031H
	DB	0a7H
	DB	039H
	DB	0c7H
	DB	039H
	DB	0a7H
	DB	039H
	DB	0c7H
	DB	039H
	DB	0c7H
	DB	039H
	DB	0a6H
	DB	031H
	DB	0c7H
	DB	039H
	DB	0a6H
	DB	031H
	DB	0c7H
	DB	039H
	DB	0c7H
	DB	039H
	DB	0a7H
	DB	039H
	DB	0c7H
	DB	039H
	DB	0a7H
	DB	039H
	DB	0c6H
	DB	031H
	DB	0c7H
	DB	039H
	DB	0a7H
	DB	039H
	DB	0c7H
	DB	039H
	DB	0c6H
	DB	031H
	DB	0a7H
	DB	039H
	DB	0c7H
	DB	039H
	DB	0a6H
	DB	031H
	DB	0c7H
	DB	039H
	DB	0c7H
	DB	039H
	DB	0a6H
	DB	031H
	DB	0a7H
	DB	039H
	DB	0c7H
	DB	039H
	DB	0a7H
	DB	039H
	DB	0c7H
	DB	039H
	DB	0a7H
	DB	039H
	DB	0a6H
	DB	031H
	DB	0c7H
	DB	039H
	DB	0c7H
	DB	039H
	DB	0a6H
	DB	031H
	DB	0a7H
	DB	039H
	DB	0c7H
	DB	039H
	DB	0a7H
	DB	039H
	DB	0a7H
	DB	039H
	DB	0c6H
	DB	031H
	DB	0a7H
	DB	039H
	DB	0c7H
	DB	039H
	DB	0c7H
	DB	039H
	DB	0a6H
	DB	031H
	DB	0c7H
	DB	039H
	DB	0a7H
	DB	039H
	DB	0c6H
	DB	031H
	DB	0c7H
	DB	039H
	DB	0a7H
	DB	039H
	DB	0c6H
	DB	031H
	DB	0a7H
	DB	039H
	DB	0c7H
	DB	039H
	DB	0c7H
	DB	039H
	DB	0a7H
	DB	039H
	DB	0c7H
	DB	039H
	DB	0c6H
	DB	031H
	DB	0a7H
	DB	039H
	DB	0c7H
	DB	039H
	DB	0a6H
	DB	031H
	DB	0c7H
	DB	039H
	DB	0c7H
	DB	039H
	DB	0a7H
	DB	039H
	DB	0a7H
	DB	039H
	DB	0c6H
	DB	031H
	DB	0a7H
	DB	039H
	DB	0c7H
	DB	039H
	DB	0a7H
	DB	039H
	DB	0a6H
	DB	031H
	DB	0c7H
	DB	039H
	DB	0c7H
	DB	039H
	DB	0a6H
	DB	031H
	DB	0a7H
	DB	039H
	DB	0c7H
	DB	039H
	DB	0a6H
	DB	031H
	DB	0a7H
	DB	039H
	DB	0c7H
	DB	039H
	DB	0a7H
	DB	039H
	DB	0c7H
	DB	039H
	DB	0c7H
	DB	039H
	DB	0a6H
	DB	031H
	DB	0c7H
	DB	039H
	DB	0a7H
	DB	039H
	DB	0c6H
	DB	031H
	DB	0c7H
	DB	039H
	DB	0a7H
	DB	039H
	DB	0c7H
	DB	039H
	DB	0a7H
	DB	039H
	DB	0c6H
	DB	031H
	DB	0c7H
	DB	039H
	DB	0a7H
	DB	039H
	DB	0c7H
	DB	039H
	DB	0c6H
	DB	031H
	DB	0a7H
	DB	039H
	DB	0c7H
	DB	039H
	DB	0a6H
	DB	031H
	DB	0c7H
	DB	039H
	DB	0c7H
	DB	039H
	DB	0a6H
	DB	031H
	DB	0a7H
	DB	039H
	DB	0c7H
	DB	039H
	DB	0a7H
	DB	039H
	DB	0c7H
	DB	039H
	DB	0a7H
	DB	039H
	DB	0a6H
	DB	031H
	DB	0c7H
	DB	039H
	DB	0c7H
	DB	039H
	DB	0a6H
	DB	031H
	DB	0a7H
	DB	039H
	DB	0c7H
	DB	039H
	DB	0a7H
	DB	039H
	DB	0a7H
	DB	039H
	DB	0c6H
	DB	031H
	DB	0a7H
	DB	039H
	DB	0c7H
	DB	039H
	DB	0c7H
	DB	039H
	DB	0a6H
	DB	031H
	DB	0c7H
	DB	039H
	DB	0a7H
	DB	039H
	DB	0c6H
	DB	031H
	DB	0c7H
	DB	039H
	DB	0a7H
	DB	039H
	DB	0c6H
	DB	031H
	DB	0a7H
	DB	039H
	DB	0c7H
	DB	039H
	DB	0c7H
	DB	039H
	DB	0a7H
	DB	039H
	DB	0c7H
	DB	039H
	DB	0c6H
	DB	031H
	DB	0a7H
	DB	039H
	DB	0c7H
	DB	039H
	DB	0a6H
	DB	031H
	DB	0c7H
	DB	039H
	DB	0c7H
	DB	039H
	DB	0a7H
	DB	039H
	DB	0a7H
	DB	039H
	DB	0c6H
	DB	031H
	DB	0a7H
	DB	039H
	DB	0c7H
	DB	039H
	DB	0a7H
	DB	039H
	DB	0a6H
	DB	031H
	DB	0c7H
	DB	039H
	DB	0c7H
	DB	039H
	DB	0a6H
	DB	031H
	DB	0a7H
	DB	039H
	DB	0c7H
	DB	039H
	DB	0a6H
	DB	031H
	DB	0a7H
	DB	039H
	DB	0c7H
	DB	039H
	DB	0a7H
	DB	039H
	DB	0c7H
	DB	039H
	DB	0c7H
	DB	039H
	DB	0a6H
	DB	031H
	DB	0c7H
	DB	039H
	DB	0a7H
	DB	039H
	DB	0c6H
	DB	031H
	DB	0c7H
	DB	039H
	DB	0a7H
	DB	039H
	DB	0c7H
	DB	039H
	DB	0a7H
	DB	039H
	DB	0c6H
	DB	031H
	DB	0c7H
	DB	039H
	DB	0a7H
	DB	039H
	DB	0c7H
	DB	039H
	DB	0c6H
	DB	031H
	DB	0a7H
	DB	039H
	DB	0c7H
	DB	039H
	DB	0a6H
	DB	031H
	DB	0c7H
	DB	039H
	DB	0c7H
	DB	039H
	DB	0a6H
	DB	031H
	DB	0a7H
	DB	039H
	DB	0c7H
	DB	039H
	DB	0a7H
	DB	039H
	DB	0c7H
	DB	039H
	DB	0a7H
	DB	039H
	DB	0a6H
	DB	031H
	DB	0c7H
	DB	039H
	DB	0c7H
	DB	039H
	DB	0a6H
	DB	031H
	DB	0a7H
	DB	039H
	DB	0c7H
	DB	039H
	DB	0a7H
	DB	039H
	DB	0a7H
	DB	039H
	DB	0c6H
	DB	031H
	DB	0a7H
	DB	039H
	DB	0c7H
	DB	039H
	DB	0c7H
	DB	039H
	DB	0a6H
	DB	031H
	DB	0c7H
	DB	039H
	DB	0a7H
	DB	039H
	DB	0c6H
	DB	031H
	DB	0c7H
	DB	039H
	DB	0a7H
	DB	039H
	DB	0c6H
	DB	031H
	DB	0a7H
	DB	039H
	DB	0c7H
	DB	039H
	DB	0c7H
	DB	039H
	DB	0a7H
	DB	039H
	DB	0c7H
	DB	039H
	DB	0c6H
	DB	031H
	DB	0a7H
	DB	039H
	DB	0c7H
	DB	039H
	DB	0a6H
	DB	031H
	DB	0c7H
	DB	039H
	DB	0c7H
	DB	039H
	DB	0a7H
	DB	039H
	DB	0a7H
	DB	039H
	DB	0c6H
	DB	031H
	DB	0a7H
	DB	039H
	DB	0c7H
	DB	039H
	DB	0a7H
	DB	039H
	DB	0a6H
	DB	031H
	DB	0c7H
	DB	039H
	DB	0c7H
	DB	039H
	DB	0a6H
	DB	031H
	DB	0a7H
	DB	039H
	DB	0c7H
	DB	039H
	DB	0a6H
	DB	031H
	DB	0a7H
	DB	039H
	DB	0c7H
	DB	039H
	DB	0a7H
	DB	039H
	DB	0c7H
	DB	039H
	DB	0c7H
	DB	039H
	DB	0a6H
	DB	031H
	DB	0c7H
	DB	039H
	DB	0a7H
	DB	039H
	DB	0c6H
	DB	031H
	DB	0c7H
	DB	039H
	DB	0a7H
	DB	039H
	DB	0c7H
	DB	039H
	DB	0a7H
	DB	039H
	DB	0c6H
	DB	031H
	DB	0c7H
	DB	039H
	DB	0a7H
	DB	039H
	DB	0c7H
	DB	039H
	DB	0c6H
	DB	031H
	DB	0a7H
	DB	039H
	DB	0c7H
	DB	039H
	DB	0a6H
	DB	031H
	DB	0c7H
	DB	039H
	DB	0c7H
	DB	039H
	DB	0a6H
	DB	031H
	DB	0a7H
	DB	039H
	DB	0c7H
	DB	039H
	DB	0a7H
	DB	039H
	DB	0c7H
	DB	039H
	DB	0a7H
	DB	039H
	DB	0a6H
	DB	031H
	DB	0c7H
	DB	039H
	DB	0c7H
	DB	039H
	DB	0a6H
	DB	031H
	DB	0a7H
	DB	039H
	DB	0c7H
	DB	039H
	DB	0a7H
	DB	039H
	DB	0a7H
	DB	039H
	DB	0c6H
	DB	031H
	DB	0a7H
	DB	039H
	DB	0c7H
	DB	039H
	DB	0c7H
	DB	039H
	DB	0a6H
	DB	031H
	DB	0c7H
	DB	039H
	DB	0a7H
	DB	039H
	DB	0c6H
	DB	031H
	DB	0c7H
	DB	039H
	DB	0a7H
	DB	039H
	DB	0c6H
	DB	031H
	DB	0a7H
	DB	039H
	DB	0c7H
	DB	039H
	DB	0c7H
	DB	039H
	DB	0a7H
	DB	039H
	DB	0c7H
	DB	039H
	DB	0c6H
	DB	031H
	DB	0a7H
	DB	039H
	DB	0c7H
	DB	039H
	DB	0a6H
	DB	031H
	DB	0c7H
	DB	039H
	DB	0c7H
	DB	039H
	DB	0a7H
	DB	039H
	DB	0a7H
	DB	039H
	DB	0c6H
	DB	031H
	DB	0a7H
	DB	039H
	DB	0c7H
	DB	039H
	DB	0a7H
	DB	039H
	DB	0a6H
	DB	031H
	DB	0c7H
	DB	039H
	DB	0c7H
	DB	039H
	DB	0a6H
	DB	031H
	DB	0a7H
	DB	039H
	DB	0c7H
	DB	039H
	DB	0a6H
	DB	031H
	DB	0a7H
	DB	039H
	DB	0c7H
	DB	039H
	DB	0a7H
	DB	039H
	DB	0c7H
	DB	039H
	DB	0c7H
	DB	039H
	DB	0a6H
	DB	031H
	DB	0c7H
	DB	039H
	DB	0a7H
	DB	039H
	DB	0c6H
	DB	031H
	DB	0c7H
	DB	039H
	DB	0a7H
	DB	039H
	DB	0c7H
	DB	039H
	DB	0a7H
	DB	039H
	DB	0c6H
	DB	031H
	DB	0c7H
	DB	039H
	DB	0a7H
	DB	039H
	DB	0c7H
	DB	039H
	DB	0c6H
	DB	031H
	DB	0a7H
	DB	039H
	DB	0c7H
	DB	039H
	DB	0a6H
	DB	031H
	DB	0c7H
	DB	039H
	DB	0c7H
	DB	039H
	DB	0a6H
	DB	031H
	DB	0a7H
	DB	039H
	DB	0c7H
	DB	039H
	DB	0a7H
	DB	039H
	DB	0c7H
	DB	039H
	DB	0a7H
	DB	039H
	DB	0a6H
	DB	031H
	DB	0c7H
	DB	039H
	DB	0c7H
	DB	039H
	DB	0a6H
	DB	031H
	DB	0a7H
	DB	039H
	DB	0c7H
	DB	039H
	DB	0a7H
	DB	039H
	DB	0a7H
	DB	039H
	DB	0c6H
	DB	031H
	DB	0a7H
	DB	039H
	DB	0c7H
	DB	039H
	DB	0c7H
	DB	039H
	DB	0a6H
	DB	031H
	DB	0c7H
	DB	039H
	DB	0a7H
	DB	039H
	DB	0c6H
	DB	031H
	DB	0c7H
	DB	039H
	DB	0a7H
	DB	039H
	DB	0c6H
	DB	031H
	DB	0a7H
	DB	039H
	DB	0c7H
	DB	039H
	DB	0c7H
	DB	039H
	DB	0a7H
	DB	039H
	DB	0c7H
	DB	039H
	DB	0c6H
	DB	031H
	DB	0a7H
	DB	039H
	DB	0c7H
	DB	039H
	DB	0a6H
	DB	031H
	DB	0c7H
	DB	039H
	DB	0c7H
	DB	039H
	DB	0a7H
	DB	039H
	DB	0a7H
	DB	039H
	DB	0c6H
	DB	031H
	DB	0a7H
	DB	039H
	DB	0c7H
	DB	039H
	DB	0a7H
	DB	039H
	DB	0a6H
	DB	031H
	DB	0c7H
	DB	039H
	DB	0c7H
	DB	039H
	DB	0a6H
	DB	031H
	DB	0a7H
	DB	039H
	DB	0c7H
	DB	039H
	DB	0a6H
	DB	031H
	DB	0a7H
	DB	039H
	DB	0c7H
	DB	039H
	DB	0a7H
	DB	039H
	DB	0c7H
	DB	039H
	DB	0c7H
	DB	039H
	DB	0a6H
	DB	031H
	DB	0c7H
	DB	039H
	DB	0a7H
	DB	039H
	DB	0c6H
	DB	031H
	DB	0c7H
	DB	039H
	DB	0a7H
	DB	039H
	DB	0c7H
	DB	039H
	DB	0a7H
	DB	039H
	DB	0c6H
	DB	031H
	DB	0c7H
	DB	039H
	DB	0a7H
	DB	039H
	DB	0c7H
	DB	039H
	DB	0c6H
	DB	031H
	DB	0a7H
	DB	039H
	DB	0c7H
	DB	039H
	DB	0a6H
	DB	031H
	DB	0c7H
	DB	039H
	DB	0c7H
	DB	039H
	DB	0a6H
	DB	031H
	DB	0a7H
	DB	039H
	DB	0c7H
	DB	039H
	DB	0a7H
	DB	039H
	DB	0c7H
	DB	039H
	DB	0a7H
	DB	039H
	DB	0a6H
	DB	031H
	DB	0c7H
	DB	039H
	DB	0c7H
	DB	039H
	DB	0a6H
	DB	031H
	DB	0a7H
	DB	039H
	DB	0c7H
	DB	039H
	DB	0a7H
	DB	039H
	DB	0a7H
	DB	039H
	DB	0c6H
	DB	031H
	DB	0a7H
	DB	039H
	DB	0c7H
	DB	039H
	DB	0c7H
	DB	039H
	DB	0a6H
	DB	031H
	DB	0c7H
	DB	039H
	DB	0a7H
	DB	039H
	DB	0c6H
	DB	031H
	DB	0c7H
	DB	039H
	DB	0a7H
	DB	039H
	DB	0c6H
	DB	031H
	DB	0a7H
	DB	039H
	DB	0c7H
	DB	039H
	DB	0c7H
	DB	039H
	DB	0a7H
	DB	039H
	DB	0c7H
	DB	039H
	DB	0c6H
	DB	031H
	DB	0a7H
	DB	039H
	DB	0c7H
	DB	039H
	DB	0a6H
	DB	031H
	DB	0c7H
	DB	039H
	DB	0c7H
	DB	039H
	DB	0a7H
	DB	039H
	DB	0a6H
	DB	031H
	DB	0c7H
	DB	039H
	DB	0a7H
	DB	039H
	DB	0a6H
	DB	031H
	DB	0c7H
	DB	039H
	DB	0c7H
	DB	039H
	DB	0a7H
	DB	039H
	DB	0c7H
	DB	039H
	DB	0a7H
	DB	039H
	DB	0a6H
	DB	031H
	DB	0c7H
	DB	039H
	DB	0a7H
	DB	039H
	DB	0c6H
	DB	031H
	DB	0c7H
	DB	039H
	DB	0a7H
	DB	039H
	DB	0c7H
	DB	039H
	DB	0c7H
	DB	039H
	DB	0a7H
	DB	039H
	DB	0c7H
	DB	039H
	DB	0c6H
	DB	031H
	DB	0a7H
	DB	039H
	DB	0c7H
	DB	039H
	DB	0a6H
	DB	031H
	DB	0c7H
	DB	039H
	DB	0a7H
	DB	039H
	DB	0c7H
	DB	039H
	DB	0a7H
	DB	039H
	DB	0c7H
	DB	039H
	DB	0a7H
	DB	039H
	DB	0a7H
	DB	039H
	DB	0c7H
	DB	039H
	DB	0a7H
	DB	039H
	DB	0c7H
	DB	039H
	DB	0c6H
	DB	031H
	DB	0a7H
	DB	039H
	DB	0a7H
	DB	039H
	DB	0c6H
	DB	031H
	DB	0a7H
	DB	039H
	DB	0a7H
	DB	039H
	DB	0c7H
	DB	039H
	DB	0a7H
	DB	039H
	DB	0c7H
	DB	039H
	DB	0c7H
	DB	039H
	DB	0a7H
	DB	039H
	DB	0a7H
	DB	039H
	DB	0a7H
	DB	039H
	DB	0c6H
	DB	031H
	DB	0c7H
	DB	039H
	DB	0a7H
	DB	039H
	DB	0c7H
	DB	039H
	DB	0a7H
	DB	039H
	DB	0c7H
	DB	039H
	DB	0a7H
	DB	039H
	DB	0a7H
	DB	039H
	DB	0c7H
	DB	039H
	DB	0a6H
	DB	031H
	DB	0c7H
	DB	039H
	DB	0c7H
	DB	039H
	DB	0a7H
	DB	039H
	DB	0c7H
	DB	039H
	DB	0c6H
	DB	031H
	DB	0a7H
	DB	039H
	DB	0a7H
	DB	039H
	DB	0c7H
	DB	039H
	DB	0a7H
	DB	039H
	DB	0c7H
	DB	039H
	DB	0a7H
	DB	039H
	DB	0c7H
	DB	039H
	DB	0a6H
	DB	031H
	DB	0a7H
	DB	039H
	DB	0c7H
	DB	039H
	DB	0a6H
	DB	031H
	DB	0a7H
	DB	039H
	DB	0c7H
	DB	039H
	DB	0a7H
	DB	039H
	DB	0a7H
	DB	039H
	DB	0c7H
	DB	039H
	DB	0a7H
	DB	039H
	DB	0c7H
	DB	039H
	DB	0a7H
	DB	039H
	DB	0a6H
	DB	031H
	DB	0c7H
	DB	039H
	DB	0a7H
	DB	039H
	DB	0c7H
	DB	039H
	DB	0c7H
	DB	039H
	DB	0a7H
	DB	039H
	DB	0c6H
	DB	031H
	DB	0a7H
	DB	039H
	DB	0c7H
	DB	039H
	DB	0a7H
	DB	039H
	DB	0c7H
	DB	039H
	DB	0a7H
	DB	039H
	DB	0c7H
	DB	039H
	DB	0c6H
	DB	031H
	DB	0a7H
	DB	039H
	DB	0c7H
	DB	039H
	DB	0c7H
	DB	039H
	DB	0a7H
	DB	039H
	DB	0a7H
	DB	039H
	DB	0c7H
	DB	039H
	DB	0a7H
	DB	039H
	DB	0c7H
	DB	039H
	DB	0a7H
	DB	039H
	DB	0c7H
	DB	039H
	DB	0a6H
	DB	031H
	DB	0a7H
	DB	039H
	DB	0c7H
	DB	039H
	DB	0a7H
	DB	039H
	DB	0a7H
	DB	039H
	DB	0c7H
	DB	039H
	DB	0a6H
	DB	031H
	DB	0a7H
	DB	039H
	DB	0c7H
	DB	039H
	DB	0a7H
	DB	039H
	DB	0c7H
	DB	039H
	DB	0a7H
	DB	039H
	DB	0a7H
	DB	039H
	DB	0c6H
	DB	031H
	DB	0a7H
	DB	039H
	DB	0c7H
	DB	039H
	DB	0c7H
	DB	039H
	DB	0a7H
	DB	039H
	DB	0c7H
	DB	039H
	DB	0a7H
	DB	039H
	DB	0c7H
	DB	039H
	DB	0a7H
	DB	039H
	DB	0c7H
	DB	039H
	DB	0a7H
	DB	039H
	DB	0c6H
	DB	031H
	DB	0c7H
	DB	039H
	DB	0a7H
	DB	039H
	DB	0c7H
	DB	039H
	DB	0c7H
	DB	039H
	DB	0a7H
	DB	039H
	DB	0a6H
	DB	031H
	DB	0c7H
	DB	039H
	DB	0a7H
	DB	039H
	DB	0c7H
	DB	039H
	DB	0a7H
	DB	039H
	DB	0c7H
	DB	039H
	DB	0a7H
	DB	039H
	DB	0a6H
	DB	031H
	DB	0c7H
	DB	039H
	DB	0a7H
	DB	039H
	DB	0a7H
	DB	039H
	DB	0c7H
	DB	039H
	DB	0a7H
	DB	039H
	DB	0a7H
	DB	039H
	DB	0c7H
	DB	039H
	DB	0a7H
	DB	039H
	DB	0c7H
	DB	039H
	DB	0a7H
	DB	039H
	DB	0a6H
	DB	031H
	DB	0c7H
	DB	039H
	DB	0a7H
	DB	039H
	DB	0c7H
	DB	039H
	DB	0c7H
	DB	039H
	DB	0a7H
	DB	039H
	DB	0c6H
	DB	031H
	DB	0a7H
	DB	039H
	DB	0c7H
	DB	039H
	DB	0a7H
	DB	039H
	DB	0c7H
	DB	039H
	DB	0a7H
	DB	039H
	DB	0c7H
	DB	039H
	DB	0c6H
	DB	031H
	DB	0a7H
	DB	039H
	DB	0c7H
	DB	039H
	DB	0c7H
	DB	039H
	DB	0a7H
	DB	039H
	DB	0a7H
	DB	039H
	DB	0c7H
	DB	039H
	DB	0a7H
	DB	039H
	DB	0c7H
	DB	039H
	DB	0a7H
	DB	039H
	DB	0c7H
	DB	039H
	DB	0a6H
	DB	031H
	DB	0a7H
	DB	039H
	DB	0c7H
	DB	039H
	DB	0a7H
	DB	039H
	DB	0a7H
	DB	039H
	DB	0c7H
	DB	039H
	DB	0a6H
	DB	031H
	DB	0a7H
	DB	039H
	DB	0c7H
	DB	039H
	DB	0a7H
	DB	039H
	DB	0c7H
	DB	039H
	DB	0a7H
	DB	039H
	DB	0a7H
	DB	039H
	DB	0c6H
	DB	031H
	DB	0a7H
	DB	039H
	DB	0c7H
	DB	039H
	DB	0c7H
	DB	039H
	DB	0a7H
	DB	039H
	DB	0c7H
	DB	039H
	DB	0a7H
	DB	039H
	DB	0c7H
	DB	039H
	DB	0a7H
	DB	039H
	DB	0c7H
	DB	039H
	DB	0a7H
	DB	039H
	DB	0c6H
	DB	031H
	DB	0c7H
	DB	039H
	DB	0a7H
	DB	039H
	DB	0c7H
	DB	039H
	DB	0c7H
	DB	039H
	DB	0a7H
	DB	039H
	DB	0a6H
	DB	031H
	DB	0c7H
	DB	039H
	DB	0a7H
	DB	039H
	DB	0c7H
	DB	039H
	DB	0a7H
	DB	039H
	DB	0c7H
	DB	039H
	DB	0a7H
	DB	039H
	DB	0a6H
	DB	031H
	DB	0c7H
	DB	039H
	DB	0a7H
	DB	039H
	DB	0a7H
	DB	039H
	DB	0c7H
	DB	039H
	DB	0a7H
	DB	039H
	DB	0a7H
	DB	039H
	DB	0c7H
	DB	039H
	DB	0a7H
	DB	039H
	DB	0c7H
	DB	039H
	DB	0a7H
	DB	039H
	DB	0a6H
	DB	031H
	DB	0c7H
	DB	039H
	DB	0a7H
	DB	039H
	DB	0c7H
	DB	039H
	DB	0c7H
	DB	039H
	DB	0a7H
	DB	039H
	DB	0c6H
	DB	031H
	DB	0a7H
	DB	039H
	DB	0c7H
	DB	039H
	DB	0a7H
	DB	039H
	DB	0c7H
	DB	039H
	DB	0a7H
	DB	039H
	DB	0c7H
	DB	039H
	DB	0c6H
	DB	031H
	DB	0a7H
	DB	039H
	DB	0c7H
	DB	039H
	DB	0c7H
	DB	039H
	DB	0a7H
	DB	039H
	DB	0a7H
	DB	039H
	DB	0c7H
	DB	039H
	DB	0a7H
	DB	039H
	DB	0c7H
	DB	039H
	DB	0a7H
	DB	039H
	DB	0c7H
	DB	039H
	DB	0a6H
	DB	031H
	DB	0a7H
	DB	039H
	DB	0c7H
	DB	039H
	DB	0a7H
	DB	039H
	DB	0a7H
	DB	039H
	DB	0c7H
	DB	039H
	DB	0a6H
	DB	031H
	DB	0a7H
	DB	039H
	DB	0c7H
	DB	039H
	DB	0a7H
	DB	039H
	DB	0c7H
	DB	039H
	DB	0a7H
	DB	039H
	DB	0a7H
	DB	039H
	DB	0c6H
	DB	031H
	DB	0a7H
	DB	039H
	DB	0c7H
	DB	039H
	DB	0c7H
	DB	039H
	DB	0a7H
	DB	039H
	DB	0c7H
	DB	039H
	DB	0a7H
	DB	039H
	DB	0c7H
	DB	039H
	DB	0a7H
	DB	039H
	DB	0c7H
	DB	039H
	DB	0a7H
	DB	039H
	DB	0c6H
	DB	031H
	DB	0c7H
	DB	039H
	DB	0a7H
	DB	039H
	DB	0c7H
	DB	039H
	DB	0c7H
	DB	039H
	DB	0a7H
	DB	039H
	DB	0a6H
	DB	031H
	DB	0c7H
	DB	039H
	DB	0a7H
	DB	039H
	DB	0c7H
	DB	039H
	DB	0a7H
	DB	039H
	DB	0c7H
	DB	039H
	DB	0a7H
	DB	039H
	DB	0a6H
	DB	031H
	DB	0c7H
	DB	039H
	DB	0a7H
	DB	039H
	DB	0a7H
	DB	039H
	DB	0c7H
	DB	039H
	DB	0a7H
	DB	039H
	DB	0a7H
	DB	039H
	DB	0c7H
	DB	039H
	DB	0a7H
	DB	039H
	DB	0c7H
	DB	039H
	DB	0a7H
	DB	039H
	DB	0a6H
	DB	031H
	DB	0c7H
	DB	039H
	DB	0a7H
	DB	039H
	DB	0c7H
	DB	039H
	DB	0c7H
	DB	039H
	DB	0a7H
	DB	039H
	DB	0c6H
	DB	031H
	DB	0a7H
	DB	039H
	DB	0c7H
	DB	039H
	DB	0a7H
	DB	039H
	DB	0c7H
	DB	039H
	DB	0a7H
	DB	039H
	DB	0c7H
	DB	039H
	DB	0c6H
	DB	031H
	DB	0a7H
	DB	039H
	DB	0c7H
	DB	039H
	DB	0c7H
	DB	039H
	DB	0a7H
	DB	039H
	DB	0a7H
	DB	039H
	DB	0c7H
	DB	039H
	DB	0a7H
	DB	039H
	DB	0c7H
	DB	039H
	DB	0a7H
	DB	039H
	DB	0c7H
	DB	039H
	DB	0a6H
	DB	031H
	DB	0a7H
	DB	039H
	DB	0c7H
	DB	039H
	DB	0a7H
	DB	039H
	DB	0a7H
	DB	039H
	DB	0c7H
	DB	039H
	DB	0a6H
	DB	031H
	DB	0a7H
	DB	039H
	DB	0c7H
	DB	039H
	DB	0a7H
	DB	039H
	DB	0c7H
	DB	039H
	DB	0a7H
	DB	039H
	DB	0a7H
	DB	039H
	DB	0c6H
	DB	031H
	DB	0a7H
	DB	039H
	DB	0c7H
	DB	039H
	DB	0c7H
	DB	039H
	DB	0a7H
	DB	039H
	DB	0c7H
	DB	039H
	DB	0a7H
	DB	039H
	DB	0c7H
	DB	039H
	DB	0a7H
	DB	039H
	DB	0c7H
	DB	039H
	DB	0a7H
	DB	039H
	DB	0c6H
	DB	031H
	DB	0c7H
	DB	039H
	DB	0a7H
	DB	039H
	DB	0c7H
	DB	039H
	DB	0c7H
	DB	039H
	DB	0a7H
	DB	039H
	DB	0a6H
	DB	031H
	DB	0c7H
	DB	039H
	DB	0a7H
	DB	039H
	DB	0c7H
	DB	039H
	DB	0a7H
	DB	039H
	DB	0c7H
	DB	039H
	DB	0a7H
	DB	039H
	DB	0a6H
	DB	031H
	DB	0c7H
	DB	039H
	DB	0a7H
	DB	039H
	DB	0a7H
	DB	039H
	DB	0c7H
	DB	039H
	DB	0a7H
	DB	039H
	DB	0a7H
	DB	039H
	DB	0c7H
	DB	039H
	DB	0a7H
	DB	039H
	DB	0c7H
	DB	039H
	DB	0a7H
	DB	039H
	DB	0a6H
	DB	031H
	DB	0c7H
	DB	039H
	DB	0a7H
	DB	039H
	DB	0c7H
	DB	039H
	DB	0c7H
	DB	039H
	DB	0a7H
	DB	039H
	DB	0c6H
	DB	031H
	DB	0a7H
	DB	039H
	DB	0c7H
	DB	039H
	DB	0a7H
	DB	039H
	DB	0c7H
	DB	039H
	DB	0a7H
	DB	039H
	DB	0c7H
	DB	039H
	DB	0c6H
	DB	031H
	DB	0a7H
	DB	039H
	DB	0c7H
	DB	039H
	DB	0c7H
	DB	039H
	DB	0a7H
	DB	039H
	DB	0a7H
	DB	039H
	DB	0c7H
	DB	039H
	DB	0a7H
	DB	039H
	DB	0c7H
	DB	039H
	DB	0a7H
	DB	039H
	DB	0c7H
	DB	039H
	DB	0a6H
	DB	031H
	DB	0a7H
	DB	039H
	DB	0c7H
	DB	039H
	DB	0a7H
	DB	039H
	DB	0a7H
	DB	039H
	DB	0c7H
	DB	039H
	DB	0a6H
	DB	031H
	DB	0a7H
	DB	039H
	DB	0c7H
	DB	039H
	DB	0a7H
	DB	039H
	DB	0c7H
	DB	039H
	DB	0a7H
	DB	039H
	DB	0a7H
	DB	039H
	DB	0c6H
	DB	031H
	DB	0a7H
	DB	039H
	DB	0c7H
	DB	039H
	DB	0c7H
	DB	039H
	DB	0a7H
	DB	039H
	DB	0c7H
	DB	039H
	DB	0a7H
	DB	039H
	DB	0c7H
	DB	039H
	DB	0a7H
	DB	039H
	DB	0c7H
	DB	039H
	DB	0a7H
	DB	039H
	DB	0c6H
	DB	031H
	DB	0c7H
	DB	039H
	DB	0a7H
	DB	039H
	DB	0c7H
	DB	039H
	DB	0c7H
	DB	039H
	DB	0a7H
	DB	039H
	DB	0a6H
	DB	031H
	DB	0c7H
	DB	039H
	DB	0a7H
	DB	039H
	DB	0c7H
	DB	039H
	DB	0a7H
	DB	039H
	DB	0c7H
	DB	039H
	DB	0a7H
	DB	039H
	DB	0a6H
	DB	031H
	DB	0c7H
	DB	039H
	DB	0a7H
	DB	039H
	DB	0a7H
	DB	039H
	DB	0c7H
	DB	039H
	DB	0a7H
	DB	039H
	DB	0a7H
	DB	039H
	DB	0c7H
	DB	039H
	DB	0a7H
	DB	039H
	DB	0c7H
	DB	039H
	DB	0a7H
	DB	039H
	DB	0a6H
	DB	031H
	DB	0c7H
	DB	039H
	DB	0a7H
	DB	039H
	DB	0c7H
	DB	039H
	DB	0c7H
	DB	039H
	DB	0a7H
	DB	039H
	DB	0c6H
	DB	031H
	DB	0a7H
	DB	039H
	DB	0c7H
	DB	039H
	DB	0a7H
	DB	039H
	DB	0c7H
	DB	039H
	DB	0a7H
	DB	039H
	DB	0c7H
	DB	039H
	DB	0c6H
	DB	031H
	DB	0a7H
	DB	039H
	DB	0c7H
	DB	039H
	DB	0c7H
	DB	039H
	DB	0a7H
	DB	039H
	DB	0a7H
	DB	039H
	DB	0c7H
	DB	039H
	DB	0a7H
	DB	039H
	DB	0c7H
	DB	039H
	DB	0a7H
	DB	039H
	DB	0c7H
	DB	039H
	DB	0a6H
	DB	031H
	DB	0a7H
	DB	039H
	DB	0c7H
	DB	039H
	DB	0a7H
	DB	039H
	DB	0a7H
	DB	039H
	DB	0c7H
	DB	039H
	DB	0a6H
	DB	031H
	DB	0a7H
	DB	039H
	DB	0c7H
	DB	039H
	DB	0a7H
	DB	039H
	DB	0c7H
	DB	039H
	DB	0a7H
	DB	039H
	DB	0a7H
	DB	039H
	DB	0c6H
	DB	031H
	DB	0a7H
	DB	039H
	DB	0c7H
	DB	039H
	DB	0c7H
	DB	039H
	DB	0a7H
	DB	039H
	DB	0c7H
	DB	039H
	DB	0a6H
	DB	031H
	DB	0a7H
	DB	039H
	DB	0c7H
	DB	039H
	DB	0a6H
	DB	031H
	DB	0c7H
	DB	039H
	DB	0a7H
	DB	039H
	DB	0c7H
	DB	039H
	DB	0a6H
	DB	031H
	DB	0a7H
	DB	039H
	DB	0c7H
	DB	039H
	DB	0a6H
	DB	031H
	DB	0a7H
	DB	039H
	DB	0c7H
	DB	039H
	DB	0a6H
	DB	031H
	DB	0a7H
	DB	039H
	DB	0c7H
	DB	039H
	DB	0a7H
	DB	039H
	DB	0c7H
	DB	039H
	DB	0a6H
	DB	031H
	DB	0c7H
	DB	039H
	DB	0a7H
	DB	039H
	DB	0c6H
	DB	031H
	DB	0c7H
	DB	039H
	DB	0a6H
	DB	031H
	DB	0c6H
	DB	031H
	DB	0a7H
	DB	039H
	DB	0c7H
	DB	039H
	DB	0a6H
	DB	031H
	DB	0a7H
	DB	039H
	DB	0c7H
	DB	039H
	DB	0a7H
	DB	039H
	DB	0c7H
	DB	039H
	DB	0c6H
	DB	031H
	DB	0a7H
	DB	039H
	DB	0c7H
	DB	039H
	DB	0c6H
	DB	031H
	DB	0a7H
	DB	039H
	DB	0a6H
	DB	031H
	DB	0c7H
	DB	039H
	DB	0a7H
	DB	039H
	DB	0c6H
	DB	031H
	DB	0c7H
	DB	039H
	DB	0a7H
	DB	039H
	DB	0a7H
	DB	039H
	DB	0c6H
	DB	031H
	DB	0c7H
	DB	039H
	DB	0a6H
	DB	031H
	DB	0c7H
	DB	039H
	DB	0c6H
	DB	031H
	DB	0a6H
	DB	031H
	DB	0c7H
	DB	039H
	DB	0a7H
	DB	039H
	DB	0a7H
	DB	039H
	DB	0c6H
	DB	031H
	DB	0a7H
	DB	039H
	DB	0a7H
	DB	039H
	DB	0c6H
	DB	031H
	DB	0c7H
	DB	039H
	DB	0a7H
	DB	039H
	DB	0c6H
	DB	031H
	DB	0a6H
	DB	031H
	DB	0a7H
	DB	039H
	DB	0c7H
	DB	039H
	DB	0c6H
	DB	031H
	DB	0a7H
	DB	039H
	DB	0c7H
	DB	039H
	DB	0a6H
	DB	031H
	DB	0c7H
	DB	039H
	DB	0c7H
	DB	039H
	DB	0a6H
	DB	031H
	DB	0c7H
	DB	039H
	DB	0c7H
	DB	039H
	DB	0a6H
	DB	031H
	DB	0c6H
	DB	031H
	DB	0a7H
	DB	039H
	DB	0c7H
	DB	039H
	DB	0c7H
	DB	039H
	DB	0a7H
	DB	039H
	DB	0a7H
	DB	039H
	DB	0c6H
	DB	031H
	DB	0a7H
	DB	039H
	DB	0a7H
	DB	039H
	DB	0c6H
	DB	031H
	DB	0a7H
	DB	039H
	DB	0c7H
	DB	039H
	DB	0c6H
	DB	031H
	DB	0a7H
	DB	039H
	DB	0a7H
	DB	039H
	DB	0c6H
	DB	031H
	DB	0a7H
	DB	039H
	DB	0c7H
	DB	039H
	DB	0a6H
	DB	031H
	DB	0a7H
	DB	039H
	DB	0c6H
	DB	031H
	DB	0a7H
	DB	039H
	DB	0c6H
	DB	031H
	DB	0a6H
	DB	031H
	DB	0a7H
	DB	039H
	DB	0c7H
	DB	039H
	DB	0c6H
	DB	031H
	DB	0a7H
	DB	039H
	DB	0c7H
	DB	039H
	DB	0a7H
	DB	039H
	DB	0c6H
	DB	031H
	DB	0c7H
	DB	039H
	DB	0a7H
	DB	039H
	DB	0c6H
	DB	031H
	DB	0c7H
	DB	039H
	DB	0a7H
	DB	039H
	DB	0c6H
	DB	031H
	DB	0a7H
	DB	039H
	DB	0c7H
	DB	039H
	DB	0c6H
	DB	031H
	DB	0a7H
	DB	039H
	DB	0a7H
	DB	039H
	DB	0c6H
	DB	031H
	DB	0a7H
	DB	039H
	DB	0a6H
	DB	031H
	DB	0c7H
	DB	039H
	DB	0a6H
	DB	031H
	DB	0c6H
	DB	031H
	DB	0c7H
	DB	039H
	DB	0a7H
	DB	039H
	DB	0a6H
	DB	031H
	DB	0c7H
	DB	039H
	DB	0a7H
	DB	039H
	DB	0c7H
	DB	039H
	DB	0a6H
	DB	031H
	DB	0a7H
	DB	039H
	DB	0c7H
	DB	039H
	DB	0a6H
	DB	031H
	DB	0c7H
	DB	039H
	DB	0a7H
	DB	039H
	DB	0a6H
	DB	031H
	DB	0c7H
	DB	039H
	DB	0c7H
	DB	039H
	DB	0a6H
	DB	031H
	DB	0c7H
	DB	039H
	DB	0a7H
	DB	039H
	DB	0c6H
	DB	031H
	DB	0c7H
	DB	039H
	DB	0a6H
	DB	031H
	DB	0c7H
	DB	039H
	DB	0c6H
	DB	031H
	DB	0a6H
	DB	031H
	DB	0c7H
	DB	039H
	DB	0a7H
	DB	039H
	DB	0c6H
	DB	031H
	DB	0c7H
	DB	039H
	DB	0a7H
	DB	039H
	DB	0a7H
	DB	039H
	DB	0c6H
	DB	031H
	DB	0a7H
	DB	039H
	DB	0a7H
	DB	039H
	DB	0c6H
	DB	031H
	DB	0a7H
	DB	039H
	DB	0c7H
	DB	039H
	DB	0c6H
	DB	031H
	DB	0a7H
	DB	039H
	DB	0a7H
	DB	039H
	DB	0c6H
	DB	031H
	DB	0a7H
	DB	039H
	DB	0c7H
	DB	039H
	DB	0a6H
	DB	031H
	DB	0a7H
	DB	039H
	DB	0c6H
	DB	031H
	DB	0a7H
	DB	039H
	DB	0c6H
	DB	031H
	DB	0a6H
	DB	031H
	DB	0a7H
	DB	039H
	DB	0c7H
	DB	039H
	DB	0c6H
	DB	031H
	DB	0a7H
	DB	039H
	DB	0c7H
	DB	039H
	DB	0a7H
	DB	039H
	DB	0c6H
	DB	031H
	DB	0c7H
	DB	039H
	DB	0a7H
	DB	039H
	DB	0c6H
	DB	031H
	DB	0c7H
	DB	039H
	DB	0a7H
	DB	039H
	DB	0c6H
	DB	031H
	DB	0a7H
	DB	039H
	DB	0c7H
	DB	039H
	DB	0c6H
	DB	031H
	DB	0a7H
	DB	039H
	DB	0a7H
	DB	039H
	DB	0c6H
	DB	031H
	DB	0a7H
	DB	039H
	DB	0a6H
	DB	031H
	DB	0c7H
	DB	039H
	DB	0a6H
	DB	031H
	DB	0c6H
	DB	031H
	DB	0c7H
	DB	039H
	DB	0a7H
	DB	039H
	DB	0a6H
	DB	031H
	DB	0c7H
	DB	039H
	DB	0a7H
	DB	039H
	DB	0c7H
	DB	039H
	DB	0a6H
	DB	031H
	DB	0a7H
	DB	039H
	DB	0c7H
	DB	039H
	DB	0a6H
	DB	031H
	DB	0c7H
	DB	039H
	DB	0a7H
	DB	039H
	DB	0a6H
	DB	031H
	DB	0c7H
	DB	039H
	DB	0c7H
	DB	039H
	DB	0a6H
	DB	031H
	DB	0c7H
	DB	039H
	DB	0a7H
	DB	039H
	DB	0c6H
	DB	031H
	DB	0c7H
	DB	039H
	DB	0a6H
	DB	031H
	DB	0c7H
	DB	039H
	DB	0c6H
	DB	031H
	DB	0a6H
	DB	031H
	DB	0c7H
	DB	039H
	DB	0a7H
	DB	039H
	DB	0c6H
	DB	031H
	DB	0c7H
	DB	039H
	DB	0a7H
	DB	039H
	DB	0a7H
	DB	039H
	DB	0c6H
	DB	031H
	DB	0a7H
	DB	039H
	DB	0a7H
	DB	039H
	DB	0c6H
	DB	031H
	DB	0a7H
	DB	039H
	DB	0c7H
	DB	039H
	DB	0c6H
	DB	031H
	DB	0a7H
	DB	039H
	DB	0a7H
	DB	039H
	DB	0c6H
	DB	031H
	DB	0a7H
	DB	039H
	DB	0c7H
	DB	039H
	DB	0a6H
	DB	031H
	DB	0a7H
	DB	039H
	DB	0c6H
	DB	031H
	DB	0a7H
	DB	039H
	DB	0c6H
	DB	031H
	DB	0a6H
	DB	031H
	DB	0a7H
	DB	039H
	DB	0c7H
	DB	039H
	DB	0c6H
	DB	031H
	DB	0a7H
	DB	039H
	DB	0c7H
	DB	039H
	DB	0a7H
	DB	039H
	DB	0c6H
	DB	031H
	DB	0c7H
	DB	039H
	DB	0a7H
	DB	039H
	DB	0c6H
	DB	031H
	DB	0c7H
	DB	039H
	DB	0a7H
	DB	039H
	DB	0c6H
	DB	031H
	DB	0a7H
	DB	039H
	DB	0c7H
	DB	039H
	DB	0c6H
	DB	031H
	DB	0a7H
	DB	039H
	DB	0a7H
	DB	039H
	DB	0c6H
	DB	031H
	DB	0a7H
	DB	039H
	DB	0a6H
	DB	031H
	DB	0c7H
	DB	039H
	DB	0a6H
	DB	031H
	DB	0c6H
	DB	031H
	DB	0c7H
	DB	039H
	DB	0a7H
	DB	039H
	DB	0a6H
	DB	031H
	DB	0c7H
	DB	039H
	DB	0a7H
	DB	039H
	DB	0c7H
	DB	039H
	DB	0a6H
	DB	031H
	DB	0a7H
	DB	039H
	DB	0c7H
	DB	039H
	DB	0a6H
	DB	031H
	DB	0c7H
	DB	039H
	DB	0a7H
	DB	039H
	DB	0a6H
	DB	031H
	DB	0c7H
	DB	039H
	DB	0c7H
	DB	039H
	DB	0a6H
	DB	031H
	DB	0c7H
	DB	039H
	DB	0a7H
	DB	039H
	DB	0c6H
	DB	031H
	DB	0c7H
	DB	039H
	DB	0a6H
	DB	031H
	DB	0c7H
	DB	039H
	DB	0c6H
	DB	031H
	DB	0a6H
	DB	031H
	DB	0c7H
	DB	039H
	DB	0a7H
	DB	039H
	DB	0c6H
	DB	031H
	DB	0c7H
	DB	039H
	DB	0a7H
	DB	039H
	DB	0a7H
	DB	039H
	DB	0c6H
	DB	031H
	DB	0a7H
	DB	039H
	DB	0a7H
	DB	039H
	DB	0c6H
	DB	031H
	DB	0a7H
	DB	039H
	DB	0c7H
	DB	039H
	DB	0c6H
	DB	031H
	DB	0a7H
	DB	039H
	DB	0a7H
	DB	039H
	DB	0c6H
	DB	031H
	DB	0a7H
	DB	039H
	DB	0c7H
	DB	039H
	DB	0a6H
	DB	031H
	DB	0a7H
	DB	039H
	DB	0c6H
	DB	031H
	DB	0a7H
	DB	039H
	DB	0c6H
	DB	031H
	DB	0a6H
	DB	031H
	DB	0a7H
	DB	039H
	DB	0c7H
	DB	039H
	DB	0c6H
	DB	031H
	DB	0a7H
	DB	039H
	DB	0c7H
	DB	039H
	DB	0a7H
	DB	039H
	DB	0c6H
	DB	031H
	DB	0c7H
	DB	039H
	DB	0a7H
	DB	039H
	DB	0c6H
	DB	031H
	DB	0c7H
	DB	039H
	DB	0a7H
	DB	039H
	DB	0c6H
	DB	031H
	DB	0a7H
	DB	039H
	DB	0c7H
	DB	039H
	DB	0c6H
	DB	031H
	DB	0a7H
	DB	039H
	DB	0a7H
	DB	039H
	DB	0c6H
	DB	031H
	DB	0a7H
	DB	039H
	DB	0a6H
	DB	031H
	DB	0c7H
	DB	039H
	DB	0a6H
	DB	031H
	DB	0c6H
	DB	031H
	DB	0c7H
	DB	039H
	DB	0a7H
	DB	039H
	DB	0a6H
	DB	031H
	DB	0c7H
	DB	039H
	DB	0a7H
	DB	039H
	DB	0c7H
	DB	039H
	DB	0a6H
	DB	031H
	DB	0a7H
	DB	039H
	DB	0c7H
	DB	039H
	DB	0a6H
	DB	031H
	DB	0c7H
	DB	039H
	DB	0a7H
	DB	039H
	DB	0a6H
	DB	031H
	DB	0c7H
	DB	039H
	DB	0c7H
	DB	039H
	DB	0a6H
	DB	031H
	DB	0c7H
	DB	039H
	DB	0a7H
	DB	039H
	DB	0c6H
	DB	031H
	DB	0c7H
	DB	039H
	DB	0a6H
	DB	031H
	DB	0c7H
	DB	039H
	DB	0c6H
	DB	031H
	DB	0a6H
	DB	031H
	DB	0c7H
	DB	039H
	DB	0a7H
	DB	039H
	DB	0c6H
	DB	031H
	DB	0c7H
	DB	039H
	DB	0a7H
	DB	039H
	DB	0a7H
	DB	039H
	DB	0c6H
	DB	031H
	DB	0a7H
	DB	039H
	DB	0a7H
	DB	039H
	DB	0c6H
	DB	031H
	DB	0a7H
	DB	039H
	DB	0c7H
	DB	039H
	DB	0c6H
	DB	031H
	DB	0a7H
	DB	039H
	DB	0a7H
	DB	039H
	DB	0c6H
	DB	031H
	DB	0a7H
	DB	039H
	DB	0c7H
	DB	039H
	DB	0a6H
	DB	031H
	DB	0a7H
	DB	039H
	DB	0c6H
	DB	031H
	DB	0a7H
	DB	039H
	DB	0c6H
	DB	031H
	DB	0a6H
	DB	031H
	DB	0a7H
	DB	039H
	DB	0c7H
	DB	039H
	DB	0c6H
	DB	031H
	DB	0a7H
	DB	039H
	DB	0c7H
	DB	039H
	DB	0a7H
	DB	039H
	DB	0c6H
	DB	031H
	DB	0c7H
	DB	039H
	DB	0a7H
	DB	039H
	DB	0c6H
	DB	031H
	DB	0c7H
	DB	039H
	DB	0a7H
	DB	039H
	DB	0c6H
	DB	031H
	DB	0a7H
	DB	039H
	DB	0c7H
	DB	039H
	DB	0c6H
	DB	031H
	DB	0a7H
	DB	039H
	DB	0a7H
	DB	039H
	DB	0c6H
	DB	031H
	DB	0a7H
	DB	039H
	DB	0a6H
	DB	031H
	DB	0c7H
	DB	039H
	DB	0a6H
	DB	031H
	DB	0c6H
	DB	031H
	DB	0c7H
	DB	039H
	DB	0a7H
	DB	039H
	DB	0a6H
	DB	031H
	DB	0c7H
	DB	039H
	DB	0a7H
	DB	039H
	DB	0c7H
	DB	039H
	DB	0a6H
	DB	031H
	DB	0a7H
	DB	039H
	DB	0c7H
	DB	039H
	DB	0a6H
	DB	031H
	DB	0c7H
	DB	039H
	DB	0a7H
	DB	039H
	DB	0a6H
	DB	031H
	DB	0c7H
	DB	039H
	DB	0c7H
	DB	039H
	DB	0a6H
	DB	031H
	DB	0c7H
	DB	039H
	DB	0a7H
	DB	039H
	DB	0c6H
	DB	031H
	DB	0c7H
	DB	039H
	DB	0a6H
	DB	031H
	DB	0c7H
	DB	039H
	DB	0c6H
	DB	031H
	DB	0a6H
	DB	031H
	DB	0c7H
	DB	039H
	DB	0a7H
	DB	039H
	DB	0c6H
	DB	031H
	DB	0c7H
	DB	039H
	DB	0a7H
	DB	039H
	DB	0a7H
	DB	039H
	DB	0c6H
	DB	031H
	DB	0a7H
	DB	039H
	DB	0a7H
	DB	039H
	DB	0c6H
	DB	031H
	DB	0a7H
	DB	039H
	DB	0c7H
	DB	039H
	DB	0c6H
	DB	031H
	DB	0a7H
	DB	039H
	DB	0a7H
	DB	039H
	DB	0c6H
	DB	031H
	DB	0a7H
	DB	039H
	DB	0c7H
	DB	039H
	DB	0a6H
	DB	031H
	DB	0a7H
	DB	039H
	DB	0c6H
	DB	031H
	DB	0a7H
	DB	039H
	DB	0c6H
	DB	031H
	DB	0a6H
	DB	031H
	DB	0a7H
	DB	039H
	DB	0c7H
	DB	039H
	DB	0c6H
	DB	031H
	DB	0a7H
	DB	039H
	DB	0c7H
	DB	039H
	DB	0a7H
	DB	039H
	DB	0c6H
	DB	031H
	DB	0c7H
	DB	039H
	DB	0a7H
	DB	039H
	DB	0c6H
	DB	031H
	DB	0c7H
	DB	039H
	DB	0a7H
	DB	039H
	DB	0c6H
	DB	031H
	DB	0a7H
	DB	039H
	DB	0c7H
	DB	039H
	DB	0c6H
	DB	031H
	DB	0a7H
	DB	039H
	DB	0a7H
	DB	039H
	DB	0c6H
	DB	031H
	DB	0a7H
	DB	039H
	DB	0c7H
	DB	039H
	DB	0a6H
	DB	031H
	DB	0c7H
	DB	039H
	DB	0c7H
	DB	039H
	DB	0a7H
	DB	039H
	DB	0c6H
	DB	031H
	DB	0a7H
	DB	039H
	DB	0a7H
	DB	039H
	DB	0c7H
	DB	039H
	DB	0c7H
	DB	039H
	DB	0a7H
	DB	039H
	DB	0c7H
	DB	039H
	DB	0c7H
	DB	039H
	DB	0a7H
	DB	039H
	DB	0c6H
	DB	031H
	DB	0c7H
	DB	039H
	DB	0a7H
	DB	039H
	DB	0c6H
	DB	031H
	DB	0a7H
	DB	039H
	DB	0c7H
	DB	039H
	DB	0a6H
	DB	031H
	DB	0c7H
	DB	039H
	DB	0a7H
	DB	039H
	DB	0a7H
	DB	039H
	DB	0c7H
	DB	039H
	DB	0a7H
	DB	039H
	DB	0a7H
	DB	039H
	DB	0c7H
	DB	039H
	DB	0c7H
	DB	039H
	DB	0a6H
	DB	031H
	DB	0c7H
	DB	039H
	DB	0c6H
	DB	031H
	DB	0a7H
	DB	039H
	DB	0a7H
	DB	039H
	DB	0c6H
	DB	031H
	DB	0a7H
	DB	039H
	DB	0a7H
	DB	039H
	DB	0c7H
	DB	039H
	DB	0c7H
	DB	039H
	DB	0a7H
	DB	039H
	DB	0c6H
	DB	031H
	DB	0a7H
	DB	039H
	DB	0a7H
	DB	039H
	DB	0c6H
	DB	031H
	DB	0c7H
	DB	039H
	DB	0a7H
	DB	039H
	DB	0c6H
	DB	031H
	DB	0a7H
	DB	039H
	DB	0a7H
	DB	039H
	DB	0c7H
	DB	039H
	DB	0a7H
	DB	039H
	DB	0a7H
	DB	039H
	DB	0c7H
	DB	039H
	DB	0c6H
	DB	031H
	DB	0a7H
	DB	039H
	DB	0c7H
	DB	039H
	DB	0c6H
	DB	031H
	DB	0a7H
	DB	039H
	DB	0a7H
	DB	039H
	DB	0c6H
	DB	031H
	DB	0a7H
	DB	039H
	DB	0a7H
	DB	039H
	DB	0c7H
	DB	039H
	DB	0c7H
	DB	039H
	DB	0a7H
	DB	039H
	DB	0a6H
	DB	031H
	DB	0c7H
	DB	039H
	DB	0a7H
	DB	039H
	DB	0c7H
	DB	039H
	DB	0c7H
	DB	039H
	DB	0a7H
	DB	039H
	DB	0a7H
	DB	039H
	DB	0c7H
	DB	039H
	DB	0a6H
	DB	031H
	DB	0a7H
	DB	039H
	DB	0c7H
	DB	039H
	DB	0a7H
	DB	039H
	DB	0c6H
	DB	031H
	DB	0a7H
	DB	039H
	DB	0c6H
	DB	031H
	DB	0c7H
	DB	039H
	DB	0a7H
	DB	039H
	DB	0c6H
	DB	031H
	DB	0c7H
	DB	039H
	DB	0a7H
	DB	039H
	DB	0c7H
	DB	039H
	DB	0a7H
	DB	039H
	DB	0a7H
	DB	039H
	DB	0c6H
	DB	031H
	DB	0c7H
	DB	039H
	DB	0a7H
	DB	039H
	DB	0c6H
	DB	031H
	DB	0a7H
	DB	039H
	DB	0a7H
	DB	039H
	DB	0c7H
	DB	039H
	DB	0c7H
	DB	039H
	DB	0a7H
	DB	039H
	DB	0c7H
	DB	039H
	DB	0c7H
	DB	039H
	DB	0a7H
	DB	039H
	DB	0c7H
	DB	039H
	DB	0a6H
	DB	031H
	DB	0a7H
	DB	039H
	DB	0c7H
	DB	039H
	DB	0c7H
	DB	039H
	DB	0a7H
	DB	039H
	DB	0a6H
	DB	031H
	DB	0c7H
	DB	039H
	DB	0a7H
	DB	039H
	DB	0a7H
	DB	039H
	DB	0c7H
	DB	039H
	DB	0c7H
	DB	039H
	DB	0a6H
	DB	031H
	DB	0a7H
	DB	039H
	DB	0c7H
	DB	039H
	DB	0c6H
	DB	031H
	DB	0a7H
	DB	039H
	DB	0c7H
	DB	039H
	DB	0c7H
	DB	039H
	DB	0a7H
	DB	039H
	DB	0c7H
	DB	039H
	DB	0c7H
	DB	039H
	DB	0a7H
	DB	039H
	DB	0a7H
	DB	039H
	DB	0c7H
	DB	039H
	DB	0c6H
	DB	031H
	DB	0a7H
	DB	039H
	DB	0c7H
	DB	039H
	DB	0a7H
	DB	039H
	DB	0a7H
	DB	039H
	DB	0c6H
	DB	031H
	DB	0c7H
	DB	039H
	DB	0a7H
	DB	039H
	DB	0c7H
	DB	039H
	DB	0c7H
	DB	039H
	DB	0a7H
	DB	039H
	DB	0c6H
	DB	031H
	DB	0a7H
	DB	039H
	DB	0a7H
	DB	039H
	DB	0c6H
	DB	031H
	DB	0c7H
	DB	039H
	DB	0a7H
	DB	039H
	DB	0a7H
	DB	039H
	DB	0c7H
	DB	039H
	DB	0a7H
	DB	039H
	DB	0a7H
	DB	039H
	DB	0c7H
	DB	039H
	DB	0c7H
	DB	039H
	DB	0a7H
	DB	039H
	DB	0a6H
	DB	031H
	DB	0c7H
	DB	039H
	DB	0c7H
	DB	039H
	DB	0a7H
	DB	039H
	DB	0c7H
	DB	039H
	DB	0c6H
	DB	031H
	DB	0a7H
	DB	039H
	DB	0c7H
	DB	039H
	DB	0c7H
	DB	039H
	DB	0a7H
	DB	039H
	DB	0a7H
	DB	039H
	DB	0c6H
	DB	031H
	DB	0c7H
	DB	039H
	DB	0a7H
	DB	039H
	DB	0c6H
	DB	031H
	DB	0a7H
	DB	039H
	DB	0a7H
	DB	039H
	DB	0c7H
	DB	039H
	DB	0c7H
	DB	039H
	DB	0a7H
	DB	039H
	DB	0c7H
	DB	039H
	DB	0c7H
	DB	039H
	DB	0a7H
	DB	039H
	DB	0c7H
	DB	039H
	DB	0a6H
	DB	031H
	DB	0a7H
	DB	039H
	DB	0c7H
	DB	039H
	DB	0c7H
	DB	039H
	DB	0a7H
	DB	039H
	DB	0a6H
	DB	031H
	DB	0c7H
	DB	039H
	DB	0a7H
	DB	039H
	DB	0a7H
	DB	039H
	DB	0c7H
	DB	039H
	DB	0c7H
	DB	039H
	DB	0a6H
	DB	031H
	DB	0a7H
	DB	039H
	DB	0c7H
	DB	039H
	DB	0c6H
	DB	031H
	DB	0a7H
	DB	039H
	DB	0c7H
	DB	039H
	DB	0c7H
	DB	039H
	DB	0a7H
	DB	039H
	DB	0c7H
	DB	039H
	DB	0c7H
	DB	039H
	DB	0a7H
	DB	039H
	DB	0a7H
	DB	039H
	DB	0c7H
	DB	039H
	DB	0c6H
	DB	031H
	DB	0a7H
	DB	039H
	DB	0c7H
	DB	039H
	DB	0a7H
	DB	039H
	DB	0a7H
	DB	039H
	DB	0c6H
	DB	031H
	DB	0c7H
	DB	039H
	DB	0a7H
	DB	039H
	DB	0c7H
	DB	039H
	DB	0c7H
	DB	039H
	DB	0a7H
	DB	039H
	DB	0c6H
	DB	031H
	DB	0a7H
	DB	039H
	DB	0a7H
	DB	039H
	DB	0c6H
	DB	031H
	DB	0c7H
	DB	039H
	DB	0a7H
	DB	039H
	DB	0a7H
	DB	039H
	DB	0c7H
	DB	039H
	DB	0a7H
	DB	039H
	DB	0a7H
	DB	039H
	DB	0c7H
	DB	039H
	DB	0c7H
	DB	039H
	DB	0a7H
	DB	039H
	DB	0a6H
	DB	031H
	DB	0c7H
	DB	039H
	DB	0c7H
	DB	039H
	DB	0a7H
	DB	039H
	DB	0c7H
	DB	039H
	DB	0c6H
	DB	031H
	DB	0a7H
	DB	039H
	DB	0c7H
	DB	039H
	DB	0c7H
	DB	039H
	DB	0a7H
	DB	039H
	DB	0a7H
	DB	039H
	DB	0c6H
	DB	031H
	DB	0c7H
	DB	039H
	DB	0a7H
	DB	039H
	DB	0c6H
	DB	031H
	DB	0a7H
	DB	039H
	DB	0a7H
	DB	039H
	DB	0c7H
	DB	039H
	DB	0c7H
	DB	039H
	DB	0a7H
	DB	039H
	DB	0c7H
	DB	039H
	DB	0c7H
	DB	039H
	DB	0a7H
	DB	039H
	DB	0c7H
	DB	039H
	DB	0a6H
	DB	031H
	DB	0a7H
	DB	039H
	DB	0c7H
	DB	039H
	DB	0c7H
	DB	039H
	DB	0a7H
	DB	039H
	DB	0a6H
	DB	031H
	DB	0c7H
	DB	039H
	DB	0a7H
	DB	039H
	DB	0a7H
	DB	039H
	DB	0c7H
	DB	039H
	DB	0c7H
	DB	039H
	DB	0a6H
	DB	031H
	DB	0a7H
	DB	039H
	DB	0c7H
	DB	039H
	DB	0c6H
	DB	031H
	DB	0a7H
	DB	039H
	DB	0c7H
	DB	039H
	DB	0c7H
	DB	039H
	DB	0a7H
	DB	039H
	DB	0c7H
	DB	039H
	DB	0c7H
	DB	039H
	DB	0a7H
	DB	039H
	DB	0a7H
	DB	039H
	DB	0c7H
	DB	039H
	DB	0c6H
	DB	031H
	DB	0a7H
	DB	039H
	DB	0c7H
	DB	039H
	DB	0a7H
	DB	039H
	DB	0a7H
	DB	039H
	DB	0c6H
	DB	031H
	DB	0c7H
	DB	039H
	DB	0a7H
	DB	039H
	DB	0c7H
	DB	039H
	DB	0c7H
	DB	039H
	DB	0a7H
	DB	039H
	DB	0c6H
	DB	031H
	DB	0a7H
	DB	039H
	DB	0a7H
	DB	039H
	DB	0c6H
	DB	031H
	DB	0c7H
	DB	039H
	DB	0a7H
	DB	039H
	DB	0a7H
	DB	039H
	DB	0c7H
	DB	039H
	DB	0a7H
	DB	039H
	DB	0a7H
	DB	039H
	DB	0c7H
	DB	039H
	DB	0c7H
	DB	039H
	DB	0a7H
	DB	039H
	DB	0a6H
	DB	031H
	DB	0c7H
	DB	039H
	DB	0c7H
	DB	039H
	DB	0a7H
	DB	039H
	DB	0c7H
	DB	039H
	DB	0c6H
	DB	031H
	DB	0a7H
	DB	039H
	DB	0c7H
	DB	039H
	DB	0c7H
	DB	039H
	DB	0a7H
	DB	039H
	DB	0a7H
	DB	039H
	DB	0c6H
	DB	031H
	DB	0c7H
	DB	039H
	DB	0a7H
	DB	039H
	DB	0c6H
	DB	031H
	DB	0a7H
	DB	039H
	DB	0a7H
	DB	039H
	DB	0c7H
	DB	039H
	DB	0c7H
	DB	039H
	DB	0a7H
	DB	039H
	DB	0c7H
	DB	039H
	DB	0c7H
	DB	039H
	DB	0a7H
	DB	039H
	DB	0c7H
	DB	039H
	DB	0a6H
	DB	031H
	DB	0a7H
	DB	039H
	DB	0c7H
	DB	039H
	DB	0c7H
	DB	039H
	DB	0a7H
	DB	039H
	DB	0a6H
	DB	031H
	DB	0c7H
	DB	039H
	DB	0a7H
	DB	039H
	DB	0a7H
	DB	039H
	DB	0c7H
	DB	039H
	DB	0c7H
	DB	039H
	DB	0a6H
	DB	031H
	DB	0a7H
	DB	039H
	DB	0c7H
	DB	039H
	DB	0c6H
	DB	031H
	DB	0a7H
	DB	039H
	DB	0c7H
	DB	039H
	DB	0c7H
	DB	039H
	DB	0a7H
	DB	039H
	DB	0c7H
	DB	039H
	DB	0c7H
	DB	039H
	DB	0a7H
	DB	039H
	DB	0a7H
	DB	039H
	DB	0c7H
	DB	039H
	DB	0c6H
	DB	031H
	DB	0a7H
	DB	039H
	DB	0c7H
	DB	039H
	DB	0a7H
	DB	039H
	DB	0a7H
	DB	039H
	DB	0c6H
	DB	031H
	DB	0c7H
	DB	039H
	DB	0a7H
	DB	039H
	DB	0c7H
	DB	039H
	DB	0c7H
	DB	039H
	DB	0a7H
	DB	039H
	DB	0c6H
	DB	031H
	DB	0a7H
	DB	039H
	DB	0a7H
	DB	039H
	DB	0c6H
	DB	031H
	DB	0c7H
	DB	039H
	DB	0a7H
	DB	039H
	DB	0a7H
	DB	039H
	DB	0c7H
	DB	039H
	DB	0a7H
	DB	039H
	DB	0a7H
	DB	039H
	DB	0c7H
	DB	039H
	DB	0c7H
	DB	039H
	DB	0a7H
	DB	039H
	DB	0a6H
	DB	031H
	DB	0c7H
	DB	039H
	DB	0c7H
	DB	039H
	DB	0a7H
	DB	039H
	DB	0c7H
	DB	039H
	DB	0c6H
	DB	031H
	DB	0a7H
	DB	039H
	DB	0c7H
	DB	039H
	DB	0c7H
	DB	039H
	DB	0a7H
	DB	039H
	DB	0a7H
	DB	039H
	DB	0c6H
	DB	031H
	DB	0c7H
	DB	039H
	DB	0a7H
	DB	039H
	DB	0c6H
	DB	031H
	DB	0a7H
	DB	039H
	DB	0a7H
	DB	039H
	DB	0c7H
	DB	039H
	DB	0c7H
	DB	039H
	DB	0a7H
	DB	039H
	DB	0c7H
	DB	039H
	DB	0c7H
	DB	039H
	DB	0a7H
	DB	039H
	DB	0c7H
	DB	039H
	DB	0a6H
	DB	031H
	DB	0a7H
	DB	039H
	DB	0c7H
	DB	039H
	DB	0c7H
	DB	039H
	DB	0a7H
	DB	039H
	DB	0a6H
	DB	031H
	DB	0c7H
	DB	039H
	DB	0a7H
	DB	039H
	DB	0a7H
	DB	039H
	DB	0c7H
	DB	039H
	DB	0c7H
	DB	039H
	DB	0a6H
	DB	031H
	DB	0a7H
	DB	039H
	DB	0c7H
	DB	039H
	DB	0c6H
	DB	031H
	DB	0a7H
	DB	039H
	DB	0c7H
	DB	039H
	DB	0c7H
	DB	039H
	DB	0a7H
	DB	039H
	DB	0c7H
	DB	039H
	DB	0c7H
	DB	039H
	DB	0a7H
	DB	039H
	DB	0a7H
	DB	039H
	DB	0c7H
	DB	039H
	DB	0c6H
	DB	031H
	DB	0a7H
	DB	039H
	DB	0c7H
	DB	039H
	DB	0a7H
	DB	039H
	DB	0a7H
	DB	039H
	DB	0c6H
	DB	031H
	DB	0c7H
	DB	039H
	DB	0a7H
	DB	039H
	DB	0c7H
	DB	039H
	DB	0c7H
	DB	039H
	DB	0a7H
	DB	039H
	DB	0c6H
	DB	031H
	DB	0a7H
	DB	039H
	DB	0a7H
	DB	039H
	DB	0c6H
	DB	031H
	DB	0c7H
	DB	039H
	DB	0a7H
	DB	039H
	DB	0a7H
	DB	039H
	DB	0c7H
	DB	039H
	DB	0a7H
	DB	039H
	DB	0a7H
	DB	039H
	DB	0c7H
	DB	039H
	DB	0c7H
	DB	039H
	DB	0a7H
	DB	039H
	DB	0a6H
	DB	031H
	DB	0c7H
	DB	039H
	DB	0c7H
	DB	039H
	DB	0a7H
	DB	039H
	DB	0c7H
	DB	039H
	DB	0c6H
	DB	031H
	DB	0a7H
	DB	039H
	DB	0c7H
	DB	039H
	DB	0c7H
	DB	039H
	DB	0a7H
	DB	039H
	DB	0a7H
	DB	039H
	DB	0c6H
	DB	031H
	DB	0c7H
	DB	039H
	DB	0a7H
	DB	039H
	DB	0c6H
	DB	031H
	DB	0a7H
	DB	039H
	DB	0a7H
	DB	039H
	DB	0c7H
	DB	039H
	DB	0c7H
	DB	039H
	DB	0a7H
	DB	039H
	DB	0c7H
	DB	039H
	DB	0c7H
	DB	039H
	DB	0a7H
	DB	039H
	DB	0c7H
	DB	039H
	DB	0a6H
	DB	031H
	DB	0a7H
	DB	039H
	DB	0c7H
	DB	039H
	DB	0c7H
	DB	039H
	DB	0a7H
	DB	039H
	DB	0a6H
	DB	031H
	DB	0c7H
	DB	039H
	DB	0a7H
	DB	039H
	DB	0a7H
	DB	039H
	DB	0c7H
	DB	039H
	DB	0c7H
	DB	039H
	DB	0a6H
	DB	031H
	DB	0a7H
	DB	039H
	DB	0c7H
	DB	039H
	DB	0c6H
	DB	031H
	DB	0a7H
	DB	039H
	DB	0c7H
	DB	039H
	DB	0c7H
	DB	039H
	DB	0a7H
	DB	039H
	DB	0a6H
	DB	031H
	DB	0c7H
	DB	039H
	DB	0a7H
	DB	039H
	DB	0c7H
	DB	039H
	DB	0c6H
	DB	031H
	DB	0a7H
	DB	039H
	DB	0c7H
	DB	039H
	DB	0a7H
	DB	039H
	DB	0a7H
	DB	039H
	DB	0a6H
	DB	031H
	DB	0c7H
	DB	039H
	DB	0a6H
	DB	031H
	DB	0a7H
	DB	039H
	DB	0c7H
	DB	039H
	DB	0a7H
	DB	039H
	DB	0a7H
	DB	039H
	DB	0c7H
	DB	039H
	DB	0c6H
	DB	031H
	DB	0a7H
	DB	039H
	DB	0a7H
	DB	039H
	DB	0c7H
	DB	039H
	DB	0c7H
	DB	039H
	DB	0a6H
	DB	031H
	DB	0c7H
	DB	039H
	DB	0c7H
	DB	039H
	DB	0a6H
	DB	031H
	DB	0c7H
	DB	039H
	DB	0a7H
	DB	039H
	DB	0a7H
	DB	039H
	DB	0c7H
	DB	039H
	DB	0a7H
	DB	039H
	DB	0c7H
	DB	039H
	DB	0a6H
	DB	031H
	DB	0c7H
	DB	039H
	DB	0c7H
	DB	039H
	DB	0a7H
	DB	039H
	DB	0c6H
	DB	031H
	DB	0a7H
	DB	039H
	DB	0a7H
	DB	039H
	DB	0c7H
	DB	039H
	DB	0c7H
	DB	039H
	DB	0a7H
	DB	039H
	DB	0c7H
	DB	039H
	DB	0a6H
	DB	031H
	DB	0a7H
	DB	039H
	DB	0c7H
	DB	039H
	DB	0c7H
	DB	039H
	DB	0a7H
	DB	039H
	DB	0c7H
	DB	039H
	DB	0c6H
	DB	031H
	DB	0a7H
	DB	039H
	DB	0a7H
	DB	039H
	DB	0c7H
	DB	039H
	DB	0a7H
	DB	039H
	DB	0a7H
	DB	039H
	DB	0c7H
	DB	039H
	DB	0c7H
	DB	039H
	DB	0a7H
	DB	039H
	DB	0c7H
	DB	039H
	DB	0c7H
	DB	039H
	DB	0a7H
	DB	039H
	DB	0c6H
	DB	031H
	DB	0a7H
	DB	039H
	DB	0c7H
	DB	039H
	DB	0c6H
	DB	031H
	DB	0a7H
	DB	039H
	DB	0a7H
	DB	039H
	DB	0c6H
	DB	031H
	DB	0a7H
	DB	039H
	DB	0a6H
	DB	031H
	DB	0c7H
	DB	039H
	DB	0c7H
	DB	039H
	DB	0a6H
	DB	031H
	DB	0c7H
	DB	039H
	DB	0c7H
	DB	039H
	DB	0a7H
	DB	039H
	DB	0c7H
	DB	039H
	DB	0a7H
	DB	039H
	DB	0a7H
	DB	039H
	DB	0c6H
	DB	031H
	DB	0a7H
	DB	039H
	DB	0a7H
	DB	039H
	DB	0c7H
	DB	039H
	DB	0a6H
	DB	031H
	DB	0c7H
	DB	039H
	DB	0c7H
	DB	039H
	DB	0a6H
	DB	031H
	DB	0a7H
	DB	039H
	DB	0c7H
	DB	039H
	DB	0a7H
	DB	039H
	DB	0c7H
	DB	039H
	DB	0c7H
	DB	039H
	DB	0a7H
	DB	039H
	DB	0c6H
	DB	031H
	DB	0c7H
	DB	039H
	DB	0a7H
	DB	039H
	DB	0a6H
	DB	031H
	DB	0c7H
	DB	039H
	DB	0a7H
	DB	039H
	DB	0c7H
	DB	039H
	DB	0c6H
	DB	031H
	DB	0a7H
	DB	039H
	DB	0a7H
	DB	039H
	DB	0c6H
	DB	031H
	DB	0a7H
	DB	039H
	DB	0c7H
	DB	039H
	DB	0c7H
	DB	039H
	DB	0a6H
	DB	031H
	DB	0c7H
	DB	039H
	DB	0a6H
	DB	031H
	DB	0a7H
	DB	039H
	DB	0c7H
	DB	039H
	DB	0a7H
	DB	039H
	DB	0c7H
	DB	039H
	DB	0a7H
	DB	039H
	DB	0a7H
	DB	039H
	DB	0c7H
	DB	039H
	DB	0a6H
	DB	031H
	DB	0a7H
	DB	039H
	DB	0c7H
	DB	039H
	DB	0a6H
	DB	031H
	DB	0c7H
	DB	039H
	DB	0a7H
	DB	039H
	DB	0a7H
	DB	039H
	DB	0c6H
	DB	031H
	DB	0a7H
	DB	039H
	DB	0c7H
	DB	039H
	DB	0c6H
	DB	031H
	DB	0a7H
	DB	039H
	DB	0c7H
	DB	039H
	DB	0c7H
	DB	039H
	DB	0a6H
	DB	031H
	DB	0a7H
	DB	039H
	DB	0c6H
	DB	031H
	DB	0a7H
	DB	039H
	DB	0c7H
	DB	039H
	DB	0c7H
	DB	039H
	DB	0a7H
	DB	039H
	DB	0a7H
	DB	039H
	DB	0c7H
	DB	039H
	DB	0a7H
	DB	039H
	DB	0c6H
	DB	031H
	DB	0c7H
	DB	039H
	DB	0a7H
	DB	039H
	DB	0c6H
	DB	031H
	DB	0a7H
	DB	039H
	DB	0a7H
	DB	039H
	DB	0c7H
	DB	039H
	DB	0a6H
	DB	031H
	DB	0c7H
	DB	039H
	DB	0a7H
	DB	039H
	DB	0a6H
	DB	031H
	DB	0c7H
	DB	039H
	DB	0a7H
	DB	039H
	DB	0a7H
	DB	039H
	DB	0c6H
	DB	031H
	DB	0a7H
	DB	039H
	DB	0c6H
	DB	031H
	DB	0a7H
	DB	039H
	DB	0a7H
	DB	039H
	DB	0c7H
	DB	039H
	DB	0a7H
	DB	039H
	DB	0c7H
	DB	039H
	DB	0c7H
	DB	039H
	DB	0a7H
	DB	039H
	DB	0c6H
	DB	031H
	DB	0c7H
	DB	039H
	DB	0a7H
	DB	039H
	DB	0a6H
	DB	031H
	DB	0c7H
	DB	039H
	DB	0a7H
	DB	039H
	DB	0c7H
	DB	039H
	DB	0c6H
	DB	031H
	DB	0a7H
	DB	039H
	DB	0a7H
	DB	039H
	DB	0c6H
	DB	031H
	DB	0a7H
	DB	039H
	DB	0c7H
	DB	039H
	DB	0c7H
	DB	039H
	DB	0a6H
	DB	031H
	DB	0c7H
	DB	039H
	DB	0a6H
	DB	031H
	DB	0a7H
	DB	039H
	DB	0c7H
	DB	039H
	DB	0a7H
	DB	039H
	DB	0c7H
	DB	039H
	DB	0a7H
	DB	039H
	DB	0a7H
	DB	039H
	DB	0c7H
	DB	039H
	DB	0a6H
	DB	031H
	DB	0a7H
	DB	039H
	DB	0c7H
	DB	039H
	DB	0a6H
	DB	031H
	DB	0c7H
	DB	039H
	DB	0a7H
	DB	039H
	DB	0a7H
	DB	039H
	DB	0c6H
	DB	031H
	DB	0a7H
	DB	039H
	DB	0c7H
	DB	039H
	DB	0c6H
	DB	031H
	DB	0a7H
	DB	039H
	DB	0c7H
	DB	039H
	DB	0c7H
	DB	039H
	DB	0a6H
	DB	031H
	DB	0a7H
	DB	039H
	DB	0c6H
	DB	031H
	DB	0a7H
	DB	039H
	DB	0c7H
	DB	039H
	DB	0c7H
	DB	039H
	DB	0a7H
	DB	039H
	DB	0a7H
	DB	039H
	DB	0c7H
	DB	039H
	DB	0a7H
	DB	039H
	DB	0c6H
	DB	031H
	DB	0c7H
	DB	039H
	DB	0a7H
	DB	039H
	DB	0c6H
	DB	031H
	DB	0a7H
	DB	039H
	DB	0a7H
	DB	039H
	DB	0c7H
	DB	039H
	DB	0a6H
	DB	031H
	DB	0c7H
	DB	039H
	DB	0a7H
	DB	039H
	DB	0a6H
	DB	031H
	DB	0c7H
	DB	039H
	DB	0a7H
	DB	039H
	DB	0a7H
	DB	039H
	DB	0c6H
	DB	031H
	DB	0a7H
	DB	039H
	DB	0c6H
	DB	031H
	DB	0a7H
	DB	039H
	DB	0a7H
	DB	039H
	DB	0c7H
	DB	039H
	DB	0a7H
	DB	039H
	DB	0c7H
	DB	039H
	DB	0c7H
	DB	039H
	DB	0a7H
	DB	039H
	DB	0c6H
	DB	031H
	DB	0c7H
	DB	039H
	DB	0a7H
	DB	039H
	DB	0a6H
	DB	031H
	DB	0c7H
	DB	039H
	DB	0a7H
	DB	039H
	DB	0c7H
	DB	039H
	DB	0c6H
	DB	031H
	DB	0a7H
	DB	039H
	DB	0a7H
	DB	039H
	DB	0c6H
	DB	031H
	DB	0a7H
	DB	039H
	DB	0c7H
	DB	039H
	DB	0c7H
	DB	039H
	DB	0a6H
	DB	031H
	DB	0c7H
	DB	039H
	DB	0a6H
	DB	031H
	DB	0a7H
	DB	039H
	DB	0c7H
	DB	039H
	DB	0a7H
	DB	039H
	DB	0c7H
	DB	039H
	DB	0a7H
	DB	039H
	DB	0a7H
	DB	039H
	DB	0c7H
	DB	039H
	DB	0a6H
	DB	031H
	DB	0a7H
	DB	039H
	DB	0c7H
	DB	039H
	DB	0a6H
	DB	031H
	DB	0c7H
	DB	039H
	DB	0a7H
	DB	039H
	DB	0a7H
	DB	039H
	DB	0c6H
	DB	031H
	DB	0a7H
	DB	039H
	DB	0c7H
	DB	039H
	DB	0c6H
	DB	031H
	DB	0a7H
	DB	039H
	DB	0c7H
	DB	039H
	DB	0c7H
	DB	039H
	DB	0a6H
	DB	031H
	DB	0a7H
	DB	039H
	DB	0c6H
	DB	031H
	DB	0a7H
	DB	039H
	DB	0c7H
	DB	039H
	DB	0c7H
	DB	039H
	DB	0a7H
	DB	039H
	DB	0a7H
	DB	039H
	DB	0c7H
	DB	039H
	DB	0a7H
	DB	039H
	DB	0c6H
	DB	031H
	DB	0c7H
	DB	039H
	DB	0a7H
	DB	039H
	DB	0c6H
	DB	031H
	DB	0a7H
	DB	039H
	DB	0a7H
	DB	039H
	DB	0c7H
	DB	039H
	DB	0a6H
	DB	031H
	DB	0c7H
	DB	039H
	DB	0a7H
	DB	039H
	DB	0a6H
	DB	031H
	DB	0c7H
	DB	039H
	DB	0a7H
	DB	039H
	DB	0a7H
	DB	039H
	DB	0c6H
	DB	031H
	DB	0a7H
	DB	039H
	DB	0c6H
	DB	031H
	DB	0a7H
	DB	039H
	DB	0a7H
	DB	039H
	DB	0c7H
	DB	039H
	DB	0a7H
	DB	039H
	DB	0c7H
	DB	039H
	DB	0c7H
	DB	039H
	DB	0a7H
	DB	039H
	DB	0c6H
	DB	031H
	DB	0c7H
	DB	039H
	DB	0a7H
	DB	039H
	DB	0a6H
	DB	031H
	DB	0c7H
	DB	039H
	DB	0a7H
	DB	039H
	DB	0c7H
	DB	039H
	DB	0c6H
	DB	031H
	DB	0a7H
	DB	039H
	DB	0a7H
	DB	039H
	DB	0c6H
	DB	031H
	DB	0a7H
	DB	039H
	DB	0c7H
	DB	039H
	DB	0c7H
	DB	039H
	DB	0a6H
	DB	031H
	DB	0c7H
	DB	039H
	DB	0a6H
	DB	031H
	DB	0a7H
	DB	039H
	DB	0c7H
	DB	039H
	DB	0a7H
	DB	039H
	DB	0c7H
	DB	039H
	DB	0a7H
	DB	039H
	DB	0a7H
	DB	039H
	DB	0c7H
	DB	039H
	DB	0a6H
	DB	031H
	DB	0a7H
	DB	039H
	DB	0c7H
	DB	039H
	DB	0a6H
	DB	031H
	DB	0c7H
	DB	039H
	DB	0a7H
	DB	039H
	DB	0a7H
	DB	039H
	DB	0c6H
	DB	031H
	DB	0a7H
	DB	039H
	DB	0c7H
	DB	039H
	DB	0c6H
	DB	031H
	DB	0a7H
	DB	039H
	DB	0c7H
	DB	039H
	DB	0c7H
	DB	039H
	DB	0a6H
	DB	031H
	DB	0a7H
	DB	039H
	DB	0c6H
	DB	031H
	DB	0a7H
	DB	039H
	DB	0c7H
	DB	039H
	DB	0c7H
	DB	039H
	DB	0a7H
	DB	039H
	DB	0a7H
	DB	039H
	DB	0c7H
	DB	039H
	DB	0a7H
	DB	039H
	DB	0c6H
	DB	031H
	DB	0c7H
	DB	039H
	DB	0a7H
	DB	039H
	DB	0c6H
	DB	031H
	DB	0a7H
	DB	039H
	DB	0a7H
	DB	039H
	DB	0c7H
	DB	039H
	DB	0a6H
	DB	031H
	DB	0c7H
	DB	039H
	DB	0a7H
	DB	039H
	DB	0a6H
	DB	031H
	DB	0c7H
	DB	039H
	DB	0a7H
	DB	039H
	DB	0a7H
	DB	039H
	DB	0c6H
	DB	031H
	DB	0a7H
	DB	039H
	DB	0c6H
	DB	031H
	DB	0a7H
	DB	039H
	DB	0a7H
	DB	039H
	DB	0c7H
	DB	039H
	DB	0a7H
	DB	039H
	DB	0c7H
	DB	039H
	DB	0c7H
	DB	039H
	DB	0a7H
	DB	039H
	DB	0c6H
	DB	031H
	DB	0c7H
	DB	039H
	DB	0a7H
	DB	039H
	DB	0a6H
	DB	031H
	DB	0c7H
	DB	039H
	DB	0a7H
	DB	039H
	DB	0c7H
	DB	039H
	DB	0c6H
	DB	031H
	DB	0a7H
	DB	039H
	DB	0a7H
	DB	039H
	DB	0c6H
	DB	031H
	DB	0a7H
	DB	039H
	DB	0c7H
	DB	039H
	DB	0c7H
	DB	039H
	DB	0a6H
	DB	031H
	DB	0c7H
	DB	039H
	DB	0a6H
	DB	031H
	DB	0a7H
	DB	039H
	DB	0c7H
	DB	039H
	DB	0a7H
	DB	039H
	DB	0c7H
	DB	039H
	DB	0a7H
	DB	039H
	DB	0a7H
	DB	039H
	DB	0c7H
	DB	039H
	DB	0a6H
	DB	031H
	DB	0a7H
	DB	039H
	DB	0c7H
	DB	039H
	DB	0a6H
	DB	031H
	DB	0c7H
	DB	039H
	DB	0a7H
	DB	039H
	DB	0a7H
	DB	039H
	DB	0c6H
	DB	031H
	DB	0a7H
	DB	039H
	DB	0c7H
	DB	039H
	DB	0c6H
	DB	031H
	DB	0a7H
	DB	039H
	DB	0c7H
	DB	039H
	DB	0c7H
	DB	039H
	DB	0a6H
	DB	031H
	DB	0a7H
	DB	039H
	DB	0c6H
	DB	031H
	DB	0a7H
	DB	039H
	DB	0c7H
	DB	039H
	DB	0c7H
	DB	039H
	DB	0a7H
	DB	039H
	DB	0a7H
	DB	039H
	DB	0c7H
	DB	039H
	DB	0a7H
	DB	039H
	DB	0c6H
	DB	031H
	DB	0c7H
	DB	039H
	DB	0a7H
	DB	039H
	DB	0c6H
	DB	031H
	DB	0a7H
	DB	039H
	DB	0a7H
	DB	039H
	DB	0c7H
	DB	039H
	DB	0a6H
	DB	031H
	DB	0c7H
	DB	039H
	DB	0a7H
	DB	039H
	DB	0a6H
	DB	031H
	DB	0c7H
	DB	039H
	DB	0a7H
	DB	039H
	DB	0a7H
	DB	039H
	DB	0c6H
	DB	031H
	DB	0a7H
	DB	039H
	DB	0c6H
	DB	031H
	DB	0a7H
	DB	039H
	DB	0a7H
	DB	039H
	DB	0c7H
	DB	039H
	DB	0a7H
	DB	039H
	DB	0c7H
	DB	039H
	DB	0c7H
	DB	039H
	DB	0a7H
	DB	039H
	DB	0c6H
	DB	031H
	DB	0c7H
	DB	039H
	DB	0a7H
	DB	039H
	DB	0a6H
	DB	031H
	DB	0c7H
	DB	039H
	DB	0a7H
	DB	039H
	DB	0c7H
	DB	039H
	DB	0c6H
	DB	031H
	DB	0a7H
	DB	039H
	DB	0a7H
	DB	039H
	DB	0c6H
	DB	031H
	DB	0a7H
	DB	039H
	DB	0c7H
	DB	039H
	DB	0c7H
	DB	039H
	DB	0a6H
	DB	031H
	DB	0c7H
	DB	039H
	DB	0a6H
	DB	031H
	DB	0a7H
	DB	039H
	DB	0c7H
	DB	039H
	DB	0a7H
	DB	039H
	DB	0c7H
	DB	039H
	DB	0a7H
	DB	039H
	DB	0a7H
	DB	039H
	DB	0c7H
	DB	039H
	DB	0a6H
	DB	031H
	DB	0c7H
	DB	039H
	DB	0a7H
	DB	039H
	DB	0c7H
	DB	039H
	DB	0a6H
	DB	031H
	DB	0a7H
	DB	039H
	DB	0a7H
	DB	039H
	DB	0c7H
	DB	039H
	DB	0a7H
	DB	039H
	DB	0c6H
	DB	031H
	DB	0c7H
	DB	039H
	DB	0a7H
	DB	039H
	DB	0c7H
	DB	039H
	DB	0c6H
	DB	031H
	DB	0a7H
	DB	039H
	DB	0c7H
	DB	039H
	DB	0c6H
	DB	031H
	DB	0a7H
	DB	039H
	DB	0a7H
	DB	039H
	DB	0c6H
	DB	031H
	DB	0a7H
	DB	039H
	DB	0c7H
	DB	039H
	DB	0a6H
	DB	031H
	DB	0c7H
	DB	039H
	DB	0a7H
	DB	039H
	DB	0a6H
	DB	031H
	DB	0c7H
	DB	039H
	DB	0a7H
	DB	039H
	DB	0c6H
	DB	031H
	DB	0c7H
	DB	039H
	DB	0a6H
	DB	031H
	DB	0c6H
	DB	031H
	DB	0a7H
	DB	039H
	DB	0c7H
	DB	039H
	DB	0a7H
	DB	039H
	DB	0c7H
	DB	039H
	DB	0a6H
	DB	031H
	DB	0a7H
	DB	039H
	DB	0c7H
	DB	039H
	DB	0c6H
	DB	031H
	DB	0a7H
	DB	039H
	DB	0a6H
	DB	031H
	DB	0c6H
	DB	031H
	DB	0a7H
	DB	039H
	DB	0c7H
	DB	039H
	DB	0c6H
	DB	031H
	DB	0a7H
	DB	039H
	DB	0a7H
	DB	039H
	DB	0c6H
	DB	031H
	DB	0a7H
	DB	039H
	DB	0a7H
	DB	039H
	DB	0c6H
	DB	031H
	DB	0a7H
	DB	039H
	DB	0c7H
	DB	039H
	DB	0c6H
	DB	031H
	DB	0a7H
	DB	039H
	DB	0c6H
	DB	031H
	DB	0a7H
	DB	039H
	DB	0a6H
	DB	031H
	DB	0c7H
	DB	039H
	DB	0a6H
	DB	031H
	DB	0a7H
	DB	039H
	DB	0c7H
	DB	039H
	DB	0a6H
	DB	031H
	DB	0c7H
	DB	039H
	DB	0a7H
	DB	039H
	DB	0a7H
	DB	039H
	DB	0c7H
	DB	039H
	DB	0c7H
	DB	039H
	DB	0a7H
	DB	039H
	DB	0c7H
	DB	039H
	DB	0c6H
	DB	031H
	DB	0a7H
	DB	039H
	DB	0c7H
	DB	039H
	DB	0a6H
	DB	031H
	DB	0a7H
	DB	039H
	DB	0c7H
	DB	039H
	DB	0a6H
	DB	031H
	DB	0c7H
	DB	039H
	DB	0c6H
	DB	031H
	DB	0a7H
	DB	039H
	DB	0c7H
	DB	039H
	DB	0c7H
	DB	039H
	DB	0a7H
	DB	039H
	DB	0c7H
	DB	039H
	DB	0a7H
	DB	039H
	DB	0a7H
	DB	039H
	DB	0c6H
	DB	031H
	DB	0a7H
	DB	039H
	DB	0c7H
	DB	039H
	DB	0c6H
	DB	031H
	DB	0a7H
	DB	039H
	DB	0a6H
	DB	031H
	DB	0c7H
	DB	039H
	DB	0a7H
	DB	039H
	DB	0a6H
	DB	031H
	DB	0c7H
	DB	039H
	DB	0a7H
	DB	039H
	DB	0a6H
	DB	031H
	DB	0c7H
	DB	039H
	DB	0a7H
	DB	039H
	DB	0a6H
	DB	031H
	DB	0c7H
	DB	039H
	DB	0a7H
	DB	039H
	DB	0c7H
	DB	039H
	DB	0c7H
	DB	039H
	DB	0a6H
	DB	031H
	DB	0a7H
	DB	039H
	DB	0c7H
	DB	039H
	DB	0a7H
	DB	039H
	DB	0c7H
	DB	039H
	DB	0c7H
	DB	039H
	DB	0a7H
	DB	039H
	DB	0c6H
	DB	031H
	DB	0a7H
	DB	039H
	DB	0c6H
	DB	031H
	DB	0c7H
	DB	039H
	DB	0a6H
	DB	031H
	DB	0c7H
	DB	039H
	DB	0c7H
	DB	039H
	DB	0a6H
	DB	031H
	DB	0c7H
	DB	039H
	DB	0a7H
	DB	039H
	DB	0c6H
	DB	031H
	DB	0a7H
	DB	039H
	DB	0c7H
	DB	039H
	DB	0c6H
	DB	031H
	DB	0a7H
	DB	039H
	DB	0a7H
	DB	039H
	DB	0c7H
	DB	039H
	DB	0a6H
	DB	031H
	DB	0a7H
	DB	039H
	DB	0c7H
	DB	039H
	DB	0a7H
	DB	039H
	DB	0a7H
	DB	039H
	DB	0c7H
	DB	039H
	DB	0a7H
	DB	039H
	DB	0a6H
	DB	031H
	DB	0c7H
	DB	039H
	DB	0a6H
	DB	031H
	DB	0c7H
	DB	039H
	DB	0c6H
	DB	031H
	DB	0a7H
	DB	039H
	DB	0a7H
	DB	039H
	DB	0c6H
	DB	031H
	DB	0a7H
	DB	039H
	DB	0c7H
	DB	039H
	DB	0c6H
	DB	031H
	DB	0a7H
	DB	039H
	DB	0c7H
	DB	039H
	DB	0a6H
	DB	031H
	DB	0c7H
	DB	039H
	DB	0c7H
	DB	039H
	DB	0a7H
	DB	039H
	DB	0c6H
	DB	031H
	DB	0c7H
	DB	039H
	DB	0a7H
	DB	039H
	DB	0c7H
	DB	039H
	DB	0a7H
	DB	039H
	DB	0c7H
	DB	039H
	DB	0a7H
	DB	039H
	DB	0c6H
	DB	031H
	DB	0c7H
	DB	039H
	DB	0a6H
	DB	031H
	DB	0a7H
	DB	039H
	DB	0c6H
	DB	031H
	DB	0a7H
	DB	039H
	DB	0a7H
	DB	039H
	DB	0c6H
	DB	031H
	DB	0a7H
	DB	039H
	DB	0a7H
	DB	039H
	DB	0c6H
	DB	031H
	DB	0a7H
	DB	039H
	DB	0a7H
	DB	039H
	DB	0c6H
	DB	031H
	DB	0a7H
	DB	039H
	DB	0c7H
	DB	039H
	DB	0c7H
	DB	039H
	DB	0a6H
	DB	031H
	DB	0a7H
	DB	039H
	DB	0c7H
	DB	039H
	DB	0a7H
	DB	039H
	DB	0c7H
	DB	039H
	DB	0c7H
	DB	039H
	DB	0a7H
	DB	039H
	DB	0c6H
	DB	031H
	DB	0a7H
	DB	039H
	DB	0c6H
	DB	031H
	DB	0c7H
	DB	039H
	DB	0a6H
	DB	031H
	DB	0c7H
	DB	039H
	DB	0c7H
	DB	039H
	DB	0a6H
	DB	031H
	DB	0c7H
	DB	039H
	DB	0a7H
	DB	039H
	DB	0c6H
	DB	031H
	DB	0a7H
	DB	039H
	DB	0c7H
	DB	039H
	DB	0c6H
	DB	031H
	DB	0a7H
	DB	039H
	DB	0a7H
	DB	039H
	DB	0c7H
	DB	039H
	DB	0a6H
	DB	031H
	DB	0a7H
	DB	039H
	DB	0c7H
	DB	039H
	DB	0a7H
	DB	039H
	DB	0a7H
	DB	039H
	DB	0c7H
	DB	039H
	DB	0a7H
	DB	039H
	DB	0a6H
	DB	031H
	DB	0c7H
	DB	039H
	DB	0a6H
	DB	031H
	DB	0c7H
	DB	039H
	DB	0c6H
	DB	031H
	DB	0a7H
	DB	039H
	DB	0a7H
	DB	039H
	DB	0c6H
	DB	031H
	DB	0a7H
	DB	039H
	DB	0c7H
	DB	039H
	DB	0c6H
	DB	031H
	DB	0a7H
	DB	039H
	DB	0c7H
	DB	039H
	DB	0a6H
	DB	031H
	DB	0c7H
	DB	039H
	DB	0c7H
	DB	039H
	DB	0a7H
	DB	039H
	DB	0c6H
	DB	031H
	DB	0c7H
	DB	039H
	DB	0a7H
	DB	039H
	DB	0c7H
	DB	039H
	DB	0a7H
	DB	039H
	DB	0c7H
	DB	039H
	DB	0a7H
	DB	039H
	DB	0c6H
	DB	031H
	DB	0c7H
	DB	039H
	DB	0a6H
	DB	031H
	DB	0a7H
	DB	039H
	DB	0c6H
	DB	031H
	DB	0a7H
	DB	039H
	DB	0a7H
	DB	039H
	DB	0c6H
	DB	031H
	DB	0a7H
	DB	039H
	DB	0a7H
	DB	039H
	DB	0c6H
	DB	031H
	DB	0a7H
	DB	039H
	DB	0a7H
	DB	039H
	DB	0c6H
	DB	031H
	DB	0a7H
	DB	039H
	DB	0c7H
	DB	039H
	DB	0c7H
	DB	039H
	DB	0a6H
	DB	031H
	DB	0a7H
	DB	039H
	DB	0c7H
	DB	039H
	DB	0a7H
	DB	039H
	DB	0c7H
	DB	039H
	DB	0c7H
	DB	039H
	DB	0a7H
	DB	039H
	DB	0c6H
	DB	031H
	DB	0a7H
	DB	039H
	DB	0c6H
	DB	031H
	DB	0c7H
	DB	039H
	DB	0a6H
	DB	031H
	DB	0c7H
	DB	039H
	DB	0c7H
	DB	039H
	DB	0a6H
	DB	031H
	DB	0c7H
	DB	039H
	DB	0a7H
	DB	039H
	DB	0c6H
	DB	031H
	DB	0a7H
	DB	039H
	DB	0c7H
	DB	039H
	DB	0c6H
	DB	031H
	DB	0a7H
	DB	039H
	DB	0a7H
	DB	039H
	DB	0c7H
	DB	039H
	DB	0a6H
	DB	031H
	DB	0a7H
	DB	039H
	DB	0c7H
	DB	039H
	DB	0a7H
	DB	039H
	DB	0a7H
	DB	039H
	DB	0c7H
	DB	039H
	DB	0a7H
	DB	039H
	DB	0a6H
	DB	031H
	DB	0c7H
	DB	039H
	DB	0a6H
	DB	031H
	DB	0c7H
	DB	039H
	DB	0c6H
	DB	031H
	DB	0a7H
	DB	039H
	DB	0a7H
	DB	039H
	DB	0c6H
	DB	031H
	DB	0a7H
	DB	039H
	DB	0c7H
	DB	039H
	DB	0c6H
	DB	031H
	DB	0a7H
	DB	039H
	DB	0c7H
	DB	039H
	DB	0a6H
	DB	031H
	DB	0c7H
	DB	039H
	DB	0c7H
	DB	039H
	DB	0a7H
	DB	039H
	DB	0c6H
	DB	031H
	DB	0c7H
	DB	039H
	DB	0a7H
	DB	039H
	DB	0c7H
	DB	039H
	DB	0a7H
	DB	039H
	DB	0c7H
	DB	039H
	DB	0a7H
	DB	039H
	DB	0c6H
	DB	031H
	DB	0c7H
	DB	039H
	DB	0a6H
	DB	031H
	DB	0a7H
	DB	039H
	DB	0c6H
	DB	031H
	DB	0a7H
	DB	039H
	DB	0a7H
	DB	039H
	DB	0c6H
	DB	031H
	DB	0a7H
	DB	039H
	DB	0a7H
	DB	039H
	DB	0c6H
	DB	031H
	DB	0a7H
	DB	039H
	DB	0a7H
	DB	039H
	DB	0c6H
	DB	031H
	DB	0a7H
	DB	039H
	DB	0c7H
	DB	039H
	DB	0c7H
	DB	039H
	DB	0a6H
	DB	031H
	DB	0a7H
	DB	039H
	DB	0c7H
	DB	039H
	DB	0a7H
	DB	039H
	DB	0c7H
	DB	039H
	DB	0c7H
	DB	039H
	DB	0a7H
	DB	039H
	DB	0c6H
	DB	031H
	DB	0a7H
	DB	039H
	DB	0c6H
	DB	031H
	DB	0c7H
	DB	039H
	DB	0a6H
	DB	031H
	DB	0c7H
	DB	039H
	DB	0c7H
	DB	039H
	DB	0a6H
	DB	031H
	DB	0c7H
	DB	039H
	DB	0a7H
	DB	039H
	DB	0c6H
	DB	031H
	DB	0a7H
	DB	039H
	DB	0c7H
	DB	039H
	DB	0c6H
	DB	031H
	DB	0a7H
	DB	039H
	DB	0a7H
	DB	039H
	DB	0c7H
	DB	039H
	DB	0a6H
	DB	031H
	DB	0a7H
	DB	039H
	DB	0c7H
	DB	039H
	DB	0a7H
	DB	039H
	DB	0a7H
	DB	039H
	DB	0c7H
	DB	039H
	DB	0a7H
	DB	039H
	DB	0a6H
	DB	031H
	DB	0c7H
	DB	039H
	DB	0a6H
	DB	031H
	DB	0c7H
	DB	039H
	DB	0c6H
	DB	031H
	DB	0a7H
	DB	039H
	DB	0a7H
	DB	039H
	DB	0c6H
	DB	031H
	DB	0a7H
	DB	039H
	DB	0c7H
	DB	039H
	DB	0c6H
	DB	031H
	DB	0a7H
	DB	039H
	DB	0c7H
	DB	039H
	DB	0a6H
	DB	031H
	DB	0c7H
	DB	039H
	DB	0c7H
	DB	039H
	DB	0a7H
	DB	039H
	DB	0c6H
	DB	031H
	DB	0c7H
	DB	039H
	DB	0a7H
	DB	039H
	DB	0c7H
	DB	039H
	DB	0a7H
	DB	039H
	DB	0c7H
	DB	039H
	DB	0a7H
	DB	039H
	DB	0c6H
	DB	031H
	DB	0c7H
	DB	039H
	DB	0a6H
	DB	031H
	DB	0a7H
	DB	039H
	DB	0c6H
	DB	031H
	DB	0a7H
	DB	039H
	DB	0a7H
	DB	039H
	DB	0c6H
	DB	031H
	DB	0a7H
	DB	039H
	DB	0a7H
	DB	039H
	DB	0c6H
	DB	031H
	DB	0a7H
	DB	039H
	DB	0a7H
	DB	039H
	DB	0c6H
	DB	031H
	DB	0a7H
	DB	039H
	DB	0c7H
	DB	039H
	DB	0c7H
	DB	039H
	DB	0a6H
	DB	031H
	DB	0a7H
	DB	039H
	DB	0c7H
	DB	039H
	DB	0a7H
	DB	039H
	DB	0c7H
	DB	039H
	DB	0c7H
	DB	039H
	DB	0a7H
	DB	039H
	DB	0c6H
	DB	031H
	DB	0a7H
	DB	039H
	DB	0c6H
	DB	031H
	DB	0c7H
	DB	039H
	DB	0a6H
	DB	031H
	DB	0c7H
	DB	039H
	DB	0c7H
	DB	039H
	DB	0a6H
	DB	031H
	DB	0c7H
	DB	039H
	DB	0a7H
	DB	039H
	DB	0c6H
	DB	031H
	DB	0a7H
	DB	039H
	DB	0c7H
	DB	039H
	DB	0c6H
	DB	031H
	DB	0a7H
	DB	039H
	DB	0a7H
	DB	039H
	DB	0c7H
	DB	039H
	DB	0a6H
	DB	031H
	DB	0a7H
	DB	039H
	DB	0c7H
	DB	039H
	DB	0a7H
	DB	039H
	DB	0a7H
	DB	039H
	DB	0c7H
	DB	039H
	DB	0a7H
	DB	039H
	DB	0a6H
	DB	031H
	DB	0c7H
	DB	039H
	DB	0a6H
	DB	031H
	DB	0c7H
	DB	039H
	DB	0c6H
	DB	031H
	DB	0a7H
	DB	039H
	DB	0a7H
	DB	039H
	DB	0c6H
	DB	031H
	DB	0a7H
	DB	039H
	DB	0c7H
	DB	039H
	DB	0c6H
	DB	031H
	DB	0a7H
	DB	039H
	DB	0c7H
	DB	039H
	DB	0a6H
	DB	031H
	DB	0c7H
	DB	039H
	DB	0c7H
	DB	039H
	DB	0a7H
	DB	039H
	DB	0c6H
	DB	031H
	DB	0c7H
	DB	039H
	DB	0a7H
	DB	039H
	DB	0c7H
	DB	039H
	DB	0a7H
	DB	039H
	DB	0c7H
	DB	039H
	DB	0a7H
	DB	039H
	DB	0c6H
	DB	031H
	DB	0c7H
	DB	039H
	DB	0a6H
	DB	031H
	DB	0a7H
	DB	039H
	DB	0c6H
	DB	031H
	DB	0a7H
	DB	039H
	DB	0a7H
	DB	039H
	DB	0c6H
	DB	031H
	DB	0a7H
	DB	039H
	DB	0a7H
	DB	039H
	DB	0c6H
	DB	031H
	DB	0a7H
	DB	039H
	DB	0a7H
	DB	039H
	DB	0c6H
	DB	031H
	DB	0a7H
	DB	039H
	DB	0c7H
	DB	039H
	DB	0c7H
	DB	039H
	DB	0a6H
	DB	031H
	DB	0a7H
	DB	039H
	DB	0c7H
	DB	039H
	DB	0a7H
	DB	039H
	DB	0c7H
	DB	039H
	DB	0c7H
	DB	039H
	DB	0a7H
	DB	039H
	DB	0c6H
	DB	031H
	DB	0a7H
	DB	039H
	DB	0c6H
	DB	031H
	DB	0c7H
	DB	039H
	DB	0a6H
	DB	031H
	DB	0c7H
	DB	039H
	DB	0a7H
	DB	039H
	DB	0a6H
	DB	031H
	DB	0c7H
	DB	039H
	DB	0c7H
	DB	039H
	DB	0a7H
	DB	039H
	DB	0c6H
	DB	031H
	DB	0c7H
	DB	039H
	DB	0a7H
	DB	039H
	DB	0c6H
	DB	031H
	DB	0a7H
	DB	039H
	DB	0a7H
	DB	039H
	DB	0c7H
	DB	039H
	DB	0a7H
	DB	039H
	DB	0c7H
	DB	039H
	DB	0a7H
	DB	039H
	DB	0a7H
	DB	039H
	DB	0c7H
	DB	039H
	DB	0c6H
	DB	031H
	DB	0a7H
	DB	039H
	DB	0c7H
	DB	039H
	DB	0c6H
	DB	031H
	DB	0a7H
	DB	039H
	DB	0c7H
	DB	039H
	DB	0c6H
	DB	031H
	DB	0a7H
	DB	039H
	DB	0c7H
	DB	039H
	DB	0c7H
	DB	039H
	DB	0a7H
	DB	039H
	DB	0a7H
	DB	039H
	DB	0c7H
	DB	039H
	DB	0a7H
	DB	039H
	DB	0c7H
	DB	039H
	DB	0a7H
	DB	039H
	DB	0c6H
	DB	031H
	DB	0a7H
	DB	039H
	DB	0c7H
	DB	039H
	DB	0c6H
	DB	031H
	DB	0a7H
	DB	039H
	DB	0a7H
	DB	039H
	DB	0c7H
	DB	039H
	DB	0a7H
	DB	039H
	DB	0c7H
	DB	039H
	DB	0c7H
	DB	039H
	DB	0a7H
	DB	039H
	DB	0a7H
	DB	039H
	DB	0c6H
	DB	031H
	DB	0a7H
	DB	039H
	DB	0c7H
	DB	039H
	DB	0c7H
	DB	039H
	DB	0a6H
	DB	031H
	DB	0c7H
	DB	039H
	DB	0c7H
	DB	039H
	DB	0a6H
	DB	031H
	DB	0a7H
	DB	039H
	DB	0c7H
	DB	039H
	DB	0a7H
	DB	039H
	DB	0c6H
	DB	031H
	DB	0c7H
	DB	039H
	DB	0c7H
	DB	039H
	DB	0a7H
	DB	039H
	DB	0c6H
	DB	031H
	DB	0c7H
	DB	039H
	DB	0a7H
	DB	039H
	DB	0c6H
	DB	031H
	DB	0a7H
	DB	039H
	DB	0c7H
	DB	039H
	DB	0c6H
	DB	031H
	DB	0a7H
	DB	039H
	DB	0a6H
	DB	031H
	DB	0c7H
	DB	039H
	DB	0a7H
	DB	039H
	DB	0a7H
	DB	039H
	DB	0c7H
	DB	039H
	DB	0a7H
	DB	039H
	DB	0c7H
	DB	039H
	DB	0a7H
	DB	039H
	DB	0c7H
	DB	039H
	DB	0a7H
	DB	039H
	DB	0a7H
	DB	039H
	DB	0c7H
	DB	039H
	DB	0a7H
	DB	039H
	DB	0a6H
	DB	031H
	DB	0c7H
	DB	039H
	DB	0a7H
	DB	039H
	DB	0c6H
	DB	031H
	DB	0c6H
	DB	031H
	DB	0a7H
	DB	039H
	DB	0c7H
	DB	039H
	DB	0a7H
	DB	039H
	DB	0a7H
	DB	039H
	DB	0c7H
	DB	039H
	DB	0c7H
	DB	039H
	DB	0a7H
	DB	039H
	DB	0c7H
	DB	039H
	DB	0c6H
	DB	031H
	DB	0a7H
	DB	039H
	DB	0c7H
	DB	039H
	DB	0c7H
	DB	039H
	DB	0a7H
	DB	039H
	DB	0c7H
	DB	039H
	DB	0c7H
	DB	039H
	DB	0a7H
	DB	039H
	DB	0c6H
	DB	031H
	DB	0a7H
	DB	039H
	DB	0a7H
	DB	039H
	DB	0c6H
	DB	031H
	DB	0c7H
	DB	039H
	DB	0a7H
	DB	039H
	DB	0c6H
	DB	031H
	DB	0a7H
	DB	039H
	DB	0a6H
	DB	031H
	DB	0c7H
	DB	039H
	DB	0a7H
	DB	039H
	DB	0c7H
	DB	039H
	DB	0c7H
	DB	039H
	DB	0a6H
	DB	031H
	DB	0a7H
	DB	039H
	DB	0c7H
	DB	039H
	DB	0a7H
	DB	039H
	DB	0a6H
	DB	031H
	DB	0c7H
	DB	039H
	DB	0c7H
	DB	039H
	DB	0a7H
	DB	039H
	DB	0c7H
	DB	039H
	DB	0a7H
	DB	039H
	DB	0c7H
	DB	039H
	DB	0a6H
	DB	031H
	DB	0c7H
	DB	039H
	DB	0c7H
	DB	039H
	DB	0a7H
	DB	039H
	DB	0c7H
	DB	039H
	DB	0a7H
	DB	039H
	DB	0c6H
	DB	031H
	DB	0c7H
	DB	039H
	DB	0a6H
	DB	031H
	DB	0c7H
	DB	039H
	DB	0c7H
	DB	039H
	DB	0a7H
	DB	039H
	DB	0c7H
	DB	039H
	DB	0a6H
	DB	031H
	DB	0a7H
	DB	039H
	DB	0c7H
	DB	039H
	DB	0c7H
	DB	039H
	DB	0a6H
	DB	031H
	DB	0c7H
	DB	039H
	DB	0a7H
	DB	039H
	DB	0a7H
	DB	039H
	DB	0c7H
	DB	039H
	DB	0a7H
	DB	039H
	DB	0c7H
	DB	039H
	DB	0c6H
	DB	031H
	DB	0a7H
	DB	039H
	DB	0a7H
	DB	039H
	DB	0c7H
	DB	039H
	DB	0a7H
	DB	039H
	DB	0a7H
	DB	039H
	DB	0c6H
	DB	031H
	DB	0c7H
	DB	039H
	DB	0a6H
	DB	031H
	DB	0c7H
	DB	039H
	DB	0a7H
	DB	039H
	DB	0c7H
	DB	039H
	DB	0a7H
	DB	039H
	DB	0c6H
	DB	031H
	DB	0c7H
	DB	039H
	DB	0a7H
	DB	039H
	DB	0c7H
	DB	039H
	DB	0a6H
	DB	031H
	DB	0c7H
	DB	039H
	DB	0c7H
	DB	039H
	DB	0a7H
	DB	039H
	DB	0c7H
	DB	039H
	DB	0c7H
	DB	039H
	DB	0a7H
	DB	039H
	DB	0c6H
	DB	031H
	DB	0a7H
	DB	039H
	DB	0a7H
	DB	039H
	DB	0c7H
	DB	039H
	DB	0c7H
	DB	039H
	DB	0a7H
	DB	039H
	DB	0c6H
	DB	031H
	DB	0a7H
	DB	039H
	DB	0a6H
	DB	031H
	DB	0c7H
	DB	039H
	DB	0a7H
	DB	039H
	DB	0c7H
	DB	039H
	DB	0c7H
	DB	039H
	DB	0a6H
	DB	031H
	DB	0a7H
	DB	039H
	DB	0c7H
	DB	039H
	DB	0a7H
	DB	039H
	DB	0a6H
	DB	031H
	DB	0c7H
	DB	039H
	DB	0c7H
	DB	039H
	DB	0a7H
	DB	039H
	DB	0c7H
	DB	039H
	DB	0a7H
	DB	039H
	DB	0c7H
	DB	039H
	DB	0a6H
	DB	031H
	DB	0c7H
	DB	039H
	DB	0c7H
	DB	039H
	DB	0a7H
	DB	039H
	DB	0c7H
	DB	039H
	DB	0a7H
	DB	039H
	DB	0c6H
	DB	031H
	DB	0c7H
	DB	039H
	DB	0a6H
	DB	031H
	DB	0c7H
	DB	039H
	DB	0c7H
	DB	039H
	DB	0a7H
	DB	039H
	DB	0c7H
	DB	039H
	DB	0a6H
	DB	031H
	DB	0a7H
	DB	039H
	DB	0c7H
	DB	039H
	DB	0c7H
	DB	039H
	DB	0a6H
	DB	031H
	DB	0c7H
	DB	039H
	DB	0a7H
	DB	039H
	DB	0a7H
	DB	039H
	DB	0c7H
	DB	039H
	DB	0a7H
	DB	039H
	DB	0c7H
	DB	039H
	DB	0c6H
	DB	031H
	DB	0a7H
	DB	039H
	DB	0a7H
	DB	039H
	DB	0c7H
	DB	039H
	DB	0a7H
	DB	039H
	DB	0a7H
	DB	039H
	DB	0c6H
	DB	031H
	DB	0c7H
	DB	039H
	DB	0a6H
	DB	031H
	DB	0c7H
	DB	039H
	DB	0a7H
	DB	039H
	DB	0c7H
	DB	039H
	DB	0a7H
	DB	039H
	DB	0c6H
	DB	031H
	DB	0c7H
	DB	039H
	DB	0a7H
	DB	039H
	DB	0c7H
	DB	039H
	DB	0a6H
	DB	031H
	DB	0c7H
	DB	039H
	DB	0c7H
	DB	039H
	DB	0a7H
	DB	039H
	DB	0c7H
	DB	039H
	DB	0c7H
	DB	039H
	DB	0a7H
	DB	039H
	DB	0c6H
	DB	031H
	DB	0a7H
	DB	039H
	DB	0a7H
	DB	039H
	DB	0c7H
	DB	039H
	DB	0c7H
	DB	039H
	DB	0a7H
	DB	039H
	DB	0c6H
	DB	031H
	DB	0a7H
	DB	039H
	DB	0a6H
	DB	031H
	DB	0c7H
	DB	039H
	DB	0a7H
	DB	039H
	DB	0c7H
	DB	039H
	DB	0c7H
	DB	039H
	DB	0a6H
	DB	031H
	DB	0a7H
	DB	039H
	DB	0c7H
	DB	039H
	DB	0a7H
	DB	039H
	DB	0a6H
	DB	031H
	DB	0c7H
	DB	039H
	DB	0c7H
	DB	039H
	DB	0a7H
	DB	039H
	DB	0c7H
	DB	039H
	DB	0a7H
	DB	039H
	DB	0c7H
	DB	039H
	DB	0a6H
	DB	031H
	DB	0c7H
	DB	039H
	DB	0c7H
	DB	039H
	DB	0a7H
	DB	039H
	DB	0c7H
	DB	039H
	DB	0a7H
	DB	039H
	DB	0c6H
	DB	031H
	DB	0c7H
	DB	039H
	DB	0a6H
	DB	031H
	DB	0c7H
	DB	039H
	DB	0c7H
	DB	039H
	DB	0a7H
	DB	039H
	DB	0c7H
	DB	039H
	DB	0a6H
	DB	031H
	DB	0a7H
	DB	039H
	DB	0c7H
	DB	039H
	DB	0c7H
	DB	039H
	DB	0a6H
	DB	031H
	DB	0c7H
	DB	039H
	DB	0a7H
	DB	039H
	DB	0a7H
	DB	039H
	DB	0c7H
	DB	039H
	DB	0a7H
	DB	039H
	DB	0c7H
	DB	039H
	DB	0c6H
	DB	031H
	DB	0a7H
	DB	039H
	DB	0a7H
	DB	039H
	DB	0c7H
	DB	039H
	DB	0a7H
	DB	039H
	DB	0a7H
	DB	039H
	DB	0c6H
	DB	031H
	DB	0c7H
	DB	039H
	DB	0a6H
	DB	031H
	DB	0c7H
	DB	039H
	DB	0a7H
	DB	039H
	DB	0c7H
	DB	039H
	DB	0a7H
	DB	039H
	DB	0c6H
	DB	031H
	DB	0c7H
	DB	039H
	DB	0a7H
	DB	039H
	DB	0c7H
	DB	039H
	DB	0a6H
	DB	031H
	DB	0c7H
	DB	039H
	DB	0c7H
	DB	039H
	DB	0a7H
	DB	039H
	DB	0c7H
	DB	039H
	DB	0c7H
	DB	039H
	DB	0a7H
	DB	039H
	DB	0c6H
	DB	031H
	DB	0a7H
	DB	039H
	DB	0a7H
	DB	039H
	DB	0c7H
	DB	039H
	DB	0c7H
	DB	039H
	DB	0a7H
	DB	039H
	DB	0c6H
	DB	031H
	DB	0a7H
	DB	039H
	DB	0a6H
	DB	031H
	DB	0c7H
	DB	039H
	DB	0a7H
	DB	039H
	DB	0c7H
	DB	039H
	DB	0c7H
	DB	039H
	DB	0a6H
	DB	031H
	DB	0a7H
	DB	039H
	DB	0c7H
	DB	039H
	DB	0a7H
	DB	039H
	DB	0a6H
	DB	031H
	DB	0c7H
	DB	039H
	DB	0c7H
	DB	039H
	DB	0a7H
	DB	039H
	DB	0c7H
	DB	039H
	DB	0a7H
	DB	039H
	DB	0c7H
	DB	039H
	DB	0a6H
	DB	031H
	DB	0c7H
	DB	039H
	DB	0c7H
	DB	039H
	DB	0a7H
	DB	039H
	DB	0c7H
	DB	039H
	DB	0a7H
	DB	039H
	DB	0c6H
	DB	031H
	DB	0c7H
	DB	039H
	DB	0a6H
	DB	031H
	DB	0c7H
	DB	039H
	DB	0c7H
	DB	039H
	DB	0a7H
	DB	039H
	DB	0c7H
	DB	039H
	DB	0a6H
	DB	031H
	DB	0a7H
	DB	039H
	DB	0c7H
	DB	039H
	DB	0c7H
	DB	039H
	DB	0a6H
	DB	031H
	DB	0c7H
	DB	039H
	DB	0a7H
	DB	039H
	DB	0a7H
	DB	039H
	DB	0c7H
	DB	039H
	DB	0a7H
	DB	039H
	DB	0c7H
	DB	039H
	DB	0c6H
	DB	031H
	DB	0a7H
	DB	039H
	DB	0a7H
	DB	039H
	DB	0c7H
	DB	039H
	DB	0a7H
	DB	039H
	DB	0a7H
	DB	039H
	DB	0c6H
	DB	031H
	DB	0c7H
	DB	039H
	DB	0a6H
	DB	031H
	DB	0c7H
	DB	039H
	DB	0a7H
	DB	039H
	DB	0c7H
	DB	039H
	DB	0a7H
	DB	039H
	DB	0c6H
	DB	031H
	DB	0c7H
	DB	039H
	DB	0a7H
	DB	039H
	DB	0c7H
	DB	039H
	DB	0a6H
	DB	031H
	DB	0c7H
	DB	039H
	DB	0c7H
	DB	039H
	DB	0a7H
	DB	039H
	DB	0c7H
	DB	039H
	DB	0c7H
	DB	039H
	DB	0a7H
	DB	039H
	DB	0c6H
	DB	031H
	DB	0a7H
	DB	039H
	DB	0a7H
	DB	039H
	DB	0c7H
	DB	039H
	DB	0c7H
	DB	039H
	DB	0a7H
	DB	039H
	DB	0c6H
	DB	031H
	DB	0a7H
	DB	039H
	DB	0a6H
	DB	031H
	DB	0c7H
	DB	039H
	DB	0a7H
	DB	039H
	DB	0c7H
	DB	039H
	DB	0c7H
	DB	039H
	DB	0a6H
	DB	031H
	DB	0a7H
	DB	039H
	DB	0c7H
	DB	039H
	DB	0a7H
	DB	039H
	DB	0a6H
	DB	031H
	DB	0c7H
	DB	039H
	DB	0c7H
	DB	039H
	DB	0a7H
	DB	039H
	DB	0c7H
	DB	039H
	DB	0a7H
	DB	039H
	DB	0c7H
	DB	039H
	DB	0a6H
	DB	031H
	DB	0c7H
	DB	039H
	DB	0c7H
	DB	039H
	DB	0a7H
	DB	039H
	DB	0c7H
	DB	039H
	DB	0a7H
	DB	039H
	DB	0c6H
	DB	031H
	DB	0c7H
	DB	039H
	DB	0a6H
	DB	031H
	DB	0c7H
	DB	039H
	DB	0c7H
	DB	039H
	DB	0a7H
	DB	039H
	DB	0c7H
	DB	039H
	DB	0a6H
	DB	031H
	DB	0a7H
	DB	039H
	DB	0c7H
	DB	039H
	DB	0c7H
	DB	039H
	DB	0a6H
	DB	031H
	DB	0c7H
	DB	039H
	DB	0a7H
	DB	039H
	DB	0a7H
	DB	039H
	DB	0c7H
	DB	039H
	DB	0a7H
	DB	039H
	DB	0c7H
	DB	039H
	DB	0c6H
	DB	031H
	DB	0a7H
	DB	039H
	DB	0a7H
	DB	039H
	DB	0c7H
	DB	039H
	DB	0a7H
	DB	039H
	DB	0a7H
	DB	039H
	DB	0c6H
	DB	031H
	DB	0c7H
	DB	039H
	DB	0a6H
	DB	031H
	DB	0c7H
	DB	039H
	DB	0a7H
	DB	039H
	DB	0c7H
	DB	039H
	DB	0a7H
	DB	039H
	DB	0c6H
	DB	031H
	DB	0c7H
	DB	039H
	DB	0a7H
	DB	039H
	DB	0c7H
	DB	039H
	DB	0a6H
	DB	031H
	DB	0c7H
	DB	039H
	DB	0c7H
	DB	039H
	DB	0a7H
	DB	039H
	DB	0c7H
	DB	039H
	DB	0c7H
	DB	039H
	DB	0a7H
	DB	039H
	DB	0c6H
	DB	031H
	DB	0a7H
	DB	039H
	DB	0a7H
	DB	039H
	DB	0c7H
	DB	039H
	DB	0c7H
	DB	039H
	DB	0a7H
	DB	039H
	DB	0c6H
	DB	031H
	DB	0a7H
	DB	039H
	DB	0a6H
	DB	031H
	DB	0c7H
	DB	039H
	DB	0a7H
	DB	039H
	DB	0c7H
	DB	039H
	DB	0c7H
	DB	039H
	DB	0a6H
	DB	031H
	DB	0a7H
	DB	039H
	DB	0c7H
	DB	039H
	DB	0a7H
	DB	039H
	DB	0c6H
	DB	031H
	DB	0c7H
	DB	039H
	DB	0a7H
	DB	039H
	DB	0c6H
	DB	031H
	DB	0a7H
	DB	039H
	DB	0a7H
	DB	039H
	DB	0c7H
	DB	039H
	DB	0c7H
	DB	039H
	DB	0a6H
	DB	031H
	DB	0c7H
	DB	039H
	DB	0c7H
	DB	039H
	DB	0a6H
	DB	031H
	DB	0a7H
	DB	039H
	DB	0c7H
	DB	039H
	DB	0a6H
	DB	031H
	DB	0c7H
	DB	039H
	DB	0a7H
	DB	039H
	DB	0a6H
	DB	031H
	DB	0c7H
	DB	039H
	DB	0a7H
	DB	039H
	DB	0a7H
	DB	039H
	DB	0c7H
	DB	039H
	DB	0a7H
	DB	039H
	DB	0a7H
	DB	039H
	DB	0c7H
	DB	039H
	DB	0a7H
	DB	039H
	DB	0a6H
	DB	031H
	DB	0c7H
	DB	039H
	DB	0c6H
	DB	031H
	DB	0a7H
	DB	039H
	DB	0a7H
	DB	039H
	DB	0c6H
	DB	031H
	DB	0a7H
	DB	039H
	DB	0c7H
	DB	039H
	DB	0a7H
	DB	039H
	DB	0a6H
	DB	031H
	DB	0c7H
	DB	039H
	DB	0a7H
	DB	039H
	DB	0c7H
	DB	039H
	DB	0c6H
	DB	031H
	DB	0a7H
	DB	039H
	DB	0a7H
	DB	039H
	DB	0c6H
	DB	031H
	DB	0c7H
	DB	039H
	DB	0a7H
	DB	039H
	DB	0c7H
	DB	039H
	DB	0a7H
	DB	039H
	DB	0a7H
	DB	039H
	DB	0c7H
	DB	039H
	DB	0a7H
	DB	039H
	DB	0a7H
	DB	039H
	DB	0c7H
	DB	039H
	DB	0c7H
	DB	039H
	DB	0a7H
	DB	039H
	DB	0c6H
	DB	031H
	DB	0a7H
	DB	039H
	DB	0a7H
	DB	039H
	DB	0a7H
	DB	039H
	DB	0c7H
	DB	039H
	DB	0a7H
	DB	039H
	DB	0a7H
	DB	039H
	DB	0c7H
	DB	039H
	DB	0a7H
	DB	039H
	DB	0c7H
	DB	039H
	DB	0a7H
	DB	039H
	DB	0c7H
	DB	039H
	DB	0a7H
	DB	039H
	DB	0c7H
	DB	039H
	DB	0c6H
	DB	031H
	DB	0a7H
	DB	039H
	DB	0c6H
	DB	031H
	DB	0c7H
	DB	039H
	DB	0a6H
	DB	031H
	DB	0a7H
	DB	039H
	DB	0c6H
	DB	031H
	DB	0a7H
	DB	039H
	DB	0c7H
	DB	039H
	DB	0c6H
	DB	031H
	DB	0a7H
	DB	039H
	DB	0c7H
	DB	039H
	DB	0c6H
	DB	031H
	DB	0a7H
	DB	039H
	DB	0c7H
	DB	039H
	DB	0a6H
	DB	031H
	DB	0a7H
	DB	039H
	DB	0c7H
	DB	039H
	DB	0a7H
	DB	039H
	DB	0c6H
	DB	031H
	DB	0c7H
	DB	039H
	DB	0a6H
	DB	031H
	DB	0c7H
	DB	039H
	DB	0a6H
	DB	031H
	DB	0a7H
	DB	039H
	DB	0c7H
	DB	039H
	DB	0a7H
	DB	039H
	DB	0a7H
	DB	039H
	DB	0c6H
	DB	031H
	DB	0a7H
	DB	039H
	DB	0a7H
	DB	039H
	DB	0c6H
	DB	031H
	DB	0a7H
	DB	039H
	DB	0c7H
	DB	039H
	DB	0c6H
	DB	031H
	DB	0a7H
	DB	039H
	DB	0c7H
	DB	039H
	DB	0c7H
	DB	039H
	DB	0a6H
	DB	031H
	DB	0a7H
	DB	039H
	DB	0c7H
	DB	039H
	DB	0c7H
	DB	039H
	DB	0a7H
	DB	039H
	DB	0c6H
	DB	031H
	DB	0a7H
	DB	039H
	DB	0a6H
	DB	031H
	DB	0c7H
	DB	039H
	DB	0a7H
	DB	039H
	DB	0c7H
	DB	039H
	DB	0a7H
	DB	039H
	DB	0c7H
	DB	039H
	DB	0c7H
	DB	039H
	DB	0a7H
	DB	039H
	DB	0a7H
	DB	039H
	DB	0c6H
	DB	031H
	DB	0a7H
	DB	039H
	DB	0a6H
	DB	031H
	DB	0c7H
	DB	039H
	DB	0a7H
	DB	039H
	DB	0a7H
	DB	039H
	DB	0c7H
	DB	039H
	DB	0a6H
	DB	031H
	DB	0c6H
	DB	031H
	DB	0a7H
	DB	039H
	DB	0c7H
	DB	039H
	DB	0a7H
	DB	039H
	DB	0a7H
	DB	039H
	DB	0c6H
	DB	031H
	DB	0a7H
	DB	039H
	DB	0c6H
	DB	031H
	DB	0c7H
	DB	039H
	DB	0a7H
	DB	039H
	DB	0c7H
	DB	039H
	DB	0c7H
	DB	039H
	DB	0a7H
	DB	039H
	DB	0a7H
	DB	039H
	DB	0c7H
	DB	039H
	DB	0c7H
	DB	039H
	DB	0a6H
	DB	031H
	DB	0c7H
	DB	039H
	DB	0a6H
	DB	031H
	DB	0a7H
	DB	039H
	DB	0c7H
	DB	039H
	DB	0a7H
	DB	039H
	DB	0c7H
	DB	039H
	DB	0a6H
	DB	031H
	DB	0c6H
	DB	031H
	DB	0c7H
	DB	039H
	DB	0a7H
	DB	039H
	DB	0a7H
	DB	039H
	DB	0c7H
	DB	039H
	DB	0a6H
	DB	031H
	DB	0a7H
	DB	039H
	DB	0c6H
	DB	031H
	DB	0a7H
	DB	039H
	DB	0a7H
	DB	039H
	DB	0c7H
	DB	039H
	DB	0a7H
	DB	039H
	DB	0c7H
	DB	039H
	DB	0a7H
	DB	039H
	DB	0c7H
	DB	039H
	DB	0a7H
	DB	039H
	DB	0a6H
	DB	031H
	DB	0c7H
	DB	039H
	DB	0a6H
	DB	031H
	DB	0c7H
	DB	039H
	DB	0c7H
	DB	039H
	DB	0a7H
	DB	039H
	DB	0c7H
	DB	039H
	DB	0c6H
	DB	031H
	DB	0a6H
	DB	031H
	DB	0a7H
	DB	039H
	DB	0c7H
	DB	039H
	DB	0c7H
	DB	039H
	DB	0a7H
	DB	039H
	DB	0c6H
	DB	031H
	DB	0a7H
	DB	039H
	DB	0a6H
	DB	031H
	DB	0c7H
	DB	039H
	DB	0a7H
	DB	039H
	DB	0c7H
	DB	039H
	DB	0a7H
	DB	039H
	DB	0c7H
	DB	039H
	DB	0c7H
	DB	039H
	DB	0a7H
	DB	039H
	DB	0a7H
	DB	039H
	DB	0c6H
	DB	031H
	DB	0a7H
	DB	039H
	DB	0a6H
	DB	031H
	DB	0c7H
	DB	039H
	DB	0a7H
	DB	039H
	DB	0a7H
	DB	039H
	DB	0c7H
	DB	039H
	DB	0a6H
	DB	031H
	DB	0c6H
	DB	031H
	DB	0a7H
	DB	039H
	DB	0c7H
	DB	039H
	DB	0a7H
	DB	039H
	DB	0a7H
	DB	039H
	DB	0c6H
	DB	031H
	DB	0a7H
	DB	039H
	DB	0c6H
	DB	031H
	DB	0c7H
	DB	039H
	DB	0a7H
	DB	039H
	DB	0c7H
	DB	039H
	DB	0c7H
	DB	039H
	DB	0a7H
	DB	039H
	DB	0a7H
	DB	039H
	DB	0c7H
	DB	039H
	DB	0c7H
	DB	039H
	DB	0a6H
	DB	031H
	DB	0c7H
	DB	039H
	DB	0a6H
	DB	031H
	DB	0a7H
	DB	039H
	DB	0c7H
	DB	039H
	DB	0a7H
	DB	039H
	DB	0c7H
	DB	039H
	DB	0a6H
	DB	031H
	DB	0c6H
	DB	031H
	DB	0c7H
	DB	039H
	DB	0a7H
	DB	039H
	DB	0a7H
	DB	039H
	DB	0c7H
	DB	039H
	DB	0a6H
	DB	031H
	DB	0a7H
	DB	039H
	DB	0c6H
	DB	031H
	DB	0a7H
	DB	039H
	DB	0a7H
	DB	039H
	DB	0c7H
	DB	039H
	DB	0a7H
	DB	039H
	DB	0c7H
	DB	039H
	DB	0a7H
	DB	039H
	DB	0c7H
	DB	039H
	DB	0a7H
	DB	039H
	DB	0a6H
	DB	031H
	DB	0c7H
	DB	039H
	DB	0a6H
	DB	031H
	DB	0c7H
	DB	039H
	DB	0c7H
	DB	039H
	DB	0a7H
	DB	039H
	DB	0c7H
	DB	039H
	DB	0c6H
	DB	031H
	DB	0a6H
	DB	031H
	DB	0a7H
	DB	039H
	DB	0c7H
	DB	039H
	DB	0c7H
	DB	039H
	DB	0a7H
	DB	039H
	DB	0c6H
	DB	031H
	DB	0a7H
	DB	039H
	DB	0a6H
	DB	031H
	DB	0c7H
	DB	039H
	DB	0a7H
	DB	039H
	DB	0c7H
	DB	039H
	DB	0a7H
	DB	039H
	DB	0c7H
	DB	039H
	DB	0c7H
	DB	039H
	DB	0a7H
	DB	039H
	DB	0a7H
	DB	039H
	DB	0c6H
	DB	031H
	DB	0a7H
	DB	039H
	DB	0a6H
	DB	031H
	DB	0c7H
	DB	039H
	DB	0a7H
	DB	039H
	DB	0a7H
	DB	039H
	DB	0c7H
	DB	039H
	DB	0a6H
	DB	031H
	DB	0c6H
	DB	031H
	DB	0a7H
	DB	039H
	DB	0c7H
	DB	039H
	DB	0a7H
	DB	039H
	DB	0a7H
	DB	039H
	DB	0c6H
	DB	031H
	DB	0a7H
	DB	039H
	DB	0c6H
	DB	031H
	DB	0c7H
	DB	039H
	DB	0a7H
	DB	039H
	DB	0c7H
	DB	039H
	DB	0c7H
	DB	039H
	DB	0a7H
	DB	039H
	DB	0a7H
	DB	039H
	DB	0c7H
	DB	039H
	DB	0c7H
	DB	039H
	DB	0a6H
	DB	031H
	DB	0c7H
	DB	039H
	DB	0a6H
	DB	031H
	DB	0a7H
	DB	039H
	DB	0c7H
	DB	039H
	DB	0a7H
	DB	039H
	DB	0c7H
	DB	039H
	DB	0a6H
	DB	031H
	DB	0c6H
	DB	031H
	DB	0c7H
	DB	039H
	DB	0a7H
	DB	039H
	DB	0a7H
	DB	039H
	DB	0c7H
	DB	039H
	DB	0a6H
	DB	031H
	DB	0a7H
	DB	039H
	DB	0c6H
	DB	031H
	DB	0a7H
	DB	039H
	DB	0a7H
	DB	039H
	DB	0c7H
	DB	039H
	DB	0a7H
	DB	039H
	DB	0c7H
	DB	039H
	DB	0a7H
	DB	039H
	DB	0c7H
	DB	039H
	DB	0a7H
	DB	039H
	DB	0a6H
	DB	031H
	DB	0c7H
	DB	039H
	DB	0a6H
	DB	031H
	DB	0c7H
	DB	039H
	DB	0c7H
	DB	039H
	DB	0a7H
	DB	039H
	DB	0c7H
	DB	039H
	DB	0c6H
	DB	031H
	DB	0a6H
	DB	031H
	DB	0a7H
	DB	039H
	DB	0c7H
	DB	039H
	DB	0c7H
	DB	039H
	DB	0a7H
	DB	039H
	DB	0c6H
	DB	031H
	DB	0a7H
	DB	039H
	DB	0a6H
	DB	031H
	DB	0c7H
	DB	039H
	DB	0a7H
	DB	039H
	DB	0c7H
	DB	039H
	DB	0a7H
	DB	039H
	DB	0c7H
	DB	039H
	DB	0c7H
	DB	039H
	DB	0a7H
	DB	039H
	DB	0a7H
	DB	039H
	DB	0c6H
	DB	031H
	DB	0a7H
	DB	039H
	DB	0a6H
	DB	031H
	DB	0c7H
	DB	039H
	DB	0a7H
	DB	039H
	DB	0a7H
	DB	039H
	DB	0c7H
	DB	039H
	DB	0a6H
	DB	031H
	DB	0c6H
	DB	031H
	DB	0a7H
	DB	039H
	DB	0c7H
	DB	039H
	DB	0a7H
	DB	039H
	DB	0a7H
	DB	039H
	DB	0c6H
	DB	031H
	DB	0a7H
	DB	039H
	DB	0c6H
	DB	031H
	DB	0c7H
	DB	039H
	DB	0a7H
	DB	039H
	DB	0c7H
	DB	039H
	DB	0c7H
	DB	039H
	DB	0a7H
	DB	039H
	DB	0a7H
	DB	039H
	DB	0c7H
	DB	039H
	DB	0c7H
	DB	039H
	DB	0a6H
	DB	031H
	DB	0c7H
	DB	039H
	DB	0a6H
	DB	031H
	DB	0a7H
	DB	039H
	DB	0c7H
	DB	039H
	DB	0a7H
	DB	039H
	DB	0c7H
	DB	039H
	DB	0a6H
	DB	031H
	DB	0c6H
	DB	031H
	DB	0c7H
	DB	039H
	DB	0a7H
	DB	039H
	DB	0a7H
	DB	039H
	DB	0c7H
	DB	039H
	DB	0a6H
	DB	031H
	DB	0a7H
	DB	039H
	DB	0c6H
	DB	031H
	DB	0a7H
	DB	039H
	DB	0a7H
	DB	039H
	DB	0c7H
	DB	039H
	DB	0a7H
	DB	039H
	DB	0c7H
	DB	039H
	DB	0a7H
	DB	039H
	DB	0c7H
	DB	039H
	DB	0a7H
	DB	039H
	DB	0a6H
	DB	031H
	DB	0c7H
	DB	039H
	DB	0a6H
	DB	031H
	DB	0c7H
	DB	039H
	DB	0c7H
	DB	039H
	DB	0a7H
	DB	039H
	DB	0c7H
	DB	039H
	DB	0c6H
	DB	031H
	DB	0a6H
	DB	031H
	DB	0a7H
	DB	039H
	DB	0c7H
	DB	039H
	DB	0c7H
	DB	039H
	DB	0a7H
	DB	039H
	DB	0c6H
	DB	031H
	DB	0a7H
	DB	039H
	DB	0a6H
	DB	031H
	DB	0c7H
	DB	039H
	DB	0a7H
	DB	039H
	DB	0c7H
	DB	039H
	DB	0a7H
	DB	039H
	DB	0c7H
	DB	039H
	DB	0c7H
	DB	039H
	DB	0a7H
	DB	039H
	DB	0a7H
	DB	039H
	DB	0c6H
	DB	031H
	DB	0a7H
	DB	039H
	DB	0a6H
	DB	031H
	DB	0c7H
	DB	039H
	DB	0a7H
	DB	039H
	DB	0a7H
	DB	039H
	DB	0c7H
	DB	039H
	DB	0a6H
	DB	031H
	DB	0c6H
	DB	031H
	DB	0a7H
	DB	039H
	DB	0c7H
	DB	039H
	DB	0a7H
	DB	039H
	DB	0a7H
	DB	039H
	DB	0c6H
	DB	031H
	DB	0a7H
	DB	039H
	DB	0c6H
	DB	031H
	DB	0c7H
	DB	039H
	DB	0a7H
	DB	039H
	DB	0c7H
	DB	039H
	DB	0c7H
	DB	039H
	DB	0a7H
	DB	039H
	DB	0a7H
	DB	039H
	DB	0c7H
	DB	039H
	DB	0c7H
	DB	039H
	DB	0a6H
	DB	031H
	DB	0c7H
	DB	039H
	DB	0a6H
	DB	031H
	DB	0a7H
	DB	039H
	DB	0c7H
	DB	039H
	DB	0a7H
	DB	039H
	DB	0c7H
	DB	039H
	DB	0a6H
	DB	031H
	DB	0c6H
	DB	031H
	DB	0c7H
	DB	039H
	DB	0a7H
	DB	039H
	DB	0a7H
	DB	039H
	DB	0c7H
	DB	039H
	DB	0a6H
	DB	031H
	DB	0a7H
	DB	039H
	DB	0c6H
	DB	031H
	DB	0a7H
	DB	039H
	DB	0a7H
	DB	039H
	DB	0c7H
	DB	039H
	DB	0a7H
	DB	039H
	DB	0c7H
	DB	039H
	DB	0a7H
	DB	039H
	DB	0c7H
	DB	039H
	DB	0a7H
	DB	039H
	DB	0a6H
	DB	031H
	DB	0c7H
	DB	039H
	DB	0a6H
	DB	031H
	DB	0c7H
	DB	039H
	DB	0c7H
	DB	039H
	DB	0a7H
	DB	039H
	DB	0c7H
	DB	039H
	DB	0c6H
	DB	031H
	DB	0a6H
	DB	031H
	DB	0a7H
	DB	039H
	DB	0c7H
	DB	039H
	DB	0c7H
	DB	039H
	DB	0a7H
	DB	039H
	DB	0c6H
	DB	031H
	DB	0a7H
	DB	039H
	DB	0a6H
	DB	031H
	DB	0c7H
	DB	039H
	DB	0a7H
	DB	039H
	DB	0c7H
	DB	039H
	DB	0a7H
	DB	039H
	DB	0c7H
	DB	039H
	DB	0a7H
	DB	039H
	DB	0a7H
	DB	039H
	DB	0c7H
	DB	039H
	DB	0a7H
	DB	039H
	DB	0c7H
	DB	039H
	DB	0a6H
	DB	031H
	DB	0c7H
	DB	039H
	DB	0a7H
	DB	039H
	DB	0a6H
	DB	031H
	DB	0c7H
	DB	039H
	DB	0a7H
	DB	039H
	DB	0c7H
	DB	039H
	DB	0c7H
	DB	039H
	DB	0a6H
	DB	031H
	DB	0a7H
	DB	039H
	DB	0c7H
	DB	039H
	DB	0c6H
	DB	031H
	DB	0a7H
	DB	039H
	DB	0c7H
	DB	039H
	DB	0c7H
	DB	039H
	DB	0a6H
	DB	031H
	DB	0c7H
	DB	039H
	DB	0c7H
	DB	039H
	DB	0a6H
	DB	031H
	DB	0c7H
	DB	039H
	DB	0a7H
	DB	039H
	DB	0c6H
	DB	031H
	DB	0a7H
	DB	039H
	DB	0a7H
	DB	039H
	DB	0c6H
	DB	031H
	DB	0c7H
	DB	039H
	DB	0a7H
	DB	039H
	DB	0c6H
	DB	031H
	DB	0c7H
	DB	039H
	DB	0a7H
	DB	039H
	DB	0c7H
	DB	039H
	DB	0c7H
	DB	039H
	DB	0a6H
	DB	031H
	DB	0a7H
	DB	039H
	DB	0c7H
	DB	039H
	DB	0c6H
	DB	031H
	DB	0a7H
	DB	039H
	DB	0c7H
	DB	039H
	DB	0a6H
	DB	031H
	DB	0a7H
	DB	039H
	DB	0c6H
	DB	031H
	DB	0c7H
	DB	039H
	DB	0a6H
	DB	031H
	DB	0c6H
	DB	031H
	DB	0c7H
	DB	039H
	DB	0a6H
	DB	031H
	DB	0c7H
	DB	039H
	DB	0a6H
	DB	031H
	DB	0a7H
	DB	039H
	DB	0c7H
	DB	039H
	DB	0c7H
	DB	039H
	DB	0c6H
	DB	031H
	DB	0a7H
	DB	039H
	DB	0c7H
	DB	039H
	DB	0a6H
	DB	031H
	DB	0c6H
	DB	031H
	DB	0c7H
	DB	039H
	DB	0a7H
	DB	039H
	DB	0a6H
	DB	031H
	DB	0c7H
	DB	039H
	DB	0a6H
	DB	031H
	DB	0a7H
	DB	039H
	DB	0c7H
	DB	039H
	DB	0a7H
	DB	039H
	DB	0a7H
	DB	039H
	DB	0c7H
	DB	039H
	DB	0a7H
	DB	039H
	DB	0c7H
	DB	039H
	DB	0c7H
	DB	039H
	DB	0a6H
	DB	031H
	DB	0c7H
	DB	039H
	DB	0a7H
	DB	039H
	DB	0a6H
	DB	031H
	DB	0c7H
	DB	039H
	DB	0a7H
	DB	039H
	DB	0c6H
	DB	031H
	DB	0a7H
	DB	039H
	DB	0c7H
	DB	039H
	DB	0c7H
	DB	039H
	DB	0a7H
	DB	039H
	DB	0c7H
	DB	039H
	DB	0a7H
	DB	039H
	DB	0a7H
	DB	039H
	DB	0c7H
	DB	039H
	DB	0a7H
	DB	039H
	DB	0c7H
	DB	039H
	DB	0c6H
	DB	031H
	DB	0a7H
	DB	039H
	DB	0c6H
	DB	031H
	DB	0c7H
	DB	039H
	DB	0a6H
	DB	031H
	DB	0c7H
	DB	039H
	DB	0c7H
	DB	039H
	DB	0a6H
	DB	031H
	DB	0c7H
	DB	039H
	DB	0a7H
	DB	039H
	DB	0a6H
	DB	031H
	DB	0c7H
	DB	039H
	DB	0a7H
	DB	039H
	DB	0a7H
	DB	039H
	DB	0c7H
	DB	039H
	DB	0c6H
	DB	031H
	DB	0a7H
	DB	039H
	DB	0a7H
	DB	039H
	DB	0c7H
	DB	039H
	DB	0a7H
	DB	039H
	DB	0c7H
	DB	039H
	DB	0c7H
	DB	039H
	DB	0a7H
	DB	039H
	DB	0c7H
	DB	039H
	DB	0a6H
	DB	031H
	DB	0c7H
	DB	039H
	DB	0a7H
	DB	039H
	DB	0c6H
	DB	031H
	DB	0a6H
	DB	031H
	DB	0c7H
	DB	039H
	DB	0a7H
	DB	039H
	DB	0c6H
	DB	031H
	DB	0a7H
	DB	039H
	DB	0c7H
	DB	039H
	DB	0c7H
	DB	039H
	DB	0a6H
	DB	031H
	DB	0c7H
	DB	039H
	DB	0c7H
	DB	039H
	DB	0a7H
	DB	039H
	DB	0a7H
	DB	039H
	DB	0c7H
	DB	039H
	DB	0a6H
	DB	031H
	DB	0c7H
	DB	039H
	DB	0c7H
	DB	039H
	DB	0a7H
	DB	039H
	DB	0c7H
	DB	039H
	DB	0a7H
	DB	039H
	DB	0a7H
	DB	039H
	DB	0c6H
	DB	031H
	DB	0a7H
	DB	039H
	DB	0c7H
	DB	039H
	DB	0a6H
	DB	031H
	DB	0a6H
	DB	031H
	DB	0c7H
	DB	039H
	DB	0a7H
	DB	039H
	DB	0a6H
	DB	031H
	DB	0c7H
	DB	039H
	DB	0c7H
	DB	039H
	DB	0a7H
	DB	039H
	DB	0c6H
	DB	031H
	DB	0a7H
	DB	039H
	DB	0c7H
	DB	039H
	DB	0a7H
	DB	039H
	DB	0c7H
	DB	039H
	DB	0a7H
	DB	039H
	DB	0c6H
	DB	031H
	DB	0a7H
	DB	039H
	DB	0c7H
	DB	039H
	DB	0a7H
	DB	039H
	DB	0c7H
	DB	039H
	DB	0c7H
	DB	039H
	DB	0a7H
	DB	039H
	DB	0c6H
	DB	031H
	DB	0c7H
	DB	039H
	DB	0a7H
	DB	039H
	DB	0a6H
	DB	031H
	DB	0c6H
	DB	031H
	DB	0a7H
	DB	039H
	DB	0c7H
	DB	039H
	DB	0c6H
	DB	031H
	DB	0a7H
	DB	039H
	DB	0c7H
	DB	039H
	DB	0a7H
	DB	039H
	DB	0a6H
	DB	031H
	DB	0c7H
	DB	039H
	DB	0a7H
	DB	039H
	DB	0c7H
	DB	039H
	DB	0a7H
	DB	039H
	DB	0a7H
	DB	039H
	DB	0c6H
	DB	031H
	DB	0a7H
	DB	039H
	DB	0a7H
	DB	039H
	DB	0c7H
	DB	039H
	DB	0c7H
	DB	039H
	DB	0a7H
	DB	039H
	DB	0c7H
	DB	039H
	DB	0a6H
	DB	031H
	DB	0c7H
	DB	039H
	DB	0a7H
	DB	039H
	DB	0c6H
	DB	031H
	DB	0a6H
	DB	031H
	DB	0c7H
	DB	039H
	DB	0a7H
	DB	039H
	DB	0c6H
	DB	031H
	DB	0a7H
	DB	039H
	DB	0c7H
	DB	039H
	DB	0c7H
	DB	039H
	DB	0a6H
	DB	031H
	DB	0c7H
	DB	039H
	DB	0c7H
	DB	039H
	DB	0a7H
	DB	039H
	DB	0a7H
	DB	039H
	DB	0c7H
	DB	039H
	DB	0a6H
	DB	031H
	DB	0c7H
	DB	039H
	DB	0c7H
	DB	039H
	DB	0a7H
	DB	039H
	DB	0c7H
	DB	039H
	DB	0a7H
	DB	039H
	DB	0a7H
	DB	039H
	DB	0c6H
	DB	031H
	DB	0a7H
	DB	039H
	DB	0c7H
	DB	039H
	DB	0a6H
	DB	031H
	DB	0a6H
	DB	031H
	DB	0c7H
	DB	039H
	DB	0a7H
	DB	039H
	DB	0a6H
	DB	031H
	DB	0c7H
	DB	039H
	DB	0c7H
	DB	039H
	DB	0a7H
	DB	039H
	DB	0c6H
	DB	031H
	DB	0a7H
	DB	039H
	DB	0c7H
	DB	039H
	DB	0a7H
	DB	039H
	DB	0c7H
	DB	039H
	DB	0a7H
	DB	039H
	DB	0c6H
	DB	031H
	DB	0a7H
	DB	039H
	DB	0c7H
	DB	039H
	DB	0a7H
	DB	039H
	DB	0c7H
	DB	039H
	DB	0c7H
	DB	039H
	DB	0a7H
	DB	039H
	DB	0c6H
	DB	031H
	DB	0c7H
	DB	039H
	DB	0a7H
	DB	039H
	DB	0a6H
	DB	031H
	DB	0c6H
	DB	031H
	DB	0a7H
	DB	039H
	DB	0c7H
	DB	039H
	DB	0c6H
	DB	031H
	DB	0a7H
	DB	039H
	DB	0c7H
	DB	039H
	DB	0a7H
	DB	039H
	DB	0a6H
	DB	031H
	DB	0c7H
	DB	039H
	DB	0a7H
	DB	039H
	DB	0c7H
	DB	039H
	DB	0a7H
	DB	039H
	DB	0a7H
	DB	039H
	DB	0c6H
	DB	031H
	DB	0a7H
	DB	039H
	DB	0a7H
	DB	039H
	DB	0c7H
	DB	039H
	DB	0c7H
	DB	039H
	DB	0a7H
	DB	039H
	DB	0c7H
	DB	039H
	DB	0a6H
	DB	031H
	DB	0c7H
	DB	039H
	DB	0a7H
	DB	039H
	DB	0c6H
	DB	031H
	DB	0a6H
	DB	031H
	DB	0c7H
	DB	039H
	DB	0a7H
	DB	039H
	DB	0c6H
	DB	031H
	DB	0a7H
	DB	039H
	DB	0c7H
	DB	039H
	DB	0c7H
	DB	039H
	DB	0a6H
	DB	031H
	DB	0c7H
	DB	039H
	DB	0c7H
	DB	039H
	DB	0a7H
	DB	039H
	DB	0a7H
	DB	039H
	DB	0c7H
	DB	039H
	DB	0a6H
	DB	031H
	DB	0c7H
	DB	039H
	DB	0c7H
	DB	039H
	DB	0a7H
	DB	039H
	DB	0c7H
	DB	039H
	DB	0a7H
	DB	039H
	DB	0a7H
	DB	039H
	DB	0c6H
	DB	031H
	DB	0a7H
	DB	039H
	DB	0c7H
	DB	039H
	DB	0a6H
	DB	031H
	DB	0a6H
	DB	031H
	DB	0c7H
	DB	039H
	DB	0a7H
	DB	039H
	DB	0a6H
	DB	031H
	DB	0c7H
	DB	039H
	DB	0c7H
	DB	039H
	DB	0a7H
	DB	039H
	DB	0c6H
	DB	031H
	DB	0a7H
	DB	039H
	DB	0c7H
	DB	039H
	DB	0a7H
	DB	039H
	DB	0c7H
	DB	039H
	DB	0a7H
	DB	039H
	DB	0c6H
	DB	031H
	DB	0a7H
	DB	039H
	DB	0c7H
	DB	039H
	DB	0a7H
	DB	039H
	DB	0c7H
	DB	039H
	DB	0c7H
	DB	039H
	DB	0a7H
	DB	039H
	DB	0c6H
	DB	031H
	DB	0c7H
	DB	039H
	DB	0a7H
	DB	039H
	DB	0a6H
	DB	031H
	DB	0c6H
	DB	031H
	DB	0a7H
	DB	039H
	DB	0c7H
	DB	039H
	DB	0c6H
	DB	031H
	DB	0a7H
	DB	039H
	DB	0c7H
	DB	039H
	DB	0a7H
	DB	039H
	DB	0a6H
	DB	031H
	DB	0c7H
	DB	039H
	DB	0a7H
	DB	039H
	DB	0c7H
	DB	039H
	DB	0a7H
	DB	039H
	DB	0a7H
	DB	039H
	DB	0c6H
	DB	031H
	DB	0a7H
	DB	039H
	DB	0a7H
	DB	039H
	DB	0c7H
	DB	039H
	DB	0c7H
	DB	039H
	DB	0a7H
	DB	039H
	DB	0c7H
	DB	039H
	DB	0a6H
	DB	031H
	DB	0c7H
	DB	039H
	DB	0a7H
	DB	039H
	DB	0c6H
	DB	031H
	DB	0a6H
	DB	031H
	DB	0c7H
	DB	039H
	DB	0a7H
	DB	039H
	DB	0c6H
	DB	031H
	DB	0a7H
	DB	039H
	DB	0c7H
	DB	039H
	DB	0c7H
	DB	039H
	DB	0a6H
	DB	031H
	DB	0c7H
	DB	039H
	DB	0c7H
	DB	039H
	DB	0a7H
	DB	039H
	DB	0a7H
	DB	039H
	DB	0c7H
	DB	039H
	DB	0a6H
	DB	031H
	DB	0c7H
	DB	039H
	DB	0c7H
	DB	039H
	DB	0a7H
	DB	039H
	DB	0c7H
	DB	039H
	DB	0a7H
	DB	039H
	DB	0a7H
	DB	039H
	DB	0c6H
	DB	031H
	DB	0a7H
	DB	039H
	DB	0c7H
	DB	039H
	DB	0a6H
	DB	031H
	DB	0a6H
	DB	031H
	DB	0c7H
	DB	039H
	DB	0a7H
	DB	039H
	DB	0a6H
	DB	031H
	DB	0c7H
	DB	039H
	DB	0c7H
	DB	039H
	DB	0a7H
	DB	039H
	DB	0c6H
	DB	031H
	DB	0a7H
	DB	039H
	DB	0c7H
	DB	039H
	DB	0a7H
	DB	039H
	DB	0c7H
	DB	039H
	DB	0a7H
	DB	039H
	DB	0c6H
	DB	031H
	DB	0a7H
	DB	039H
	DB	0c7H
	DB	039H
	DB	0a7H
	DB	039H
	DB	0c7H
	DB	039H
	DB	0c7H
	DB	039H
	DB	0a7H
	DB	039H
	DB	0c6H
	DB	031H
	DB	0c7H
	DB	039H
	DB	0a7H
	DB	039H
	DB	0a6H
	DB	031H
	DB	0c6H
	DB	031H
	DB	0a7H
	DB	039H
	DB	0c7H
	DB	039H
	DB	0c6H
	DB	031H
	DB	0a7H
	DB	039H
	DB	0c7H
	DB	039H
	DB	0a7H
	DB	039H
	DB	0a6H
	DB	031H
	DB	0c7H
	DB	039H
	DB	0a7H
	DB	039H
	DB	0c7H
	DB	039H
	DB	0a7H
	DB	039H
	DB	0a7H
	DB	039H
	DB	0c6H
	DB	031H
	DB	0a7H
	DB	039H
	DB	0a7H
	DB	039H
	DB	0c7H
	DB	039H
	DB	0c7H
	DB	039H
	DB	0a7H
	DB	039H
	DB	0c7H
	DB	039H
	DB	0a6H
	DB	031H
	DB	0c7H
	DB	039H
	DB	0a7H
	DB	039H
	DB	0c6H
	DB	031H
	DB	0a6H
	DB	031H
	DB	0c7H
	DB	039H
	DB	0a7H
	DB	039H
	DB	0c6H
	DB	031H
	DB	0a7H
	DB	039H
	DB	0c7H
	DB	039H
	DB	0c7H
	DB	039H
	DB	0a6H
	DB	031H
	DB	0c7H
	DB	039H
	DB	0c7H
	DB	039H
	DB	0a7H
	DB	039H
	DB	0a7H
	DB	039H
	DB	0c7H
	DB	039H
	DB	0a6H
	DB	031H
	DB	0c7H
	DB	039H
	DB	0c7H
	DB	039H
	DB	0a7H
	DB	039H
	DB	0c7H
	DB	039H
	DB	0a7H
	DB	039H
	DB	0a7H
	DB	039H
	DB	0c6H
	DB	031H
	DB	0a7H
	DB	039H
	DB	0c7H
	DB	039H
	DB	0a6H
	DB	031H
	DB	0a6H
	DB	031H
	DB	0c7H
	DB	039H
	DB	0a7H
	DB	039H
	DB	0a6H
	DB	031H
	DB	0c7H
	DB	039H
	DB	0c7H
	DB	039H
	DB	0a7H
	DB	039H
	DB	0c6H
	DB	031H
	DB	0a7H
	DB	039H
	DB	0c7H
	DB	039H
	DB	0a7H
	DB	039H
	DB	0c7H
	DB	039H
	DB	0a7H
	DB	039H
	DB	0c6H
	DB	031H
	DB	0a7H
	DB	039H
	DB	0c7H
	DB	039H
	DB	0a7H
	DB	039H
	DB	0c7H
	DB	039H
	DB	0c7H
	DB	039H
	DB	0a7H
	DB	039H
	DB	0c6H
	DB	031H
	DB	0c7H
	DB	039H
	DB	0a7H
	DB	039H
	DB	0a6H
	DB	031H
	DB	0c6H
	DB	031H
	DB	0a7H
	DB	039H
	DB	0c7H
	DB	039H
	DB	0c6H
	DB	031H
	DB	0a7H
	DB	039H
	DB	0c7H
	DB	039H
	DB	0a7H
	DB	039H
	DB	0a6H
	DB	031H
	DB	0c7H
	DB	039H
	DB	0a7H
	DB	039H
	DB	0c7H
	DB	039H
	DB	0a7H
	DB	039H
	DB	0a7H
	DB	039H
	DB	0c6H
	DB	031H
	DB	0a7H
	DB	039H
	DB	0a7H
	DB	039H
	DB	0c7H
	DB	039H
	DB	0c7H
	DB	039H
	DB	0a7H
	DB	039H
	DB	0c7H
	DB	039H
	DB	0a6H
	DB	031H
	DB	0c7H
	DB	039H
	DB	0a7H
	DB	039H
	DB	0c6H
	DB	031H
	DB	0c6H
	DB	031H
	DB	0a7H
	DB	039H
	DB	0c7H
	DB	039H
	DB	0a6H
	DB	031H
	DB	0c7H
	DB	039H
	DB	0a7H
	DB	039H
	DB	0c7H
	DB	039H
	DB	0c6H
	DB	031H
	DB	0a7H
	DB	039H
	DB	0c7H
	DB	039H
	DB	0a7H
	DB	039H
	DB	0a6H
	DB	031H
	DB	0a7H
	DB	039H
	DB	0c7H
	DB	039H
	DB	0a7H
	DB	039H
	DB	0a7H
	DB	039H
	DB	0a7H
	DB	039H
	DB	0c7H
	DB	039H
	DB	0a6H
	DB	031H
	DB	0c7H
	DB	039H
	DB	0a7H
	DB	039H
	DB	0a6H
	DB	031H
	DB	0c7H
	DB	039H
	DB	0a7H
	DB	039H
	DB	0c6H
	DB	031H
	DB	0a7H
	DB	039H
	DB	0c7H
	DB	039H
	DB	0c7H
	DB	039H
	DB	0a7H
	DB	039H
	DB	0c7H
	DB	039H
	DB	0a7H
	DB	039H
	DB	0a7H
	DB	039H
	DB	0c7H
	DB	039H
	DB	0a7H
	DB	039H
	DB	0a6H
	DB	031H
	DB	0c7H
	DB	039H
	DB	0a7H
	DB	039H
	DB	0c7H
	DB	039H
	DB	0c7H
	DB	039H
	DB	0a7H
	DB	039H
	DB	0a7H
	DB	039H
	DB	0c7H
	DB	039H
	DB	0a7H
	DB	039H
	DB	0c7H
	DB	039H
	DB	0c7H
	DB	039H
	DB	0a7H
	DB	039H
	DB	0a7H
	DB	039H
	DB	0c7H
	DB	039H
	DB	0a7H
	DB	039H
	DB	0c7H
	DB	039H
	DB	0a7H
	DB	039H
	DB	0c7H
	DB	039H
	DB	0c6H
	DB	031H
	DB	0a7H
	DB	039H
	DB	0a7H
	DB	039H
	DB	0c6H
	DB	031H
	DB	0a7H
	DB	039H
	DB	0a7H
	DB	039H
	DB	0c7H
	DB	039H
	DB	0c7H
	DB	039H
	DB	0a7H
	DB	039H
	DB	0a7H
	DB	039H
	DB	0c7H
	DB	039H
	DB	0c6H
	DB	031H
	DB	0a7H
	DB	039H
	DB	0c7H
	DB	039H
	DB	0c6H
	DB	031H
	DB	0a7H
	DB	039H
	DB	0c6H
	DB	031H
	DB	0a6H
	DB	031H
	DB	0c7H
	DB	039H
	DB	0a7H
	DB	039H
	DB	0a6H
	DB	031H
	DB	0c7H
	DB	039H
	DB	0a7H
	DB	039H
	DB	0c7H
	DB	039H
	DB	0c7H
	DB	039H
	DB	0a7H
	DB	039H
	DB	0c6H
	DB	031H
	DB	0a7H
	DB	039H
	DB	0c7H
	DB	039H
	DB	0a7H
	DB	039H
	DB	0a7H
	DB	039H
	DB	0c6H
	DB	031H
	DB	0a7H
	DB	039H
	DB	0c6H
	DB	031H
	DB	0c7H
	DB	039H
	DB	0a6H
	DB	031H
	DB	0c6H
	DB	031H
	DB	0a7H
	DB	039H
	DB	0a7H
	DB	039H
	DB	0c7H
	DB	039H
	DB	0a7H
	DB	039H
	DB	0a7H
	DB	039H
	DB	0c7H
	DB	039H
	DB	0a7H
	DB	039H
	DB	0a7H
	DB	039H
	DB	0c7H
	DB	039H
	DB	0a7H
	DB	039H
	DB	0c7H
	DB	039H
	DB	0c7H
	DB	039H
	DB	0a7H
	DB	039H
	DB	0c6H
	DB	031H
	DB	0c7H
	DB	039H
	DB	0a7H
	DB	039H
	DB	0a6H
	DB	031H
	DB	0c7H
	DB	039H
	DB	0a7H
	DB	039H
	DB	0c7H
	DB	039H
	DB	0c6H
	DB	031H
	DB	0a6H
	DB	031H
	DB	0a7H
	DB	039H
	DB	0c6H
	DB	031H
	DB	0a7H
	DB	039H
	DB	0c7H
	DB	039H
	DB	0c6H
	DB	031H
	DB	0a7H
	DB	039H
	DB	0a7H
	DB	039H
	DB	0c7H
	DB	039H
	DB	0a7H
	DB	039H
	DB	0c7H
	DB	039H
	DB	0a6H
	DB	031H
	DB	0c7H
	DB	039H
	DB	0a7H
	DB	039H
	DB	0c7H
	DB	039H
	DB	0a7H
	DB	039H
	DB	0c7H
	DB	039H
	DB	0a6H
	DB	031H
	DB	0c7H
	DB	039H
	DB	0c6H
	DB	031H
	DB	0a6H
	DB	031H
	DB	0c7H
	DB	039H
	DB	0a7H
	DB	039H
	DB	0c7H
	DB	039H
	DB	0a6H
	DB	031H
	DB	0a7H
	DB	039H
	DB	0c6H
	DB	031H
	DB	0c7H
	DB	039H
	DB	0a7H
	DB	039H
	DB	0c6H
	DB	031H
	DB	0a7H
	DB	039H
	DB	0c7H
	DB	039H
	DB	0a6H
	DB	031H
	DB	0c7H
	DB	039H
	DB	0c7H
	DB	039H
	DB	0c7H
	DB	039H
	DB	0a6H
	DB	031H
	DB	0c7H
	DB	039H
	DB	0a7H
	DB	039H
	DB	0a7H
	DB	039H
	DB	0c7H
	DB	039H
	DB	0c6H
	DB	031H
	DB	0a7H
	DB	039H
	DB	0a6H
	DB	031H
	DB	0c6H
	DB	031H
	DB	0a7H
	DB	039H
	DB	0c7H
	DB	039H
	DB	0a7H
	DB	039H
	DB	0c6H
	DB	031H
	DB	0a7H
	DB	039H
	DB	0c6H
	DB	031H
	DB	0a7H
	DB	039H
	DB	0c7H
	DB	039H
	DB	0a6H
	DB	031H
	DB	0c7H
	DB	039H
	DB	0c7H
	DB	039H
	DB	0a6H
	DB	031H
	DB	0c7H
	DB	039H
	DB	0a7H
	DB	039H
	DB	0c7H
	DB	039H
	DB	0a6H
	DB	031H
	DB	0a7H
	DB	039H
	DB	0c7H
	DB	039H
	DB	0c7H
	DB	039H
	DB	0a7H
	DB	039H
	DB	0c6H
	DB	031H
	DB	0a7H
	DB	039H
	DB	0c6H
	DB	031H
	DB	0a6H
	DB	031H
	DB	0c7H
	DB	039H
	DB	0c7H
	DB	039H
	DB	0c7H
	DB	039H
	DB	0a6H
	DB	031H
	DB	0c7H
	DB	039H
	DB	0a6H
	DB	031H
	DB	0a7H
	DB	039H
	DB	0c7H
	DB	039H
	DB	0c6H
	DB	031H
	DB	0a7H
	DB	039H
	DB	0a7H
	DB	039H
	DB	0c6H
	DB	031H
	DB	0a7H
	DB	039H
	DB	0c7H
	DB	039H
	DB	0a7H
	DB	039H
	DB	0c6H
	DB	031H
	DB	0a7H
	DB	039H
	DB	0c7H
	DB	039H
	DB	0a7H
	DB	039H
	DB	0c7H
	DB	039H
	DB	0a6H
	DB	031H
	DB	0c7H
	DB	039H
	DB	0c6H
	DB	031H
	DB	0a6H
	DB	031H
	DB	0c7H
	DB	039H
	DB	0a7H
	DB	039H
	DB	0c7H
	DB	039H
	DB	0a6H
	DB	031H
	DB	0a7H
	DB	039H
	DB	0c6H
	DB	031H
	DB	0c7H
	DB	039H
	DB	0a7H
	DB	039H
	DB	0c6H
	DB	031H
	DB	0a7H
	DB	039H
	DB	0c7H
	DB	039H
	DB	0a6H
	DB	031H
	DB	0c7H
	DB	039H
	DB	0c7H
	DB	039H
	DB	0c7H
	DB	039H
	DB	0a6H
	DB	031H
	DB	0c7H
	DB	039H
	DB	0a7H
	DB	039H
	DB	0a7H
	DB	039H
	DB	0c7H
	DB	039H
	DB	0c6H
	DB	031H
	DB	0a7H
	DB	039H
	DB	0a6H
	DB	031H
	DB	0c6H
	DB	031H
	DB	0a7H
	DB	039H
	DB	0c7H
	DB	039H
	DB	0a7H
	DB	039H
	DB	0c6H
	DB	031H
	DB	0a7H
	DB	039H
	DB	0c6H
	DB	031H
	DB	0a7H
	DB	039H
	DB	0c7H
	DB	039H
	DB	0a6H
	DB	031H
	DB	0c7H
	DB	039H
	DB	0c7H
	DB	039H
	DB	0a6H
	DB	031H
	DB	0c7H
	DB	039H
	DB	0a7H
	DB	039H
	DB	0c7H
	DB	039H
	DB	0a6H
	DB	031H
	DB	0a7H
	DB	039H
	DB	0c7H
	DB	039H
	DB	0c7H
	DB	039H
	DB	0a7H
	DB	039H
	DB	0c6H
	DB	031H
	DB	0a7H
	DB	039H
	DB	0c6H
	DB	031H
	DB	0a6H
	DB	031H
	DB	0c7H
	DB	039H
	DB	0c7H
	DB	039H
	DB	0c7H
	DB	039H
	DB	0a6H
	DB	031H
	DB	0c7H
	DB	039H
	DB	0a6H
	DB	031H
	DB	0a7H
	DB	039H
	DB	0c7H
	DB	039H
	DB	0c6H
	DB	031H
	DB	0a7H
	DB	039H
	DB	0a7H
	DB	039H
	DB	0c6H
	DB	031H
	DB	0a7H
	DB	039H
	DB	0c7H
	DB	039H
	DB	0a7H
	DB	039H
	DB	0c6H
	DB	031H
	DB	0a7H
	DB	039H
	DB	0c7H
	DB	039H
	DB	0a7H
	DB	039H
	DB	0c7H
	DB	039H
	DB	0a6H
	DB	031H
	DB	0c7H
	DB	039H
	DB	0c6H
	DB	031H
	DB	0a6H
	DB	031H
	DB	0c7H
	DB	039H
	DB	0a7H
	DB	039H
	DB	0c7H
	DB	039H
	DB	0a6H
	DB	031H
	DB	0a7H
	DB	039H
	DB	0c6H
	DB	031H
	DB	0c7H
	DB	039H
	DB	0a7H
	DB	039H
	DB	0c6H
	DB	031H
	DB	0a7H
	DB	039H
	DB	0c7H
	DB	039H
	DB	0a6H
	DB	031H
	DB	0c7H
	DB	039H
	DB	0c7H
	DB	039H
	DB	0c7H
	DB	039H
	DB	0a6H
	DB	031H
	DB	0c7H
	DB	039H
	DB	0a7H
	DB	039H
	DB	0a7H
	DB	039H
	DB	0c7H
	DB	039H
	DB	0c6H
	DB	031H
	DB	0a7H
	DB	039H
	DB	0a6H
	DB	031H
	DB	0c6H
	DB	031H
	DB	0a7H
	DB	039H
	DB	0c7H
	DB	039H
	DB	0a7H
	DB	039H
	DB	0c6H
	DB	031H
	DB	0a7H
	DB	039H
	DB	0c6H
	DB	031H
	DB	0a7H
	DB	039H
	DB	0c7H
	DB	039H
	DB	0a6H
	DB	031H
	DB	0c7H
	DB	039H
	DB	0c7H
	DB	039H
	DB	0a6H
	DB	031H
	DB	0c7H
	DB	039H
	DB	0a7H
	DB	039H
	DB	0c7H
	DB	039H
	DB	0a6H
	DB	031H
	DB	0a7H
	DB	039H
	DB	0c7H
	DB	039H
	DB	0c7H
	DB	039H
	DB	0a7H
	DB	039H
	DB	0c6H
	DB	031H
	DB	0a7H
	DB	039H
	DB	0c6H
	DB	031H
	DB	0a6H
	DB	031H
	DB	0c7H
	DB	039H
	DB	0c7H
	DB	039H
	DB	0c7H
	DB	039H
	DB	0a6H
	DB	031H
	DB	0c7H
	DB	039H
	DB	0a6H
	DB	031H
	DB	0a7H
	DB	039H
	DB	0c7H
	DB	039H
	DB	0c6H
	DB	031H
	DB	0a7H
	DB	039H
	DB	0a7H
	DB	039H
	DB	0c6H
	DB	031H
	DB	0a7H
	DB	039H
	DB	0c7H
	DB	039H
	DB	0a7H
	DB	039H
	DB	0c6H
	DB	031H
	DB	0a7H
	DB	039H
	DB	0c7H
	DB	039H
	DB	0a7H
	DB	039H
	DB	0c7H
	DB	039H
	DB	0a6H
	DB	031H
	DB	0c7H
	DB	039H
	DB	0c6H
	DB	031H
	DB	0a6H
	DB	031H
	DB	0c7H
	DB	039H
	DB	0a7H
	DB	039H
	DB	0c7H
	DB	039H
	DB	0a6H
	DB	031H
	DB	0a7H
	DB	039H
	DB	0c6H
	DB	031H
	DB	0c7H
	DB	039H
	DB	0a7H
	DB	039H
	DB	0c6H
	DB	031H
	DB	0a7H
	DB	039H
	DB	0c7H
	DB	039H
	DB	0a6H
	DB	031H
	DB	0c7H
	DB	039H
	DB	0c7H
	DB	039H
	DB	0c7H
	DB	039H
	DB	0a6H
	DB	031H
	DB	0c7H
	DB	039H
	DB	0a7H
	DB	039H
	DB	0a7H
	DB	039H
	DB	0c7H
	DB	039H
	DB	0c6H
	DB	031H
	DB	0a7H
	DB	039H
	DB	0a6H
	DB	031H
	DB	0c6H
	DB	031H
	DB	0a7H
	DB	039H
	DB	0c7H
	DB	039H
	DB	0a7H
	DB	039H
	DB	0c6H
	DB	031H
	DB	0a7H
	DB	039H
	DB	0c6H
	DB	031H
	DB	0a7H
	DB	039H
	DB	0c7H
	DB	039H
	DB	0a6H
	DB	031H
	DB	0c7H
	DB	039H
	DB	0c7H
	DB	039H
	DB	0a6H
	DB	031H
	DB	0c7H
	DB	039H
	DB	0a7H
	DB	039H
	DB	0c7H
	DB	039H
	DB	0a6H
	DB	031H
	DB	0a7H
	DB	039H
	DB	0c7H
	DB	039H
	DB	0c7H
	DB	039H
	DB	0a7H
	DB	039H
	DB	0c6H
	DB	031H
	DB	0a7H
	DB	039H
	DB	0c6H
	DB	031H
	DB	0a6H
	DB	031H
	DB	0c7H
	DB	039H
	DB	0c7H
	DB	039H
	DB	0c7H
	DB	039H
	DB	0a6H
	DB	031H
	DB	0c7H
	DB	039H
	DB	0a6H
	DB	031H
	DB	0a7H
	DB	039H
	DB	0c7H
	DB	039H
	DB	0c6H
	DB	031H
	DB	0a7H
	DB	039H
	DB	0a7H
	DB	039H
	DB	0c6H
	DB	031H
	DB	0a7H
	DB	039H
	DB	0c7H
	DB	039H
	DB	0a7H
	DB	039H
	DB	0c6H
	DB	031H
	DB	0a7H
	DB	039H
	DB	0c7H
	DB	039H
	DB	0a7H
	DB	039H
	DB	0c7H
	DB	039H
	DB	0a6H
	DB	031H
	DB	0c7H
	DB	039H
	DB	0c6H
	DB	031H
	DB	0a6H
	DB	031H
	DB	0c7H
	DB	039H
	DB	0a7H
	DB	039H
	DB	0c7H
	DB	039H
	DB	0a6H
	DB	031H
	DB	0a7H
	DB	039H
	DB	0c6H
	DB	031H
	DB	0c7H
	DB	039H
	DB	0a7H
	DB	039H
	DB	0c6H
	DB	031H
	DB	0a7H
	DB	039H
	DB	0c7H
	DB	039H
	DB	0a6H
	DB	031H
	DB	0c7H
	DB	039H
	DB	0c7H
	DB	039H
	DB	0c7H
	DB	039H
	DB	0a6H
	DB	031H
	DB	0c7H
	DB	039H
	DB	0a7H
	DB	039H
	DB	0a7H
	DB	039H
	DB	0c7H
	DB	039H
	DB	0c6H
	DB	031H
	DB	0a7H
	DB	039H
	DB	0a6H
	DB	031H
	DB	0c6H
	DB	031H
	DB	0a7H
	DB	039H
	DB	0c7H
	DB	039H
	DB	0a7H
	DB	039H
	DB	0c6H
	DB	031H
	DB	0a7H
	DB	039H
	DB	0c6H
	DB	031H
	DB	0a7H
	DB	039H
	DB	0c7H
	DB	039H
	DB	0a6H
	DB	031H
	DB	0c7H
	DB	039H
	DB	0c7H
	DB	039H
	DB	0a6H
	DB	031H
	DB	0c7H
	DB	039H
	DB	0a7H
	DB	039H
	DB	0c7H
	DB	039H
	DB	0a6H
	DB	031H
	DB	0a7H
	DB	039H
	DB	0c7H
	DB	039H
	DB	0c7H
	DB	039H
	DB	0a7H
	DB	039H
	DB	0c6H
	DB	031H
	DB	0a7H
	DB	039H
	DB	0c6H
	DB	031H
	DB	0a6H
	DB	031H
	DB	0c7H
	DB	039H
	DB	0c7H
	DB	039H
	DB	0c7H
	DB	039H
	DB	0a6H
	DB	031H
	DB	0c7H
	DB	039H
	DB	0a6H
	DB	031H
	DB	0a7H
	DB	039H
	DB	0c7H
	DB	039H
	DB	0c6H
	DB	031H
	DB	0a7H
	DB	039H
	DB	0a7H
	DB	039H
	DB	0c6H
	DB	031H
	DB	0a7H
	DB	039H
	DB	0a7H
	DB	039H
	DB	0c7H
	DB	039H
	DB	0c6H
	DB	031H
	DB	0a7H
	DB	039H
	DB	0c7H
	DB	039H
	DB	0a6H
	DB	031H
	DB	0a7H
	DB	039H
	DB	0c7H
	DB	039H
	DB	0a7H
	DB	039H
	DB	0c7H
	DB	039H
	DB	0c6H
	DB	031H
	DB	0a7H
	DB	039H
	DB	0c7H
	DB	039H
	DB	0c6H
	DB	031H
	DB	0a7H
	DB	039H
	DB	0c7H
	DB	039H
	DB	0a6H
	DB	031H
	DB	0c7H
	DB	039H
	DB	0a7H
	DB	039H
	DB	0a7H
	DB	039H
	DB	0c7H
	DB	039H
	DB	0c7H
	DB	039H
	DB	0a7H
	DB	039H
	DB	0a7H
	DB	039H
	DB	0c7H
	DB	039H
	DB	0a6H
	DB	031H
	DB	0a7H
	DB	039H
	DB	0c7H
	DB	039H
	DB	0c6H
	DB	031H
	DB	0a7H
	DB	039H
	DB	0c6H
	DB	031H
	DB	0c7H
	DB	039H
	DB	0a7H
	DB	039H
	DB	0c6H
	DB	031H
	DB	0a7H
	DB	039H
	DB	0c7H
	DB	039H
	DB	0a6H
	DB	031H
	DB	0a6H
	DB	031H
	DB	0c7H
	DB	039H
	DB	0c6H
	DB	031H
	DB	0a7H
	DB	039H
	DB	0a6H
	DB	031H
	DB	0c7H
	DB	039H
	DB	0a6H
	DB	031H
	DB	0c7H
	DB	039H
	DB	0a7H
	DB	039H
	DB	0c6H
	DB	031H
	DB	0a7H
	DB	039H
	DB	0c7H
	DB	039H
	DB	0a6H
	DB	031H
	DB	0a7H
	DB	039H
	DB	0c7H
	DB	039H
	DB	0a7H
	DB	039H
	DB	0c7H
	DB	039H
	DB	0c7H
	DB	039H
	DB	0a7H
	DB	039H
	DB	0a6H
	DB	031H
	DB	0c7H
	DB	039H
	DB	0a6H
	DB	031H
	DB	0c7H
	DB	039H
	DB	0a7H
	DB	039H
	DB	0a6H
	DB	031H
	DB	0c7H
	DB	039H
	DB	0a7H
	DB	039H
	DB	0a7H
	DB	039H
	DB	0c7H
	DB	039H
	DB	0a7H
	DB	039H
	DB	0c7H
	DB	039H
	DB	0a7H
	DB	039H
	DB	0c7H
	DB	039H
	DB	0c7H
	DB	039H
	DB	0a6H
	DB	031H
	DB	0c7H
	DB	039H
	DB	0a7H
	DB	039H
	DB	0a6H
	DB	031H
	DB	0c7H
	DB	039H
	DB	0a7H
	DB	039H
	DB	0c6H
	DB	031H
	DB	0c7H
	DB	039H
	DB	0a7H
	DB	039H
	DB	0c6H
	DB	031H
	DB	0c7H
	DB	039H
	DB	0a7H
	DB	039H
	DB	0a7H
	DB	039H
	DB	0c6H
	DB	031H
	DB	0a7H
	DB	039H
	DB	0a7H
	DB	039H
	DB	0c7H
	DB	039H
	DB	0c7H
	DB	039H
	DB	0a6H
	DB	031H
	DB	0c7H
	DB	039H
	DB	0c6H
	DB	031H
	DB	0a7H
	DB	039H
	DB	0c7H
	DB	039H
	DB	0c6H
	DB	031H
	DB	0a7H
	DB	039H
	DB	0c7H
	DB	039H
	DB	0a6H
	DB	031H
	DB	0a7H
	DB	039H
	DB	0c6H
	DB	031H
	DB	0a7H
	DB	039H
	DB	0a7H
	DB	039H
	DB	0c7H
	DB	039H
	DB	0c7H
	DB	039H
	DB	0a6H
	DB	031H
	DB	0c7H
	DB	039H
	DB	0a7H
	DB	039H
	DB	0a7H
	DB	039H
	DB	0c7H
	DB	039H
	DB	0c7H
	DB	039H
	DB	0a7H
	DB	039H
	DB	0c7H
	DB	039H
	DB	0a6H
	DB	031H
	DB	0a7H
	DB	039H
	DB	0c7H
	DB	039H
	DB	0a7H
	DB	039H
	DB	0c6H
	DB	031H
	DB	0c7H
	DB	039H
	DB	0a6H
	DB	031H
	DB	0c7H
	DB	039H
	DB	0a7H
	DB	039H
	DB	0c7H
	DB	039H
	DB	0a7H
	DB	039H
	DB	0c6H
	DB	031H
	DB	0a7H
	DB	039H
	DB	0c6H
	DB	031H
	DB	0a7H
	DB	039H
	DB	0a7H
	DB	039H
	DB	0a7H
	DB	039H
	DB	0c7H
	DB	039H
	DB	0a7H
	DB	039H
	DB	0c7H
	DB	039H
	DB	0c7H
	DB	039H
	DB	0a7H
	DB	039H
	DB	0c7H
	DB	039H
	DB	0a6H
	DB	031H
	DB	0a7H
	DB	039H
	DB	0c7H
	DB	039H
	DB	0a6H
	DB	031H
	DB	0c7H
	DB	039H
	DB	0c7H
	DB	039H
	DB	0a7H
	DB	039H
	DB	0a7H
	DB	039H
	DB	0c7H
	DB	039H
	DB	0a7H
	DB	039H
	DB	0a7H
	DB	039H
	DB	0c7H
	DB	039H
	DB	0c7H
	DB	039H
	DB	0a6H
	DB	031H
	DB	0c7H
	DB	039H
	DB	0a7H
	DB	039H
	DB	0c7H
	DB	039H
	DB	0c7H
	DB	039H
	DB	0a7H
	DB	039H
	DB	0c7H
	DB	039H
	DB	0c7H
	DB	039H
	DB	0a7H
	DB	039H
	DB	0c7H
	DB	039H
	DB	0a7H
	DB	039H
	DB	0c6H
	DB	031H
	DB	0a7H
	DB	039H
	DB	0c7H
	DB	039H
	DB	0a6H
	DB	031H
	DB	0a7H
	DB	039H
	DB	0a7H
	DB	039H
	DB	0c7H
	DB	039H
	DB	0a7H
	DB	039H
	DB	0c7H
	DB	039H
	DB	0c7H
	DB	039H
	DB	0a7H
	DB	039H
	DB	0c7H
	DB	039H
	DB	0a7H
	DB	039H
	DB	0a6H
	DB	031H
	DB	0c7H
	DB	039H
	DB	0a7H
	DB	039H
	DB	0c7H
	DB	039H
	DB	0c7H
	DB	039H
	DB	0a7H
	DB	039H
	DB	0a7H
	DB	039H
	DB	0c7H
	DB	039H
	DB	0a7H
	DB	039H
	DB	0a7H
	DB	039H
	DB	0c7H
	DB	039H
	DB	0c6H
	DB	031H
	DB	0a7H
	DB	039H
	DB	0c7H
	DB	039H
	DB	0a6H
	DB	031H
	DB	0c7H
	DB	039H
	DB	0c7H
	DB	039H
	DB	0a7H
	DB	039H
	DB	0c7H
	DB	039H
	DB	0c7H
	DB	039H
	DB	0a7H
	DB	039H
	DB	0c7H
	DB	039H
	DB	0a7H
	DB	039H
	DB	0c7H
	DB	039H
	DB	0a6H
	DB	031H
	DB	0c7H
	DB	039H
	DB	0a7H
	DB	039H
	DB	0a7H
	DB	039H
	DB	0a7H
	DB	039H
	DB	0c7H
	DB	039H
	DB	0a7H
	DB	039H
	DB	0c7H
	DB	039H
	DB	0c7H
	DB	039H
	DB	0a7H
	DB	039H
	DB	0c7H
	DB	039H
	DB	0a6H
	DB	031H
	DB	0a7H
	DB	039H
	DB	0c7H
	DB	039H
	DB	0a6H
	DB	031H
	DB	0c7H
	DB	039H
	DB	0c7H
	DB	039H
	DB	0a7H
	DB	039H
	DB	0a7H
	DB	039H
	DB	0c7H
	DB	039H
	DB	0a7H
	DB	039H
	DB	0a7H
	DB	039H
	DB	0c7H
	DB	039H
	DB	0c7H
	DB	039H
	DB	0a6H
	DB	031H
	DB	0c7H
	DB	039H
	DB	0a7H
	DB	039H
	DB	0c7H
	DB	039H
	DB	0c7H
	DB	039H
	DB	0a7H
	DB	039H
	DB	0c7H
	DB	039H
	DB	0c7H
	DB	039H
	DB	0a7H
	DB	039H
	DB	0c7H
	DB	039H
	DB	0a7H
	DB	039H
	DB	0c6H
	DB	031H
	DB	0a7H
	DB	039H
	DB	0c7H
	DB	039H
	DB	0a6H
	DB	031H
	DB	0a7H
	DB	039H
	DB	0a7H
	DB	039H
	DB	0c7H
	DB	039H
	DB	0a7H
	DB	039H
	DB	0c7H
	DB	039H
	DB	0c7H
	DB	039H
	DB	0a7H
	DB	039H
	DB	0c7H
	DB	039H
	DB	0a7H
	DB	039H
	DB	0a6H
	DB	031H
	DB	0c7H
	DB	039H
	DB	0a7H
	DB	039H
	DB	0c7H
	DB	039H
	DB	0c7H
	DB	039H
	DB	0a7H
	DB	039H
	DB	0a7H
	DB	039H
	DB	0c7H
	DB	039H
	DB	0a7H
	DB	039H
	DB	0a7H
	DB	039H
	DB	0c7H
	DB	039H
	DB	0c6H
	DB	031H
	DB	0a7H
	DB	039H
	DB	0c7H
	DB	039H
	DB	0a6H
	DB	031H
	DB	0c7H
	DB	039H
	DB	0c7H
	DB	039H
	DB	0a7H
	DB	039H
	DB	0c7H
	DB	039H
	DB	0c7H
	DB	039H
	DB	0a7H
	DB	039H
	DB	0c7H
	DB	039H
	DB	0a7H
	DB	039H
	DB	0c7H
	DB	039H
	DB	0a6H
	DB	031H
	DB	0c7H
	DB	039H
	DB	0a7H
	DB	039H
	DB	0a7H
	DB	039H
	DB	0a7H
	DB	039H
	DB	0c7H
	DB	039H
	DB	0a7H
	DB	039H
	DB	0c7H
	DB	039H
	DB	0c7H
	DB	039H
	DB	0a7H
	DB	039H
	DB	0c7H
	DB	039H
	DB	0a6H
	DB	031H
	DB	0a7H
	DB	039H
	DB	0c7H
	DB	039H
	DB	0a6H
	DB	031H
	DB	0c7H
	DB	039H
	DB	0c7H
	DB	039H
	DB	0a7H
	DB	039H
	DB	0a7H
	DB	039H
	DB	0c7H
	DB	039H
	DB	0a7H
	DB	039H
	DB	0a7H
	DB	039H
	DB	0c7H
	DB	039H
	DB	0c7H
	DB	039H
	DB	0a6H
	DB	031H
	DB	0c7H
	DB	039H
	DB	0a7H
	DB	039H
	DB	0c7H
	DB	039H
	DB	0c7H
	DB	039H
	DB	0a7H
	DB	039H
	DB	0c7H
	DB	039H
	DB	0c7H
	DB	039H
	DB	0a7H
	DB	039H
	DB	0c7H
	DB	039H
	DB	0a7H
	DB	039H
	DB	0c6H
	DB	031H
	DB	0a7H
	DB	039H
	DB	0c7H
	DB	039H
	DB	0a6H
	DB	031H
	DB	0a7H
	DB	039H
	DB	0a7H
	DB	039H
	DB	0c7H
	DB	039H
	DB	0a7H
	DB	039H
	DB	0c7H
	DB	039H
	DB	0c7H
	DB	039H
	DB	0a7H
	DB	039H
	DB	0c7H
	DB	039H
	DB	0a7H
	DB	039H
	DB	0a6H
	DB	031H
	DB	0c7H
	DB	039H
	DB	0a7H
	DB	039H
	DB	0c7H
	DB	039H
	DB	0c7H
	DB	039H
	DB	0a7H
	DB	039H
	DB	0a7H
	DB	039H
	DB	0c7H
	DB	039H
	DB	0a7H
	DB	039H
	DB	0a7H
	DB	039H
	DB	0c7H
	DB	039H
	DB	0c6H
	DB	031H
	DB	0a7H
	DB	039H
	DB	0c7H
	DB	039H
	DB	0a6H
	DB	031H
	DB	0c7H
	DB	039H
	DB	0c7H
	DB	039H
	DB	0a7H
	DB	039H
	DB	0c7H
	DB	039H
	DB	0c7H
	DB	039H
	DB	0a7H
	DB	039H
	DB	0c7H
	DB	039H
	DB	0a7H
	DB	039H
	DB	0c7H
	DB	039H
	DB	0a6H
	DB	031H
	DB	0c7H
	DB	039H
	DB	0a7H
	DB	039H
	DB	0a7H
	DB	039H
	DB	0a7H
	DB	039H
	DB	0c7H
	DB	039H
	DB	0a7H
	DB	039H
	DB	0c7H
	DB	039H
	DB	0c7H
	DB	039H
	DB	0a7H
	DB	039H
	DB	0c7H
	DB	039H
	DB	0a6H
	DB	031H
	DB	0a7H
	DB	039H
	DB	0c7H
	DB	039H
	DB	0a6H
	DB	031H
	DB	0c7H
	DB	039H
	DB	0c7H
	DB	039H
	DB	0a7H
	DB	039H
	DB	0a7H
	DB	039H
	DB	0c7H
	DB	039H
	DB	0a7H
	DB	039H
	DB	0a7H
	DB	039H
	DB	0c7H
	DB	039H
	DB	0c7H
	DB	039H
	DB	0a6H
	DB	031H
	DB	0c7H
	DB	039H
	DB	0a7H
	DB	039H
	DB	0c7H
	DB	039H
	DB	0c7H
	DB	039H
	DB	0a7H
	DB	039H
	DB	0c7H
	DB	039H
	DB	0c7H
	DB	039H
	DB	0a7H
	DB	039H
	DB	0c7H
	DB	039H
	DB	0a7H
	DB	039H
	DB	0c6H
	DB	031H
	DB	0a7H
	DB	039H
	DB	0c7H
	DB	039H
	DB	0a6H
	DB	031H
	DB	0a7H
	DB	039H
	DB	0a7H
	DB	039H
	DB	0c7H
	DB	039H
	DB	0a7H
	DB	039H
	DB	0c7H
	DB	039H
	DB	0c7H
	DB	039H
	DB	0a7H
	DB	039H
	DB	0c7H
	DB	039H
	DB	0a7H
	DB	039H
	DB	0a6H
	DB	031H
	DB	0c7H
	DB	039H
	DB	0a7H
	DB	039H
	DB	0c7H
	DB	039H
	DB	0c7H
	DB	039H
	DB	0a7H
	DB	039H
	DB	0a7H
	DB	039H
	DB	0c7H
	DB	039H
	DB	0a7H
	DB	039H
	DB	0a7H
	DB	039H
	DB	0c7H
	DB	039H
	DB	0c6H
	DB	031H
	DB	0a7H
	DB	039H
	DB	0c7H
	DB	039H
	DB	0a6H
	DB	031H
	DB	0c7H
	DB	039H
	DB	0c7H
	DB	039H
	DB	0a7H
	DB	039H
	DB	0c7H
	DB	039H
	DB	0c7H
	DB	039H
	DB	0a7H
	DB	039H
	DB	0c7H
	DB	039H
	DB	0a7H
	DB	039H
	DB	0c7H
	DB	039H
	DB	0a6H
	DB	031H
	DB	0c7H
	DB	039H
	DB	0a7H
	DB	039H
	DB	0a7H
	DB	039H
	DB	0a7H
	DB	039H
	DB	0c7H
	DB	039H
	DB	0a7H
	DB	039H
	DB	0c7H
	DB	039H
	DB	0c7H
	DB	039H
	DB	0a7H
	DB	039H
	DB	0c7H
	DB	039H
	DB	0a6H
	DB	031H
	DB	0a7H
	DB	039H
	DB	0c7H
	DB	039H
	DB	0a6H
	DB	031H
	DB	0c7H
	DB	039H
	DB	0c7H
	DB	039H
	DB	0a7H
	DB	039H
	DB	0a7H
	DB	039H
	DB	0c7H
	DB	039H
	DB	0a7H
	DB	039H
	DB	0a7H
	DB	039H
	DB	0c7H
	DB	039H
	DB	0c7H
	DB	039H
	DB	0a6H
	DB	031H
	DB	0c7H
	DB	039H
	DB	0a7H
	DB	039H
	DB	0c7H
	DB	039H
	DB	0c7H
	DB	039H
	DB	0a7H
	DB	039H
	DB	0c7H
	DB	039H
	DB	0c7H
	DB	039H
	DB	0a7H
	DB	039H
	DB	0c7H
	DB	039H
	DB	0a7H
	DB	039H
	DB	0c6H
	DB	031H
	DB	0a7H
	DB	039H
	DB	0c7H
	DB	039H
	DB	0a6H
	DB	031H
	DB	0a7H
	DB	039H
	DB	0a7H
	DB	039H
	DB	0c7H
	DB	039H
	DB	0a7H
	DB	039H
	DB	0c7H
	DB	039H
	DB	0c7H
	DB	039H
	DB	0a7H
	DB	039H
	DB	0c7H
	DB	039H
	DB	0a7H
	DB	039H
	DB	0a6H
	DB	031H
	DB	0c7H
	DB	039H
	DB	0a7H
	DB	039H
	DB	0c7H
	DB	039H
	DB	0c7H
	DB	039H
	DB	0a7H
	DB	039H
	DB	0a7H
	DB	039H
	DB	0c7H
	DB	039H
	DB	0a7H
	DB	039H
	DB	0a7H
	DB	039H
	DB	0c7H
	DB	039H
	DB	0c6H
	DB	031H
	DB	0a7H
	DB	039H
	DB	0c7H
	DB	039H
	DB	0a6H
	DB	031H
	DB	0c7H
	DB	039H
	DB	0c7H
	DB	039H
	DB	0a7H
	DB	039H
	DB	0c7H
	DB	039H
	DB	0c7H
	DB	039H
	DB	0a7H
	DB	039H
	DB	0a7H
	DB	039H
	DB	0c6H
	DB	031H
	DB	0a7H
	DB	039H
	DB	0c7H
	DB	039H
	DB	0c7H
	DB	039H
	DB	0a6H
	DB	031H
	DB	0c7H
	DB	039H
	DB	0a7H
	DB	039H
	DB	0a6H
	DB	031H
	DB	0c7H
	DB	039H
	DB	0c7H
	DB	039H
	DB	0a7H
	DB	039H
	DB	0a7H
	DB	039H
	DB	0c7H
	DB	039H
	DB	0a7H
	DB	039H
	DB	0c7H
	DB	039H
	DB	0c6H
	DB	031H
	DB	0a7H
	DB	039H
	DB	0c7H
	DB	039H
	DB	0c6H
	DB	031H
	DB	0a7H
	DB	039H
	DB	0c6H
	DB	031H
	DB	0c7H
	DB	039H
	DB	0a7H
	DB	039H
	DB	0c6H
	DB	031H
	DB	0a7H
	DB	039H
	DB	0a7H
	DB	039H
	DB	0c6H
	DB	031H
	DB	0a7H
	DB	039H
	DB	0a7H
	DB	039H
	DB	0c6H
	DB	031H
	DB	0a7H
	DB	039H
	DB	0c7H
	DB	039H
	DB	0c7H
	DB	039H
	DB	0a7H
	DB	039H
	DB	0c7H
	DB	039H
	DB	0a7H
	DB	039H
	DB	0a7H
	DB	039H
	DB	0c7H
	DB	039H
	DB	0c6H
	DB	031H
	DB	0a7H
	DB	039H
	DB	0c7H
	DB	039H
	DB	0a7H
	DB	039H
	DB	0a6H
	DB	031H
	DB	0c7H
	DB	039H
	DB	0c7H
	DB	039H
	DB	0a6H
	DB	031H
	DB	0c7H
	DB	039H
	DB	0c7H
	DB	039H
	DB	0a6H
	DB	031H
	DB	0a7H
	DB	039H
	DB	0c7H
	DB	039H
	DB	0a6H
	DB	031H
	DB	0c7H
	DB	039H
	DB	0c7H
	DB	039H
	DB	0a7H
	DB	039H
	DB	0c7H
	DB	039H
	DB	0c6H
	DB	031H
	DB	0a7H
	DB	039H
	DB	0c7H
	DB	039H
	DB	0c6H
	DB	031H
	DB	0a7H
	DB	039H
	DB	0c7H
	DB	039H
	DB	0c6H
	DB	031H
	DB	0a7H
	DB	039H
	DB	0c7H
	DB	039H
	DB	0a6H
	DB	031H
	DB	0a7H
	DB	039H
	DB	0c7H
	DB	039H
	DB	0a7H
	DB	039H
	DB	0c7H
	DB	039H
	DB	0c7H
	DB	039H
	DB	0a7H
	DB	039H
	DB	0c6H
	DB	031H
	DB	0a7H
	DB	039H
	DB	0a7H
	DB	039H
	DB	0c7H
	DB	039H
	DB	0a7H
	DB	039H
	DB	0a7H
	DB	039H
	DB	0c6H
	DB	031H
	DB	0a7H
	DB	039H
	DB	0c7H
	DB	039H
	DB	0c7H
	DB	039H
	DB	0a7H
	DB	039H
	DB	0c7H
	DB	039H
	DB	0a7H
	DB	039H
	DB	0c7H
	DB	039H
	DB	0a7H
	DB	039H
	DB	0a7H
	DB	039H
	DB	0c7H
	DB	039H
	DB	0a7H
	DB	039H
	DB	0a6H
	DB	031H
	DB	0c7H
	DB	039H
	DB	0a7H
	DB	039H
	DB	0c6H
	DB	031H
	DB	0c7H
	DB	039H
	DB	0a7H
	DB	039H
	DB	0c6H
	DB	031H
	DB	0c7H
	DB	039H
	DB	0a7H
	DB	039H
	DB	0a6H
	DB	031H
	DB	0c7H
	DB	039H
	DB	0a7H
	DB	039H
	DB	0c7H
	DB	039H
	DB	0c6H
	DB	031H
	DB	0a7H
	DB	039H
	DB	0c6H
	DB	031H
	DB	0a7H
	DB	039H
	DB	0a7H
	DB	039H
	DB	0c7H
	DB	039H
	DB	0c7H
	DB	039H
	DB	0a7H
	DB	039H
	DB	0c6H
	DB	031H
	DB	0a7H
	DB	039H
	DB	0a7H
	DB	039H
	DB	0c7H
	DB	039H
	DB	0a7H
	DB	039H
	DB	0c6H
	DB	031H
	DB	0a7H
	DB	039H
	DB	0c7H
	DB	039H
	DB	0a6H
	DB	031H
	DB	0c7H
	DB	039H
	DB	0a7H
	DB	039H
	DB	0c7H
	DB	039H
	DB	0c7H
	DB	039H
	DB	0a6H
	DB	031H
	DB	0c7H
	DB	039H
	DB	0c7H
	DB	039H
	DB	0a7H
	DB	039H
	DB	0a6H
	DB	031H
	DB	0c7H
	DB	039H
	DB	0a6H
	DB	031H
	DB	0a7H
	DB	039H
	DB	0c7H
	DB	039H
	DB	0c7H
	DB	039H
	DB	0a7H
	DB	039H
	DB	0c7H
	DB	039H
	DB	0a7H
	DB	039H
	DB	0a7H
	DB	039H
	DB	0c6H
	DB	031H
	DB	0a7H
	DB	039H
	DB	0c7H
	DB	039H
	DB	0a6H
	DB	031H
	DB	0c6H
	DB	031H
	DB	0a7H
	DB	039H
	DB	0a7H
	DB	039H
	DB	0c6H
	DB	031H
	DB	0c7H
	DB	039H
	DB	0a7H
	DB	039H
	DB	0a6H
	DB	031H
	DB	0c7H
	DB	039H
	DB	0a7H
	DB	039H
	DB	0a6H
	DB	031H
	DB	0c7H
	DB	039H
	DB	0a7H
	DB	039H
	DB	0a6H
	DB	031H
	DB	0c7H
	DB	039H
	DB	0a7H
	DB	039H
	DB	0c7H
	DB	039H
	DB	0a7H
	DB	039H
	DB	0c7H
	DB	039H
	DB	0c7H
	DB	039H
	DB	0a7H
	DB	039H
	DB	0c6H
	DB	031H
	DB	0a7H
	DB	039H
	DB	0a7H
	DB	039H
	DB	0c6H
	DB	031H
	DB	0a6H
	DB	031H
	DB	0a7H
	DB	039H
	DB	0c7H
	DB	039H
	DB	0c6H
	DB	031H
	DB	0a7H
	DB	039H
	DB	0c7H
	DB	039H
	DB	0a6H
	DB	031H
	DB	0a7H
	DB	039H
	DB	0c7H
	DB	039H
	DB	0a6H
	DB	031H
	DB	0c7H
	DB	039H
	DB	0a7H
	DB	039H
	DB	0c6H
	DB	031H
	DB	0a7H
	DB	039H
	DB	0a7H
	DB	039H
	DB	0c7H
	DB	039H
	DB	0c7H
	DB	039H
	DB	0a7H
	DB	039H
	DB	0a7H
	DB	039H
	DB	0c7H
	DB	039H
	DB	0a6H
	DB	031H
	DB	0a7H
	DB	039H
	DB	0c7H
	DB	039H
	DB	0a6H
	DB	031H
	DB	0a6H
	DB	031H
	DB	0c7H
	DB	039H
	DB	0a7H
	DB	039H
	DB	0c6H
	DB	031H
	DB	0a7H
	DB	039H
	DB	0c7H
	DB	039H
	DB	0c6H
	DB	031H
	DB	0a7H
	DB	039H
	DB	0c7H
	DB	039H
	DB	0a6H
	DB	031H
	DB	0a7H
	DB	039H
	DB	0c7H
	DB	039H
	DB	0a6H
	DB	031H
	DB	0a7H
	DB	039H
	DB	0c7H
	DB	039H
	DB	0c7H
	DB	039H
	DB	0a7H
	DB	039H
	DB	0c7H
	DB	039H
	DB	0a7H
	DB	039H
	DB	0a7H
	DB	039H
	DB	0c6H
	DB	031H
	DB	0a7H
	DB	039H
	DB	0c7H
	DB	039H
	DB	0a6H
	DB	031H
	DB	0c6H
	DB	031H
	DB	0a7H
	DB	039H
	DB	0a7H
	DB	039H
	DB	0c6H
	DB	031H
	DB	0c7H
	DB	039H
	DB	0a7H
	DB	039H
	DB	0a6H
	DB	031H
	DB	0c7H
	DB	039H
	DB	0a7H
	DB	039H
	DB	0a6H
	DB	031H
	DB	0c7H
	DB	039H
	DB	0a7H
	DB	039H
	DB	0a6H
	DB	031H
	DB	0c7H
	DB	039H
	DB	0a7H
	DB	039H
	DB	0c7H
	DB	039H
	DB	0a7H
	DB	039H
	DB	0c7H
	DB	039H
	DB	0c7H
	DB	039H
	DB	0a7H
	DB	039H
	DB	0c6H
	DB	031H
	DB	0a7H
	DB	039H
	DB	0a7H
	DB	039H
	DB	0c6H
	DB	031H
	DB	0a6H
	DB	031H
	DB	0a7H
	DB	039H
	DB	0c7H
	DB	039H
	DB	0c6H
	DB	031H
	DB	0a7H
	DB	039H
	DB	0c7H
	DB	039H
	DB	0a6H
	DB	031H
	DB	0a7H
	DB	039H
	DB	0c7H
	DB	039H
	DB	0a6H
	DB	031H
	DB	0c7H
	DB	039H
	DB	0a7H
	DB	039H
	DB	0c6H
	DB	031H
	DB	0a7H
	DB	039H
	DB	0a7H
	DB	039H
	DB	0c7H
	DB	039H
	DB	0c7H
	DB	039H
	DB	0a7H
	DB	039H
	DB	0a7H
	DB	039H
	DB	0c7H
	DB	039H
	DB	0a6H
	DB	031H
	DB	0a7H
	DB	039H
	DB	0c7H
	DB	039H
	DB	0a6H
	DB	031H
	DB	0a6H
	DB	031H
	DB	0c7H
	DB	039H
	DB	0a7H
	DB	039H
	DB	0c6H
	DB	031H
	DB	0a7H
	DB	039H
	DB	0c7H
	DB	039H
	DB	0c6H
	DB	031H
	DB	0a7H
	DB	039H
	DB	0c7H
	DB	039H
	DB	0a6H
	DB	031H
	DB	0a7H
	DB	039H
	DB	0c7H
	DB	039H
	DB	0a6H
	DB	031H
	DB	0a7H
	DB	039H
	DB	0c7H
	DB	039H
	DB	0c7H
	DB	039H
	DB	0a7H
	DB	039H
	DB	0c7H
	DB	039H
	DB	0a7H
	DB	039H
	DB	0a7H
	DB	039H
	DB	0c6H
	DB	031H
	DB	0a7H
	DB	039H
	DB	0c7H
	DB	039H
	DB	0a6H
	DB	031H
	DB	0c6H
	DB	031H
	DB	0a7H
	DB	039H
	DB	0a7H
	DB	039H
	DB	0c6H
	DB	031H
	DB	0c7H
	DB	039H
	DB	0a7H
	DB	039H
	DB	0a6H
	DB	031H
	DB	0c7H
	DB	039H
	DB	0a7H
	DB	039H
	DB	0a6H
	DB	031H
	DB	0c7H
	DB	039H
	DB	0a7H
	DB	039H
	DB	0a6H
	DB	031H
	DB	0c7H
	DB	039H
	DB	0a7H
	DB	039H
	DB	0c7H
	DB	039H
	DB	0a7H
	DB	039H
	DB	0c7H
	DB	039H
	DB	0c7H
	DB	039H
	DB	0a7H
	DB	039H
	DB	0c6H
	DB	031H
	DB	0a7H
	DB	039H
	DB	0a7H
	DB	039H
	DB	0c6H
	DB	031H
	DB	0a6H
	DB	031H
	DB	0a7H
	DB	039H
	DB	0c7H
	DB	039H
	DB	0c6H
	DB	031H
	DB	0a7H
	DB	039H
	DB	0c7H
	DB	039H
	DB	0a6H
	DB	031H
	DB	0a7H
	DB	039H
	DB	0c7H
	DB	039H
	DB	0a6H
	DB	031H
	DB	0c7H
	DB	039H
	DB	0a7H
	DB	039H
	DB	0c6H
	DB	031H
	DB	0a7H
	DB	039H
	DB	0a7H
	DB	039H
	DB	0c7H
	DB	039H
	DB	0c7H
	DB	039H
	DB	0a7H
	DB	039H
	DB	0a7H
	DB	039H
	DB	0c7H
	DB	039H
	DB	0a6H
	DB	031H
	DB	0a7H
	DB	039H
	DB	0c7H
	DB	039H
	DB	0a6H
	DB	031H
	DB	0a6H
	DB	031H
	DB	0c7H
	DB	039H
	DB	0a7H
	DB	039H
	DB	0c6H
	DB	031H
	DB	0a7H
	DB	039H
	DB	0c7H
	DB	039H
	DB	0c6H
	DB	031H
	DB	0a7H
	DB	039H
	DB	0c7H
	DB	039H
	DB	0a6H
	DB	031H
	DB	0a7H
	DB	039H
	DB	0c7H
	DB	039H
	DB	0a6H
	DB	031H
	DB	0a7H
	DB	039H
	DB	0c7H
	DB	039H
	DB	0c7H
	DB	039H
	DB	0a7H
	DB	039H
	DB	0c7H
	DB	039H
	DB	0a7H
	DB	039H
	DB	0a7H
	DB	039H
	DB	0c6H
	DB	031H
	DB	0a7H
	DB	039H
	DB	0c7H
	DB	039H
	DB	0a6H
	DB	031H
	DB	0c6H
	DB	031H
	DB	0a7H
	DB	039H
	DB	0a7H
	DB	039H
	DB	0c6H
	DB	031H
	DB	0c7H
	DB	039H
	DB	0a7H
	DB	039H
	DB	0a6H
	DB	031H
	DB	0c7H
	DB	039H
	DB	0a7H
	DB	039H
	DB	0a6H
	DB	031H
	DB	0c7H
	DB	039H
	DB	0a7H
	DB	039H
	DB	0a6H
	DB	031H
	DB	0c7H
	DB	039H
	DB	0a7H
	DB	039H
	DB	0c7H
	DB	039H
	DB	0a7H
	DB	039H
	DB	0c7H
	DB	039H
	DB	0c7H
	DB	039H
	DB	0a7H
	DB	039H
	DB	0c6H
	DB	031H
	DB	0a7H
	DB	039H
	DB	0a7H
	DB	039H
	DB	0c6H
	DB	031H
	DB	0a6H
	DB	031H
	DB	0a7H
	DB	039H
	DB	0c7H
	DB	039H
	DB	0c6H
	DB	031H
	DB	0a7H
	DB	039H
	DB	0c7H
	DB	039H
	DB	0a6H
	DB	031H
	DB	0a7H
	DB	039H
	DB	0c7H
	DB	039H
	DB	0a6H
	DB	031H
	DB	0c7H
	DB	039H
	DB	0a7H
	DB	039H
	DB	0c6H
	DB	031H
	DB	0a7H
	DB	039H
	DB	0a7H
	DB	039H
	DB	0c7H
	DB	039H
	DB	0c7H
	DB	039H
	DB	0a7H
	DB	039H
	DB	0a7H
	DB	039H
	DB	0c7H
	DB	039H
	DB	0a6H
	DB	031H
	DB	0a7H
	DB	039H
	DB	0c7H
	DB	039H
	DB	0a6H
	DB	031H
	DB	0a6H
	DB	031H
	DB	0c7H
	DB	039H
	DB	0a7H
	DB	039H
	DB	0c6H
	DB	031H
	DB	0a7H
	DB	039H
	DB	0c7H
	DB	039H
	DB	0c6H
	DB	031H
	DB	0a7H
	DB	039H
	DB	0c7H
	DB	039H
	DB	0a6H
	DB	031H
	DB	0a7H
	DB	039H
	DB	0c7H
	DB	039H
	DB	0a6H
	DB	031H
	DB	0a7H
	DB	039H
	DB	0c7H
	DB	039H
	DB	0c7H
	DB	039H
	DB	0a7H
	DB	039H
	DB	0c7H
	DB	039H
	DB	0a7H
	DB	039H
	DB	0a7H
	DB	039H
	DB	0c6H
	DB	031H
	DB	0a7H
	DB	039H
	DB	0c7H
	DB	039H
	DB	0a6H
	DB	031H
	DB	0c6H
	DB	031H
	DB	0a7H
	DB	039H
	DB	0a7H
	DB	039H
	DB	0c6H
	DB	031H
	DB	0c7H
	DB	039H
	DB	0a7H
	DB	039H
	DB	0a6H
	DB	031H
	DB	0c7H
	DB	039H
	DB	0a7H
	DB	039H
	DB	0a6H
	DB	031H
	DB	0c7H
	DB	039H
	DB	0a7H
	DB	039H
	DB	0a6H
	DB	031H
	DB	0c7H
	DB	039H
	DB	0a7H
	DB	039H
	DB	0c7H
	DB	039H
	DB	0a7H
	DB	039H
	DB	0c7H
	DB	039H
	DB	0c7H
	DB	039H
	DB	0a7H
	DB	039H
	DB	0c6H
	DB	031H
	DB	0a7H
	DB	039H
	DB	0a7H
	DB	039H
	DB	0c6H
	DB	031H
	DB	0a6H
	DB	031H
	DB	0a7H
	DB	039H
	DB	0c7H
	DB	039H
	DB	0c6H
	DB	031H
	DB	0a7H
	DB	039H
	DB	0c7H
	DB	039H
	DB	0a6H
	DB	031H
	DB	0a7H
	DB	039H
	DB	0c7H
	DB	039H
	DB	0a6H
	DB	031H
	DB	0c7H
	DB	039H
	DB	0a7H
	DB	039H
	DB	0c6H
	DB	031H
	DB	0a7H
	DB	039H
	DB	0a7H
	DB	039H
	DB	0c7H
	DB	039H
	DB	0c7H
	DB	039H
	DB	0a7H
	DB	039H
	DB	0a7H
	DB	039H
	DB	0c7H
	DB	039H
	DB	0a6H
	DB	031H
	DB	0a7H
	DB	039H
	DB	0c7H
	DB	039H
	DB	0c6H
	DB	031H
	DB	0a7H
	DB	039H
	DB	0c7H
	DB	039H
	DB	0a7H
	DB	039H
	DB	0a6H
	DB	031H
	DB	0c7H
	DB	039H
	DB	0a7H
	DB	039H
	DB	0c7H
	DB	039H
	DB	0c6H
	DB	031H
	DB	0a7H
	DB	039H
	DB	0a7H
	DB	039H
	DB	0c7H
	DB	039H
	DB	0a6H
	DB	031H
	DB	0a7H
	DB	039H
	DB	0c7H
	DB	039H
	DB	0a6H
	DB	031H
	DB	0a7H
	DB	039H
	DB	0c7H
	DB	039H
	DB	0a7H
	DB	039H
	DB	0a6H
	DB	031H
	DB	0c7H
	DB	039H
	DB	0a7H
	DB	039H
	DB	0a6H
	DB	031H
	DB	0c7H
	DB	039H
	DB	0a7H
	DB	039H
	DB	0c7H
	DB	039H
	DB	0c7H
	DB	039H
	DB	0a7H
	DB	039H
	DB	0c7H
	DB	039H
	DB	0c7H
	DB	039H
	DB	0a7H
	DB	039H
	DB	0c7H
	DB	039H
	DB	0a7H
	DB	039H
	DB	0a6H
	DB	031H
	DB	0c7H
	DB	039H
	DB	0a7H
	DB	039H
	DB	0a6H
	DB	031H
	DB	0c7H
	DB	039H
	DB	0c7H
	DB	039H
	DB	0a7H
	DB	039H
	DB	0a7H
	DB	039H
	DB	0c7H
	DB	039H
	DB	0c7H
	DB	039H
	DB	0a7H
	DB	039H
	DB	0c7H
	DB	039H
	DB	0a7H
	DB	039H
	DB	0c7H
	DB	039H
	DB	0a7H
	DB	039H
	DB	0a7H
	DB	039H
	DB	0c7H
	DB	039H
	DB	0a7H
	DB	039H
	DB	0c7H
	DB	039H
	DB	0c6H
	DB	031H
	DB	0a7H
	DB	039H
	DB	0a7H
	DB	039H
	DB	0c6H
	DB	031H
	DB	0a7H
	DB	039H
	DB	0a7H
	DB	039H
	DB	0c7H
	DB	039H
	DB	0a7H
	DB	039H
	DB	0a7H
	DB	039H
	DB	0c7H
	DB	039H
	DB	0a7H
	DB	039H
	DB	0a7H
	DB	039H
	DB	0c6H
	DB	031H
	DB	0a7H
	DB	039H
	DB	0c7H
	DB	039H
	DB	0c6H
	DB	031H
	DB	0a7H
	DB	039H
	DB	0c7H
	DB	039H
	DB	0a6H
	DB	031H
	DB	0a6H
	DB	031H
	DB	0c7H
	DB	039H
	DB	0a7H
	DB	039H
	DB	0c6H
	DB	031H
	DB	0c7H
	DB	039H
	DB	0a7H
	DB	039H
	DB	0c6H
	DB	031H
	DB	0c7H
	DB	039H
	DB	0a7H
	DB	039H
	DB	0c6H
	DB	031H
	DB	0a7H
	DB	039H
	DB	0a7H
	DB	039H
	DB	0c6H
	DB	031H
	DB	0a6H
	DB	031H
	DB	0c7H
	DB	039H
	DB	0a6H
	DB	031H
	DB	0c6H
	DB	031H
	DB	0a7H
	DB	039H
	DB	0c6H
	DB	031H
	DB	0c7H
	DB	039H
	DB	0a7H
	DB	039H
	DB	0c7H
	DB	039H
	DB	0c7H
	DB	039H
	DB	0a7H
	DB	039H
	DB	0a7H
	DB	039H
	DB	0c7H
	DB	039H
	DB	0a7H
	DB	039H
	DB	0a7H
	DB	039H
	DB	0c7H
	DB	039H
	DB	0a7H
	DB	039H
	DB	0c7H
	DB	039H
	DB	0c6H
	DB	031H
	DB	0a7H
	DB	039H
	DB	0a7H
	DB	039H
	DB	0c6H
	DB	031H
	DB	0a7H
	DB	039H
	DB	0c7H
	DB	039H
	DB	0c7H
	DB	039H
	DB	0a6H
	DB	031H
	DB	0a6H
	DB	031H
	DB	0c7H
	DB	039H
	DB	0a7H
	DB	039H
	DB	0c6H
	DB	031H
	DB	0c7H
	DB	039H
	DB	0a7H
	DB	039H
	DB	0c6H
	DB	031H
	DB	0a7H
	DB	039H
	DB	0c7H
	DB	039H
	DB	0a7H
	DB	039H
	DB	0c7H
	DB	039H
	DB	0a6H
	DB	031H
	DB	0c7H
	DB	039H
	DB	0a7H
	DB	039H
	DB	0a6H
	DB	031H
	DB	0c7H
	DB	039H
	DB	0a7H
	DB	039H
	DB	0a7H
	DB	039H
	DB	0c6H
	DB	031H
	DB	0c7H
	DB	039H
	DB	0a7H
	DB	039H
	DB	0c6H
	DB	031H
	DB	0a7H
	DB	039H
	DB	0c7H
	DB	039H
	DB	0a6H
	DB	031H
	DB	0c7H
	DB	039H
	DB	0a7H
	DB	039H
	DB	0c6H
	DB	031H
	DB	0c7H
	DB	039H
	DB	0a7H
	DB	039H
	DB	0c6H
	DB	031H
	DB	0a7H
	DB	039H
	DB	0c7H
	DB	039H
	DB	0c7H
	DB	039H
	DB	0a7H
	DB	039H
	DB	0c7H
	DB	039H
	DB	0c6H
	DB	031H
	DB	0a7H
	DB	039H
	DB	0a7H
	DB	039H
	DB	0c7H
	DB	039H
	DB	0a7H
	DB	039H
	DB	0c6H
	DB	031H
	DB	0c7H
	DB	039H
	DB	0a7H
	DB	039H
	DB	0c6H
	DB	031H
	DB	0c7H
	DB	039H
	DB	0a7H
	DB	039H
	DB	0c6H
	DB	031H
	DB	0a7H
	DB	039H
	DB	0c6H
	DB	031H
	DB	0a7H
	DB	039H
	DB	0c6H
	DB	031H
	DB	0a7H
	DB	039H
	DB	0c7H
	DB	039H
	DB	0c6H
	DB	031H
	DB	0a7H
	DB	039H
	DB	0c7H
	DB	039H
	DB	0c7H
	DB	039H
	DB	0a7H
	DB	039H
	DB	0c7H
	DB	039H
	DB	0a6H
	DB	031H
	DB	0c7H
	DB	039H
	DB	0a7H
	DB	039H
	DB	0c7H
	DB	039H
	DB	0c7H
	DB	039H
	DB	0a6H
	DB	031H
	DB	0c7H
	DB	039H
	DB	0a7H
	DB	039H
	DB	0c6H
	DB	031H
	DB	0c7H
	DB	039H
	DB	0a7H
	DB	039H
	DB	0c6H
	DB	031H
	DB	0c7H
	DB	039H
	DB	0a6H
	DB	031H
	DB	0a7H
	DB	039H
	DB	0c6H
	DB	031H
	DB	0a7H
	DB	039H
	DB	0c7H
	DB	039H
	DB	0c6H
	DB	031H
	DB	0a7H
	DB	039H
	DB	0c7H
	DB	039H
	DB	0c7H
	DB	039H
	DB	0a7H
	DB	039H
	DB	0c7H
	DB	039H
	DB	0a6H
	DB	031H
	DB	0c7H
	DB	039H
	DB	0a7H
	DB	039H
	DB	0c7H
	DB	039H
	DB	0a7H
	DB	039H
	DB	0c6H
	DB	031H
	DB	0c7H
	DB	039H
	DB	0a7H
	DB	039H
	DB	0c6H
	DB	031H
	DB	0c7H
	DB	039H
	DB	0a7H
	DB	039H
	DB	0c6H
	DB	031H
	DB	0a7H
	DB	039H
	DB	0c6H
	DB	031H
	DB	0a7H
	DB	039H
	DB	0c6H
	DB	031H
	DB	0c7H
	DB	039H
	DB	0a7H
	DB	039H
	DB	0c6H
	DB	031H
	DB	0a7H
	DB	039H
	DB	0c7H
	DB	039H
	DB	0c7H
	DB	039H
	DB	0a7H
	DB	039H
	DB	0c7H
	DB	039H
	DB	0c6H
	DB	031H
	DB	0a7H
	DB	039H
	DB	0a7H
	DB	039H
	DB	0c7H
	DB	039H
	DB	0a7H
	DB	039H
	DB	0c6H
	DB	031H
	DB	0c7H
	DB	039H
	DB	0a7H
	DB	039H
	DB	0c6H
	DB	031H
	DB	0c7H
	DB	039H
	DB	0a7H
	DB	039H
	DB	0c6H
	DB	031H
	DB	0a7H
	DB	039H
	DB	0c6H
	DB	031H
	DB	0a7H
	DB	039H
	DB	0c6H
	DB	031H
	DB	0a7H
	DB	039H
	DB	0c7H
	DB	039H
	DB	0c6H
	DB	031H
	DB	0a7H
	DB	039H
	DB	0c7H
	DB	039H
	DB	0c7H
	DB	039H
	DB	0a7H
	DB	039H
	DB	0c7H
	DB	039H
	DB	0a6H
	DB	031H
	DB	0c7H
	DB	039H
	DB	0a7H
	DB	039H
	DB	0c7H
	DB	039H
	DB	0c7H
	DB	039H
	DB	0a6H
	DB	031H
	DB	0c7H
	DB	039H
	DB	0a7H
	DB	039H
	DB	0c6H
	DB	031H
	DB	0c7H
	DB	039H
	DB	0a7H
	DB	039H
	DB	0c6H
	DB	031H
	DB	0c7H
	DB	039H
	DB	0a6H
	DB	031H
	DB	0a7H
	DB	039H
	DB	0c6H
	DB	031H
	DB	0a7H
	DB	039H
	DB	0c7H
	DB	039H
	DB	0c6H
	DB	031H
	DB	0a7H
	DB	039H
	DB	0c7H
	DB	039H
	DB	0c7H
	DB	039H
	DB	0a7H
	DB	039H
	DB	0c7H
	DB	039H
	DB	0a6H
	DB	031H
	DB	0c7H
	DB	039H
	DB	0a7H
	DB	039H
	DB	0c7H
	DB	039H
	DB	0a7H
	DB	039H
	DB	0c6H
	DB	031H
	DB	0c7H
	DB	039H
	DB	0a7H
	DB	039H
	DB	0c6H
	DB	031H
	DB	0c7H
	DB	039H
	DB	0a7H
	DB	039H
	DB	0c6H
	DB	031H
	DB	0a7H
	DB	039H
	DB	0c6H
	DB	031H
	DB	0a7H
	DB	039H
	DB	0c6H
	DB	031H
	DB	0c7H
	DB	039H
	DB	0a7H
	DB	039H
	DB	0c6H
	DB	031H
	DB	0a7H
	DB	039H
	DB	0c7H
	DB	039H
	DB	0c7H
	DB	039H
	DB	0a7H
	DB	039H
	DB	0c7H
	DB	039H
	DB	0c6H
	DB	031H
	DB	0a7H
	DB	039H
	DB	0a7H
	DB	039H
	DB	0c7H
	DB	039H
	DB	0a7H
	DB	039H
	DB	0c6H
	DB	031H
	DB	0c7H
	DB	039H
	DB	0a7H
	DB	039H
	DB	0c6H
	DB	031H
	DB	0c7H
	DB	039H
	DB	0a7H
	DB	039H
	DB	0c6H
	DB	031H
	DB	0a7H
	DB	039H
	DB	0c6H
	DB	031H
	DB	0a7H
	DB	039H
	DB	0c6H
	DB	031H
	DB	0a7H
	DB	039H
	DB	0c7H
	DB	039H
	DB	0c6H
	DB	031H
	DB	0a7H
	DB	039H
	DB	0c7H
	DB	039H
	DB	0c7H
	DB	039H
	DB	0a7H
	DB	039H
	DB	0c7H
	DB	039H
	DB	0a6H
	DB	031H
	DB	0c7H
	DB	039H
	DB	0a7H
	DB	039H
	DB	0c7H
	DB	039H
	DB	0c7H
	DB	039H
	DB	0a6H
	DB	031H
	DB	0c7H
	DB	039H
	DB	0a7H
	DB	039H
	DB	0c6H
	DB	031H
	DB	0c7H
	DB	039H
	DB	0a7H
	DB	039H
	DB	0c6H
	DB	031H
	DB	0c7H
	DB	039H
	DB	0a6H
	DB	031H
	DB	0a7H
	DB	039H
	DB	0c6H
	DB	031H
	DB	0a7H
	DB	039H
	DB	0c7H
	DB	039H
	DB	0c6H
	DB	031H
	DB	0a7H
	DB	039H
	DB	0c7H
	DB	039H
	DB	0c7H
	DB	039H
	DB	0a7H
	DB	039H
	DB	0c7H
	DB	039H
	DB	0a6H
	DB	031H
	DB	0c7H
	DB	039H
	DB	0a7H
	DB	039H
	DB	0c7H
	DB	039H
	DB	0a7H
	DB	039H
	DB	0c6H
	DB	031H
	DB	0c7H
	DB	039H
	DB	0a7H
	DB	039H
	DB	0c6H
	DB	031H
	DB	0c7H
	DB	039H
	DB	0a7H
	DB	039H
	DB	0c6H
	DB	031H
	DB	0a7H
	DB	039H
	DB	0c6H
	DB	031H
	DB	0a7H
	DB	039H
	DB	0c6H
	DB	031H
	DB	0c7H
	DB	039H
	DB	0a7H
	DB	039H
	DB	0c6H
	DB	031H
	DB	0a7H
	DB	039H
	DB	0c7H
	DB	039H
	DB	0c7H
	DB	039H
	DB	0a7H
	DB	039H
	DB	0c7H
	DB	039H
	DB	0c6H
	DB	031H
	DB	0a7H
	DB	039H
	DB	0a7H
	DB	039H
	DB	0c7H
	DB	039H
	DB	0a7H
	DB	039H
	DB	0c6H
	DB	031H
	DB	0c7H
	DB	039H
	DB	0a7H
	DB	039H
	DB	0c6H
	DB	031H
	DB	0c7H
	DB	039H
	DB	0a7H
	DB	039H
	DB	0c6H
	DB	031H
	DB	0a7H
	DB	039H
	DB	0c6H
	DB	031H
	DB	0a7H
	DB	039H
	DB	0c6H
	DB	031H
	DB	0a7H
	DB	039H
	DB	0c7H
	DB	039H
	DB	0c6H
	DB	031H
	DB	0a7H
	DB	039H
	DB	0c7H
	DB	039H
	DB	0c7H
	DB	039H
	DB	0a7H
	DB	039H
	DB	0c7H
	DB	039H
	DB	0a6H
	DB	031H
	DB	0c7H
	DB	039H
	DB	0a7H
	DB	039H
	DB	0c7H
	DB	039H
	DB	0c7H
	DB	039H
	DB	0a6H
	DB	031H
	DB	0c7H
	DB	039H
	DB	0a7H
	DB	039H
	DB	0c6H
	DB	031H
	DB	0c7H
	DB	039H
	DB	0a7H
	DB	039H
	DB	0c6H
	DB	031H
	DB	0c7H
	DB	039H
	DB	0a6H
	DB	031H
	DB	0a7H
	DB	039H
	DB	0c6H
	DB	031H
	DB	0a7H
	DB	039H
	DB	0c7H
	DB	039H
	DB	0c6H
	DB	031H
	DB	0a7H
	DB	039H
	DB	0c7H
	DB	039H
	DB	0c7H
	DB	039H
	DB	0a7H
	DB	039H
	DB	0c7H
	DB	039H
	DB	0a6H
	DB	031H
	DB	0c7H
	DB	039H
	DB	0a7H
	DB	039H
	DB	0c7H
	DB	039H
	DB	0a7H
	DB	039H
	DB	0c6H
	DB	031H
	DB	0c7H
	DB	039H
	DB	0a7H
	DB	039H
	DB	0c6H
	DB	031H
	DB	0c7H
	DB	039H
	DB	0a7H
	DB	039H
	DB	0c6H
	DB	031H
	DB	0a7H
	DB	039H
	DB	0c6H
	DB	031H
	DB	0a7H
	DB	039H
	DB	0c6H
	DB	031H
	DB	0c7H
	DB	039H
	DB	0a7H
	DB	039H
	DB	0c6H
	DB	031H
	DB	0a7H
	DB	039H
	DB	0c7H
	DB	039H
	DB	0c7H
	DB	039H
	DB	0a7H
	DB	039H
	DB	0c7H
	DB	039H
	DB	0c6H
	DB	031H
	DB	0a7H
	DB	039H
	DB	0a7H
	DB	039H
	DB	0c7H
	DB	039H
	DB	0a7H
	DB	039H
	DB	0c6H
	DB	031H
	DB	0c7H
	DB	039H
	DB	0a7H
	DB	039H
	DB	0c6H
	DB	031H
	DB	0c7H
	DB	039H
	DB	0a7H
	DB	039H
	DB	0c6H
	DB	031H
	DB	0a7H
	DB	039H
	DB	0c6H
	DB	031H
	DB	0a7H
	DB	039H
	DB	0c6H
	DB	031H
	DB	0a7H
	DB	039H
	DB	0c7H
	DB	039H
	DB	0c6H
	DB	031H
	DB	0a7H
	DB	039H
	DB	0c7H
	DB	039H
	DB	0c7H
	DB	039H
	DB	0a7H
	DB	039H
	DB	0c7H
	DB	039H
	DB	0a6H
	DB	031H
	DB	0c7H
	DB	039H
	DB	0a7H
	DB	039H
	DB	0c7H
	DB	039H
	DB	0c7H
	DB	039H
	DB	0a6H
	DB	031H
	DB	0c7H
	DB	039H
	DB	0a7H
	DB	039H
	DB	0c6H
	DB	031H
	DB	0c7H
	DB	039H
	DB	0a7H
	DB	039H
	DB	0c6H
	DB	031H
	DB	0c7H
	DB	039H
	DB	0a6H
	DB	031H
	DB	0a7H
	DB	039H
	DB	0c6H
	DB	031H
	DB	0a7H
	DB	039H
	DB	0c7H
	DB	039H
	DB	0c6H
	DB	031H
	DB	0a7H
	DB	039H
	DB	0a7H
	DB	039H
	DB	0c6H
	DB	031H
	DB	0a7H
	DB	039H
	DB	0a6H
	DB	031H
	DB	0c7H
	DB	039H
	DB	0c7H
	DB	039H
	DB	0a7H
	DB	039H
	DB	0c6H
	DB	031H
	DB	0a7H
	DB	039H
	DB	0a7H
	DB	039H
	DB	0c7H
	DB	039H
	DB	0c6H
	DB	031H
	DB	0a7H
	DB	039H
	DB	0c7H
	DB	039H
	DB	0c6H
	DB	031H
	DB	0c7H
	DB	039H
	DB	0a7H
	DB	039H
	DB	0c7H
	DB	039H
	DB	0a7H
	DB	039H
	DB	0c7H
	DB	039H
	DB	0a7H
	DB	039H
	DB	0c7H
	DB	039H
	DB	0c7H
	DB	039H
	DB	0a7H
	DB	039H
	DB	0c7H
	DB	039H
	DB	0a7H
	DB	039H
	DB	0a6H
	DB	031H
	DB	0c7H
	DB	039H
	DB	0a6H
	DB	031H
	DB	0a7H
	DB	039H
	DB	0c6H
	DB	031H
	DB	0a7H
	DB	039H
	DB	0c6H
	DB	031H
	DB	0c7H
	DB	039H
	DB	0a7H
	DB	039H
	DB	0c7H
	DB	039H
	DB	0c6H
	DB	031H
	DB	0a7H
	DB	039H
	DB	0c7H
	DB	039H
	DB	0a6H
	DB	031H
	DB	0c6H
	DB	031H
	DB	0c7H
	DB	039H
	DB	0a6H
	DB	031H
	DB	0a7H
	DB	039H
	DB	0c6H
	DB	031H
	DB	0a6H
	DB	031H
	DB	0c7H
	DB	039H
	DB	0c6H
	DB	031H
	DB	0a7H
	DB	039H
	DB	0c6H
	DB	031H
	DB	0c7H
	DB	039H
	DB	0a6H
	DB	031H
	DB	0a7H
	DB	039H
	DB	0c7H
	DB	039H
	DB	0c7H
	DB	039H
	DB	0a7H
	DB	039H
	DB	0c7H
	DB	039H
	DB	0a6H
	DB	031H
	DB	0c7H
	DB	039H
	DB	0c6H
	DB	031H
	DB	0a6H
	DB	031H
	DB	0c7H
	DB	039H
	DB	0c6H
	DB	031H
	DB	0a7H
	DB	039H
	DB	0c7H
	DB	039H
	DB	0c6H
	DB	031H
	DB	0a7H
	DB	039H
	DB	0a7H
	DB	039H
	DB	0c7H
	DB	039H
	DB	0a7H
	DB	039H
	DB	0c7H
	DB	039H
	DB	0c7H
	DB	039H
	DB	0a7H
	DB	039H
	DB	0c7H
	DB	039H
	DB	0a7H
	DB	039H
	DB	0a6H
	DB	031H
	DB	0c7H
	DB	039H
	DB	0a7H
	DB	039H
	DB	0a7H
	DB	039H
	DB	0c6H
	DB	031H
	DB	0a7H
	DB	039H
	DB	0c7H
	DB	039H
	DB	0c7H
	DB	039H
	DB	0a7H
	DB	039H
	DB	0c7H
	DB	039H
	DB	0a7H
	DB	039H
	DB	0c7H
	DB	039H
	DB	0a7H
	DB	039H
	DB	0c7H
	DB	039H
	DB	0a7H
	DB	039H
	DB	0a7H
	DB	039H
	DB	0c7H
	DB	039H
	DB	0a6H
	DB	031H
	DB	0a6H
	DB	031H
	DB	0c7H
	DB	039H
	DB	0c6H
	DB	031H
	DB	0a7H
	DB	039H
	DB	0c6H
	DB	031H
	DB	0a7H
	DB	039H
	DB	0c6H
	DB	031H
	DB	0c7H
	DB	039H
	DB	0a6H
	DB	031H
	DB	0a7H
	DB	039H
	DB	0c7H
	DB	039H
	DB	0c7H
	DB	039H
	DB	0a7H
	DB	039H
	DB	0c6H
	DB	031H
	DB	0a7H
	DB	039H
	DB	0a7H
	DB	039H
	DB	0c7H
	DB	039H
	DB	0a7H
	DB	039H
	DB	0c7H
	DB	039H
	DB	0c7H
	DB	039H
	DB	0a6H
	DB	031H
	DB	0a7H
	DB	039H
	DB	0c7H
	DB	039H
	DB	0a7H
	DB	039H
	DB	0c7H
	DB	039H
	DB	0c6H
	DB	031H
	DB	0a7H
	DB	039H
	DB	0a7H
	DB	039H
	DB	0c6H
	DB	031H
	DB	0a7H
	DB	039H
	DB	0c7H
	DB	039H
	DB	0c7H
	DB	039H
	DB	0a7H
	DB	039H
	DB	0c6H
	DB	031H
	DB	0c7H
	DB	039H
	DB	0a7H
	DB	039H
	DB	0c7H
	DB	039H
	DB	0a6H
	DB	031H
	DB	0a7H
	DB	039H
	DB	0c7H
	DB	039H
	DB	0a7H
	DB	039H
	DB	0c7H
	DB	039H
	DB	0c7H
	DB	039H
	DB	0a7H
	DB	039H
	DB	0a6H
	DB	031H
	DB	0c7H
	DB	039H
	DB	0a7H
	DB	039H
	DB	0a6H
	DB	031H
	DB	0c7H
	DB	039H
	DB	0c7H
	DB	039H
	DB	0a6H
	DB	031H
	DB	0a7H
	DB	039H
	DB	0c6H
	DB	031H
	DB	0a7H
	DB	039H
	DB	0a7H
	DB	039H
	DB	0c7H
	DB	039H
	DB	0c7H
	DB	039H
	DB	0a6H
	DB	031H
	DB	0c7H
	DB	039H
	DB	0a7H
	DB	039H
	DB	0a7H
	DB	039H
	DB	0c7H
	DB	039H
	DB	0a7H
	DB	039H
	DB	0a7H
	DB	039H
	DB	0c7H
	DB	039H
	DB	0a7H
	DB	039H
	DB	0c7H
	DB	039H
	DB	0c7H
	DB	039H
	DB	0a7H
	DB	039H
	DB	0c6H
	DB	031H
	DB	0a7H
	DB	039H
	DB	0a7H
	DB	039H
	DB	0a6H
	DB	031H
	DB	0c7H
	DB	039H
	DB	0a7H
	DB	039H
	DB	0c6H
	DB	031H
	DB	0a7H
	DB	039H
	DB	0c7H
	DB	039H
	DB	0a7H
	DB	039H
	DB	0c7H
	DB	039H
	DB	0a6H
	DB	031H
	DB	0a7H
	DB	039H
	DB	0c7H
	DB	039H
	DB	0a6H
	DB	031H
	DB	0c7H
	DB	039H
	DB	0a7H
	DB	039H
	DB	0c7H
	DB	039H
	DB	0a7H
	DB	039H
	DB	0a7H
	DB	039H
	DB	0c7H
	DB	039H
	DB	0a7H
	DB	039H
	DB	0c7H
	DB	039H
	DB	0c7H
	DB	039H
	DB	0a6H
	DB	031H
	DB	0c7H
	DB	039H
	DB	0a7H
	DB	039H
	DB	0a6H
	DB	031H
	DB	0c7H
	DB	039H
	DB	0a7H
	DB	039H
	DB	0a6H
	DB	031H
	DB	0c7H
	DB	039H
	DB	0a7H
	DB	039H
	DB	0c7H
	DB	039H
	DB	0c7H
	DB	039H
	DB	0a6H
	DB	031H
	DB	0c7H
	DB	039H
	DB	0a7H
	DB	039H
	DB	0a6H
	DB	031H
	DB	0a7H
	DB	039H
	DB	0c7H
	DB	039H
	DB	0a7H
	DB	039H
	DB	0c7H
	DB	039H
	DB	0a7H
	DB	039H
	DB	0c7H
	DB	039H
	DB	0a7H
	DB	039H
	DB	0c7H
	DB	039H
	DB	0a7H
	DB	039H
	DB	0a6H
	DB	031H
	DB	0c7H
	DB	039H
	DB	0a7H
	DB	039H
	DB	0c6H
	DB	031H
	DB	0a7H
	DB	039H
	DB	0c7H
	DB	039H
	DB	0a6H
	DB	031H
	DB	0a7H
	DB	039H
	DB	0c7H
	DB	039H
	DB	0a7H
	DB	039H
	DB	0c7H
	DB	039H
	DB	0c6H
	DB	031H
	DB	0a7H
	DB	039H
	DB	0c7H
	DB	039H
	DB	0a6H
	DB	031H
	DB	0a7H
	DB	039H
	DB	0c7H
	DB	039H
	DB	0a7H
	DB	039H
	DB	0a7H
	DB	039H
	DB	0c7H
	DB	039H
	DB	0a7H
	DB	039H
	DB	0c7H
	DB	039H
	DB	0c7H
	DB	039H
	DB	0a7H
	DB	039H
	DB	0c6H
	DB	031H
	DB	0a7H
	DB	039H
	DB	0a7H
	DB	039H
	DB	0a6H
	DB	031H
	DB	0c7H
	DB	039H
	DB	0a7H
	DB	039H
	DB	0c6H
	DB	031H
	DB	0a7H
	DB	039H
	DB	0c7H
	DB	039H
	DB	0a7H
	DB	039H
	DB	0c7H
	DB	039H
	DB	0a6H
	DB	031H
	DB	0a7H
	DB	039H
	DB	0c7H
	DB	039H
	DB	0a6H
	DB	031H
	DB	0c7H
	DB	039H
	DB	0a7H
	DB	039H
	DB	0c7H
	DB	039H
	DB	0a7H
	DB	039H
	DB	0a7H
	DB	039H
	DB	0c7H
	DB	039H
	DB	0a7H
	DB	039H
	DB	0c7H
	DB	039H
	DB	0c7H
	DB	039H
	DB	0a6H
	DB	031H
	DB	0c7H
	DB	039H
	DB	0a7H
	DB	039H
	DB	0a6H
	DB	031H
	DB	0c7H
	DB	039H
	DB	0a7H
	DB	039H
	DB	0a6H
	DB	031H
	DB	0c7H
	DB	039H
	DB	0a7H
	DB	039H
	DB	0c7H
	DB	039H
	DB	0c7H
	DB	039H
	DB	0a6H
	DB	031H
	DB	0c7H
	DB	039H
	DB	0a7H
	DB	039H
	DB	0a6H
	DB	031H
	DB	0a7H
	DB	039H
	DB	0c7H
	DB	039H
	DB	0a7H
	DB	039H
	DB	0c7H
	DB	039H
	DB	0a7H
	DB	039H
	DB	0c7H
	DB	039H
	DB	0a7H
	DB	039H
	DB	0c7H
	DB	039H
	DB	0a7H
	DB	039H
	DB	0a6H
	DB	031H
	DB	0c7H
	DB	039H
	DB	0a7H
	DB	039H
	DB	0c6H
	DB	031H
	DB	0a7H
	DB	039H
	DB	0c7H
	DB	039H
	DB	0a6H
	DB	031H
	DB	0a7H
	DB	039H
	DB	0c7H
	DB	039H
	DB	0a7H
	DB	039H
	DB	0c7H
	DB	039H
	DB	0c6H
	DB	031H
	DB	0a7H
	DB	039H
	DB	0c7H
	DB	039H
	DB	0a6H
	DB	031H
	DB	0a7H
	DB	039H
	DB	0c7H
	DB	039H
	DB	0a7H
	DB	039H
	DB	0a7H
	DB	039H
	DB	0c7H
	DB	039H
	DB	0a7H
	DB	039H
	DB	0c7H
	DB	039H
	DB	0c7H
	DB	039H
	DB	0a7H
	DB	039H
	DB	0c6H
	DB	031H
	DB	0a7H
	DB	039H
	DB	0a7H
	DB	039H
	DB	0a6H
	DB	031H
	DB	0c7H
	DB	039H
	DB	0a7H
	DB	039H
	DB	0c6H
	DB	031H
	DB	0a7H
	DB	039H
	DB	0c7H
	DB	039H
	DB	0a7H
	DB	039H
	DB	0c7H
	DB	039H
	DB	0a6H
	DB	031H
	DB	0a7H
	DB	039H
	DB	0c7H
	DB	039H
	DB	0a6H
	DB	031H
	DB	0c7H
	DB	039H
	DB	0a7H
	DB	039H
	DB	0c7H
	DB	039H
	DB	0a7H
	DB	039H
	DB	0a7H
	DB	039H
	DB	0c7H
	DB	039H
	DB	0a7H
	DB	039H
	DB	0c7H
	DB	039H
	DB	0c7H
	DB	039H
	DB	0a6H
	DB	031H
	DB	0c7H
	DB	039H
	DB	0a7H
	DB	039H
	DB	0a6H
	DB	031H
	DB	0c7H
	DB	039H
	DB	0a7H
	DB	039H
	DB	0a6H
	DB	031H
	DB	0c7H
	DB	039H
	DB	0a7H
	DB	039H
	DB	0c7H
	DB	039H
	DB	0c7H
	DB	039H
	DB	0a6H
	DB	031H
	DB	0c7H
	DB	039H
	DB	0a7H
	DB	039H
	DB	0a6H
	DB	031H
	DB	0a7H
	DB	039H
	DB	0c7H
	DB	039H
	DB	0a7H
	DB	039H
	DB	0c7H
	DB	039H
	DB	0a7H
	DB	039H
	DB	0c7H
	DB	039H
	DB	0a7H
	DB	039H
	DB	0c7H
	DB	039H
	DB	0a7H
	DB	039H
	DB	0a6H
	DB	031H
	DB	0c7H
	DB	039H
	DB	0a7H
	DB	039H
	DB	0c6H
	DB	031H
	DB	0a7H
	DB	039H
	DB	0c7H
	DB	039H
	DB	0a6H
	DB	031H
	DB	0a7H
	DB	039H
	DB	0c7H
	DB	039H
	DB	0a7H
	DB	039H
	DB	0c7H
	DB	039H
	DB	0c6H
	DB	031H
	DB	0a7H
	DB	039H
	DB	0c7H
	DB	039H
	DB	0a6H
	DB	031H
	DB	0a7H
	DB	039H
	DB	0c7H
	DB	039H
	DB	0a7H
	DB	039H
	DB	0a7H
	DB	039H
	DB	0c7H
	DB	039H
	DB	0a7H
	DB	039H
	DB	0c7H
	DB	039H
	DB	0c7H
	DB	039H
	DB	0a7H
	DB	039H
	DB	0c6H
	DB	031H
	DB	0a7H
	DB	039H
	DB	0a7H
	DB	039H
	DB	0a6H
	DB	031H
	DB	0c7H
	DB	039H
	DB	0a7H
	DB	039H
	DB	0c6H
	DB	031H
	DB	0a7H
	DB	039H
	DB	0c7H
	DB	039H
	DB	0a7H
	DB	039H
	DB	0c7H
	DB	039H
	DB	0a6H
	DB	031H
	DB	0a7H
	DB	039H
	DB	0c7H
	DB	039H
	DB	0a6H
	DB	031H
	DB	0c7H
	DB	039H
	DB	0a7H
	DB	039H
	DB	0c7H
	DB	039H
	DB	0a7H
	DB	039H
	DB	0a7H
	DB	039H
	DB	0c7H
	DB	039H
	DB	0a7H
	DB	039H
	DB	0c7H
	DB	039H
	DB	0c7H
	DB	039H
	DB	0a6H
	DB	031H
	DB	0c7H
	DB	039H
	DB	0a7H
	DB	039H
	DB	0a6H
	DB	031H
	DB	0c7H
	DB	039H
	DB	0a7H
	DB	039H
	DB	0a6H
	DB	031H
	DB	0c7H
	DB	039H
	DB	0a7H
	DB	039H
	DB	0c7H
	DB	039H
	DB	0c7H
	DB	039H
	DB	0a6H
	DB	031H
	DB	0c7H
	DB	039H
	DB	0a7H
	DB	039H
	DB	0a6H
	DB	031H
	DB	0a7H
	DB	039H
	DB	0c7H
	DB	039H
	DB	0a7H
	DB	039H
	DB	0c7H
	DB	039H
	DB	0a7H
	DB	039H
	DB	0c7H
	DB	039H
	DB	0a7H
	DB	039H
	DB	0c7H
	DB	039H
	DB	0a7H
	DB	039H
	DB	0a6H
	DB	031H
	DB	0c7H
	DB	039H
	DB	0a7H
	DB	039H
	DB	0c6H
	DB	031H
	DB	0a7H
	DB	039H
	DB	0c7H
	DB	039H
	DB	0a6H
	DB	031H
	DB	0a7H
	DB	039H
	DB	0c7H
	DB	039H
	DB	0a7H
	DB	039H
	DB	0c7H
	DB	039H
	DB	0c6H
	DB	031H
	DB	0a7H
	DB	039H
	DB	0c7H
	DB	039H
	DB	0a6H
	DB	031H
	DB	0a7H
	DB	039H
	DB	0c7H
	DB	039H
	DB	0a7H
	DB	039H
	DB	0a7H
	DB	039H
	DB	0c7H
	DB	039H
	DB	0a7H
	DB	039H
	DB	0c7H
	DB	039H
	DB	0c7H
	DB	039H
	DB	0a7H
	DB	039H
	DB	0c6H
	DB	031H
	DB	0a7H
	DB	039H
	DB	0a7H
	DB	039H
	DB	0a6H
	DB	031H
	DB	0c7H
	DB	039H
	DB	0a7H
	DB	039H
	DB	0c6H
	DB	031H
	DB	0a7H
	DB	039H
	DB	0c7H
	DB	039H
	DB	0a7H
	DB	039H
	DB	0c7H
	DB	039H
	DB	0a6H
	DB	031H
	DB	0a7H
	DB	039H
	DB	0c7H
	DB	039H
	DB	0a6H
	DB	031H
	DB	0c7H
	DB	039H
	DB	0a7H
	DB	039H
	DB	0c7H
	DB	039H
	DB	0a7H
	DB	039H
	DB	0a7H
	DB	039H
	DB	0c7H
	DB	039H
	DB	0a7H
	DB	039H
	DB	0c7H
	DB	039H
	DB	0c7H
	DB	039H
	DB	0a6H
	DB	031H
	DB	0c7H
	DB	039H
	DB	0a7H
	DB	039H
	DB	0a6H
	DB	031H
	DB	0c7H
	DB	039H
	DB	0c7H
	DB	039H
	DB	0a7H
	DB	039H
	DB	0c7H
	DB	039H
	DB	0c7H
	DB	039H
	DB	0a7H
	DB	039H
	DB	0c6H
	DB	031H
	DB	0a7H
	DB	039H
	DB	0c7H
	DB	039H
	DB	0c7H
	DB	039H
	DB	0a6H
	DB	031H
	DB	0a7H
	DB	039H
	DB	0c7H
	DB	039H
	DB	0a7H
	DB	039H
	DB	0c7H
	DB	039H
	DB	0a7H
	DB	039H
	DB	0a7H
	DB	039H
	DB	0c6H
	DB	031H
	DB	0a7H
	DB	039H
	DB	0a7H
	DB	039H
	DB	0c6H
	DB	031H
	DB	0a7H
	DB	039H
	DB	0c6H
	DB	031H
	DB	0a7H
	DB	039H
	DB	0a6H
	DB	031H
	DB	0c7H
	DB	039H
	DB	0c7H
	DB	039H
	DB	0a6H
	DB	031H
	DB	0c7H
	DB	039H
	DB	0c7H
	DB	039H
	DB	0a7H
	DB	039H
	DB	0c6H
	DB	031H
	DB	0a7H
	DB	039H
	DB	0a7H
	DB	039H
	DB	0c7H
	DB	039H
	DB	0a6H
	DB	031H
	DB	0a7H
	DB	039H
	DB	0c7H
	DB	039H
	DB	0a7H
	DB	039H
	DB	0c7H
	DB	039H
	DB	0a7H
	DB	039H
	DB	0a7H
	DB	039H
	DB	0c7H
	DB	039H
	DB	0c7H
	DB	039H
	DB	0a7H
	DB	039H
	DB	0c7H
	DB	039H
	DB	0a7H
	DB	039H
	DB	0a7H
	DB	039H
	DB	0c7H
	DB	039H
	DB	0a7H
	DB	039H
	DB	0a6H
	DB	031H
	DB	0c7H
	DB	039H
	DB	0a7H
	DB	039H
	DB	0c7H
	DB	039H
	DB	0a6H
	DB	031H
	DB	0a7H
	DB	039H
	DB	0c6H
	DB	031H
	DB	0a7H
	DB	039H
	DB	0c7H
	DB	039H
	DB	0a7H
	DB	039H
	DB	0a7H
	DB	039H
	DB	0c7H
	DB	039H
	DB	0a7H
	DB	039H
	DB	0a7H
	DB	039H
	DB	0c7H
	DB	039H
	DB	0a6H
	DB	031H
	DB	0c7H
	DB	039H
	DB	0c7H
	DB	039H
	DB	0a7H
	DB	039H
	DB	0c6H
	DB	031H
	DB	0a7H
	DB	039H
	DB	0a6H
	DB	031H
	DB	0c7H
	DB	039H
	DB	0a6H
	DB	031H
	DB	0c7H
	DB	039H
	DB	0c7H
	DB	039H
	DB	0a7H
	DB	039H
	DB	0c7H
	DB	039H
	DB	0c7H
	DB	039H
	DB	0a7H
	DB	039H
	DB	0c7H
	DB	039H
	DB	0a7H
	DB	039H
	DB	0a6H
	DB	031H
	DB	0c7H
	DB	039H
	DB	0a7H
	DB	039H
	DB	0c6H
	DB	031H
	DB	0a7H
	DB	039H
	DB	0c7H
	DB	039H
	DB	0a7H
	DB	039H
	DB	0c6H
	DB	031H
	DB	0c7H
	DB	039H
	DB	0a7H
	DB	039H
	DB	0c7H
	DB	039H
	DB	0c7H
	DB	039H
	DB	0a7H
	DB	039H
	DB	0a7H
	DB	039H
	DB	0c7H
	DB	039H
	DB	0a7H
	DB	039H
	DB	0a6H
	DB	031H
	DB	0c7H
	DB	039H
	DB	0a7H
	DB	039H
	DB	0a7H
	DB	039H
	DB	0c6H
	DB	031H
	DB	0c7H
	DB	039H
	DB	0a7H
	DB	039H
	DB	0a6H
	DB	031H
	DB	0c7H
	DB	039H
	DB	0a7H
	DB	039H
	DB	0c7H
	DB	039H
	DB	0c7H
	DB	039H
	DB	0a6H
	DB	031H
	DB	0a7H
	DB	039H
	DB	0c6H
	DB	031H
	DB	0a7H
	DB	039H
	DB	0c7H
	DB	039H
	DB	0a7H
	DB	039H
	DB	0c7H
	DB	039H
	DB	0a6H
	DB	031H
	DB	0a7H
	DB	039H
	DB	0c7H
	DB	039H
	DB	0a7H
	DB	039H
	DB	0c7H
	DB	039H
	DB	0c6H
	DB	031H
	DB	0a7H
	DB	039H
	DB	0a7H
	DB	039H
	DB	0c6H
	DB	031H
	DB	0a7H
	DB	039H
	DB	0a7H
	DB	039H
	DB	0c7H
	DB	039H
	DB	0a6H
	DB	031H
	DB	0c7H
	DB	039H
	DB	0c7H
	DB	039H
	DB	0a7H
	DB	039H
	DB	0c6H
	DB	031H
	DB	0c7H
	DB	039H
	DB	0a7H
	DB	039H
	DB	0a6H
	DB	031H
	DB	0c7H
	DB	039H
	DB	0c7H
	DB	039H
	DB	0a7H
	DB	039H
	DB	0c7H
	DB	039H
	DB	0c7H
	DB	039H
	DB	0a6H
	DB	031H
	DB	0a7H
	DB	039H
	DB	0c7H
	DB	039H
	DB	0a7H
	DB	039H
	DB	0c7H
	DB	039H
	DB	0c7H
	DB	039H
	DB	0a6H
	DB	031H
	DB	0a7H
	DB	039H
	DB	0c7H
	DB	039H
	DB	0a6H
	DB	031H
	DB	0c7H
	DB	039H
	DB	0c7H
	DB	039H
	DB	0a6H
	DB	031H
	DB	0c7H
	DB	039H
	DB	0c6H
	DB	031H
	DB	0a6H
	DB	031H
	DB	0c7H
	DB	039H
	DB	0a6H
	DB	031H
	DB	0a7H
	DB	039H
	DB	0c6H
	DB	031H
	DB	0a7H
	DB	039H
	DB	0a7H
	DB	039H
	DB	0c7H
	DB	039H
	DB	0c7H
	DB	039H
	DB	0a7H
	DB	039H
	DB	0c7H
	DB	039H
	DB	0a7H
	DB	039H
	DB	0c7H
	DB	039H
	DB	0a6H
	DB	031H
	DB	0a7H
	DB	039H
	DB	0c6H
	DB	031H
	DB	0c7H
	DB	039H
	DB	0a7H
	DB	039H
	DB	0c7H
	DB	039H
	DB	0c6H
	DB	031H
	DB	0a7H
	DB	039H
	DB	0a7H
	DB	039H
	DB	0c7H
	DB	039H
	DB	0c6H
	DB	031H
	DB	0a7H
	DB	039H
	DB	0c6H
	DB	031H
	DB	0a7H
	DB	039H
	DB	0c6H
	DB	031H
	DB	0a7H
	DB	039H
	DB	0a7H
	DB	039H
	DB	0c7H
	DB	039H
	DB	0a7H
	DB	039H
	DB	0c7H
	DB	039H
	DB	0c7H
	DB	039H
	DB	0a7H
	DB	039H
	DB	0c7H
	DB	039H
	DB	0c7H
	DB	039H
	DB	0a6H
	DB	031H
	DB	0a7H
	DB	039H
	DB	0c6H
	DB	031H
	DB	0a7H
	DB	039H
	DB	0a7H
	DB	039H
	DB	0c7H
	DB	039H
	DB	0a6H
	DB	031H
	DB	0c7H
	DB	039H
	DB	0c7H
	DB	039H
	DB	0a7H
	DB	039H
	DB	0c6H
	DB	031H
	DB	0a7H
	DB	039H
	DB	0a6H
	DB	031H
	DB	0c7H
	DB	039H
	DB	0a6H
	DB	031H
	DB	0c7H
	DB	039H
	DB	0c7H
	DB	039H
	DB	0a7H
	DB	039H
	DB	0c7H
	DB	039H
	DB	0a7H
	DB	039H
	DB	0c7H
	DB	039H
	DB	0a7H
	DB	039H
	DB	0c7H
	DB	039H
	DB	0a7H
	DB	039H
	DB	0c6H
	DB	031H
	DB	0a7H
	DB	039H
	DB	0c6H
	DB	031H
	DB	0a7H
	DB	039H
	DB	0a7H
	DB	039H
	DB	0c7H
	DB	039H
	DB	0a6H
	DB	031H
	DB	0c7H
	DB	039H
	DB	0c7H
	DB	039H
	DB	0a7H
	DB	039H
	DB	0c6H
	DB	031H
	DB	0c7H
	DB	039H
	DB	0a6H
	DB	031H
	DB	0a7H
	DB	039H
	DB	0c6H
	DB	031H
	DB	0a7H
	DB	039H
	DB	0a7H
	DB	039H
	DB	0c7H
	DB	039H
	DB	0a7H
	DB	039H
	DB	0c7H
	DB	039H
	DB	0c7H
	DB	039H
	DB	0a7H
	DB	039H
	DB	0c7H
	DB	039H
	DB	0a7H
	DB	039H
	DB	0a6H
	DB	031H
	DB	0c7H
	DB	039H
	DB	0a6H
	DB	031H
	DB	0c7H
	DB	039H
	DB	0c7H
	DB	039H
	DB	0a7H
	DB	039H
	DB	0c6H
	DB	031H
	DB	0a7H
	DB	039H
	DB	0c7H
	DB	039H
	DB	0a7H
	DB	039H
	DB	0c6H
	DB	031H
	DB	0a7H
	DB	039H
	DB	0c6H
	DB	031H
	DB	0a7H
	DB	039H
	DB	0c6H
	DB	031H
	DB	0a7H
	DB	039H
	DB	0a7H
	DB	039H
	DB	0c7H
	DB	039H
	DB	0a7H
	DB	039H
	DB	0c7H
	DB	039H
	DB	0c7H
	DB	039H
	DB	0a7H
	DB	039H
	DB	0c7H
	DB	039H
	DB	0c7H
	DB	039H
	DB	0a6H
	DB	031H
	DB	0a7H
	DB	039H
	DB	0c6H
	DB	031H
	DB	0a7H
	DB	039H
	DB	0a7H
	DB	039H
	DB	0c7H
	DB	039H
	DB	0a6H
	DB	031H
	DB	0c7H
	DB	039H
	DB	0c7H
	DB	039H
	DB	0a7H
	DB	039H
	DB	0c6H
	DB	031H
	DB	0a7H
	DB	039H
	DB	0a6H
	DB	031H
	DB	0c7H
	DB	039H
	DB	0a6H
	DB	031H
	DB	0c7H
	DB	039H
	DB	0c7H
	DB	039H
	DB	0a7H
	DB	039H
	DB	0c7H
	DB	039H
	DB	0a7H
	DB	039H
	DB	0c7H
	DB	039H
	DB	0a7H
	DB	039H
	DB	0c7H
	DB	039H
	DB	0a7H
	DB	039H
	DB	0c6H
	DB	031H
	DB	0a7H
	DB	039H
	DB	0c6H
	DB	031H
	DB	0a7H
	DB	039H
	DB	0a7H
	DB	039H
	DB	0c7H
	DB	039H
	DB	0a6H
	DB	031H
	DB	0c7H
	DB	039H
	DB	0c7H
	DB	039H
	DB	0a7H
	DB	039H
	DB	0c6H
	DB	031H
	DB	0c7H
	DB	039H
	DB	0a6H
	DB	031H
	DB	0a7H
	DB	039H
	DB	0c6H
	DB	031H
	DB	0a7H
	DB	039H
	DB	0a7H
	DB	039H
	DB	0c7H
	DB	039H
	DB	0a7H
	DB	039H
	DB	0c7H
	DB	039H
	DB	0c7H
	DB	039H
	DB	0a7H
	DB	039H
	DB	0c7H
	DB	039H
	DB	0a7H
	DB	039H
	DB	0a6H
	DB	031H
	DB	0c7H
	DB	039H
	DB	0a6H
	DB	031H
	DB	0c7H
	DB	039H
	DB	0c7H
	DB	039H
	DB	0a7H
	DB	039H
	DB	0c6H
	DB	031H
	DB	0a7H
	DB	039H
	DB	0c7H
	DB	039H
	DB	0a7H
	DB	039H
	DB	0c6H
	DB	031H
	DB	0a7H
	DB	039H
	DB	0c6H
	DB	031H
	DB	0a7H
	DB	039H
	DB	0c6H
	DB	031H
	DB	0a7H
	DB	039H
	DB	0a7H
	DB	039H
	DB	0c7H
	DB	039H
	DB	0a7H
	DB	039H
	DB	0c7H
	DB	039H
	DB	0c7H
	DB	039H
	DB	0a7H
	DB	039H
	DB	0c7H
	DB	039H
	DB	0c7H
	DB	039H
	DB	0a6H
	DB	031H
	DB	0a7H
	DB	039H
	DB	0c6H
	DB	031H
	DB	0a7H
	DB	039H
	DB	0a7H
	DB	039H
	DB	0c7H
	DB	039H
	DB	0a6H
	DB	031H
	DB	0c7H
	DB	039H
	DB	0c7H
	DB	039H
	DB	0a7H
	DB	039H
	DB	0c6H
	DB	031H
	DB	0a7H
	DB	039H
	DB	0a6H
	DB	031H
	DB	0c7H
	DB	039H
	DB	0a6H
	DB	031H
	DB	0c7H
	DB	039H
	DB	0c7H
	DB	039H
	DB	0a7H
	DB	039H
	DB	0c7H
	DB	039H
	DB	0a7H
	DB	039H
	DB	0c7H
	DB	039H
	DB	0a7H
	DB	039H
	DB	0c7H
	DB	039H
	DB	0a7H
	DB	039H
	DB	0c6H
	DB	031H
	DB	0a7H
	DB	039H
	DB	0c6H
	DB	031H
	DB	0a7H
	DB	039H
	DB	0a7H
	DB	039H
	DB	0c7H
	DB	039H
	DB	0a6H
	DB	031H
	DB	0c7H
	DB	039H
	DB	0c7H
	DB	039H
	DB	0a7H
	DB	039H
	DB	0c6H
	DB	031H
	DB	0c7H
	DB	039H
	DB	0a6H
	DB	031H
	DB	0a7H
	DB	039H
	DB	0c6H
	DB	031H
	DB	0a7H
	DB	039H
	DB	0a7H
	DB	039H
	DB	0c7H
	DB	039H
	DB	0a7H
	DB	039H
	DB	0c7H
	DB	039H
	DB	0c7H
	DB	039H
	DB	0a7H
	DB	039H
	DB	0c7H
	DB	039H
	DB	0a7H
	DB	039H
	DB	0a6H
	DB	031H
	DB	0c7H
	DB	039H
	DB	0a6H
	DB	031H
	DB	0c7H
	DB	039H
	DB	0c7H
	DB	039H
	DB	0a7H
	DB	039H
	DB	0c6H
	DB	031H
	DB	0a7H
	DB	039H
	DB	0c7H
	DB	039H
	DB	0a7H
	DB	039H
	DB	0c6H
	DB	031H
	DB	0a7H
	DB	039H
	DB	0c6H
	DB	031H
	DB	0a7H
	DB	039H
	DB	0c6H
	DB	031H
	DB	0a7H
	DB	039H
	DB	0a7H
	DB	039H
	DB	0c7H
	DB	039H
	DB	0a7H
	DB	039H
	DB	0c7H
	DB	039H
	DB	0c7H
	DB	039H
	DB	0a7H
	DB	039H
	DB	0c7H
	DB	039H
	DB	0c7H
	DB	039H
	DB	0a6H
	DB	031H
	DB	0a7H
	DB	039H
	DB	0c6H
	DB	031H
	DB	0a7H
	DB	039H
	DB	0a7H
	DB	039H
	DB	0c7H
	DB	039H
	DB	0a6H
	DB	031H
	DB	0c7H
	DB	039H
	DB	0c7H
	DB	039H
	DB	0a7H
	DB	039H
	DB	0c6H
	DB	031H
	DB	0a7H
	DB	039H
	DB	0a6H
	DB	031H
	DB	0c7H
	DB	039H
	DB	0a6H
	DB	031H
	DB	0c7H
	DB	039H
	DB	0c7H
	DB	039H
	DB	0a7H
	DB	039H
	DB	0c7H
	DB	039H
	DB	0a7H
	DB	039H
	DB	0c7H
	DB	039H
	DB	0a7H
	DB	039H
	DB	0c7H
	DB	039H
	DB	0a7H
	DB	039H
	DB	0c6H
	DB	031H
	DB	0a7H
	DB	039H
	DB	0c6H
	DB	031H
	DB	0a7H
	DB	039H
	DB	0a7H
	DB	039H
	DB	0c7H
	DB	039H
	DB	0a6H
	DB	031H
	DB	0c7H
	DB	039H
	DB	0c7H
	DB	039H
	DB	0a7H
	DB	039H
	DB	0c6H
	DB	031H
	DB	0c7H
	DB	039H
	DB	0a6H
	DB	031H
	DB	0a7H
	DB	039H
	DB	0c6H
	DB	031H
	DB	0a7H
	DB	039H
	DB	0a7H
	DB	039H
	DB	0c7H
	DB	039H
	DB	0a7H
	DB	039H
	DB	0c7H
	DB	039H
	DB	0c7H
	DB	039H
	DB	0a7H
	DB	039H
	DB	0c7H
	DB	039H
	DB	0a7H
	DB	039H
	DB	0a6H
	DB	031H
	DB	0c7H
	DB	039H
	DB	0a6H
	DB	031H
	DB	0c7H
	DB	039H
	DB	0c7H
	DB	039H
	DB	0a7H
	DB	039H
	DB	0c6H
	DB	031H
	DB	0a7H
	DB	039H
	DB	0c7H
	DB	039H
	DB	0a7H
	DB	039H
	DB	0c6H
	DB	031H
	DB	0a7H
	DB	039H
	DB	0c6H
	DB	031H
	DB	0a7H
	DB	039H
	DB	0c6H
	DB	031H
	DB	0a7H
	DB	039H
	DB	0a7H
	DB	039H
	DB	0c7H
	DB	039H
	DB	0a7H
	DB	039H
	DB	0c7H
	DB	039H
	DB	0c7H
	DB	039H
	DB	0a7H
	DB	039H
	DB	0a7H
	DB	039H
	DB	0c6H
	DB	031H
	DB	0a7H
	DB	039H
	DB	0a7H
	DB	039H
	DB	0c6H
	DB	031H
	DB	0a7H
	DB	039H
	DB	0a7H
	DB	039H
	DB	0c6H
	DB	031H
	DB	0a7H
	DB	039H
	DB	0a7H
	DB	039H
	DB	0c7H
	DB	039H
	DB	0c6H
	DB	031H
	DB	0a7H
	DB	039H
	DB	0a7H
	DB	039H
	DB	0c6H
	DB	031H
	DB	0a7H
	DB	039H
	DB	0c7H
	DB	039H
	DB	0a7H
	DB	039H
	DB	0c6H
	DB	031H
	DB	0c7H
	DB	039H
	DB	0a7H
	DB	039H
	DB	0c7H
	DB	039H
	DB	0a7H
	DB	039H
	DB	0c6H
	DB	031H
	DB	0a7H
	DB	039H
	DB	0c7H
	DB	039H
	DB	0a6H
	DB	031H
	DB	0a7H
	DB	039H
	DB	0c7H
	DB	039H
	DB	0a7H
	DB	039H
	DB	0c7H
	DB	039H
	DB	0c7H
	DB	039H
	DB	0a7H
	DB	039H
	DB	0c7H
	DB	039H
	DB	0c7H
	DB	039H
	DB	0a6H
	DB	031H
	DB	0c7H
	DB	039H
	DB	0a7H
	DB	039H
	DB	0c6H
	DB	031H
	DB	0c7H
	DB	039H
	DB	0a6H
	DB	031H
	DB	0c7H
	DB	039H
	DB	0a7H
	DB	039H
	DB	0a6H
	DB	031H
	DB	0c7H
	DB	039H
	DB	0c7H
	DB	039H
	DB	0a6H
	DB	031H
	DB	0c7H
	DB	039H
	DB	0c7H
	DB	039H
	DB	0a7H
	DB	039H
	DB	0c7H
	DB	039H
	DB	0a7H
	DB	039H
	DB	0c7H
	DB	039H
	DB	0c7H
	DB	039H
	DB	0a7H
	DB	039H
	DB	0c7H
	DB	039H
	DB	0a6H
	DB	031H
	DB	0c7H
	DB	039H
	DB	0a7H
	DB	039H
	DB	0c6H
	DB	031H
	DB	0c7H
	DB	039H
	DB	0a7H
	DB	039H
	DB	0c7H
	DB	039H
	DB	0c7H
	DB	039H
	DB	0a7H
	DB	039H
	DB	0a7H
	DB	039H
	DB	0a6H
	DB	031H
	DB	0c7H
	DB	039H
	DB	0a7H
	DB	039H
	DB	0c7H
	DB	039H
	DB	0c6H
	DB	031H
	DB	0a7H
	DB	039H
	DB	0a7H
	DB	039H
	DB	0c7H
	DB	039H
	DB	0a6H
	DB	031H
	DB	0a7H
	DB	039H
	DB	0c6H
	DB	031H
	DB	0a7H
	DB	039H
	DB	0a6H
	DB	031H
	DB	0c6H
	DB	031H
	DB	0c7H
	DB	039H
	DB	0a7H
	DB	039H
	DB	0c7H
	DB	039H
	DB	0a6H
	DB	031H
	DB	0a7H
	DB	039H
	DB	0c7H
	DB	039H
	DB	0c6H
	DB	031H
	DB	0a7H
	DB	039H
	DB	0a6H
	DB	031H
	DB	0c7H
	DB	039H
	DB	0a7H
	DB	039H
	DB	0a6H
	DB	031H
	DB	0c6H
	DB	031H
	DB	0c7H
	DB	039H
	DB	0a7H
	DB	039H
	DB	0c6H
	DB	031H
	DB	0c7H
	DB	039H
	DB	0a7H
	DB	039H
	DB	0c7H
	DB	039H
	DB	0c7H
	DB	039H
	DB	0a7H
	DB	039H
	DB	0c7H
	DB	039H
	DB	0a7H
	DB	039H
	DB	0c7H
	DB	039H
	DB	0c7H
	DB	039H
	DB	0a6H
	DB	031H
	DB	0a7H
	DB	039H
	DB	0c7H
	DB	039H
	DB	0a6H
	DB	031H
	DB	0c7H
	DB	039H
	DB	0c7H
	DB	039H
	DB	0a7H
	DB	039H
	DB	0c7H
	DB	039H
	DB	0a6H
	DB	031H
	DB	0a7H
	DB	039H
	DB	0c7H
	DB	039H
	DB	0c6H
	DB	031H
	DB	0a7H
	DB	039H
	DB	0c7H
	DB	039H
	DB	0a6H
	DB	031H
	DB	0a7H
	DB	039H
	DB	0c7H
	DB	039H
	DB	0c7H
	DB	039H
	DB	0a7H
	DB	039H
	DB	0c7H
	DB	039H
	DB	0c6H
	DB	031H
	DB	0a7H
	DB	039H
	DB	0c7H
	DB	039H
	DB	0a7H
	DB	039H
	DB	0a7H
	DB	039H
	DB	0c6H
	DB	031H
	DB	0a7H
	DB	039H
	DB	0a7H
	DB	039H
	DB	0c7H
	DB	039H
	DB	0a6H
	DB	031H
	DB	0c7H
	DB	039H
	DB	0a7H
	DB	039H
	DB	0a6H
	DB	031H
	DB	0c7H
	DB	039H
	DB	0a6H
	DB	031H
	DB	0a7H
	DB	039H
	DB	0c7H
	DB	039H
	DB	0c7H
	DB	039H
	DB	0a7H
	DB	039H
	DB	0c6H
	DB	031H
	DB	0a7H
	DB	039H
	DB	0a7H
	DB	039H
	DB	0c7H
	DB	039H
	DB	0c6H
	DB	031H
	DB	0a7H
	DB	039H
	DB	0c7H
	DB	039H
	DB	0a7H
	DB	039H
	DB	0a7H
	DB	039H
	DB	0c6H
	DB	031H
	DB	0a7H
	DB	039H
	DB	0a7H
	DB	039H
	DB	0c7H
	DB	039H
	DB	0a7H
	DB	039H
	DB	0c7H
	DB	039H
	DB	0c7H
	DB	039H
	DB	0a6H
	DB	031H
	DB	0c7H
	DB	039H
	DB	0a7H
	DB	039H
	DB	0c6H
	DB	031H
	DB	0a7H
	DB	039H
	DB	0c7H
	DB	039H
	DB	0c6H
	DB	031H
	DB	0a7H
	DB	039H
	DB	0c7H
	DB	039H
	DB	0c6H
	DB	031H
	DB	0a7H
	DB	039H
	DB	0c7H
	DB	039H
	DB	0a7H
	DB	039H
	DB	0a6H
	DB	031H
	DB	0c7H
	DB	039H
	DB	0a7H
	DB	039H
	DB	0c7H
	DB	039H
	DB	0a6H
	DB	031H
	DB	0c7H
	DB	039H
	DB	0a7H
	DB	039H
	DB	0a7H
	DB	039H
	DB	0c6H
	DB	031H
	DB	0a7H
	DB	039H
	DB	0c7H
	DB	039H
	DB	0c7H
	DB	039H
	DB	0a6H
	DB	031H
	DB	0c6H
	DB	031H
	DB	0a7H
	DB	039H
	DB	0a7H
	DB	039H
	DB	0c6H
	DB	031H
	DB	0a7H
	DB	039H
	DB	0a6H
	DB	031H
	DB	0c7H
	DB	039H
	DB	0c7H
	DB	039H
	DB	0a7H
	DB	039H
	DB	0c7H
	DB	039H
	DB	0c7H
	DB	039H
	DB	0a6H
	DB	031H
	DB	0c7H
	DB	039H
	DB	0a7H
	DB	039H
	DB	0c7H
	DB	039H
	DB	0a6H
	DB	031H
	DB	0c7H
	DB	039H
	DB	0c7H
	DB	039H
	DB	0a7H
	DB	039H
	DB	0c6H
	DB	031H
	DB	0c7H
	DB	039H
	DB	0a7H
	DB	039H
	DB	0a7H
	DB	039H
	DB	0c6H
	DB	031H
	DB	0a6H
	DB	031H
	DB	0c7H
	DB	039H
	DB	0c7H
	DB	039H
	DB	0a6H
	DB	031H
	DB	0a7H
	DB	039H
	DB	0c6H
	DB	031H
	DB	0a7H
	DB	039H
	DB	0c7H
	DB	039H
	DB	0c7H
	DB	039H
	DB	0a7H
	DB	039H
	DB	0c7H
	DB	039H
	DB	0c6H
	DB	031H
	DB	0a7H
	DB	039H
	DB	0a7H
	DB	039H
	DB	0c7H
	DB	039H
	DB	0a6H
	DB	031H
	DB	0c7H
	DB	039H
	DB	0a7H
	DB	039H
	DB	0a7H
	DB	039H
	DB	0c6H
	DB	031H
	DB	0c7H
	DB	039H
	DB	0a7H
	DB	039H
	DB	0c7H
	DB	039H
	DB	0c6H
	DB	031H
	DB	0a6H
	DB	031H
	DB	0c7H
	DB	039H
	DB	0a7H
	DB	039H
	DB	0c6H
	DB	031H
	DB	0c7H
	DB	039H
	DB	0a6H
	DB	031H
	DB	0c7H
	DB	039H
	DB	0c7H
	DB	039H
	DB	0a7H
	DB	039H
	DB	0c7H
	DB	039H
	DB	0a7H
	DB	039H
	DB	0a6H
	DB	031H
	DB	0c7H
	DB	039H
	DB	0c7H
	DB	039H
	DB	0a7H
	DB	039H
	DB	0c6H
	DB	031H
	DB	0a7H
	DB	039H
	DB	0c7H
	DB	039H
	DB	0a7H
	DB	039H
	DB	0c6H
	DB	031H
	DB	0c7H
	DB	039H
	DB	0a7H
	DB	039H
	DB	0c7H
	DB	039H
	DB	0c6H
	DB	031H
	DB	0a6H
	DB	031H
	DB	0a7H
	DB	039H
	DB	0c7H
	DB	039H
	DB	0a6H
	DB	031H
	DB	0c7H
	DB	039H
	DB	0a6H
	DB	031H
	DB	0a7H
	DB	039H
	DB	0c7H
	DB	039H
	DB	0c7H
	DB	039H
	DB	0a7H
	DB	039H
	DB	0c7H
	DB	039H
	DB	0c6H
	DB	031H
	DB	0a7H
	DB	039H
	DB	0c7H
	DB	039H
	DB	0a7H
	DB	039H
	DB	0c6H
	DB	031H
	DB	0c7H
	DB	039H
	DB	0a7H
	DB	039H
	DB	0c7H
	DB	039H
	DB	0c6H
	DB	031H
	DB	0a7H
	DB	039H
	DB	0c7H
	DB	039H
	DB	0a7H
	DB	039H
	DB	0a6H
	DB	031H
	DB	0c6H
	DB	031H
	DB	0c7H
	DB	039H
	DB	0a7H
	DB	039H
	DB	0c6H
	DB	031H
	DB	0a7H
	DB	039H
	DB	0c6H
	DB	031H
	DB	0a7H
	DB	039H
	DB	0c7H
	DB	039H
	DB	0c7H
	DB	039H
	DB	0a7H
	DB	039H
	DB	0c7H
	DB	039H
	DB	0c6H
	DB	031H
	DB	0a7H
	DB	039H
	DB	0a7H
	DB	039H
	DB	0c7H
	DB	039H
	DB	0a6H
	DB	031H
	DB	0c7H
	DB	039H
	DB	0a7H
	DB	039H
	DB	0a7H
	DB	039H
	DB	0c6H
	DB	031H
	DB	0c7H
	DB	039H
	DB	0a7H
	DB	039H
	DB	0c7H
	DB	039H
	DB	0c6H
	DB	031H
	DB	0a6H
	DB	031H
	DB	0c7H
	DB	039H
	DB	0a7H
	DB	039H
	DB	0c6H
	DB	031H
	DB	0c7H
	DB	039H
	DB	0a6H
	DB	031H
	DB	0c7H
	DB	039H
	DB	0c7H
	DB	039H
	DB	0a7H
	DB	039H
	DB	0c7H
	DB	039H
	DB	0a7H
	DB	039H
	DB	0a6H
	DB	031H
	DB	0c7H
	DB	039H
	DB	0c7H
	DB	039H
	DB	0a7H
	DB	039H
	DB	0c6H
	DB	031H
	DB	0a7H
	DB	039H
	DB	0c7H
	DB	039H
	DB	0a7H
	DB	039H
	DB	0c6H
	DB	031H
	DB	0c7H
	DB	039H
	DB	0a7H
	DB	039H
	DB	0c7H
	DB	039H
	DB	0c6H
	DB	031H
	DB	0a6H
	DB	031H
	DB	0a7H
	DB	039H
	DB	0c7H
	DB	039H
	DB	0a6H
	DB	031H
	DB	0c7H
	DB	039H
	DB	0a6H
	DB	031H
	DB	0a7H
	DB	039H
	DB	0c7H
	DB	039H
	DB	0c7H
	DB	039H
	DB	0a7H
	DB	039H
	DB	0c7H
	DB	039H
	DB	0c6H
	DB	031H
	DB	0a7H
	DB	039H
	DB	0c7H
	DB	039H
	DB	0a7H
	DB	039H
	DB	0c6H
	DB	031H
	DB	0c7H
	DB	039H
	DB	0a7H
	DB	039H
	DB	0c7H
	DB	039H
	DB	0c6H
	DB	031H
	DB	0a7H
	DB	039H
	DB	0c7H
	DB	039H
	DB	0a7H
	DB	039H
	DB	0a6H
	DB	031H
	DB	0c6H
	DB	031H
	DB	0c7H
	DB	039H
	DB	0a7H
	DB	039H
	DB	0c6H
	DB	031H
	DB	0a7H
	DB	039H
	DB	0c6H
	DB	031H
	DB	0a7H
	DB	039H
	DB	0c7H
	DB	039H
	DB	0c7H
	DB	039H
	DB	0a7H
	DB	039H
	DB	0c7H
	DB	039H
	DB	0c6H
	DB	031H
	DB	0a7H
	DB	039H
	DB	0a7H
	DB	039H
	DB	0c7H
	DB	039H
	DB	0a6H
	DB	031H
	DB	0c7H
	DB	039H
	DB	0a7H
	DB	039H
	DB	0a7H
	DB	039H
	DB	0c6H
	DB	031H
	DB	0c7H
	DB	039H
	DB	0a7H
	DB	039H
	DB	0c7H
	DB	039H
	DB	0c6H
	DB	031H
	DB	0a6H
	DB	031H
	DB	0c7H
	DB	039H
	DB	0a7H
	DB	039H
	DB	0c6H
	DB	031H
	DB	0c7H
	DB	039H
	DB	0a6H
	DB	031H
	DB	0c7H
	DB	039H
	DB	0c7H
	DB	039H
	DB	0a7H
	DB	039H
	DB	0c7H
	DB	039H
	DB	0a7H
	DB	039H
	DB	0a6H
	DB	031H
	DB	0c7H
	DB	039H
	DB	0c7H
	DB	039H
	DB	0a7H
	DB	039H
	DB	0c6H
	DB	031H
	DB	0a7H
	DB	039H
	DB	0c7H
	DB	039H
	DB	0a7H
	DB	039H
	DB	0c6H
	DB	031H
	DB	0c7H
	DB	039H
	DB	0a7H
	DB	039H
	DB	0c7H
	DB	039H
	DB	0c6H
	DB	031H
	DB	0a6H
	DB	031H
	DB	0a7H
	DB	039H
	DB	0c7H
	DB	039H
	DB	0a6H
	DB	031H
	DB	0c7H
	DB	039H
	DB	0a6H
	DB	031H
	DB	0a7H
	DB	039H
	DB	0c7H
	DB	039H
	DB	0c7H
	DB	039H
	DB	0a7H
	DB	039H
	DB	0c7H
	DB	039H
	DB	0c6H
	DB	031H
	DB	0a7H
	DB	039H
	DB	0c7H
	DB	039H
	DB	0a7H
	DB	039H
	DB	0c6H
	DB	031H
	DB	0c7H
	DB	039H
	DB	0a7H
	DB	039H
	DB	0c7H
	DB	039H
	DB	0c6H
	DB	031H
	DB	0a7H
	DB	039H
	DB	0c7H
	DB	039H
	DB	0a7H
	DB	039H
	DB	0a6H
	DB	031H
	DB	0c6H
	DB	031H
	DB	0c7H
	DB	039H
	DB	0a7H
	DB	039H
	DB	0c6H
	DB	031H
	DB	0a7H
	DB	039H
	DB	0c6H
	DB	031H
	DB	0a7H
	DB	039H
	DB	0c7H
	DB	039H
	DB	0c7H
	DB	039H
	DB	0a7H
	DB	039H
	DB	0c7H
	DB	039H
	DB	0c6H
	DB	031H
	DB	0a7H
	DB	039H
	DB	0a7H
	DB	039H
	DB	0c7H
	DB	039H
	DB	0a6H
	DB	031H
	DB	0c7H
	DB	039H
	DB	0a7H
	DB	039H
	DB	0a7H
	DB	039H
	DB	0c6H
	DB	031H
	DB	0c7H
	DB	039H
	DB	0a7H
	DB	039H
	DB	0c7H
	DB	039H
	DB	0c6H
	DB	031H
	DB	0a6H
	DB	031H
	DB	0c7H
	DB	039H
	DB	0a7H
	DB	039H
	DB	0c6H
	DB	031H
	DB	0c7H
	DB	039H
	DB	0a6H
	DB	031H
	DB	0c7H
	DB	039H
	DB	0c7H
	DB	039H
	DB	0a7H
	DB	039H
	DB	0c7H
	DB	039H
	DB	0a7H
	DB	039H
	DB	0a6H
	DB	031H
	DB	0c7H
	DB	039H
	DB	0c7H
	DB	039H
	DB	0a7H
	DB	039H
	DB	0c6H
	DB	031H
	DB	0a7H
	DB	039H
	DB	0c7H
	DB	039H
	DB	0a7H
	DB	039H
	DB	0c6H
	DB	031H
	DB	0c7H
	DB	039H
	DB	0a7H
	DB	039H
	DB	0c7H
	DB	039H
	DB	0c6H
	DB	031H
	DB	0a6H
	DB	031H
	DB	0a7H
	DB	039H
	DB	0c7H
	DB	039H
	DB	0a6H
	DB	031H
	DB	0c7H
	DB	039H
	DB	0c7H
	DB	039H
	DB	0a6H
	DB	031H
	DB	0c7H
	DB	039H
	DB	0c7H
	DB	039H
	DB	0a6H
	DB	031H
	DB	0c7H
	DB	039H
	DB	0c7H
	DB	039H
	DB	0a7H
	DB	039H
	DB	0c7H
	DB	039H
	DB	0c6H
	DB	031H
	DB	0a7H
	DB	039H
	DB	0c7H
	DB	039H
	DB	0c7H
	DB	039H
	DB	0a6H
	DB	031H
	DB	0c7H
	DB	039H
	DB	0c7H
	DB	039H
	DB	0a6H
	DB	031H
	DB	0c7H
	DB	039H
	DB	0a7H
	DB	039H
	DB	0a7H
	DB	039H
	DB	0c7H
	DB	039H
	DB	0a7H
	DB	039H
	DB	0c7H
	DB	039H
	DB	0c7H
	DB	039H
	DB	0a7H
	DB	039H
	DB	0c7H
	DB	039H
	DB	0a7H
	DB	039H
	DB	0c7H
	DB	039H
	DB	0c7H
	DB	039H
	DB	0a6H
	DB	031H
	DB	0a6H
	DB	031H
	DB	0c7H
	DB	039H
	DB	0a7H
	DB	039H
	DB	0a6H
	DB	031H
	DB	0c7H
	DB	039H
	DB	0a7H
	DB	039H
	DB	0c7H
	DB	039H
	DB	0c7H
	DB	039H
	DB	0a6H
	DB	031H
	DB	0a7H
	DB	039H
	DB	0c7H
	DB	039H
	DB	0a7H
	DB	039H
	DB	0c6H
	DB	031H
	DB	0c7H
	DB	039H
	DB	0a7H
	DB	039H
	DB	0a6H
	DB	031H
	DB	0c7H
	DB	039H
	DB	0a7H
	DB	039H
	DB	0c6H
	DB	031H
	DB	0a7H
	DB	039H
	DB	0c6H
	DB	031H
	DB	0a7H
	DB	039H
	DB	0a6H
	DB	031H
	DB	0c6H
	DB	031H
	DB	0a7H
	DB	039H
	DB	0c7H
	DB	039H
	DB	0a7H
	DB	039H
	DB	0c7H
	DB	039H
	DB	0a7H
	DB	039H
	DB	0c6H
	DB	031H
	DB	0a7H
	DB	039H
	DB	0c7H
	DB	039H
	DB	0a6H
	DB	031H
	DB	0a6H
	DB	031H
	DB	0c7H
	DB	039H
	DB	0c6H
	DB	031H
	DB	0a7H
	DB	039H
	DB	0c7H
	DB	039H
	DB	0a6H
	DB	031H
	DB	0a7H
	DB	039H
	DB	0c7H
	DB	039H
	DB	0c7H
	DB	039H
	DB	0a7H
	DB	039H
	DB	0c7H
	DB	039H
	DB	0c7H
	DB	039H
	DB	0a7H
	DB	039H
	DB	0c6H
	DB	031H
	DB	0c7H
	DB	039H
	DB	0a7H
	DB	039H
	DB	0a7H
	DB	039H
	DB	0c7H
	DB	039H
	DB	0a6H
	DB	031H
	DB	0c7H
	DB	039H
	DB	0c7H
	DB	039H
	DB	0a7H
	DB	039H
	DB	0c7H
	DB	039H
	DB	0a7H
	DB	039H
	DB	0c7H
	DB	039H
	DB	0a7H
	DB	039H
	DB	0c7H
	DB	039H
	DB	0c7H
	DB	039H
	DB	0a7H
	DB	039H
	DB	0a7H
	DB	039H
	DB	0c7H
	DB	039H
	DB	0a7H
	DB	039H
	DB	0a6H
	DB	031H
	DB	0c7H
	DB	039H
	DB	0a7H
	DB	039H
	DB	0a6H
	DB	031H
	DB	0c7H
	DB	039H
	DB	0a6H
	DB	031H
	DB	0c6H
	DB	031H
	DB	0a7H
	DB	039H
	DB	0a7H
	DB	039H
	DB	0c6H
	DB	031H
	DB	0a7H
	DB	039H
	DB	0c7H
	DB	039H
	DB	0c7H
	DB	039H
	DB	0a6H
	DB	031H
	DB	0a7H
	DB	039H
	DB	0c7H
	DB	039H
	DB	0a6H
	DB	031H
	DB	0c7H
	DB	039H
	DB	0c7H
	DB	039H
	DB	0a7H
	DB	039H
	DB	0c6H
	DB	031H
	DB	0c7H
	DB	039H
	DB	0a7H
	DB	039H
	DB	0c7H
	DB	039H
	DB	0c7H
	DB	039H
	DB	0a6H
	DB	031H
	DB	0c7H
	DB	039H
	DB	0a7H
	DB	039H
	DB	0a6H
	DB	031H
	DB	0c7H
	DB	039H
	DB	0a7H
	DB	039H
	DB	0a7H
	DB	039H
	DB	0c6H
	DB	031H
	DB	0c7H
	DB	039H
	DB	0a7H
	DB	039H
	DB	0c6H
	DB	031H
	DB	0c7H
	DB	039H
	DB	0a7H
	DB	039H
	DB	0c6H
	DB	031H
	DB	0a7H
	DB	039H
	DB	0c7H
	DB	039H
	DB	0c7H
	DB	039H
	DB	0a7H
	DB	039H
	DB	0c7H
	DB	039H
	DB	0c7H
	DB	039H
	DB	0a6H
	DB	031H
	DB	0a7H
	DB	039H
	DB	0c7H
	DB	039H
	DB	0a6H
	DB	031H
	DB	0c7H
	DB	039H
	DB	0c7H
	DB	039H
	DB	0a6H
	DB	031H
	DB	0a7H
	DB	039H
	DB	0c7H
	DB	039H
	DB	0a7H
	DB	039H
	DB	0c6H
	DB	031H
	DB	0c7H
	DB	039H
	DB	0a7H
	DB	039H
	DB	0c6H
	DB	031H
	DB	0c7H
	DB	039H
	DB	0a7H
	DB	039H
	DB	0c7H
	DB	039H
	DB	0a7H
	DB	039H
	DB	0a6H
	DB	031H
	DB	0c7H
	DB	039H
	DB	0a7H
	DB	039H
	DB	0c7H
	DB	039H
	DB	0a7H
	DB	039H
	DB	0c7H
	DB	039H
	DB	0a6H
	DB	031H
	DB	0a7H
	DB	039H
	DB	0c7H
	DB	039H
	DB	0a6H
	DB	031H
	DB	0a7H
	DB	039H
	DB	0c7H
	DB	039H
	DB	0a7H
	DB	039H
	DB	0c7H
	DB	039H
	DB	0c7H
	DB	039H
	DB	0a7H
	DB	039H
	DB	0c6H
	DB	031H
	DB	0a7H
	DB	039H
	DB	0c7H
	DB	039H
	DB	0a7H
	DB	039H
	DB	0c7H
	DB	039H
	DB	0c6H
	DB	031H
	DB	0a7H
	DB	039H
	DB	0c7H
	DB	039H
	DB	0a7H
	DB	039H
	DB	0a7H
	DB	039H
	DB	0c7H
	DB	039H
	DB	0a7H
	DB	039H
	DB	0c7H
	DB	039H
	DB	0c7H
	DB	039H
	DB	0a7H
	DB	039H
	DB	0c6H
	DB	031H
	DB	0c7H
	DB	039H
	DB	0a7H
	DB	039H
	DB	0a6H
	DB	031H
	DB	0c7H
	DB	039H
	DB	0a7H
	DB	039H
	DB	0a6H
	DB	031H
	DB	0c7H
	DB	039H
	DB	0a7H
	DB	039H
	DB	0c6H
	DB	031H
	DB	0a7H
	DB	039H
	DB	0c7H
	DB	039H
	DB	0a7H
	DB	039H
	DB	0a7H
	DB	039H
	DB	0c6H
	DB	031H
	DB	0a7H
	DB	039H
	DB	0a7H
	DB	039H
	DB	0c7H
	DB	039H
	DB	0c7H
	DB	039H
	DB	0a7H
	DB	039H
	DB	0c7H
	DB	039H
	DB	0a7H
	DB	039H
	DB	0a7H
	DB	039H
	DB	0c7H
	DB	039H
	DB	0a6H
	DB	031H
	DB	0c7H
	DB	039H
	DB	0c7H
	DB	039H
	DB	0a6H
	DB	031H
	DB	0a7H
	DB	039H
	DB	0c7H
	DB	039H
	DB	0a6H
	DB	031H
	DB	0a7H
	DB	039H
	DB	0c7H
	DB	039H
	DB	0a6H
	DB	031H
	DB	0c7H
	DB	039H
	DB	0c7H
	DB	039H
	DB	0a7H
	DB	039H
	DB	0a7H
	DB	039H
	DB	0c6H
	DB	031H
	DB	0c7H
	DB	039H
	DB	0a7H
	DB	039H
	DB	0a7H
	DB	039H
	DB	0c7H
	DB	039H
	DB	0a7H
	DB	039H
	DB	0a7H
	DB	039H
	DB	0c7H
	DB	039H
	DB	0a7H
	DB	039H
	DB	0a7H
	DB	039H
	DB	0c6H
	DB	031H
	DB	0a7H
	DB	039H
	DB	0a7H
	DB	039H
	DB	0a6H
	DB	031H
	DB	0c7H
	DB	039H
	DB	0a7H
	DB	039H
	DB	0c6H
	DB	031H
	DB	0c7H
	DB	039H
	DB	0a7H
	DB	039H
	DB	0a6H
	DB	031H
	DB	0c7H
	DB	039H
	DB	0a7H
	DB	039H
	DB	0a7H
	DB	039H
	DB	0c7H
	DB	039H
	DB	0a6H
	DB	031H
	DB	0c7H
	DB	039H
	DB	0a7H
	DB	039H
	DB	0a7H
	DB	039H
	DB	0c7H
	DB	039H
	DB	0a7H
	DB	039H
	DB	0a7H
	DB	039H
	DB	0c7H
	DB	039H
	DB	0c7H
	DB	039H
	DB	0a7H
	DB	039H
	DB	0c6H
	DB	031H
	DB	0a7H
	DB	039H
	DB	0a7H
	DB	039H
	DB	0c6H
	DB	031H
	DB	0a7H
	DB	039H
	DB	0c7H
	DB	039H
	DB	0a6H
	DB	031H
	DB	0a7H
	DB	039H
	DB	0c7H
	DB	039H
	DB	0a6H
	DB	031H
	DB	0c7H
	DB	039H
	DB	0a7H
	DB	039H
	DB	0a7H
	DB	039H
	DB	0c7H
	DB	039H
	DB	0a6H
	DB	031H
	DB	0a7H
	DB	039H
	DB	0c7H
	DB	039H
	DB	0a7H
	DB	039H
	DB	0c7H
	DB	039H
	DB	0c7H
	DB	039H
	DB	0a7H
	DB	039H
	DB	0a7H
	DB	039H
	DB	0c7H
	DB	039H
	DB	0a7H
	DB	039H
	DB	0a6H
	DB	031H
	DB	0c7H
	DB	039H
	DB	0a7H
	DB	039H
	DB	0c6H
	DB	031H
	DB	0a7H
	DB	039H
	DB	0a7H
	DB	039H
	DB	0c6H
	DB	031H
	DB	0a7H
	DB	039H
	DB	0a7H
	DB	039H
	DB	0c6H
	DB	031H
	DB	0c7H
	DB	039H
	DB	0a7H
	DB	039H
	DB	0c7H
	DB	039H
	DB	0a7H
	DB	039H
	DB	0a6H
	DB	031H
	DB	0c7H
	DB	039H
	DB	0a7H
	DB	039H
	DB	0c7H
	DB	039H
	DB	0a7H
	DB	039H
	DB	0a7H
	DB	039H
	DB	0c7H
	DB	039H
	DB	0a7H
	DB	039H
	DB	0c7H
	DB	039H
	DB	0a7H
	DB	039H
	DB	0a6H
	DB	031H
	DB	0c7H
	DB	039H
	DB	0a7H
	DB	039H
	DB	0a6H
	DB	031H
	DB	0c7H
	DB	039H
	DB	0a7H
	DB	039H
	DB	0c6H
	DB	031H
	DB	0c7H
	DB	039H
	DB	0a7H
	DB	039H
	DB	0a6H
	DB	031H
	DB	0c7H
	DB	039H
	DB	0a7H
	DB	039H
	DB	0a7H
	DB	039H
	DB	0c7H
	DB	039H
	DB	0a6H
	DB	031H
	DB	0c7H
	DB	039H
	DB	0a7H
	DB	039H
	DB	0a7H
	DB	039H
	DB	0c7H
	DB	039H
	DB	0a7H
	DB	039H
	DB	0a7H
	DB	039H
	DB	0c7H
	DB	039H
	DB	0c7H
	DB	039H
	DB	0a7H
	DB	039H
	DB	0c6H
	DB	031H
	DB	0a7H
	DB	039H
	DB	0a7H
	DB	039H
	DB	0c6H
	DB	031H
	DB	0a7H
	DB	039H
	DB	0c7H
	DB	039H
	DB	0a6H
	DB	031H
	DB	0a7H
	DB	039H
	DB	0c7H
	DB	039H
	DB	0a6H
	DB	031H
	DB	0c7H
	DB	039H
	DB	0a7H
	DB	039H
	DB	0a7H
	DB	039H
	DB	0c7H
	DB	039H
	DB	0a6H
	DB	031H
	DB	0a7H
	DB	039H
	DB	0c7H
	DB	039H
	DB	0a7H
	DB	039H
	DB	0c7H
	DB	039H
	DB	0c7H
	DB	039H
	DB	0a7H
	DB	039H
	DB	0a7H
	DB	039H
	DB	0c7H
	DB	039H
	DB	0a7H
	DB	039H
	DB	0a6H
	DB	031H
	DB	0c7H
	DB	039H
	DB	0a7H
	DB	039H
	DB	0c6H
	DB	031H
	DB	0a7H
	DB	039H
	DB	0a7H
	DB	039H
	DB	0c6H
	DB	031H
	DB	0a7H
	DB	039H
	DB	0a7H
	DB	039H
	DB	0c6H
	DB	031H
	DB	0c7H
	DB	039H
	DB	0a7H
	DB	039H
	DB	0c7H
	DB	039H
	DB	0a7H
	DB	039H
	DB	0a6H
	DB	031H
	DB	0c7H
	DB	039H
	DB	0a7H
	DB	039H
	DB	0c7H
	DB	039H
	DB	0a7H
	DB	039H
	DB	0a7H
	DB	039H
	DB	0c7H
	DB	039H
	DB	0a7H
	DB	039H
	DB	0c7H
	DB	039H
	DB	0a7H
	DB	039H
	DB	0a6H
	DB	031H
	DB	0c7H
	DB	039H
	DB	0a7H
	DB	039H
	DB	0a6H
	DB	031H
	DB	0c7H
	DB	039H
	DB	0a7H
	DB	039H
	DB	0c6H
	DB	031H
	DB	0c7H
	DB	039H
	DB	0a7H
	DB	039H
	DB	0a6H
	DB	031H
	DB	0c7H
	DB	039H
	DB	0a7H
	DB	039H
	DB	0a7H
	DB	039H
	DB	0c7H
	DB	039H
	DB	0a6H
	DB	031H
	DB	0c7H
	DB	039H
	DB	0a7H
	DB	039H
	DB	0a7H
	DB	039H
	DB	0c7H
	DB	039H
	DB	0a7H
	DB	039H
	DB	0a7H
	DB	039H
	DB	0c7H
	DB	039H
	DB	0c7H
	DB	039H
	DB	0a7H
	DB	039H
	DB	0c6H
	DB	031H
	DB	0a7H
	DB	039H
	DB	0a7H
	DB	039H
	DB	0c6H
	DB	031H
	DB	0a7H
	DB	039H
	DB	0c7H
	DB	039H
	DB	0a6H
	DB	031H
	DB	0a7H
	DB	039H
	DB	0c7H
	DB	039H
	DB	0a6H
	DB	031H
	DB	0c7H
	DB	039H
	DB	0a7H
	DB	039H
	DB	0a7H
	DB	039H
	DB	0c7H
	DB	039H
	DB	0a6H
	DB	031H
	DB	0a7H
	DB	039H
	DB	0c7H
	DB	039H
	DB	0a7H
	DB	039H
	DB	0c7H
	DB	039H
	DB	0c7H
	DB	039H
	DB	0a7H
	DB	039H
	DB	0a7H
	DB	039H
	DB	0c7H
	DB	039H
	DB	0a7H
	DB	039H
	DB	0a6H
	DB	031H
	DB	0c7H
	DB	039H
	DB	0a7H
	DB	039H
	DB	0c6H
	DB	031H
	DB	0a7H
	DB	039H
	DB	0a7H
	DB	039H
	DB	0c6H
	DB	031H
	DB	0a7H
	DB	039H
	DB	0a7H
	DB	039H
	DB	0c6H
	DB	031H
	DB	0c7H
	DB	039H
	DB	0a7H
	DB	039H
	DB	0c7H
	DB	039H
	DB	0a7H
	DB	039H
	DB	0a6H
	DB	031H
	DB	0c7H
	DB	039H
	DB	0a7H
	DB	039H
	DB	0c7H
	DB	039H
	DB	0a7H
	DB	039H
	DB	0a7H
	DB	039H
	DB	0c7H
	DB	039H
	DB	0a7H
	DB	039H
	DB	0c7H
	DB	039H
	DB	0a7H
	DB	039H
	DB	0a6H
	DB	031H
	DB	0c7H
	DB	039H
	DB	0a7H
	DB	039H
	DB	0a6H
	DB	031H
	DB	0c7H
	DB	039H
	DB	0a7H
	DB	039H
	DB	0c6H
	DB	031H
	DB	0c7H
	DB	039H
	DB	0a7H
	DB	039H
	DB	0a6H
	DB	031H
	DB	0c7H
	DB	039H
	DB	0a7H
	DB	039H
	DB	0a7H
	DB	039H
	DB	0c7H
	DB	039H
	DB	0a6H
	DB	031H
	DB	0c7H
	DB	039H
	DB	0a7H
	DB	039H
	DB	0a7H
	DB	039H
	DB	0c7H
	DB	039H
	DB	0a7H
	DB	039H
	DB	0a7H
	DB	039H
	DB	0c7H
	DB	039H
	DB	0c7H
	DB	039H
	DB	0a7H
	DB	039H
	DB	0c6H
	DB	031H
	DB	0a7H
	DB	039H
	DB	0a7H
	DB	039H
	DB	0c6H
	DB	031H
	DB	0a7H
	DB	039H
	DB	0a7H
	DB	039H
	DB	0c7H
	DB	039H
	DB	0a7H
	DB	039H
	DB	0a7H
	DB	039H
	DB	0c6H
	DB	031H
	DB	0a7H
	DB	039H
	DB	0a7H
	DB	039H
	DB	0c7H
	DB	039H
	DB	0a6H
	DB	031H
	DB	0a7H
	DB	039H
	DB	0c7H
	DB	039H
	DB	0a7H
	DB	039H
	DB	0a7H
	DB	039H
	DB	0c7H
	DB	039H
	DB	0a6H
	DB	031H
	DB	0c7H
	DB	039H
	DB	0c7H
	DB	039H
	DB	0a6H
	DB	031H
	DB	0a7H
	DB	039H
	DB	0a7H
	DB	039H
	DB	0a6H
	DB	031H
	DB	0c6H
	DB	031H
	DB	0a7H
	DB	039H
	DB	0a6H
	DB	031H
	DB	0c7H
	DB	039H
	DB	0a7H
	DB	039H
	DB	0c7H
	DB	039H
	DB	0a7H
	DB	039H
	DB	0c7H
	DB	039H
	DB	0c7H
	DB	039H
	DB	0a6H
	DB	031H
	DB	0c7H
	DB	039H
	DB	0a6H
	DB	031H
	DB	0a7H
	DB	039H
	DB	0c7H
	DB	039H
	DB	0a6H
	DB	031H
	DB	0a7H
	DB	039H
	DB	0c7H
	DB	039H
	DB	0a7H
	DB	039H
	DB	0a7H
	DB	039H
	DB	0c7H
	DB	039H
	DB	0c7H
	DB	039H
	DB	0a7H
	DB	039H
	DB	0c7H
	DB	039H
	DB	0a7H
	DB	039H
	DB	0c7H
	DB	039H
	DB	0a7H
	DB	039H
	DB	0a7H
	DB	039H
	DB	0c7H
	DB	039H
	DB	0c7H
	DB	039H
	DB	0a7H
	DB	039H
	DB	0a7H
	DB	039H
	DB	0c6H
	DB	031H
	DB	0a6H
	DB	031H
	DB	0c7H
	DB	039H
	DB	0a7H
	DB	039H
	DB	0c6H
	DB	031H
	DB	0a7H
	DB	039H
	DB	0a7H
	DB	039H
	DB	0c7H
	DB	039H
	DB	0c7H
	DB	039H
	DB	0a7H
	DB	039H
	DB	0a7H
	DB	039H
	DB	0c7H
	DB	039H
	DB	0c7H
	DB	039H
	DB	0a7H
	DB	039H
	DB	0c7H
	DB	039H
	DB	0a6H
	DB	031H
	DB	0a7H
	DB	039H
	DB	0c7H
	DB	039H
	DB	0a6H
	DB	031H
	DB	0a6H
	DB	031H
	DB	0c7H
	DB	039H
	DB	0a7H
	DB	039H
	DB	0a7H
	DB	039H
	DB	0c7H
	DB	039H
	DB	0c7H
	DB	039H
	DB	0c7H
	DB	039H
	DB	0a7H
	DB	039H
	DB	0a7H
	DB	039H
	DB	0c6H
	DB	031H
	DB	0a7H
	DB	039H
	DB	0c7H
	DB	039H
	DB	0a6H
	DB	031H
	DB	0c6H
	DB	031H
	DB	0a7H
	DB	039H
	DB	0c7H
	DB	039H
	DB	0a6H
	DB	031H
	DB	0c7H
	DB	039H
	DB	0c6H
	DB	031H
	DB	0a7H
	DB	039H
	DB	0c7H
	DB	039H
	DB	0c7H
	DB	039H
	DB	0a7H
	DB	039H
	DB	0c7H
	DB	039H
	DB	0c7H
	DB	039H
	DB	0a7H
	DB	039H
	DB	0c7H
	DB	039H
	DB	0a7H
	DB	039H
	DB	0c7H
	DB	039H
	DB	0c7H
	DB	039H
	DB	0a6H
	DB	031H
	DB	0a7H
	DB	039H
	DB	0c7H
	DB	039H
	DB	0a7H
	DB	039H
	DB	0c6H
	DB	031H
	DB	0a7H
	DB	039H
	DB	0c7H
	DB	039H
	DB	0a7H
	DB	039H
	DB	0a6H
	DB	031H
	DB	0c7H
	DB	039H
	DB	0a7H
	DB	039H
	DB	0a7H
	DB	039H
	DB	0c7H
	DB	039H
	DB	0a6H
	DB	031H
	DB	0a7H
	DB	039H
	DB	0c7H
	DB	039H
	DB	0a6H
	DB	031H
	DB	0c7H
	DB	039H
	DB	0c7H
	DB	039H
	DB	0a6H
	DB	031H
	DB	0c7H
	DB	039H
	DB	0c7H
	DB	039H
	DB	0a6H
	DB	031H
	DB	0a7H
	DB	039H
	DB	0c7H
	DB	039H
	DB	0a6H
	DB	031H
	DB	0a7H
	DB	039H
	DB	0c7H
	DB	039H
	DB	0a7H
	DB	039H
	DB	0c7H
	DB	039H
	DB	0a7H
	DB	039H
	DB	0a6H
	DB	031H
	DB	0c7H
	DB	039H
	DB	0a7H
	DB	039H
	DB	0a6H
	DB	031H
	DB	0c7H
	DB	039H
	DB	0c7H
	DB	039H
	DB	0a7H
	DB	039H
	DB	0c7H
	DB	039H
	DB	0c6H
	DB	031H
	DB	0a7H
	DB	039H
	DB	0a7H
	DB	039H
	DB	0c7H
	DB	039H
	DB	0c7H
	DB	039H
	DB	0c6H
	DB	031H
	DB	0a7H
	DB	039H
	DB	0a7H
	DB	039H
	DB	0c7H
	DB	039H
	DB	0a6H
	DB	031H
	DB	0a7H
	DB	039H
	DB	0c7H
	DB	039H
	DB	0a7H
	DB	039H
	DB	0c6H
	DB	031H
	DB	0c7H
	DB	039H
	DB	0a7H
	DB	039H
	DB	0c6H
	DB	031H
	DB	0a7H
	DB	039H
	DB	0c7H
	DB	039H
	DB	0a6H
	DB	031H
	DB	0c7H
	DB	039H
	DB	0c7H
	DB	039H
	DB	0a7H
	DB	039H
	DB	0c7H
	DB	039H
	DB	0c7H
	DB	039H
	DB	0a7H
	DB	039H
	DB	0c6H
	DB	031H
	DB	0a7H
	DB	039H
	DB	0a6H
	DB	031H
	DB	0c7H
	DB	039H
	DB	0a6H
	DB	031H
	DB	0c7H
	DB	039H
	DB	0a7H
	DB	039H
	DB	0c6H
	DB	031H
	DB	0a7H
	DB	039H
	DB	0a7H
	DB	039H
	DB	0c6H
	DB	031H
	DB	0a7H
	DB	039H
	DB	0c7H
	DB	039H
	DB	0c6H
	DB	031H
	DB	0a7H
	DB	039H
	DB	0c6H
	DB	031H
	DB	0a6H
	DB	031H
	DB	0a7H
	DB	039H
	DB	0c7H
	DB	039H
	DB	0a7H
	DB	039H
	DB	0a6H
	DB	031H
	DB	0c7H
	DB	039H
	DB	0c7H
	DB	039H
	DB	0a7H
	DB	039H
	DB	0c7H
	DB	039H
	DB	0c7H
	DB	039H
	DB	0a6H
	DB	031H
	DB	0c7H
	DB	039H
	DB	0a7H
	DB	039H
	DB	0c7H
	DB	039H
	DB	0a7H
	DB	039H
	DB	0c6H
	DB	031H
	DB	0c7H
	DB	039H
	DB	0a7H
	DB	039H
	DB	0c6H
	DB	031H
	DB	0c7H
	DB	039H
	DB	0a7H
	DB	039H
	DB	0a6H
	DB	031H
	DB	0c7H
	DB	039H
	DB	0a6H
	DB	031H
	DB	0c6H
	DB	031H
	DB	0c7H
	DB	039H
	DB	0a7H
	DB	039H
	DB	0c7H
	DB	039H
	DB	0a6H
	DB	031H
	DB	0a7H
	DB	039H
	DB	0c7H
	DB	039H
	DB	0c7H
	DB	039H
	DB	0a7H
	DB	039H
	DB	0c7H
	DB	039H
	DB	0c6H
	DB	031H
	DB	0a7H
	DB	039H
	DB	0c7H
	DB	039H
	DB	0a7H
	DB	039H
	DB	0a7H
	DB	039H
	DB	0c6H
	DB	031H
	DB	0c7H
	DB	039H
	DB	0a7H
	DB	039H
	DB	0c6H
	DB	031H
	DB	0a7H
	DB	039H
	DB	0c7H
	DB	039H
	DB	0c6H
	DB	031H
	DB	0a7H
	DB	039H
	DB	0c6H
	DB	031H
	DB	0c6H
	DB	031H
	DB	0a7H
	DB	039H
	DB	0c7H
	DB	039H
	DB	0c7H
	DB	039H
	DB	0a6H
	DB	031H
	DB	0c7H
	DB	039H
	DB	0c7H
	DB	039H
	DB	0a7H
	DB	039H
	DB	0c7H
	DB	039H
	DB	0a7H
	DB	039H
	DB	0a6H
	DB	031H
	DB	0c7H
	DB	039H
	DB	0a7H
	DB	039H
	DB	0c7H
	DB	039H
	DB	0c7H
	DB	039H
	DB	0a6H
	DB	031H
	DB	0c7H
	DB	039H
	DB	0c7H
	DB	039H
	DB	0a6H
	DB	031H
	DB	0c7H
	DB	039H
	DB	0a7H
	DB	039H
	DB	0c6H
	DB	031H
	DB	0a7H
	DB	039H
	DB	0c6H
	DB	031H
	DB	0c6H
	DB	031H
	DB	0a7H
	DB	039H
	DB	0a7H
	DB	039H
	DB	0c7H
	DB	039H
	DB	0c6H
	DB	031H
	DB	0a7H
	DB	039H
	DB	0c7H
	DB	039H
	DB	0c7H
	DB	039H
	DB	0a7H
	DB	039H
	DB	0c7H
	DB	039H
	DB	0c6H
	DB	031H
	DB	0a7H
	DB	039H
	DB	0c7H
	DB	039H
	DB	0a7H
	DB	039H
	DB	0c7H
	DB	039H
	DB	0a6H
	DB	031H
	DB	0c7H
	DB	039H
	DB	0c7H
	DB	039H
	DB	0a6H
	DB	031H
	DB	0a7H
	DB	039H
	DB	0c7H
	DB	039H
	DB	0a6H
	DB	031H
	DB	0a7H
	DB	039H
	DB	0c6H
	DB	031H
	DB	0a6H
	DB	031H
	DB	0c7H
	DB	039H
	DB	0c7H
	DB	039H
	DB	0a7H
	DB	039H
	DB	0c6H
	DB	031H
	DB	0c7H
	DB	039H
	DB	0a7H
	DB	039H
	DB	0c7H
	DB	039H
	DB	0a7H
	DB	039H
	DB	0c7H
	DB	039H
	DB	0a6H
	DB	031H
	DB	0c7H
	DB	039H
	DB	0c7H
	DB	039H
	DB	0a7H
	DB	039H
	DB	0a7H
	DB	039H
	DB	0c6H
	DB	031H
	DB	0c7H
	DB	039H
	DB	0a7H
	DB	039H
	DB	0c6H
	DB	031H
	DB	0c7H
	DB	039H
	DB	0a7H
	DB	039H
	DB	0c6H
	DB	031H
	DB	0c7H
	DB	039H
	DB	0a6H
	DB	031H
	DB	0c6H
	DB	031H
	DB	0a7H
	DB	039H
	DB	0c7H
	DB	039H
	DB	0a7H
	DB	039H
	DB	0c6H
	DB	031H
	DB	0c7H
	DB	039H
	DB	0a7H
	DB	039H
	DB	0a7H
	DB	039H
	DB	0c7H
	DB	039H
	DB	0a7H
	DB	039H
	DB	0a6H
	DB	031H
	DB	0c7H
	DB	039H
	DB	0a7H
	DB	039H
	DB	0c7H
	DB	039H
	DB	0c7H
	DB	039H
	DB	0a6H
	DB	031H
	DB	0c7H
	DB	039H
	DB	0c7H
	DB	039H
	DB	0a6H
	DB	031H
	DB	0c7H
	DB	039H
	DB	0a7H
	DB	039H
	DB	0c6H
	DB	031H
	DB	0a7H
	DB	039H
	DB	0c6H
	DB	031H
	DB	0c6H
	DB	031H
	DB	0a7H
	DB	039H
	DB	0a7H
	DB	039H
	DB	0c7H
	DB	039H
	DB	0c6H
	DB	031H
	DB	0a7H
	DB	039H
	DB	0c7H
	DB	039H
	DB	0c7H
	DB	039H
	DB	0a7H
	DB	039H
	DB	0c7H
	DB	039H
	DB	0c6H
	DB	031H
	DB	0a7H
	DB	039H
	DB	0c7H
	DB	039H
	DB	0a7H
	DB	039H
	DB	0c7H
	DB	039H
	DB	0a6H
	DB	031H
	DB	0c7H
	DB	039H
	DB	0c7H
	DB	039H
	DB	0a6H
	DB	031H
	DB	0a7H
	DB	039H
	DB	0c7H
	DB	039H
	DB	0a6H
	DB	031H
	DB	0a7H
	DB	039H
	DB	0c6H
	DB	031H
	DB	0a6H
	DB	031H
	DB	0c7H
	DB	039H
	DB	0c7H
	DB	039H
	DB	0a7H
	DB	039H
	DB	0c6H
	DB	031H
	DB	0c7H
	DB	039H
	DB	0a7H
	DB	039H
	DB	0c7H
	DB	039H
	DB	0a7H
	DB	039H
	DB	0c7H
	DB	039H
	DB	0a6H
	DB	031H
	DB	0c7H
	DB	039H
	DB	0c7H
	DB	039H
	DB	0a7H
	DB	039H
	DB	0a7H
	DB	039H
	DB	0c6H
	DB	031H
	DB	0c7H
	DB	039H
	DB	0a7H
	DB	039H
	DB	0c6H
	DB	031H
	DB	0c7H
	DB	039H
	DB	0a7H
	DB	039H
	DB	0c6H
	DB	031H
	DB	0c7H
	DB	039H
	DB	0a6H
	DB	031H
	DB	0c6H
	DB	031H
	DB	0a7H
	DB	039H
	DB	0c7H
	DB	039H
	DB	0a7H
	DB	039H
	DB	0c6H
	DB	031H
	DB	0c7H
	DB	039H
	DB	0a7H
	DB	039H
	DB	0a7H
	DB	039H
	DB	0c7H
	DB	039H
	DB	0a7H
	DB	039H
	DB	0a6H
	DB	031H
	DB	0c7H
	DB	039H
	DB	0a7H
	DB	039H
	DB	0c7H
	DB	039H
	DB	0c7H
	DB	039H
	DB	0a6H
	DB	031H
	DB	0c7H
	DB	039H
	DB	0c7H
	DB	039H
	DB	0a6H
	DB	031H
	DB	0c7H
	DB	039H
	DB	0a7H
	DB	039H
	DB	0c6H
	DB	031H
	DB	0a7H
	DB	039H
	DB	0c6H
	DB	031H
	DB	0c6H
	DB	031H
	DB	0a7H
	DB	039H
	DB	0a7H
	DB	039H
	DB	0c7H
	DB	039H
	DB	0c6H
	DB	031H
	DB	0a7H
	DB	039H
	DB	0c7H
	DB	039H
	DB	0c7H
	DB	039H
	DB	0a7H
	DB	039H
	DB	0c7H
	DB	039H
	DB	0c6H
	DB	031H
	DB	0a7H
	DB	039H
	DB	0c7H
	DB	039H
	DB	0a7H
	DB	039H
	DB	0c7H
	DB	039H
	DB	0a6H
	DB	031H
	DB	0c7H
	DB	039H
	DB	0c7H
	DB	039H
	DB	0a6H
	DB	031H
	DB	0a7H
	DB	039H
	DB	0c7H
	DB	039H
	DB	0a6H
	DB	031H
	DB	0a7H
	DB	039H
	DB	0c6H
	DB	031H
	DB	0a6H
	DB	031H
	DB	0c7H
	DB	039H
	DB	0c7H
	DB	039H
	DB	0a7H
	DB	039H
	DB	0c6H
	DB	031H
	DB	0c7H
	DB	039H
	DB	0a7H
	DB	039H
	DB	0c7H
	DB	039H
	DB	0a7H
	DB	039H
	DB	0c7H
	DB	039H
	DB	0a6H
	DB	031H
	DB	0c7H
	DB	039H
	DB	0c7H
	DB	039H
	DB	0a7H
	DB	039H
	DB	0a7H
	DB	039H
	DB	0c6H
	DB	031H
	DB	0c7H
	DB	039H
	DB	0a7H
	DB	039H
	DB	0c6H
	DB	031H
	DB	0c7H
	DB	039H
	DB	0a7H
	DB	039H
	DB	0c6H
	DB	031H
	DB	0c7H
	DB	039H
	DB	0a6H
	DB	031H
	DB	0c6H
	DB	031H
	DB	0a7H
	DB	039H
	DB	0c7H
	DB	039H
	DB	0a7H
	DB	039H
	DB	0c6H
	DB	031H
	DB	0c7H
	DB	039H
	DB	0a7H
	DB	039H
	DB	0a7H
	DB	039H
	DB	0c7H
	DB	039H
	DB	0a7H
	DB	039H
	DB	0a6H
	DB	031H
	DB	0c7H
	DB	039H
	DB	0a7H
	DB	039H
	DB	0c7H
	DB	039H
	DB	0c7H
	DB	039H
	DB	0a6H
	DB	031H
	DB	0c7H
	DB	039H
	DB	0c7H
	DB	039H
	DB	0a6H
	DB	031H
	DB	0c7H
	DB	039H
	DB	0a7H
	DB	039H
	DB	0c6H
	DB	031H
	DB	0a7H
	DB	039H
	DB	0c6H
	DB	031H
	DB	0c6H
	DB	031H
	DB	0a7H
	DB	039H
	DB	0a7H
	DB	039H
	DB	0c7H
	DB	039H
	DB	0c6H
	DB	031H
	DB	0a7H
	DB	039H
	DB	0c7H
	DB	039H
	DB	0a7H
	DB	039H
	DB	0c7H
	DB	039H
	DB	0c7H
	DB	039H
	DB	0a6H
	DB	031H
	DB	0c7H
	DB	039H
	DB	0c7H
	DB	039H
	DB	0a6H
	DB	031H
	DB	0c7H
	DB	039H
	DB	0c7H
	DB	039H
	DB	0a6H
	DB	031H
	DB	0c7H
	DB	039H
	DB	0c7H
	DB	039H
	DB	0a6H
	DB	031H
	DB	0c7H
	DB	039H
	DB	0c7H
	DB	039H
	DB	0a6H
	DB	031H
	DB	0a7H
	DB	039H
	DB	0c7H
	DB	039H
	DB	0a7H
	DB	039H
	DB	0c6H
	DB	031H
	DB	0c7H
	DB	039H
	DB	0a7H
	DB	039H
	DB	0c7H
	DB	039H
	DB	0a7H
	DB	039H
	DB	0c7H
	DB	039H
	DB	0c7H
	DB	039H
	DB	0a7H
	DB	039H
	DB	0c6H
	DB	031H
	DB	0a6H
	DB	031H
	DB	0a7H
	DB	039H
	DB	0c7H
	DB	039H
	DB	0a7H
	DB	039H
	DB	0a6H
	DB	031H
	DB	0c7H
	DB	039H
	DB	0c7H
	DB	039H
	DB	0a7H
	DB	039H
	DB	0c6H
	DB	031H
	DB	0c7H
	DB	039H
	DB	0a7H
	DB	039H
	DB	0c7H
	DB	039H
	DB	0c6H
	DB	031H
	DB	0c6H
	DB	031H
	DB	0a7H
	DB	039H
	DB	0a6H
	DB	031H
	DB	0a7H
	DB	039H
	DB	0c6H
	DB	031H
	DB	0a7H
	DB	039H
	DB	0c6H
	DB	031H
	DB	0c6H
	DB	031H
	DB	0a7H
	DB	039H
	DB	0c7H
	DB	039H
	DB	0a6H
	DB	031H
	DB	0c7H
	DB	039H
	DB	0c7H
	DB	039H
	DB	0a7H
	DB	039H
	DB	0c7H
	DB	039H
	DB	0c7H
	DB	039H
	DB	0a7H
	DB	039H
	DB	0c6H
	DB	031H
	DB	0c7H
	DB	039H
	DB	0a7H
	DB	039H
	DB	0c6H
	DB	031H
	DB	0a7H
	DB	039H
	DB	0c7H
	DB	039H
	DB	0c6H
	DB	031H
	DB	0a7H
	DB	039H
	DB	0a7H
	DB	039H
	DB	0c6H
	DB	031H
	DB	0a7H
	DB	039H
	DB	0c7H
	DB	039H
	DB	0c7H
	DB	039H
	DB	0a6H
	DB	031H
	DB	0c7H
	DB	039H
	DB	0c7H
	DB	039H
	DB	0a7H
	DB	039H
	DB	0c6H
	DB	031H
	DB	0c7H
	DB	039H
	DB	0a7H
	DB	039H
	DB	0a6H
	DB	031H
	DB	0c6H
	DB	031H
	DB	0a7H
	DB	039H
	DB	0c7H
	DB	039H
	DB	0c7H
	DB	039H
	DB	0a6H
	DB	031H
	DB	0a7H
	DB	039H
	DB	0c7H
	DB	039H
	DB	0c7H
	DB	039H
	DB	0a7H
	DB	039H
	DB	0c6H
	DB	031H
	DB	0a7H
	DB	039H
	DB	0a7H
	DB	039H
	DB	0a6H
	DB	031H
	DB	0c7H
	DB	039H
	DB	0a7H
	DB	039H
	DB	0a6H
	DB	031H
	DB	0c6H
	DB	031H
	DB	0a7H
	DB	039H
	DB	0a6H
	DB	031H
	DB	0c7H
	DB	039H
	DB	0c7H
	DB	039H
	DB	0a6H
	DB	031H
	DB	0a7H
	DB	039H
	DB	0c7H
	DB	039H
	DB	0c7H
	DB	039H
	DB	0a7H
	DB	039H
	DB	0c6H
	DB	031H
	DB	0c7H
	DB	039H
	DB	0a7H
	DB	039H
	DB	0a7H
	DB	039H
	DB	0c7H
	DB	039H
	DB	0c7H
	DB	039H
	DB	0a6H
	DB	031H
	DB	0c7H
	DB	039H
	DB	0c7H
	DB	039H
	DB	0a6H
	DB	031H
	DB	0c7H
	DB	039H
	DB	0c7H
	DB	039H
	DB	0a7H
	DB	039H
	DB	0c6H
	DB	031H
	DB	0a7H
	DB	039H
	DB	0a7H
	DB	039H
	DB	0c7H
	DB	039H
	DB	0a7H
	DB	039H
	DB	0a7H
	DB	039H
	DB	0c7H
	DB	039H
	DB	0a7H
	DB	039H
	DB	0c6H
	DB	031H
	DB	0c7H
	DB	039H
	DB	0a7H
	DB	039H
	DB	0c7H
	DB	039H
	DB	0c7H
	DB	039H
	DB	0a6H
	DB	031H
	DB	0a7H
	DB	039H
	DB	0c7H
	DB	039H
	DB	0c6H
	DB	031H
	DB	0a7H
	DB	039H
	DB	0c7H
	DB	039H
	DB	0a6H
	DB	031H
	DB	0c7H
	DB	039H
	DB	0a7H
	DB	039H
	DB	0a6H
	DB	031H
	DB	0c7H
	DB	039H
	DB	0a7H
	DB	039H
	DB	0c7H
	DB	039H
	DB	0a6H
	DB	031H
	DB	0a7H
	DB	039H
	DB	0c7H
	DB	039H
	DB	0a6H
	DB	031H
	DB	0a7H
	DB	039H
	DB	0c7H
	DB	039H
	DB	0c6H
	DB	031H
	DB	0a7H
	DB	039H
	DB	0c7H
	DB	039H
	DB	0c7H
	DB	039H
	DB	0a7H
	DB	039H
	DB	0a6H
	DB	031H
	DB	0c7H
	DB	039H
	DB	0a7H
	DB	039H
	DB	0c7H
	DB	039H
	DB	0c7H
	DB	039H
	DB	0a7H
	DB	039H
	DB	0c6H
	DB	031H
	DB	0a7H
	DB	039H
	DB	0a7H
	DB	039H
	DB	0c6H
	DB	031H
	DB	0a7H
	DB	039H
	DB	0c6H
	DB	031H
	DB	0a7H
	DB	039H
	DB	0c7H
	DB	039H
	DB	0c7H
	DB	039H
	DB	0a7H
	DB	039H
	DB	0c7H
	DB	039H
	DB	0a6H
	DB	031H
	DB	0a7H
	DB	039H
	DB	0c7H
	DB	039H
	DB	0a7H
	DB	039H
	DB	0c7H
	DB	039H
	DB	0c6H
	DB	031H
	DB	0a7H
	DB	039H
	DB	0c7H
	DB	039H
	DB	0a7H
	DB	039H
	DB	0a7H
	DB	039H
	DB	0c7H
	DB	039H
	DB	0c7H
	DB	039H
	DB	0a7H
	DB	039H
	DB	0c7H
	DB	039H
	DB	0c6H
	DB	031H
	DB	0a7H
	DB	039H
	DB	0c7H
	DB	039H
	DB	0a6H
	DB	031H
	DB	0a7H
	DB	039H
	DB	0c7H
	DB	039H
	DB	0a6H
	DB	031H
	DB	0a7H
	DB	039H
	DB	0c7H
	DB	039H
	DB	0c7H
	DB	039H
	DB	0a6H
	DB	031H
	DB	0c7H
	DB	039H
	DB	0a7H
	DB	039H
	DB	0a6H
	DB	031H
	DB	0c7H
	DB	039H
	DB	0a7H
	DB	039H
	DB	0a6H
	DB	031H
	DB	0c7H
	DB	039H
	DB	0a7H
	DB	039H
	DB	0c7H
	DB	039H
	DB	0c7H
	DB	039H
	DB	0a7H
	DB	039H
	DB	0a7H
	DB	039H
	DB	0c7H
	DB	039H
	DB	0a6H
	DB	031H
	DB	0c7H
	DB	039H
	DB	0c7H
	DB	039H
	DB	0a6H
	DB	031H
	DB	0c7H
	DB	039H
	DB	0a7H
	DB	039H
	DB	0a6H
	DB	031H
	DB	0c7H
	DB	039H
	DB	0a7H
	DB	039H
	DB	0a7H
	DB	039H
	DB	0c6H
	DB	031H
	DB	0c7H
	DB	039H
	DB	0a7H
	DB	039H
	DB	0c6H
	DB	031H
	DB	0a7H
	DB	039H
	DB	0a7H
	DB	039H
	DB	0c6H
	DB	031H
	DB	0a7H
	DB	039H
	DB	0a7H
	DB	039H
	DB	0c7H
	DB	039H
	DB	0a7H
	DB	039H
	DB	0a7H
	DB	039H
	DB	0c7H
	DB	039H
	DB	0a7H
	DB	039H
	DB	0a6H
	DB	031H
	DB	0c7H
	DB	039H
	DB	0a7H
	DB	039H
	DB	0c6H
	DB	031H
	DB	0a7H
	DB	039H
	DB	0c7H
	DB	039H
	DB	0c6H
	DB	031H
	DB	0a7H
	DB	039H
	DB	0c7H
	DB	039H
	DB	0c7H
	DB	039H
	DB	0a6H
	DB	031H
	DB	0a7H
	DB	039H
	DB	0c7H
	DB	039H
	DB	0a6H
	DB	031H
	DB	0a7H
	DB	039H
	DB	0c7H
	DB	039H
	DB	0a6H
	DB	031H
	DB	0c7H
	DB	039H
	DB	0a7H
	DB	039H
	DB	0c7H
	DB	039H
	DB	0c7H
	DB	039H
	DB	0a7H
	DB	039H
	DB	0a7H
	DB	039H
	DB	0c7H
	DB	039H
	DB	0c6H
	DB	031H
	DB	0a7H
	DB	039H
	DB	0a7H
	DB	039H
	DB	0c6H
	DB	031H
	DB	0a7H
	DB	039H
	DB	0a7H
	DB	039H
	DB	0c6H
	DB	031H
	DB	0a7H
	DB	039H
	DB	0a7H
	DB	039H
	DB	0c7H
	DB	039H
	DB	0c6H
	DB	031H
	DB	0a7H
	DB	039H
	DB	0c7H
	DB	039H
	DB	0a6H
	DB	031H
	DB	0c7H
	DB	039H
	DB	0a7H
	DB	039H
	DB	0c6H
	DB	031H
	DB	0c7H
	DB	039H
	DB	0a7H
	DB	039H
	DB	0c7H
	DB	039H
	DB	0c7H
	DB	039H
	DB	0a7H
	DB	039H
	DB	0c7H
	DB	039H
	DB	0a7H
	DB	039H
	DB	0a6H
	DB	031H
	DB	0c7H
	DB	039H
	DB	0a7H
	DB	039H
	DB	0a6H
	DB	031H
	DB	0c7H
	DB	039H
	DB	0a7H
	DB	039H
	DB	0c6H
	DB	031H
	DB	0c7H
	DB	039H
	DB	0a7H
	DB	039H
	DB	0c7H
	DB	039H
	DB	0a6H
	DB	031H
	DB	0c7H
	DB	039H
	DB	0a7H
	DB	039H
	DB	0a6H
	DB	031H
	DB	0c7H
	DB	039H
	DB	0a7H
	DB	039H
	DB	0a6H
	DB	031H
	DB	0c7H
	DB	039H
	DB	0a7H
	DB	039H
	DB	0a7H
	DB	039H
	DB	0c7H
	DB	039H
	DB	0a7H
	DB	039H
	DB	0c7H
	DB	039H
	DB	0a7H
	DB	039H
	DB	0c6H
	DB	031H
	DB	0a7H
	DB	039H
	DB	0c7H
	DB	039H
	DB	0a6H
	DB	031H
	DB	0c7H
	DB	039H
	DB	0c7H
	DB	039H
	DB	0a6H
	DB	031H
	DB	0c7H
	DB	039H
	DB	0c7H
	DB	039H
	DB	0a7H
	DB	039H
	DB	0c6H
	DB	031H
	DB	0a7H
	DB	039H
	DB	0a7H
	DB	039H
	DB	0c6H
	DB	031H
	DB	0a7H
	DB	039H
	DB	0a7H
	DB	039H
	DB	0c6H
	DB	031H
	DB	0a7H
	DB	039H
	DB	0c7H
	DB	039H
	DB	0c7H
	DB	039H
	DB	0a7H
	DB	039H
	DB	0c7H
	DB	039H
	DB	0a7H
	DB	039H
	DB	0c7H
	DB	039H
	DB	0a6H
	DB	031H
	DB	0a7H
	DB	039H
	DB	0c7H
	DB	039H
	DB	0a6H
	DB	031H
	DB	0a7H
	DB	039H
	DB	0c7H
	DB	039H
	DB	0a6H
	DB	031H
	DB	0a7H
	DB	039H
	DB	0c7H
	DB	039H
	DB	0a7H
	DB	039H
	DB	0c6H
	DB	031H
	DB	0a7H
	DB	039H
	DB	0c7H
	DB	039H
	DB	0a6H
	DB	031H
	DB	0c7H
	DB	039H
	DB	0a7H
	DB	039H
	DB	0c6H
	DB	031H
	DB	0c7H
	DB	039H
	DB	0a7H
	DB	039H
	DB	0c7H
	DB	039H
	DB	0c7H
	DB	039H
	DB	0a7H
	DB	039H
	DB	0c7H
	DB	039H
	DB	0a7H
	DB	039H
	DB	0a6H
	DB	031H
	DB	0c7H
	DB	039H
	DB	0a7H
	DB	039H
	DB	0a6H
	DB	031H
	DB	0c7H
	DB	039H
	DB	0a7H
	DB	039H
	DB	0c6H
	DB	031H
	DB	0c7H
	DB	039H
	DB	0a7H
	DB	039H
	DB	0c7H
	DB	039H
	DB	0a6H
	DB	031H
	DB	0c7H
	DB	039H
	DB	0a7H
	DB	039H
	DB	0a6H
	DB	031H
	DB	0c7H
	DB	039H
	DB	0a7H
	DB	039H
	DB	0a6H
	DB	031H
	DB	0c7H
	DB	039H
	DB	0a7H
	DB	039H
	DB	0a7H
	DB	039H
	DB	0c7H
	DB	039H
	DB	0a7H
	DB	039H
	DB	0c7H
	DB	039H
	DB	0a7H
	DB	039H
	DB	0c6H
	DB	031H
	DB	0a7H
	DB	039H
	DB	0c7H
	DB	039H
	DB	0a6H
	DB	031H
	DB	0c7H
	DB	039H
	DB	0c7H
	DB	039H
	DB	0a6H
	DB	031H
	DB	0c7H
	DB	039H
	DB	0c7H
	DB	039H
	DB	0a7H
	DB	039H
	DB	0c6H
	DB	031H
	DB	0a7H
	DB	039H
	DB	0a7H
	DB	039H
	DB	0c6H
	DB	031H
	DB	0a7H
	DB	039H
	DB	0a7H
	DB	039H
	DB	0c6H
	DB	031H
	DB	0a7H
	DB	039H
	DB	0c7H
	DB	039H
	DB	0c7H
	DB	039H
	DB	0a7H
	DB	039H
	DB	0c7H
	DB	039H
	DB	0a7H
	DB	039H
	DB	0c7H
	DB	039H
	DB	0a6H
	DB	031H
	DB	0a7H
	DB	039H
	DB	0c7H
	DB	039H
	DB	0a6H
	DB	031H
	DB	0a7H
	DB	039H
	DB	0c7H
	DB	039H
	DB	0a6H
	DB	031H
	DB	0a7H
	DB	039H
	DB	0c7H
	DB	039H
	DB	0a7H
	DB	039H
	DB	0c6H
	DB	031H
	DB	0a7H
	DB	039H
	DB	0c7H
	DB	039H
	DB	0a6H
	DB	031H
	DB	0c7H
	DB	039H
	DB	0a7H
	DB	039H
	DB	0c6H
	DB	031H
	DB	0c7H
	DB	039H
	DB	0a7H
	DB	039H
	DB	0c7H
	DB	039H
	DB	0c7H
	DB	039H
	DB	0a7H
	DB	039H
	DB	0c7H
	DB	039H
	DB	0a7H
	DB	039H
	DB	0a6H
	DB	031H
	DB	0c7H
	DB	039H
	DB	0a7H
	DB	039H
	DB	0a6H
	DB	031H
	DB	0c7H
	DB	039H
	DB	0a7H
	DB	039H
	DB	0c6H
	DB	031H
	DB	0c7H
	DB	039H
	DB	0a7H
	DB	039H
	DB	0c7H
	DB	039H
	DB	0a6H
	DB	031H
	DB	0c7H
	DB	039H
	DB	0a7H
	DB	039H
	DB	0a6H
	DB	031H
	DB	0c7H
	DB	039H
	DB	0a7H
	DB	039H
	DB	0a6H
	DB	031H
	DB	0c7H
	DB	039H
	DB	0a7H
	DB	039H
	DB	0a7H
	DB	039H
	DB	0c7H
	DB	039H
	DB	0a7H
