; Listing generated by Microsoft (R) Optimizing Compiler Version 19.00.24210.0 

	TITLE	C:\MyFiles\SoftwareTeam\Technologies_Boards\Graphic\TouchGFX\Scope\Project\Oscilloscope\Graphic\generated\images\src\BitmapDatabase.cpp
	.686P
	.XMM
	include listing.inc
	.model	flat

INCLUDELIB MSVCRTD
INCLUDELIB OLDNAMES

PUBLIC	?getInstance@BitmapDatabase@@YAPBUBitmapData@Bitmap@touchgfx@@XZ ; BitmapDatabase::getInstance
PUBLIC	?getInstanceSize@BitmapDatabase@@YAGXZ		; BitmapDatabase::getInstanceSize
EXTRN	__RTC_InitBase:PROC
EXTRN	__RTC_Shutdown:PROC
EXTRN	?_Arrow@@3QBEB:BYTE				; _Arrow
EXTRN	?_Chn1ControlButtonOff@@3QBEB:BYTE		; _Chn1ControlButtonOff
EXTRN	?_Chn1ControlButtonOff_alpha_channel@@3QBEB:BYTE ; _Chn1ControlButtonOff_alpha_channel
EXTRN	?_Chn1ControlButtonOn@@3QBEB:BYTE		; _Chn1ControlButtonOn
EXTRN	?_Chn1ControlButtonOn_alpha_channel@@3QBEB:BYTE	; _Chn1ControlButtonOn_alpha_channel
EXTRN	?_Chn2ControlButtonOff@@3QBEB:BYTE		; _Chn2ControlButtonOff
EXTRN	?_Chn2ControlButtonOff_alpha_channel@@3QBEB:BYTE ; _Chn2ControlButtonOff_alpha_channel
EXTRN	?_Chn2ControlButtonOn@@3QBEB:BYTE		; _Chn2ControlButtonOn
EXTRN	?_Chn2ControlButtonOn_alpha_channel@@3QBEB:BYTE	; _Chn2ControlButtonOn_alpha_channel
EXTRN	?_Heroes@@3QBEB:BYTE				; _Heroes
EXTRN	?_appBackground@@3QBEB:BYTE			; _appBackground
EXTRN	?_ch1DownOff@@3QBEB:BYTE			; _ch1DownOff
EXTRN	?_ch1DownOff_alpha_channel@@3QBEB:BYTE		; _ch1DownOff_alpha_channel
EXTRN	?_ch1DownOnn@@3QBEB:BYTE			; _ch1DownOnn
EXTRN	?_ch1DownOnn_alpha_channel@@3QBEB:BYTE		; _ch1DownOnn_alpha_channel
EXTRN	?_ch1UpOFF@@3QBEB:BYTE				; _ch1UpOFF
EXTRN	?_ch1UpOFF_alpha_channel@@3QBEB:BYTE		; _ch1UpOFF_alpha_channel
EXTRN	?_ch1UpOnn@@3QBEB:BYTE				; _ch1UpOnn
EXTRN	?_ch1UpOnn_alpha_channel@@3QBEB:BYTE		; _ch1UpOnn_alpha_channel
EXTRN	?_ch2DownOff@@3QBEB:BYTE			; _ch2DownOff
EXTRN	?_ch2DownOff_alpha_channel@@3QBEB:BYTE		; _ch2DownOff_alpha_channel
EXTRN	?_ch2DownOnn@@3QBEB:BYTE			; _ch2DownOnn
EXTRN	?_ch2DownOnn_alpha_channel@@3QBEB:BYTE		; _ch2DownOnn_alpha_channel
EXTRN	?_ch2UpOff@@3QBEB:BYTE				; _ch2UpOff
EXTRN	?_ch2UpOff_alpha_channel@@3QBEB:BYTE		; _ch2UpOff_alpha_channel
EXTRN	?_ch2UpOnn@@3QBEB:BYTE				; _ch2UpOnn
EXTRN	?_ch2UpOnn_alpha_channel@@3QBEB:BYTE		; _ch2UpOnn_alpha_channel
EXTRN	?_channel1@@3QBEB:BYTE				; _channel1
EXTRN	?_channel1_alpha_channel@@3QBEB:BYTE		; _channel1_alpha_channel
EXTRN	?_channelInfo@@3QBEB:BYTE			; _channelInfo
EXTRN	?_controlPanel@@3QBEB:BYTE			; _controlPanel
EXTRN	?_counterbox@@3QBEB:BYTE			; _counterbox
EXTRN	?_counterbox_alpha_channel@@3QBEB:BYTE		; _counterbox_alpha_channel
EXTRN	?_down_press_1@@3QBEB:BYTE			; _down_press_1
EXTRN	?_down_press_1_alpha_channel@@3QBEB:BYTE	; _down_press_1_alpha_channel
EXTRN	?_down_press_2@@3QBEB:BYTE			; _down_press_2
EXTRN	?_down_press_2_alpha_channel@@3QBEB:BYTE	; _down_press_2_alpha_channel
EXTRN	?_down_unpress_1@@3QBEB:BYTE			; _down_unpress_1
EXTRN	?_down_unpress_1_alpha_channel@@3QBEB:BYTE	; _down_unpress_1_alpha_channel
EXTRN	?_down_unpress_2@@3QBEB:BYTE			; _down_unpress_2
EXTRN	?_down_unpress_2_alpha_channel@@3QBEB:BYTE	; _down_unpress_2_alpha_channel
EXTRN	?_knobButton@@3QBEB:BYTE			; _knobButton
EXTRN	?_knobButton_alpha_channel@@3QBEB:BYTE		; _knobButton_alpha_channel
EXTRN	?_leftButtonPress@@3QBEB:BYTE			; _leftButtonPress
EXTRN	?_leftButtonPress_alpha_channel@@3QBEB:BYTE	; _leftButtonPress_alpha_channel
EXTRN	?_leftButtonUnpress@@3QBEB:BYTE			; _leftButtonUnpress
EXTRN	?_leftButtonUnpress_alpha_channel@@3QBEB:BYTE	; _leftButtonUnpress_alpha_channel
EXTRN	?_left_press_1@@3QBEB:BYTE			; _left_press_1
EXTRN	?_left_press_1_alpha_channel@@3QBEB:BYTE	; _left_press_1_alpha_channel
EXTRN	?_left_press_2@@3QBEB:BYTE			; _left_press_2
EXTRN	?_left_press_2_alpha_channel@@3QBEB:BYTE	; _left_press_2_alpha_channel
EXTRN	?_left_unpress_1@@3QBEB:BYTE			; _left_unpress_1
EXTRN	?_left_unpress_1_alpha_channel@@3QBEB:BYTE	; _left_unpress_1_alpha_channel
EXTRN	?_left_unpress_2@@3QBEB:BYTE			; _left_unpress_2
EXTRN	?_left_unpress_2_alpha_channel@@3QBEB:BYTE	; _left_unpress_2_alpha_channel
EXTRN	?_ozibackground@@3QBEB:BYTE			; _ozibackground
EXTRN	?_rightButtonPress@@3QBEB:BYTE			; _rightButtonPress
EXTRN	?_rightButtonPress_alpha_channel@@3QBEB:BYTE	; _rightButtonPress_alpha_channel
EXTRN	?_rightButtonUnpress@@3QBEB:BYTE		; _rightButtonUnpress
EXTRN	?_rightButtonUnpress_alpha_channel@@3QBEB:BYTE	; _rightButtonUnpress_alpha_channel
EXTRN	?_right_press_1@@3QBEB:BYTE			; _right_press_1
EXTRN	?_right_press_1_alpha_channel@@3QBEB:BYTE	; _right_press_1_alpha_channel
EXTRN	?_right_press_2@@3QBEB:BYTE			; _right_press_2
EXTRN	?_right_press_2_alpha_channel@@3QBEB:BYTE	; _right_press_2_alpha_channel
EXTRN	?_right_unpress_1@@3QBEB:BYTE			; _right_unpress_1
EXTRN	?_right_unpress_1_alpha_channel@@3QBEB:BYTE	; _right_unpress_1_alpha_channel
EXTRN	?_right_unpress_2@@3QBEB:BYTE			; _right_unpress_2
EXTRN	?_right_unpress_2_alpha_channel@@3QBEB:BYTE	; _right_unpress_2_alpha_channel
EXTRN	?_sideslidebutton@@3QBEB:BYTE			; _sideslidebutton
EXTRN	?_sideslidebutton_alpha_channel@@3QBEB:BYTE	; _sideslidebutton_alpha_channel
EXTRN	?_slideMenu@@3QBEB:BYTE				; _slideMenu
EXTRN	?_text_background@@3QBEB:BYTE			; _text_background
EXTRN	?_text_background_alpha_channel@@3QBEB:BYTE	; _text_background_alpha_channel
EXTRN	?_up_press_1@@3QBEB:BYTE			; _up_press_1
EXTRN	?_up_press_1_alpha_channel@@3QBEB:BYTE		; _up_press_1_alpha_channel
EXTRN	?_up_press_2@@3QBEB:BYTE			; _up_press_2
EXTRN	?_up_press_2_alpha_channel@@3QBEB:BYTE		; _up_press_2_alpha_channel
EXTRN	?_up_unpress_1@@3QBEB:BYTE			; _up_unpress_1
EXTRN	?_up_unpress_1_alpha_channel@@3QBEB:BYTE	; _up_unpress_1_alpha_channel
EXTRN	?_up_unpress_2@@3QBEB:BYTE			; _up_unpress_2
EXTRN	?_up_unpress_2_alpha_channel@@3QBEB:BYTE	; _up_unpress_2_alpha_channel
_BSS	SEGMENT
?bitmap_database@@3QBUBitmapData@Bitmap@touchgfx@@B DB 0420H DUP (?) ; bitmap_database
_BSS	ENDS
CRT$XCU	SEGMENT
?bitmap_database$initializer$@@3P6AXXZA DD FLAT:??__Ebitmap_database@@YAXXZ ; bitmap_database$initializer$
CRT$XCU	ENDS
;	COMDAT rtc$TMZ
rtc$TMZ	SEGMENT
__RTC_Shutdown.rtc$TMZ DD FLAT:__RTC_Shutdown
rtc$TMZ	ENDS
;	COMDAT rtc$IMZ
rtc$IMZ	SEGMENT
__RTC_InitBase.rtc$IMZ DD FLAT:__RTC_InitBase
rtc$IMZ	ENDS
; Function compile flags: /Odtp /RTCsu /ZI
;	COMDAT ??__Ebitmap_database@@YAXXZ
text$di	SEGMENT
??__Ebitmap_database@@YAXXZ PROC			; `dynamic initializer for 'bitmap_database'', COMDAT
; File c:\myfiles\softwareteam\technologies_boards\graphic\touchgfx\scope\project\oscilloscope\graphic\generated\images\src\bitmapdatabase.cpp
; Line 137
	push	ebp
	mov	ebp, esp
	sub	esp, 192				; 000000c0H
	push	ebx
	push	esi
	push	edi
	lea	edi, DWORD PTR [ebp-192]
	mov	ecx, 48					; 00000030H
	mov	eax, -858993460				; ccccccccH
	rep stosd
; Line 93
	mov	DWORD PTR ?bitmap_database@@3QBUBitmapData@Bitmap@touchgfx@@B, OFFSET ?_Arrow@@3QBEB ; _Arrow
	mov	DWORD PTR ?bitmap_database@@3QBUBitmapData@Bitmap@touchgfx@@B+4, 0
	mov	eax, 480				; 000001e0H
	mov	WORD PTR ?bitmap_database@@3QBUBitmapData@Bitmap@touchgfx@@B+8, ax
	mov	eax, 272				; 00000110H
	mov	WORD PTR ?bitmap_database@@3QBUBitmapData@Bitmap@touchgfx@@B+10, ax
	xor	eax, eax
	mov	WORD PTR ?bitmap_database@@3QBUBitmapData@Bitmap@touchgfx@@B+12, ax
	xor	eax, eax
	mov	WORD PTR ?bitmap_database@@3QBUBitmapData@Bitmap@touchgfx@@B+14, ax
	mov	eax, 480				; 000001e0H
	mov	WORD PTR ?bitmap_database@@3QBUBitmapData@Bitmap@touchgfx@@B+16, ax
	mov	eax, 272				; 00000110H
	mov	WORD PTR ?bitmap_database@@3QBUBitmapData@Bitmap@touchgfx@@B+18, ax
	mov	BYTE PTR ?bitmap_database@@3QBUBitmapData@Bitmap@touchgfx@@B+20, 0
; Line 94
	mov	DWORD PTR ?bitmap_database@@3QBUBitmapData@Bitmap@touchgfx@@B+24, OFFSET ?_Chn1ControlButtonOff@@3QBEB ; _Chn1ControlButtonOff
	mov	DWORD PTR ?bitmap_database@@3QBUBitmapData@Bitmap@touchgfx@@B+28, OFFSET ?_Chn1ControlButtonOff_alpha_channel@@3QBEB ; _Chn1ControlButtonOff_alpha_channel
	mov	eax, 41					; 00000029H
	mov	WORD PTR ?bitmap_database@@3QBUBitmapData@Bitmap@touchgfx@@B+32, ax
	mov	eax, 21					; 00000015H
	mov	WORD PTR ?bitmap_database@@3QBUBitmapData@Bitmap@touchgfx@@B+34, ax
	mov	eax, 2
	mov	WORD PTR ?bitmap_database@@3QBUBitmapData@Bitmap@touchgfx@@B+36, ax
	mov	eax, 1
	mov	WORD PTR ?bitmap_database@@3QBUBitmapData@Bitmap@touchgfx@@B+38, ax
	mov	eax, 37					; 00000025H
	mov	WORD PTR ?bitmap_database@@3QBUBitmapData@Bitmap@touchgfx@@B+40, ax
	mov	eax, 18					; 00000012H
	mov	WORD PTR ?bitmap_database@@3QBUBitmapData@Bitmap@touchgfx@@B+42, ax
	mov	BYTE PTR ?bitmap_database@@3QBUBitmapData@Bitmap@touchgfx@@B+44, 0
; Line 95
	mov	DWORD PTR ?bitmap_database@@3QBUBitmapData@Bitmap@touchgfx@@B+48, OFFSET ?_Chn1ControlButtonOn@@3QBEB ; _Chn1ControlButtonOn
	mov	DWORD PTR ?bitmap_database@@3QBUBitmapData@Bitmap@touchgfx@@B+52, OFFSET ?_Chn1ControlButtonOn_alpha_channel@@3QBEB ; _Chn1ControlButtonOn_alpha_channel
	mov	eax, 41					; 00000029H
	mov	WORD PTR ?bitmap_database@@3QBUBitmapData@Bitmap@touchgfx@@B+56, ax
	mov	eax, 21					; 00000015H
	mov	WORD PTR ?bitmap_database@@3QBUBitmapData@Bitmap@touchgfx@@B+58, ax
	mov	eax, 2
	mov	WORD PTR ?bitmap_database@@3QBUBitmapData@Bitmap@touchgfx@@B+60, ax
	mov	eax, 1
	mov	WORD PTR ?bitmap_database@@3QBUBitmapData@Bitmap@touchgfx@@B+62, ax
	mov	eax, 37					; 00000025H
	mov	WORD PTR ?bitmap_database@@3QBUBitmapData@Bitmap@touchgfx@@B+64, ax
	mov	eax, 18					; 00000012H
	mov	WORD PTR ?bitmap_database@@3QBUBitmapData@Bitmap@touchgfx@@B+66, ax
	mov	BYTE PTR ?bitmap_database@@3QBUBitmapData@Bitmap@touchgfx@@B+68, 0
; Line 96
	mov	DWORD PTR ?bitmap_database@@3QBUBitmapData@Bitmap@touchgfx@@B+72, OFFSET ?_Chn2ControlButtonOff@@3QBEB ; _Chn2ControlButtonOff
	mov	DWORD PTR ?bitmap_database@@3QBUBitmapData@Bitmap@touchgfx@@B+76, OFFSET ?_Chn2ControlButtonOff_alpha_channel@@3QBEB ; _Chn2ControlButtonOff_alpha_channel
	mov	eax, 41					; 00000029H
	mov	WORD PTR ?bitmap_database@@3QBUBitmapData@Bitmap@touchgfx@@B+80, ax
	mov	eax, 21					; 00000015H
	mov	WORD PTR ?bitmap_database@@3QBUBitmapData@Bitmap@touchgfx@@B+82, ax
	mov	eax, 2
	mov	WORD PTR ?bitmap_database@@3QBUBitmapData@Bitmap@touchgfx@@B+84, ax
	mov	eax, 1
	mov	WORD PTR ?bitmap_database@@3QBUBitmapData@Bitmap@touchgfx@@B+86, ax
	mov	eax, 37					; 00000025H
	mov	WORD PTR ?bitmap_database@@3QBUBitmapData@Bitmap@touchgfx@@B+88, ax
	mov	eax, 18					; 00000012H
	mov	WORD PTR ?bitmap_database@@3QBUBitmapData@Bitmap@touchgfx@@B+90, ax
	mov	BYTE PTR ?bitmap_database@@3QBUBitmapData@Bitmap@touchgfx@@B+92, 0
; Line 97
	mov	DWORD PTR ?bitmap_database@@3QBUBitmapData@Bitmap@touchgfx@@B+96, OFFSET ?_Chn2ControlButtonOn@@3QBEB ; _Chn2ControlButtonOn
	mov	DWORD PTR ?bitmap_database@@3QBUBitmapData@Bitmap@touchgfx@@B+100, OFFSET ?_Chn2ControlButtonOn_alpha_channel@@3QBEB ; _Chn2ControlButtonOn_alpha_channel
	mov	eax, 41					; 00000029H
	mov	WORD PTR ?bitmap_database@@3QBUBitmapData@Bitmap@touchgfx@@B+104, ax
	mov	eax, 21					; 00000015H
	mov	WORD PTR ?bitmap_database@@3QBUBitmapData@Bitmap@touchgfx@@B+106, ax
	mov	eax, 2
	mov	WORD PTR ?bitmap_database@@3QBUBitmapData@Bitmap@touchgfx@@B+108, ax
	mov	eax, 1
	mov	WORD PTR ?bitmap_database@@3QBUBitmapData@Bitmap@touchgfx@@B+110, ax
	mov	eax, 37					; 00000025H
	mov	WORD PTR ?bitmap_database@@3QBUBitmapData@Bitmap@touchgfx@@B+112, ax
	mov	eax, 18					; 00000012H
	mov	WORD PTR ?bitmap_database@@3QBUBitmapData@Bitmap@touchgfx@@B+114, ax
	mov	BYTE PTR ?bitmap_database@@3QBUBitmapData@Bitmap@touchgfx@@B+116, 0
; Line 98
	mov	DWORD PTR ?bitmap_database@@3QBUBitmapData@Bitmap@touchgfx@@B+120, OFFSET ?_Heroes@@3QBEB ; _Heroes
	mov	DWORD PTR ?bitmap_database@@3QBUBitmapData@Bitmap@touchgfx@@B+124, 0
	mov	eax, 429				; 000001adH
	mov	WORD PTR ?bitmap_database@@3QBUBitmapData@Bitmap@touchgfx@@B+128, ax
	mov	eax, 272				; 00000110H
	mov	WORD PTR ?bitmap_database@@3QBUBitmapData@Bitmap@touchgfx@@B+130, ax
	xor	eax, eax
	mov	WORD PTR ?bitmap_database@@3QBUBitmapData@Bitmap@touchgfx@@B+132, ax
	xor	eax, eax
	mov	WORD PTR ?bitmap_database@@3QBUBitmapData@Bitmap@touchgfx@@B+134, ax
	mov	eax, 429				; 000001adH
	mov	WORD PTR ?bitmap_database@@3QBUBitmapData@Bitmap@touchgfx@@B+136, ax
	mov	eax, 272				; 00000110H
	mov	WORD PTR ?bitmap_database@@3QBUBitmapData@Bitmap@touchgfx@@B+138, ax
	mov	BYTE PTR ?bitmap_database@@3QBUBitmapData@Bitmap@touchgfx@@B+140, 0
; Line 99
	mov	DWORD PTR ?bitmap_database@@3QBUBitmapData@Bitmap@touchgfx@@B+144, OFFSET ?_appBackground@@3QBEB ; _appBackground
	mov	DWORD PTR ?bitmap_database@@3QBUBitmapData@Bitmap@touchgfx@@B+148, 0
	mov	eax, 480				; 000001e0H
	mov	WORD PTR ?bitmap_database@@3QBUBitmapData@Bitmap@touchgfx@@B+152, ax
	mov	eax, 272				; 00000110H
	mov	WORD PTR ?bitmap_database@@3QBUBitmapData@Bitmap@touchgfx@@B+154, ax
	xor	eax, eax
	mov	WORD PTR ?bitmap_database@@3QBUBitmapData@Bitmap@touchgfx@@B+156, ax
	xor	eax, eax
	mov	WORD PTR ?bitmap_database@@3QBUBitmapData@Bitmap@touchgfx@@B+158, ax
	mov	eax, 480				; 000001e0H
	mov	WORD PTR ?bitmap_database@@3QBUBitmapData@Bitmap@touchgfx@@B+160, ax
	mov	eax, 272				; 00000110H
	mov	WORD PTR ?bitmap_database@@3QBUBitmapData@Bitmap@touchgfx@@B+162, ax
	mov	BYTE PTR ?bitmap_database@@3QBUBitmapData@Bitmap@touchgfx@@B+164, 0
; Line 100
	mov	DWORD PTR ?bitmap_database@@3QBUBitmapData@Bitmap@touchgfx@@B+168, OFFSET ?_ch1DownOff@@3QBEB ; _ch1DownOff
	mov	DWORD PTR ?bitmap_database@@3QBUBitmapData@Bitmap@touchgfx@@B+172, OFFSET ?_ch1DownOff_alpha_channel@@3QBEB ; _ch1DownOff_alpha_channel
	mov	eax, 30					; 0000001eH
	mov	WORD PTR ?bitmap_database@@3QBUBitmapData@Bitmap@touchgfx@@B+176, ax
	mov	eax, 30					; 0000001eH
	mov	WORD PTR ?bitmap_database@@3QBUBitmapData@Bitmap@touchgfx@@B+178, ax
	mov	eax, 11					; 0000000bH
	mov	WORD PTR ?bitmap_database@@3QBUBitmapData@Bitmap@touchgfx@@B+180, ax
	mov	eax, 16					; 00000010H
	mov	WORD PTR ?bitmap_database@@3QBUBitmapData@Bitmap@touchgfx@@B+182, ax
	mov	eax, 8
	mov	WORD PTR ?bitmap_database@@3QBUBitmapData@Bitmap@touchgfx@@B+184, ax
	mov	eax, 5
	mov	WORD PTR ?bitmap_database@@3QBUBitmapData@Bitmap@touchgfx@@B+186, ax
	mov	BYTE PTR ?bitmap_database@@3QBUBitmapData@Bitmap@touchgfx@@B+188, 0
; Line 101
	mov	DWORD PTR ?bitmap_database@@3QBUBitmapData@Bitmap@touchgfx@@B+192, OFFSET ?_ch1DownOnn@@3QBEB ; _ch1DownOnn
	mov	DWORD PTR ?bitmap_database@@3QBUBitmapData@Bitmap@touchgfx@@B+196, OFFSET ?_ch1DownOnn_alpha_channel@@3QBEB ; _ch1DownOnn_alpha_channel
	mov	eax, 30					; 0000001eH
	mov	WORD PTR ?bitmap_database@@3QBUBitmapData@Bitmap@touchgfx@@B+200, ax
	mov	eax, 30					; 0000001eH
	mov	WORD PTR ?bitmap_database@@3QBUBitmapData@Bitmap@touchgfx@@B+202, ax
	mov	eax, 11					; 0000000bH
	mov	WORD PTR ?bitmap_database@@3QBUBitmapData@Bitmap@touchgfx@@B+204, ax
	mov	eax, 16					; 00000010H
	mov	WORD PTR ?bitmap_database@@3QBUBitmapData@Bitmap@touchgfx@@B+206, ax
	mov	eax, 8
	mov	WORD PTR ?bitmap_database@@3QBUBitmapData@Bitmap@touchgfx@@B+208, ax
	mov	eax, 5
	mov	WORD PTR ?bitmap_database@@3QBUBitmapData@Bitmap@touchgfx@@B+210, ax
	mov	BYTE PTR ?bitmap_database@@3QBUBitmapData@Bitmap@touchgfx@@B+212, 0
; Line 102
	mov	DWORD PTR ?bitmap_database@@3QBUBitmapData@Bitmap@touchgfx@@B+216, OFFSET ?_ch1UpOFF@@3QBEB ; _ch1UpOFF
	mov	DWORD PTR ?bitmap_database@@3QBUBitmapData@Bitmap@touchgfx@@B+220, OFFSET ?_ch1UpOFF_alpha_channel@@3QBEB ; _ch1UpOFF_alpha_channel
	mov	eax, 30					; 0000001eH
	mov	WORD PTR ?bitmap_database@@3QBUBitmapData@Bitmap@touchgfx@@B+224, ax
	mov	eax, 30					; 0000001eH
	mov	WORD PTR ?bitmap_database@@3QBUBitmapData@Bitmap@touchgfx@@B+226, ax
	mov	eax, 11					; 0000000bH
	mov	WORD PTR ?bitmap_database@@3QBUBitmapData@Bitmap@touchgfx@@B+228, ax
	mov	eax, 9
	mov	WORD PTR ?bitmap_database@@3QBUBitmapData@Bitmap@touchgfx@@B+230, ax
	mov	eax, 8
	mov	WORD PTR ?bitmap_database@@3QBUBitmapData@Bitmap@touchgfx@@B+232, ax
	mov	eax, 5
	mov	WORD PTR ?bitmap_database@@3QBUBitmapData@Bitmap@touchgfx@@B+234, ax
	mov	BYTE PTR ?bitmap_database@@3QBUBitmapData@Bitmap@touchgfx@@B+236, 0
; Line 103
	mov	DWORD PTR ?bitmap_database@@3QBUBitmapData@Bitmap@touchgfx@@B+240, OFFSET ?_ch1UpOnn@@3QBEB ; _ch1UpOnn
	mov	DWORD PTR ?bitmap_database@@3QBUBitmapData@Bitmap@touchgfx@@B+244, OFFSET ?_ch1UpOnn_alpha_channel@@3QBEB ; _ch1UpOnn_alpha_channel
	mov	eax, 30					; 0000001eH
	mov	WORD PTR ?bitmap_database@@3QBUBitmapData@Bitmap@touchgfx@@B+248, ax
	mov	eax, 30					; 0000001eH
	mov	WORD PTR ?bitmap_database@@3QBUBitmapData@Bitmap@touchgfx@@B+250, ax
	mov	eax, 11					; 0000000bH
	mov	WORD PTR ?bitmap_database@@3QBUBitmapData@Bitmap@touchgfx@@B+252, ax
	mov	eax, 9
	mov	WORD PTR ?bitmap_database@@3QBUBitmapData@Bitmap@touchgfx@@B+254, ax
	mov	eax, 8
	mov	WORD PTR ?bitmap_database@@3QBUBitmapData@Bitmap@touchgfx@@B+256, ax
	mov	eax, 5
	mov	WORD PTR ?bitmap_database@@3QBUBitmapData@Bitmap@touchgfx@@B+258, ax
	mov	BYTE PTR ?bitmap_database@@3QBUBitmapData@Bitmap@touchgfx@@B+260, 0
; Line 104
	mov	DWORD PTR ?bitmap_database@@3QBUBitmapData@Bitmap@touchgfx@@B+264, OFFSET ?_ch2DownOff@@3QBEB ; _ch2DownOff
	mov	DWORD PTR ?bitmap_database@@3QBUBitmapData@Bitmap@touchgfx@@B+268, OFFSET ?_ch2DownOff_alpha_channel@@3QBEB ; _ch2DownOff_alpha_channel
	mov	eax, 30					; 0000001eH
	mov	WORD PTR ?bitmap_database@@3QBUBitmapData@Bitmap@touchgfx@@B+272, ax
	mov	eax, 30					; 0000001eH
	mov	WORD PTR ?bitmap_database@@3QBUBitmapData@Bitmap@touchgfx@@B+274, ax
	mov	eax, 13					; 0000000dH
	mov	WORD PTR ?bitmap_database@@3QBUBitmapData@Bitmap@touchgfx@@B+276, ax
	mov	eax, 19					; 00000013H
	mov	WORD PTR ?bitmap_database@@3QBUBitmapData@Bitmap@touchgfx@@B+278, ax
	mov	eax, 4
	mov	WORD PTR ?bitmap_database@@3QBUBitmapData@Bitmap@touchgfx@@B+280, ax
	mov	eax, 3
	mov	WORD PTR ?bitmap_database@@3QBUBitmapData@Bitmap@touchgfx@@B+282, ax
	mov	BYTE PTR ?bitmap_database@@3QBUBitmapData@Bitmap@touchgfx@@B+284, 0
; Line 105
	mov	DWORD PTR ?bitmap_database@@3QBUBitmapData@Bitmap@touchgfx@@B+288, OFFSET ?_ch2DownOnn@@3QBEB ; _ch2DownOnn
	mov	DWORD PTR ?bitmap_database@@3QBUBitmapData@Bitmap@touchgfx@@B+292, OFFSET ?_ch2DownOnn_alpha_channel@@3QBEB ; _ch2DownOnn_alpha_channel
	mov	eax, 30					; 0000001eH
	mov	WORD PTR ?bitmap_database@@3QBUBitmapData@Bitmap@touchgfx@@B+296, ax
	mov	eax, 30					; 0000001eH
	mov	WORD PTR ?bitmap_database@@3QBUBitmapData@Bitmap@touchgfx@@B+298, ax
	mov	eax, 13					; 0000000dH
	mov	WORD PTR ?bitmap_database@@3QBUBitmapData@Bitmap@touchgfx@@B+300, ax
	mov	eax, 19					; 00000013H
	mov	WORD PTR ?bitmap_database@@3QBUBitmapData@Bitmap@touchgfx@@B+302, ax
	mov	eax, 4
	mov	WORD PTR ?bitmap_database@@3QBUBitmapData@Bitmap@touchgfx@@B+304, ax
	mov	eax, 3
	mov	WORD PTR ?bitmap_database@@3QBUBitmapData@Bitmap@touchgfx@@B+306, ax
	mov	BYTE PTR ?bitmap_database@@3QBUBitmapData@Bitmap@touchgfx@@B+308, 0
; Line 106
	mov	DWORD PTR ?bitmap_database@@3QBUBitmapData@Bitmap@touchgfx@@B+312, OFFSET ?_ch2UpOff@@3QBEB ; _ch2UpOff
	mov	DWORD PTR ?bitmap_database@@3QBUBitmapData@Bitmap@touchgfx@@B+316, OFFSET ?_ch2UpOff_alpha_channel@@3QBEB ; _ch2UpOff_alpha_channel
	mov	eax, 30					; 0000001eH
	mov	WORD PTR ?bitmap_database@@3QBUBitmapData@Bitmap@touchgfx@@B+320, ax
	mov	eax, 30					; 0000001eH
	mov	WORD PTR ?bitmap_database@@3QBUBitmapData@Bitmap@touchgfx@@B+322, ax
	mov	eax, 13					; 0000000dH
	mov	WORD PTR ?bitmap_database@@3QBUBitmapData@Bitmap@touchgfx@@B+324, ax
	mov	eax, 8
	mov	WORD PTR ?bitmap_database@@3QBUBitmapData@Bitmap@touchgfx@@B+326, ax
	mov	eax, 4
	mov	WORD PTR ?bitmap_database@@3QBUBitmapData@Bitmap@touchgfx@@B+328, ax
	mov	eax, 3
	mov	WORD PTR ?bitmap_database@@3QBUBitmapData@Bitmap@touchgfx@@B+330, ax
	mov	BYTE PTR ?bitmap_database@@3QBUBitmapData@Bitmap@touchgfx@@B+332, 0
; Line 107
	mov	DWORD PTR ?bitmap_database@@3QBUBitmapData@Bitmap@touchgfx@@B+336, OFFSET ?_ch2UpOnn@@3QBEB ; _ch2UpOnn
	mov	DWORD PTR ?bitmap_database@@3QBUBitmapData@Bitmap@touchgfx@@B+340, OFFSET ?_ch2UpOnn_alpha_channel@@3QBEB ; _ch2UpOnn_alpha_channel
	mov	eax, 30					; 0000001eH
	mov	WORD PTR ?bitmap_database@@3QBUBitmapData@Bitmap@touchgfx@@B+344, ax
	mov	eax, 30					; 0000001eH
	mov	WORD PTR ?bitmap_database@@3QBUBitmapData@Bitmap@touchgfx@@B+346, ax
	mov	eax, 13					; 0000000dH
	mov	WORD PTR ?bitmap_database@@3QBUBitmapData@Bitmap@touchgfx@@B+348, ax
	mov	eax, 8
	mov	WORD PTR ?bitmap_database@@3QBUBitmapData@Bitmap@touchgfx@@B+350, ax
	mov	eax, 4
	mov	WORD PTR ?bitmap_database@@3QBUBitmapData@Bitmap@touchgfx@@B+352, ax
	mov	eax, 3
	mov	WORD PTR ?bitmap_database@@3QBUBitmapData@Bitmap@touchgfx@@B+354, ax
	mov	BYTE PTR ?bitmap_database@@3QBUBitmapData@Bitmap@touchgfx@@B+356, 0
; Line 108
	mov	DWORD PTR ?bitmap_database@@3QBUBitmapData@Bitmap@touchgfx@@B+360, OFFSET ?_channel1@@3QBEB ; _channel1
	mov	DWORD PTR ?bitmap_database@@3QBUBitmapData@Bitmap@touchgfx@@B+364, OFFSET ?_channel1_alpha_channel@@3QBEB ; _channel1_alpha_channel
	mov	eax, 93					; 0000005dH
	mov	WORD PTR ?bitmap_database@@3QBUBitmapData@Bitmap@touchgfx@@B+368, ax
	mov	eax, 32					; 00000020H
	mov	WORD PTR ?bitmap_database@@3QBUBitmapData@Bitmap@touchgfx@@B+370, ax
	mov	eax, 5
	mov	WORD PTR ?bitmap_database@@3QBUBitmapData@Bitmap@touchgfx@@B+372, ax
	xor	eax, eax
	mov	WORD PTR ?bitmap_database@@3QBUBitmapData@Bitmap@touchgfx@@B+374, ax
	mov	eax, 83					; 00000053H
	mov	WORD PTR ?bitmap_database@@3QBUBitmapData@Bitmap@touchgfx@@B+376, ax
	mov	eax, 32					; 00000020H
	mov	WORD PTR ?bitmap_database@@3QBUBitmapData@Bitmap@touchgfx@@B+378, ax
	mov	BYTE PTR ?bitmap_database@@3QBUBitmapData@Bitmap@touchgfx@@B+380, 0
; Line 109
	mov	DWORD PTR ?bitmap_database@@3QBUBitmapData@Bitmap@touchgfx@@B+384, OFFSET ?_channelInfo@@3QBEB ; _channelInfo
	mov	DWORD PTR ?bitmap_database@@3QBUBitmapData@Bitmap@touchgfx@@B+388, 0
	mov	eax, 92					; 0000005cH
	mov	WORD PTR ?bitmap_database@@3QBUBitmapData@Bitmap@touchgfx@@B+392, ax
	mov	eax, 30					; 0000001eH
	mov	WORD PTR ?bitmap_database@@3QBUBitmapData@Bitmap@touchgfx@@B+394, ax
	xor	eax, eax
	mov	WORD PTR ?bitmap_database@@3QBUBitmapData@Bitmap@touchgfx@@B+396, ax
	xor	eax, eax
	mov	WORD PTR ?bitmap_database@@3QBUBitmapData@Bitmap@touchgfx@@B+398, ax
	mov	eax, 92					; 0000005cH
	mov	WORD PTR ?bitmap_database@@3QBUBitmapData@Bitmap@touchgfx@@B+400, ax
	mov	eax, 30					; 0000001eH
	mov	WORD PTR ?bitmap_database@@3QBUBitmapData@Bitmap@touchgfx@@B+402, ax
	mov	BYTE PTR ?bitmap_database@@3QBUBitmapData@Bitmap@touchgfx@@B+404, 0
; Line 110
	mov	DWORD PTR ?bitmap_database@@3QBUBitmapData@Bitmap@touchgfx@@B+408, OFFSET ?_controlPanel@@3QBEB ; _controlPanel
	mov	DWORD PTR ?bitmap_database@@3QBUBitmapData@Bitmap@touchgfx@@B+412, 0
	mov	eax, 165				; 000000a5H
	mov	WORD PTR ?bitmap_database@@3QBUBitmapData@Bitmap@touchgfx@@B+416, ax
	mov	eax, 231				; 000000e7H
	mov	WORD PTR ?bitmap_database@@3QBUBitmapData@Bitmap@touchgfx@@B+418, ax
	xor	eax, eax
	mov	WORD PTR ?bitmap_database@@3QBUBitmapData@Bitmap@touchgfx@@B+420, ax
	xor	eax, eax
	mov	WORD PTR ?bitmap_database@@3QBUBitmapData@Bitmap@touchgfx@@B+422, ax
	mov	eax, 165				; 000000a5H
	mov	WORD PTR ?bitmap_database@@3QBUBitmapData@Bitmap@touchgfx@@B+424, ax
	mov	eax, 231				; 000000e7H
	mov	WORD PTR ?bitmap_database@@3QBUBitmapData@Bitmap@touchgfx@@B+426, ax
	mov	BYTE PTR ?bitmap_database@@3QBUBitmapData@Bitmap@touchgfx@@B+428, 0
; Line 111
	mov	DWORD PTR ?bitmap_database@@3QBUBitmapData@Bitmap@touchgfx@@B+432, OFFSET ?_counterbox@@3QBEB ; _counterbox
	mov	DWORD PTR ?bitmap_database@@3QBUBitmapData@Bitmap@touchgfx@@B+436, OFFSET ?_counterbox_alpha_channel@@3QBEB ; _counterbox_alpha_channel
	mov	eax, 49					; 00000031H
	mov	WORD PTR ?bitmap_database@@3QBUBitmapData@Bitmap@touchgfx@@B+440, ax
	mov	eax, 34					; 00000022H
	mov	WORD PTR ?bitmap_database@@3QBUBitmapData@Bitmap@touchgfx@@B+442, ax
	mov	eax, 2
	mov	WORD PTR ?bitmap_database@@3QBUBitmapData@Bitmap@touchgfx@@B+444, ax
	xor	eax, eax
	mov	WORD PTR ?bitmap_database@@3QBUBitmapData@Bitmap@touchgfx@@B+446, ax
	mov	eax, 45					; 0000002dH
	mov	WORD PTR ?bitmap_database@@3QBUBitmapData@Bitmap@touchgfx@@B+448, ax
	mov	eax, 34					; 00000022H
	mov	WORD PTR ?bitmap_database@@3QBUBitmapData@Bitmap@touchgfx@@B+450, ax
	mov	BYTE PTR ?bitmap_database@@3QBUBitmapData@Bitmap@touchgfx@@B+452, 0
; Line 112
	mov	DWORD PTR ?bitmap_database@@3QBUBitmapData@Bitmap@touchgfx@@B+456, OFFSET ?_down_press_1@@3QBEB ; _down_press_1
	mov	DWORD PTR ?bitmap_database@@3QBUBitmapData@Bitmap@touchgfx@@B+460, OFFSET ?_down_press_1_alpha_channel@@3QBEB ; _down_press_1_alpha_channel
	mov	eax, 30					; 0000001eH
	mov	WORD PTR ?bitmap_database@@3QBUBitmapData@Bitmap@touchgfx@@B+464, ax
	mov	eax, 30					; 0000001eH
	mov	WORD PTR ?bitmap_database@@3QBUBitmapData@Bitmap@touchgfx@@B+466, ax
	mov	eax, 1
	mov	WORD PTR ?bitmap_database@@3QBUBitmapData@Bitmap@touchgfx@@B+468, ax
	mov	eax, 3
	mov	WORD PTR ?bitmap_database@@3QBUBitmapData@Bitmap@touchgfx@@B+470, ax
	mov	eax, 28					; 0000001cH
	mov	WORD PTR ?bitmap_database@@3QBUBitmapData@Bitmap@touchgfx@@B+472, ax
	mov	eax, 24					; 00000018H
	mov	WORD PTR ?bitmap_database@@3QBUBitmapData@Bitmap@touchgfx@@B+474, ax
	mov	BYTE PTR ?bitmap_database@@3QBUBitmapData@Bitmap@touchgfx@@B+476, 0
; Line 113
	mov	DWORD PTR ?bitmap_database@@3QBUBitmapData@Bitmap@touchgfx@@B+480, OFFSET ?_down_press_2@@3QBEB ; _down_press_2
	mov	DWORD PTR ?bitmap_database@@3QBUBitmapData@Bitmap@touchgfx@@B+484, OFFSET ?_down_press_2_alpha_channel@@3QBEB ; _down_press_2_alpha_channel
	mov	eax, 30					; 0000001eH
	mov	WORD PTR ?bitmap_database@@3QBUBitmapData@Bitmap@touchgfx@@B+488, ax
	mov	eax, 30					; 0000001eH
	mov	WORD PTR ?bitmap_database@@3QBUBitmapData@Bitmap@touchgfx@@B+490, ax
	mov	eax, 1
	mov	WORD PTR ?bitmap_database@@3QBUBitmapData@Bitmap@touchgfx@@B+492, ax
	mov	eax, 3
	mov	WORD PTR ?bitmap_database@@3QBUBitmapData@Bitmap@touchgfx@@B+494, ax
	mov	eax, 28					; 0000001cH
	mov	WORD PTR ?bitmap_database@@3QBUBitmapData@Bitmap@touchgfx@@B+496, ax
	mov	eax, 24					; 00000018H
	mov	WORD PTR ?bitmap_database@@3QBUBitmapData@Bitmap@touchgfx@@B+498, ax
	mov	BYTE PTR ?bitmap_database@@3QBUBitmapData@Bitmap@touchgfx@@B+500, 0
; Line 114
	mov	DWORD PTR ?bitmap_database@@3QBUBitmapData@Bitmap@touchgfx@@B+504, OFFSET ?_down_unpress_1@@3QBEB ; _down_unpress_1
	mov	DWORD PTR ?bitmap_database@@3QBUBitmapData@Bitmap@touchgfx@@B+508, OFFSET ?_down_unpress_1_alpha_channel@@3QBEB ; _down_unpress_1_alpha_channel
	mov	eax, 30					; 0000001eH
	mov	WORD PTR ?bitmap_database@@3QBUBitmapData@Bitmap@touchgfx@@B+512, ax
	mov	eax, 30					; 0000001eH
	mov	WORD PTR ?bitmap_database@@3QBUBitmapData@Bitmap@touchgfx@@B+514, ax
	mov	eax, 4
	mov	WORD PTR ?bitmap_database@@3QBUBitmapData@Bitmap@touchgfx@@B+516, ax
	xor	eax, eax
	mov	WORD PTR ?bitmap_database@@3QBUBitmapData@Bitmap@touchgfx@@B+518, ax
	mov	eax, 17					; 00000011H
	mov	WORD PTR ?bitmap_database@@3QBUBitmapData@Bitmap@touchgfx@@B+520, ax
	mov	eax, 30					; 0000001eH
	mov	WORD PTR ?bitmap_database@@3QBUBitmapData@Bitmap@touchgfx@@B+522, ax
	mov	BYTE PTR ?bitmap_database@@3QBUBitmapData@Bitmap@touchgfx@@B+524, 0
; Line 115
	mov	DWORD PTR ?bitmap_database@@3QBUBitmapData@Bitmap@touchgfx@@B+528, OFFSET ?_down_unpress_2@@3QBEB ; _down_unpress_2
	mov	DWORD PTR ?bitmap_database@@3QBUBitmapData@Bitmap@touchgfx@@B+532, OFFSET ?_down_unpress_2_alpha_channel@@3QBEB ; _down_unpress_2_alpha_channel
	mov	eax, 30					; 0000001eH
	mov	WORD PTR ?bitmap_database@@3QBUBitmapData@Bitmap@touchgfx@@B+536, ax
	mov	eax, 30					; 0000001eH
	mov	WORD PTR ?bitmap_database@@3QBUBitmapData@Bitmap@touchgfx@@B+538, ax
	mov	eax, 1
	mov	WORD PTR ?bitmap_database@@3QBUBitmapData@Bitmap@touchgfx@@B+540, ax
	mov	eax, 3
	mov	WORD PTR ?bitmap_database@@3QBUBitmapData@Bitmap@touchgfx@@B+542, ax
	mov	eax, 28					; 0000001cH
	mov	WORD PTR ?bitmap_database@@3QBUBitmapData@Bitmap@touchgfx@@B+544, ax
	mov	eax, 24					; 00000018H
	mov	WORD PTR ?bitmap_database@@3QBUBitmapData@Bitmap@touchgfx@@B+546, ax
	mov	BYTE PTR ?bitmap_database@@3QBUBitmapData@Bitmap@touchgfx@@B+548, 0
; Line 116
	mov	DWORD PTR ?bitmap_database@@3QBUBitmapData@Bitmap@touchgfx@@B+552, OFFSET ?_knobButton@@3QBEB ; _knobButton
	mov	DWORD PTR ?bitmap_database@@3QBUBitmapData@Bitmap@touchgfx@@B+556, OFFSET ?_knobButton_alpha_channel@@3QBEB ; _knobButton_alpha_channel
	mov	eax, 50					; 00000032H
	mov	WORD PTR ?bitmap_database@@3QBUBitmapData@Bitmap@touchgfx@@B+560, ax
	mov	eax, 42					; 0000002aH
	mov	WORD PTR ?bitmap_database@@3QBUBitmapData@Bitmap@touchgfx@@B+562, ax
	mov	eax, 13					; 0000000dH
	mov	WORD PTR ?bitmap_database@@3QBUBitmapData@Bitmap@touchgfx@@B+564, ax
	mov	eax, 8
	mov	WORD PTR ?bitmap_database@@3QBUBitmapData@Bitmap@touchgfx@@B+566, ax
	mov	eax, 25					; 00000019H
	mov	WORD PTR ?bitmap_database@@3QBUBitmapData@Bitmap@touchgfx@@B+568, ax
	mov	eax, 24					; 00000018H
	mov	WORD PTR ?bitmap_database@@3QBUBitmapData@Bitmap@touchgfx@@B+570, ax
	mov	BYTE PTR ?bitmap_database@@3QBUBitmapData@Bitmap@touchgfx@@B+572, 0
; Line 117
	mov	DWORD PTR ?bitmap_database@@3QBUBitmapData@Bitmap@touchgfx@@B+576, OFFSET ?_leftButtonPress@@3QBEB ; _leftButtonPress
	mov	DWORD PTR ?bitmap_database@@3QBUBitmapData@Bitmap@touchgfx@@B+580, OFFSET ?_leftButtonPress_alpha_channel@@3QBEB ; _leftButtonPress_alpha_channel
	mov	eax, 23					; 00000017H
	mov	WORD PTR ?bitmap_database@@3QBUBitmapData@Bitmap@touchgfx@@B+584, ax
	mov	eax, 30					; 0000001eH
	mov	WORD PTR ?bitmap_database@@3QBUBitmapData@Bitmap@touchgfx@@B+586, ax
	mov	eax, 9
	mov	WORD PTR ?bitmap_database@@3QBUBitmapData@Bitmap@touchgfx@@B+588, ax
	mov	eax, 7
	mov	WORD PTR ?bitmap_database@@3QBUBitmapData@Bitmap@touchgfx@@B+590, ax
	mov	eax, 11					; 0000000bH
	mov	WORD PTR ?bitmap_database@@3QBUBitmapData@Bitmap@touchgfx@@B+592, ax
	mov	eax, 16					; 00000010H
	mov	WORD PTR ?bitmap_database@@3QBUBitmapData@Bitmap@touchgfx@@B+594, ax
	mov	BYTE PTR ?bitmap_database@@3QBUBitmapData@Bitmap@touchgfx@@B+596, 0
; Line 118
	mov	DWORD PTR ?bitmap_database@@3QBUBitmapData@Bitmap@touchgfx@@B+600, OFFSET ?_leftButtonUnpress@@3QBEB ; _leftButtonUnpress
	mov	DWORD PTR ?bitmap_database@@3QBUBitmapData@Bitmap@touchgfx@@B+604, OFFSET ?_leftButtonUnpress_alpha_channel@@3QBEB ; _leftButtonUnpress_alpha_channel
	mov	eax, 23					; 00000017H
	mov	WORD PTR ?bitmap_database@@3QBUBitmapData@Bitmap@touchgfx@@B+608, ax
	mov	eax, 30					; 0000001eH
	mov	WORD PTR ?bitmap_database@@3QBUBitmapData@Bitmap@touchgfx@@B+610, ax
	mov	eax, 12					; 0000000cH
	mov	WORD PTR ?bitmap_database@@3QBUBitmapData@Bitmap@touchgfx@@B+612, ax
	mov	eax, 7
	mov	WORD PTR ?bitmap_database@@3QBUBitmapData@Bitmap@touchgfx@@B+614, ax
	mov	eax, 7
	mov	WORD PTR ?bitmap_database@@3QBUBitmapData@Bitmap@touchgfx@@B+616, ax
	mov	eax, 16					; 00000010H
	mov	WORD PTR ?bitmap_database@@3QBUBitmapData@Bitmap@touchgfx@@B+618, ax
	mov	BYTE PTR ?bitmap_database@@3QBUBitmapData@Bitmap@touchgfx@@B+620, 0
; Line 119
	mov	DWORD PTR ?bitmap_database@@3QBUBitmapData@Bitmap@touchgfx@@B+624, OFFSET ?_left_press_1@@3QBEB ; _left_press_1
	mov	DWORD PTR ?bitmap_database@@3QBUBitmapData@Bitmap@touchgfx@@B+628, OFFSET ?_left_press_1_alpha_channel@@3QBEB ; _left_press_1_alpha_channel
	mov	eax, 30					; 0000001eH
	mov	WORD PTR ?bitmap_database@@3QBUBitmapData@Bitmap@touchgfx@@B+632, ax
	mov	eax, 30					; 0000001eH
	mov	WORD PTR ?bitmap_database@@3QBUBitmapData@Bitmap@touchgfx@@B+634, ax
	mov	eax, 3
	mov	WORD PTR ?bitmap_database@@3QBUBitmapData@Bitmap@touchgfx@@B+636, ax
	mov	eax, 1
	mov	WORD PTR ?bitmap_database@@3QBUBitmapData@Bitmap@touchgfx@@B+638, ax
	mov	eax, 24					; 00000018H
	mov	WORD PTR ?bitmap_database@@3QBUBitmapData@Bitmap@touchgfx@@B+640, ax
	mov	eax, 28					; 0000001cH
	mov	WORD PTR ?bitmap_database@@3QBUBitmapData@Bitmap@touchgfx@@B+642, ax
	mov	BYTE PTR ?bitmap_database@@3QBUBitmapData@Bitmap@touchgfx@@B+644, 0
; Line 120
	mov	DWORD PTR ?bitmap_database@@3QBUBitmapData@Bitmap@touchgfx@@B+648, OFFSET ?_left_press_2@@3QBEB ; _left_press_2
	mov	DWORD PTR ?bitmap_database@@3QBUBitmapData@Bitmap@touchgfx@@B+652, OFFSET ?_left_press_2_alpha_channel@@3QBEB ; _left_press_2_alpha_channel
	mov	eax, 30					; 0000001eH
	mov	WORD PTR ?bitmap_database@@3QBUBitmapData@Bitmap@touchgfx@@B+656, ax
	mov	eax, 30					; 0000001eH
	mov	WORD PTR ?bitmap_database@@3QBUBitmapData@Bitmap@touchgfx@@B+658, ax
	mov	eax, 3
	mov	WORD PTR ?bitmap_database@@3QBUBitmapData@Bitmap@touchgfx@@B+660, ax
	mov	eax, 1
	mov	WORD PTR ?bitmap_database@@3QBUBitmapData@Bitmap@touchgfx@@B+662, ax
	mov	eax, 24					; 00000018H
	mov	WORD PTR ?bitmap_database@@3QBUBitmapData@Bitmap@touchgfx@@B+664, ax
	mov	eax, 28					; 0000001cH
	mov	WORD PTR ?bitmap_database@@3QBUBitmapData@Bitmap@touchgfx@@B+666, ax
	mov	BYTE PTR ?bitmap_database@@3QBUBitmapData@Bitmap@touchgfx@@B+668, 0
; Line 121
	mov	DWORD PTR ?bitmap_database@@3QBUBitmapData@Bitmap@touchgfx@@B+672, OFFSET ?_left_unpress_1@@3QBEB ; _left_unpress_1
	mov	DWORD PTR ?bitmap_database@@3QBUBitmapData@Bitmap@touchgfx@@B+676, OFFSET ?_left_unpress_1_alpha_channel@@3QBEB ; _left_unpress_1_alpha_channel
	mov	eax, 30					; 0000001eH
	mov	WORD PTR ?bitmap_database@@3QBUBitmapData@Bitmap@touchgfx@@B+680, ax
	mov	eax, 30					; 0000001eH
	mov	WORD PTR ?bitmap_database@@3QBUBitmapData@Bitmap@touchgfx@@B+682, ax
	xor	eax, eax
	mov	WORD PTR ?bitmap_database@@3QBUBitmapData@Bitmap@touchgfx@@B+684, ax
	mov	eax, 4
	mov	WORD PTR ?bitmap_database@@3QBUBitmapData@Bitmap@touchgfx@@B+686, ax
	mov	eax, 30					; 0000001eH
	mov	WORD PTR ?bitmap_database@@3QBUBitmapData@Bitmap@touchgfx@@B+688, ax
	mov	eax, 17					; 00000011H
	mov	WORD PTR ?bitmap_database@@3QBUBitmapData@Bitmap@touchgfx@@B+690, ax
	mov	BYTE PTR ?bitmap_database@@3QBUBitmapData@Bitmap@touchgfx@@B+692, 0
; Line 122
	mov	DWORD PTR ?bitmap_database@@3QBUBitmapData@Bitmap@touchgfx@@B+696, OFFSET ?_left_unpress_2@@3QBEB ; _left_unpress_2
	mov	DWORD PTR ?bitmap_database@@3QBUBitmapData@Bitmap@touchgfx@@B+700, OFFSET ?_left_unpress_2_alpha_channel@@3QBEB ; _left_unpress_2_alpha_channel
	mov	eax, 30					; 0000001eH
	mov	WORD PTR ?bitmap_database@@3QBUBitmapData@Bitmap@touchgfx@@B+704, ax
	mov	eax, 30					; 0000001eH
	mov	WORD PTR ?bitmap_database@@3QBUBitmapData@Bitmap@touchgfx@@B+706, ax
	mov	eax, 3
	mov	WORD PTR ?bitmap_database@@3QBUBitmapData@Bitmap@touchgfx@@B+708, ax
	mov	eax, 1
	mov	WORD PTR ?bitmap_database@@3QBUBitmapData@Bitmap@touchgfx@@B+710, ax
	mov	eax, 24					; 00000018H
	mov	WORD PTR ?bitmap_database@@3QBUBitmapData@Bitmap@touchgfx@@B+712, ax
	mov	eax, 28					; 0000001cH
	mov	WORD PTR ?bitmap_database@@3QBUBitmapData@Bitmap@touchgfx@@B+714, ax
	mov	BYTE PTR ?bitmap_database@@3QBUBitmapData@Bitmap@touchgfx@@B+716, 0
; Line 123
	mov	DWORD PTR ?bitmap_database@@3QBUBitmapData@Bitmap@touchgfx@@B+720, OFFSET ?_ozibackground@@3QBEB ; _ozibackground
	mov	DWORD PTR ?bitmap_database@@3QBUBitmapData@Bitmap@touchgfx@@B+724, 0
	mov	eax, 306				; 00000132H
	mov	WORD PTR ?bitmap_database@@3QBUBitmapData@Bitmap@touchgfx@@B+728, ax
	mov	eax, 230				; 000000e6H
	mov	WORD PTR ?bitmap_database@@3QBUBitmapData@Bitmap@touchgfx@@B+730, ax
	xor	eax, eax
	mov	WORD PTR ?bitmap_database@@3QBUBitmapData@Bitmap@touchgfx@@B+732, ax
	xor	eax, eax
	mov	WORD PTR ?bitmap_database@@3QBUBitmapData@Bitmap@touchgfx@@B+734, ax
	mov	eax, 306				; 00000132H
	mov	WORD PTR ?bitmap_database@@3QBUBitmapData@Bitmap@touchgfx@@B+736, ax
	mov	eax, 230				; 000000e6H
	mov	WORD PTR ?bitmap_database@@3QBUBitmapData@Bitmap@touchgfx@@B+738, ax
	mov	BYTE PTR ?bitmap_database@@3QBUBitmapData@Bitmap@touchgfx@@B+740, 0
; Line 124
	mov	DWORD PTR ?bitmap_database@@3QBUBitmapData@Bitmap@touchgfx@@B+744, OFFSET ?_rightButtonPress@@3QBEB ; _rightButtonPress
	mov	DWORD PTR ?bitmap_database@@3QBUBitmapData@Bitmap@touchgfx@@B+748, OFFSET ?_rightButtonPress_alpha_channel@@3QBEB ; _rightButtonPress_alpha_channel
	mov	eax, 23					; 00000017H
	mov	WORD PTR ?bitmap_database@@3QBUBitmapData@Bitmap@touchgfx@@B+752, ax
	mov	eax, 30					; 0000001eH
	mov	WORD PTR ?bitmap_database@@3QBUBitmapData@Bitmap@touchgfx@@B+754, ax
	mov	eax, 3
	mov	WORD PTR ?bitmap_database@@3QBUBitmapData@Bitmap@touchgfx@@B+756, ax
	mov	eax, 7
	mov	WORD PTR ?bitmap_database@@3QBUBitmapData@Bitmap@touchgfx@@B+758, ax
	mov	eax, 11					; 0000000bH
	mov	WORD PTR ?bitmap_database@@3QBUBitmapData@Bitmap@touchgfx@@B+760, ax
	mov	eax, 16					; 00000010H
	mov	WORD PTR ?bitmap_database@@3QBUBitmapData@Bitmap@touchgfx@@B+762, ax
	mov	BYTE PTR ?bitmap_database@@3QBUBitmapData@Bitmap@touchgfx@@B+764, 0
; Line 125
	mov	DWORD PTR ?bitmap_database@@3QBUBitmapData@Bitmap@touchgfx@@B+768, OFFSET ?_rightButtonUnpress@@3QBEB ; _rightButtonUnpress
	mov	DWORD PTR ?bitmap_database@@3QBUBitmapData@Bitmap@touchgfx@@B+772, OFFSET ?_rightButtonUnpress_alpha_channel@@3QBEB ; _rightButtonUnpress_alpha_channel
	mov	eax, 23					; 00000017H
	mov	WORD PTR ?bitmap_database@@3QBUBitmapData@Bitmap@touchgfx@@B+776, ax
	mov	eax, 30					; 0000001eH
	mov	WORD PTR ?bitmap_database@@3QBUBitmapData@Bitmap@touchgfx@@B+778, ax
	mov	eax, 4
	mov	WORD PTR ?bitmap_database@@3QBUBitmapData@Bitmap@touchgfx@@B+780, ax
	mov	eax, 8
	mov	WORD PTR ?bitmap_database@@3QBUBitmapData@Bitmap@touchgfx@@B+782, ax
	mov	eax, 8
	mov	WORD PTR ?bitmap_database@@3QBUBitmapData@Bitmap@touchgfx@@B+784, ax
	mov	eax, 14					; 0000000eH
	mov	WORD PTR ?bitmap_database@@3QBUBitmapData@Bitmap@touchgfx@@B+786, ax
	mov	BYTE PTR ?bitmap_database@@3QBUBitmapData@Bitmap@touchgfx@@B+788, 0
; Line 126
	mov	DWORD PTR ?bitmap_database@@3QBUBitmapData@Bitmap@touchgfx@@B+792, OFFSET ?_right_press_1@@3QBEB ; _right_press_1
	mov	DWORD PTR ?bitmap_database@@3QBUBitmapData@Bitmap@touchgfx@@B+796, OFFSET ?_right_press_1_alpha_channel@@3QBEB ; _right_press_1_alpha_channel
	mov	eax, 30					; 0000001eH
	mov	WORD PTR ?bitmap_database@@3QBUBitmapData@Bitmap@touchgfx@@B+800, ax
	mov	eax, 30					; 0000001eH
	mov	WORD PTR ?bitmap_database@@3QBUBitmapData@Bitmap@touchgfx@@B+802, ax
	mov	eax, 3
	mov	WORD PTR ?bitmap_database@@3QBUBitmapData@Bitmap@touchgfx@@B+804, ax
	mov	eax, 1
	mov	WORD PTR ?bitmap_database@@3QBUBitmapData@Bitmap@touchgfx@@B+806, ax
	mov	eax, 24					; 00000018H
	mov	WORD PTR ?bitmap_database@@3QBUBitmapData@Bitmap@touchgfx@@B+808, ax
	mov	eax, 28					; 0000001cH
	mov	WORD PTR ?bitmap_database@@3QBUBitmapData@Bitmap@touchgfx@@B+810, ax
	mov	BYTE PTR ?bitmap_database@@3QBUBitmapData@Bitmap@touchgfx@@B+812, 0
; Line 127
	mov	DWORD PTR ?bitmap_database@@3QBUBitmapData@Bitmap@touchgfx@@B+816, OFFSET ?_right_press_2@@3QBEB ; _right_press_2
	mov	DWORD PTR ?bitmap_database@@3QBUBitmapData@Bitmap@touchgfx@@B+820, OFFSET ?_right_press_2_alpha_channel@@3QBEB ; _right_press_2_alpha_channel
	mov	eax, 30					; 0000001eH
	mov	WORD PTR ?bitmap_database@@3QBUBitmapData@Bitmap@touchgfx@@B+824, ax
	mov	eax, 30					; 0000001eH
	mov	WORD PTR ?bitmap_database@@3QBUBitmapData@Bitmap@touchgfx@@B+826, ax
	mov	eax, 3
	mov	WORD PTR ?bitmap_database@@3QBUBitmapData@Bitmap@touchgfx@@B+828, ax
	mov	eax, 1
	mov	WORD PTR ?bitmap_database@@3QBUBitmapData@Bitmap@touchgfx@@B+830, ax
	mov	eax, 24					; 00000018H
	mov	WORD PTR ?bitmap_database@@3QBUBitmapData@Bitmap@touchgfx@@B+832, ax
	mov	eax, 28					; 0000001cH
	mov	WORD PTR ?bitmap_database@@3QBUBitmapData@Bitmap@touchgfx@@B+834, ax
	mov	BYTE PTR ?bitmap_database@@3QBUBitmapData@Bitmap@touchgfx@@B+836, 0
; Line 128
	mov	DWORD PTR ?bitmap_database@@3QBUBitmapData@Bitmap@touchgfx@@B+840, OFFSET ?_right_unpress_1@@3QBEB ; _right_unpress_1
	mov	DWORD PTR ?bitmap_database@@3QBUBitmapData@Bitmap@touchgfx@@B+844, OFFSET ?_right_unpress_1_alpha_channel@@3QBEB ; _right_unpress_1_alpha_channel
	mov	eax, 30					; 0000001eH
	mov	WORD PTR ?bitmap_database@@3QBUBitmapData@Bitmap@touchgfx@@B+848, ax
	mov	eax, 30					; 0000001eH
	mov	WORD PTR ?bitmap_database@@3QBUBitmapData@Bitmap@touchgfx@@B+850, ax
	xor	eax, eax
	mov	WORD PTR ?bitmap_database@@3QBUBitmapData@Bitmap@touchgfx@@B+852, ax
	mov	eax, 9
	mov	WORD PTR ?bitmap_database@@3QBUBitmapData@Bitmap@touchgfx@@B+854, ax
	mov	eax, 30					; 0000001eH
	mov	WORD PTR ?bitmap_database@@3QBUBitmapData@Bitmap@touchgfx@@B+856, ax
	mov	eax, 17					; 00000011H
	mov	WORD PTR ?bitmap_database@@3QBUBitmapData@Bitmap@touchgfx@@B+858, ax
	mov	BYTE PTR ?bitmap_database@@3QBUBitmapData@Bitmap@touchgfx@@B+860, 0
; Line 129
	mov	DWORD PTR ?bitmap_database@@3QBUBitmapData@Bitmap@touchgfx@@B+864, OFFSET ?_right_unpress_2@@3QBEB ; _right_unpress_2
	mov	DWORD PTR ?bitmap_database@@3QBUBitmapData@Bitmap@touchgfx@@B+868, OFFSET ?_right_unpress_2_alpha_channel@@3QBEB ; _right_unpress_2_alpha_channel
	mov	eax, 30					; 0000001eH
	mov	WORD PTR ?bitmap_database@@3QBUBitmapData@Bitmap@touchgfx@@B+872, ax
	mov	eax, 30					; 0000001eH
	mov	WORD PTR ?bitmap_database@@3QBUBitmapData@Bitmap@touchgfx@@B+874, ax
	mov	eax, 3
	mov	WORD PTR ?bitmap_database@@3QBUBitmapData@Bitmap@touchgfx@@B+876, ax
	mov	eax, 1
	mov	WORD PTR ?bitmap_database@@3QBUBitmapData@Bitmap@touchgfx@@B+878, ax
	mov	eax, 24					; 00000018H
	mov	WORD PTR ?bitmap_database@@3QBUBitmapData@Bitmap@touchgfx@@B+880, ax
	mov	eax, 28					; 0000001cH
	mov	WORD PTR ?bitmap_database@@3QBUBitmapData@Bitmap@touchgfx@@B+882, ax
	mov	BYTE PTR ?bitmap_database@@3QBUBitmapData@Bitmap@touchgfx@@B+884, 0
; Line 130
	mov	DWORD PTR ?bitmap_database@@3QBUBitmapData@Bitmap@touchgfx@@B+888, OFFSET ?_sideslidebutton@@3QBEB ; _sideslidebutton
	mov	DWORD PTR ?bitmap_database@@3QBUBitmapData@Bitmap@touchgfx@@B+892, OFFSET ?_sideslidebutton_alpha_channel@@3QBEB ; _sideslidebutton_alpha_channel
	mov	eax, 15					; 0000000fH
	mov	WORD PTR ?bitmap_database@@3QBUBitmapData@Bitmap@touchgfx@@B+896, ax
	mov	eax, 35					; 00000023H
	mov	WORD PTR ?bitmap_database@@3QBUBitmapData@Bitmap@touchgfx@@B+898, ax
	xor	eax, eax
	mov	WORD PTR ?bitmap_database@@3QBUBitmapData@Bitmap@touchgfx@@B+900, ax
	xor	eax, eax
	mov	WORD PTR ?bitmap_database@@3QBUBitmapData@Bitmap@touchgfx@@B+902, ax
	mov	eax, 15					; 0000000fH
	mov	WORD PTR ?bitmap_database@@3QBUBitmapData@Bitmap@touchgfx@@B+904, ax
	mov	eax, 8
	mov	WORD PTR ?bitmap_database@@3QBUBitmapData@Bitmap@touchgfx@@B+906, ax
	mov	BYTE PTR ?bitmap_database@@3QBUBitmapData@Bitmap@touchgfx@@B+908, 0
; Line 131
	mov	DWORD PTR ?bitmap_database@@3QBUBitmapData@Bitmap@touchgfx@@B+912, OFFSET ?_slideMenu@@3QBEB ; _slideMenu
	mov	DWORD PTR ?bitmap_database@@3QBUBitmapData@Bitmap@touchgfx@@B+916, 0
	mov	eax, 290				; 00000122H
	mov	WORD PTR ?bitmap_database@@3QBUBitmapData@Bitmap@touchgfx@@B+920, ax
	mov	eax, 35					; 00000023H
	mov	WORD PTR ?bitmap_database@@3QBUBitmapData@Bitmap@touchgfx@@B+922, ax
	xor	eax, eax
	mov	WORD PTR ?bitmap_database@@3QBUBitmapData@Bitmap@touchgfx@@B+924, ax
	xor	eax, eax
	mov	WORD PTR ?bitmap_database@@3QBUBitmapData@Bitmap@touchgfx@@B+926, ax
	mov	eax, 290				; 00000122H
	mov	WORD PTR ?bitmap_database@@3QBUBitmapData@Bitmap@touchgfx@@B+928, ax
	mov	eax, 35					; 00000023H
	mov	WORD PTR ?bitmap_database@@3QBUBitmapData@Bitmap@touchgfx@@B+930, ax
	mov	BYTE PTR ?bitmap_database@@3QBUBitmapData@Bitmap@touchgfx@@B+932, 0
; Line 132
	mov	DWORD PTR ?bitmap_database@@3QBUBitmapData@Bitmap@touchgfx@@B+936, OFFSET ?_text_background@@3QBEB ; _text_background
	mov	DWORD PTR ?bitmap_database@@3QBUBitmapData@Bitmap@touchgfx@@B+940, OFFSET ?_text_background_alpha_channel@@3QBEB ; _text_background_alpha_channel
	mov	eax, 50					; 00000032H
	mov	WORD PTR ?bitmap_database@@3QBUBitmapData@Bitmap@touchgfx@@B+944, ax
	mov	eax, 22					; 00000016H
	mov	WORD PTR ?bitmap_database@@3QBUBitmapData@Bitmap@touchgfx@@B+946, ax
	mov	eax, 4
	mov	WORD PTR ?bitmap_database@@3QBUBitmapData@Bitmap@touchgfx@@B+948, ax
	mov	eax, 1
	mov	WORD PTR ?bitmap_database@@3QBUBitmapData@Bitmap@touchgfx@@B+950, ax
	mov	eax, 42					; 0000002aH
	mov	WORD PTR ?bitmap_database@@3QBUBitmapData@Bitmap@touchgfx@@B+952, ax
	mov	eax, 20					; 00000014H
	mov	WORD PTR ?bitmap_database@@3QBUBitmapData@Bitmap@touchgfx@@B+954, ax
	mov	BYTE PTR ?bitmap_database@@3QBUBitmapData@Bitmap@touchgfx@@B+956, 0
; Line 133
	mov	DWORD PTR ?bitmap_database@@3QBUBitmapData@Bitmap@touchgfx@@B+960, OFFSET ?_up_press_1@@3QBEB ; _up_press_1
	mov	DWORD PTR ?bitmap_database@@3QBUBitmapData@Bitmap@touchgfx@@B+964, OFFSET ?_up_press_1_alpha_channel@@3QBEB ; _up_press_1_alpha_channel
	mov	eax, 30					; 0000001eH
	mov	WORD PTR ?bitmap_database@@3QBUBitmapData@Bitmap@touchgfx@@B+968, ax
	mov	eax, 30					; 0000001eH
	mov	WORD PTR ?bitmap_database@@3QBUBitmapData@Bitmap@touchgfx@@B+970, ax
	mov	eax, 1
	mov	WORD PTR ?bitmap_database@@3QBUBitmapData@Bitmap@touchgfx@@B+972, ax
	mov	eax, 3
	mov	WORD PTR ?bitmap_database@@3QBUBitmapData@Bitmap@touchgfx@@B+974, ax
	mov	eax, 28					; 0000001cH
	mov	WORD PTR ?bitmap_database@@3QBUBitmapData@Bitmap@touchgfx@@B+976, ax
	mov	eax, 24					; 00000018H
	mov	WORD PTR ?bitmap_database@@3QBUBitmapData@Bitmap@touchgfx@@B+978, ax
	mov	BYTE PTR ?bitmap_database@@3QBUBitmapData@Bitmap@touchgfx@@B+980, 0
; Line 134
	mov	DWORD PTR ?bitmap_database@@3QBUBitmapData@Bitmap@touchgfx@@B+984, OFFSET ?_up_press_2@@3QBEB ; _up_press_2
	mov	DWORD PTR ?bitmap_database@@3QBUBitmapData@Bitmap@touchgfx@@B+988, OFFSET ?_up_press_2_alpha_channel@@3QBEB ; _up_press_2_alpha_channel
	mov	eax, 30					; 0000001eH
	mov	WORD PTR ?bitmap_database@@3QBUBitmapData@Bitmap@touchgfx@@B+992, ax
	mov	eax, 30					; 0000001eH
	mov	WORD PTR ?bitmap_database@@3QBUBitmapData@Bitmap@touchgfx@@B+994, ax
	mov	eax, 1
	mov	WORD PTR ?bitmap_database@@3QBUBitmapData@Bitmap@touchgfx@@B+996, ax
	mov	eax, 3
	mov	WORD PTR ?bitmap_database@@3QBUBitmapData@Bitmap@touchgfx@@B+998, ax
	mov	eax, 28					; 0000001cH
	mov	WORD PTR ?bitmap_database@@3QBUBitmapData@Bitmap@touchgfx@@B+1000, ax
	mov	eax, 24					; 00000018H
	mov	WORD PTR ?bitmap_database@@3QBUBitmapData@Bitmap@touchgfx@@B+1002, ax
	mov	BYTE PTR ?bitmap_database@@3QBUBitmapData@Bitmap@touchgfx@@B+1004, 0
; Line 135
	mov	DWORD PTR ?bitmap_database@@3QBUBitmapData@Bitmap@touchgfx@@B+1008, OFFSET ?_up_unpress_1@@3QBEB ; _up_unpress_1
	mov	DWORD PTR ?bitmap_database@@3QBUBitmapData@Bitmap@touchgfx@@B+1012, OFFSET ?_up_unpress_1_alpha_channel@@3QBEB ; _up_unpress_1_alpha_channel
	mov	eax, 30					; 0000001eH
	mov	WORD PTR ?bitmap_database@@3QBUBitmapData@Bitmap@touchgfx@@B+1016, ax
	mov	eax, 30					; 0000001eH
	mov	WORD PTR ?bitmap_database@@3QBUBitmapData@Bitmap@touchgfx@@B+1018, ax
	mov	eax, 9
	mov	WORD PTR ?bitmap_database@@3QBUBitmapData@Bitmap@touchgfx@@B+1020, ax
	xor	eax, eax
	mov	WORD PTR ?bitmap_database@@3QBUBitmapData@Bitmap@touchgfx@@B+1022, ax
	mov	eax, 17					; 00000011H
	mov	WORD PTR ?bitmap_database@@3QBUBitmapData@Bitmap@touchgfx@@B+1024, ax
	mov	eax, 30					; 0000001eH
	mov	WORD PTR ?bitmap_database@@3QBUBitmapData@Bitmap@touchgfx@@B+1026, ax
	mov	BYTE PTR ?bitmap_database@@3QBUBitmapData@Bitmap@touchgfx@@B+1028, 0
; Line 136
	mov	DWORD PTR ?bitmap_database@@3QBUBitmapData@Bitmap@touchgfx@@B+1032, OFFSET ?_up_unpress_2@@3QBEB ; _up_unpress_2
	mov	DWORD PTR ?bitmap_database@@3QBUBitmapData@Bitmap@touchgfx@@B+1036, OFFSET ?_up_unpress_2_alpha_channel@@3QBEB ; _up_unpress_2_alpha_channel
	mov	eax, 30					; 0000001eH
	mov	WORD PTR ?bitmap_database@@3QBUBitmapData@Bitmap@touchgfx@@B+1040, ax
	mov	eax, 30					; 0000001eH
	mov	WORD PTR ?bitmap_database@@3QBUBitmapData@Bitmap@touchgfx@@B+1042, ax
	mov	eax, 1
	mov	WORD PTR ?bitmap_database@@3QBUBitmapData@Bitmap@touchgfx@@B+1044, ax
	mov	eax, 3
	mov	WORD PTR ?bitmap_database@@3QBUBitmapData@Bitmap@touchgfx@@B+1046, ax
	mov	eax, 28					; 0000001cH
	mov	WORD PTR ?bitmap_database@@3QBUBitmapData@Bitmap@touchgfx@@B+1048, ax
	mov	eax, 24					; 00000018H
	mov	WORD PTR ?bitmap_database@@3QBUBitmapData@Bitmap@touchgfx@@B+1050, ax
	mov	BYTE PTR ?bitmap_database@@3QBUBitmapData@Bitmap@touchgfx@@B+1052, 0
	pop	edi
	pop	esi
	pop	ebx
	mov	esp, ebp
	pop	ebp
	ret	0
??__Ebitmap_database@@YAXXZ ENDP			; `dynamic initializer for 'bitmap_database''
text$di	ENDS
; Function compile flags: /Odtp /RTCsu /ZI
;	COMDAT ?getInstanceSize@BitmapDatabase@@YAGXZ
_TEXT	SEGMENT
?getInstanceSize@BitmapDatabase@@YAGXZ PROC		; BitmapDatabase::getInstanceSize, COMDAT
; File c:\myfiles\softwareteam\technologies_boards\graphic\touchgfx\scope\project\oscilloscope\graphic\generated\images\src\bitmapdatabase.cpp
; Line 146
	push	ebp
	mov	ebp, esp
	sub	esp, 192				; 000000c0H
	push	ebx
	push	esi
	push	edi
	lea	edi, DWORD PTR [ebp-192]
	mov	ecx, 48					; 00000030H
	mov	eax, -858993460				; ccccccccH
	rep stosd
; Line 147
	mov	eax, 44					; 0000002cH
; Line 148
	pop	edi
	pop	esi
	pop	ebx
	mov	esp, ebp
	pop	ebp
	ret	0
?getInstanceSize@BitmapDatabase@@YAGXZ ENDP		; BitmapDatabase::getInstanceSize
_TEXT	ENDS
; Function compile flags: /Odtp /RTCsu /ZI
;	COMDAT ?getInstance@BitmapDatabase@@YAPBUBitmapData@Bitmap@touchgfx@@XZ
_TEXT	SEGMENT
?getInstance@BitmapDatabase@@YAPBUBitmapData@Bitmap@touchgfx@@XZ PROC ; BitmapDatabase::getInstance, COMDAT
; File c:\myfiles\softwareteam\technologies_boards\graphic\touchgfx\scope\project\oscilloscope\graphic\generated\images\src\bitmapdatabase.cpp
; Line 142
	push	ebp
	mov	ebp, esp
	sub	esp, 192				; 000000c0H
	push	ebx
	push	esi
	push	edi
	lea	edi, DWORD PTR [ebp-192]
	mov	ecx, 48					; 00000030H
	mov	eax, -858993460				; ccccccccH
	rep stosd
; Line 143
	mov	eax, OFFSET ?bitmap_database@@3QBUBitmapData@Bitmap@touchgfx@@B
; Line 144
	pop	edi
	pop	esi
	pop	ebx
	mov	esp, ebp
	pop	ebp
	ret	0
?getInstance@BitmapDatabase@@YAPBUBitmapData@Bitmap@touchgfx@@XZ ENDP ; BitmapDatabase::getInstance
_TEXT	ENDS
END
