; Listing generated by Microsoft (R) Optimizing Compiler Version 19.00.24210.0 

	TITLE	C:\MyFiles\SoftwareTeam\Technologies_Boards\Graphic\TouchGFX\Scope\Project\Oscilloscope\Graphic\generated\images\src\ch1DownOnn.cpp
	.686P
	.XMM
	include listing.inc
	.model	flat

INCLUDELIB MSVCRTD
INCLUDELIB OLDNAMES

PUBLIC	?_ch1DownOnn@@3QBEB				; _ch1DownOnn
PUBLIC	?_ch1DownOnn_alpha_channel@@3QBEB		; _ch1DownOnn_alpha_channel
CONST	SEGMENT
?_ch1DownOnn@@3QBEB DB 00H				; _ch1DownOnn
	DB	00H
	DB	00H
	DB	00H
	DB	00H
	DB	00H
	DB	00H
	DB	00H
	DB	00H
	DB	00H
	DB	00H
	DB	00H
	DB	00H
	DB	00H
	DB	00H
	DB	00H
	DB	00H
	DB	00H
	DB	00H
	DB	00H
	DB	00H
	DB	00H
	DB	00H
	DB	00H
	DB	00H
	DB	00H
	DB	00H
	DB	00H
	DB	00H
	DB	00H
	DB	00H
	DB	00H
	DB	00H
	DB	00H
	DB	00H
	DB	00H
	DB	00H
	DB	00H
	DB	00H
	DB	00H
	DB	00H
	DB	00H
	DB	00H
	DB	00H
	DB	00H
	DB	00H
	DB	00H
	DB	00H
	DB	00H
	DB	00H
	DB	00H
	DB	00H
	DB	00H
	DB	00H
	DB	00H
	DB	00H
	DB	00H
	DB	00H
	DB	00H
	DB	00H
	DB	00H
	DB	00H
	DB	00H
	DB	00H
	DB	00H
	DB	00H
	DB	00H
	DB	00H
	DB	00H
	DB	00H
	DB	00H
	DB	00H
	DB	00H
	DB	00H
	DB	00H
	DB	00H
	DB	00H
	DB	00H
	DB	00H
	DB	00H
	DB	00H
	DB	00H
	DB	00H
	DB	00H
	DB	00H
	DB	00H
	DB	00H
	DB	00H
	DB	00H
	DB	00H
	DB	00H
	DB	00H
	DB	00H
	DB	00H
	DB	00H
	DB	00H
	DB	00H
	DB	00H
	DB	00H
	DB	00H
	DB	00H
	DB	00H
	DB	00H
	DB	00H
	DB	00H
	DB	00H
	DB	00H
	DB	00H
	DB	00H
	DB	00H
	DB	00H
	DB	00H
	DB	00H
	DB	00H
	DB	00H
	DB	00H
	DB	00H
	DB	00H
	DB	00H
	DB	00H
	DB	00H
	DB	00H
	DB	00H
	DB	00H
	DB	00H
	DB	00H
	DB	00H
	DB	00H
	DB	00H
	DB	00H
	DB	00H
	DB	00H
	DB	00H
	DB	00H
	DB	00H
	DB	00H
	DB	00H
	DB	00H
	DB	00H
	DB	00H
	DB	00H
	DB	00H
	DB	00H
	DB	00H
	DB	00H
	DB	00H
	DB	00H
	DB	00H
	DB	00H
	DB	00H
	DB	00H
	DB	00H
	DB	00H
	DB	00H
	DB	00H
	DB	00H
	DB	00H
	DB	00H
	DB	00H
	DB	00H
	DB	00H
	DB	00H
	DB	00H
	DB	00H
	DB	00H
	DB	00H
	DB	00H
	DB	00H
	DB	00H
	DB	00H
	DB	00H
	DB	00H
	DB	00H
	DB	00H
	DB	00H
	DB	00H
	DB	00H
	DB	00H
	DB	00H
	DB	00H
	DB	00H
	DB	00H
	DB	00H
	DB	00H
	DB	00H
	DB	00H
	DB	00H
	DB	00H
	DB	00H
	DB	00H
	DB	00H
	DB	00H
	DB	00H
	DB	00H
	DB	00H
	DB	00H
	DB	00H
	DB	00H
	DB	00H
	DB	00H
	DB	00H
	DB	00H
	DB	00H
	DB	00H
	DB	00H
	DB	00H
	DB	00H
	DB	00H
	DB	00H
	DB	00H
	DB	00H
	DB	00H
	DB	00H
	DB	00H
	DB	00H
	DB	00H
	DB	00H
	DB	00H
	DB	00H
	DB	00H
	DB	00H
	DB	00H
	DB	00H
	DB	00H
	DB	00H
	DB	00H
	DB	00H
	DB	00H
	DB	00H
	DB	00H
	DB	00H
	DB	00H
	DB	00H
	DB	00H
	DB	00H
	DB	00H
	DB	00H
	DB	00H
	DB	00H
	DB	00H
	DB	00H
	DB	00H
	DB	00H
	DB	00H
	DB	00H
	DB	00H
	DB	00H
	DB	00H
	DB	00H
	DB	00H
	DB	0e4H
	DB	0ebH
	DB	00H
	DB	00H
	DB	00H
	DB	00H
	DB	00H
	DB	00H
	DB	00H
	DB	00H
	DB	00H
	DB	00H
	DB	00H
	DB	00H
	DB	00H
	DB	00H
	DB	00H
	DB	00H
	DB	00H
	DB	00H
	DB	00H
	DB	00H
	DB	00H
	DB	00H
	DB	00H
	DB	00H
	DB	00H
	DB	00H
	DB	00H
	DB	00H
	DB	00H
	DB	00H
	DB	00H
	DB	00H
	DB	00H
	DB	00H
	DB	00H
	DB	00H
	DB	0e4H
	DB	0ebH
	DB	00H
	DB	00H
	DB	00H
	DB	00H
	DB	00H
	DB	00H
	DB	00H
	DB	00H
	DB	00H
	DB	00H
	DB	0e4H
	DB	0ebH
	DB	00H
	DB	00H
	DB	0e4H
	DB	0ebH
	DB	0e4H
	DB	0ebH
	DB	0e4H
	DB	0ebH
	DB	0c5H
	DB	0ebH
	DB	00H
	DB	00H
	DB	00H
	DB	00H
	DB	00H
	DB	00H
	DB	00H
	DB	00H
	DB	00H
	DB	00H
	DB	00H
	DB	00H
	DB	00H
	DB	00H
	DB	00H
	DB	00H
	DB	00H
	DB	00H
	DB	00H
	DB	00H
	DB	00H
	DB	00H
	DB	00H
	DB	00H
	DB	00H
	DB	00H
	DB	00H
	DB	00H
	DB	00H
	DB	00H
	DB	00H
	DB	00H
	DB	00H
	DB	00H
	DB	00H
	DB	00H
	DB	0e4H
	DB	0ebH
	DB	0e4H
	DB	0ebH
	DB	0e4H
	DB	0ebH
	DB	0e4H
	DB	0ebH
	DB	00H
	DB	00H
	DB	0e4H
	DB	0ebH
	DB	00H
	DB	00H
	DB	0e4H
	DB	0ebH
	DB	0c5H
	DB	0ebH
	DB	0e4H
	DB	0ebH
	DB	0e4H
	DB	0ebH
	DB	0e5H
	DB	0ebH
	DB	0e4H
	DB	0ebH
	DB	00H
	DB	00H
	DB	00H
	DB	00H
	DB	00H
	DB	00H
	DB	00H
	DB	00H
	DB	00H
	DB	00H
	DB	00H
	DB	00H
	DB	00H
	DB	00H
	DB	00H
	DB	00H
	DB	00H
	DB	00H
	DB	00H
	DB	00H
	DB	00H
	DB	00H
	DB	00H
	DB	00H
	DB	00H
	DB	00H
	DB	00H
	DB	00H
	DB	00H
	DB	00H
	DB	04H
	DB	0f4H
	DB	0e5H
	DB	0ebH
	DB	0c5H
	DB	0ebH
	DB	0e4H
	DB	0ebH
	DB	0c5H
	DB	0ebH
	DB	0e5H
	DB	0ebH
	DB	0e4H
	DB	0ebH
	DB	00H
	DB	00H
	DB	0e4H
	DB	0ebH
	DB	0e5H
	DB	0ebH
	DB	0c4H
	DB	0ebH
	DB	0e5H
	DB	0ebH
	DB	0e4H
	DB	0ebH
	DB	0c4H
	DB	0ebH
	DB	0e4H
	DB	0ebH
	DB	00H
	DB	00H
	DB	00H
	DB	00H
	DB	00H
	DB	00H
	DB	00H
	DB	00H
	DB	00H
	DB	00H
	DB	00H
	DB	00H
	DB	00H
	DB	00H
	DB	00H
	DB	00H
	DB	00H
	DB	00H
	DB	00H
	DB	00H
	DB	00H
	DB	00H
	DB	00H
	DB	00H
	DB	00H
	DB	00H
	DB	00H
	DB	00H
	DB	00H
	DB	00H
	DB	00H
	DB	00H
	DB	0e4H
	DB	0ebH
	DB	0e4H
	DB	0ebH
	DB	0c4H
	DB	0ebH
	DB	0e5H
	DB	0ebH
	DB	0e4H
	DB	0ebH
	DB	0c4H
	DB	0ebH
	DB	0e5H
	DB	0ebH
	DB	0e4H
	DB	0ebH
	DB	0e4H
	DB	0ebH
	DB	0e5H
	DB	0ebH
	DB	0e4H
	DB	0ebH
	DB	0c5H
	DB	0e3H
	DB	0e5H
	DB	0ebH
	DB	0e4H
	DB	0ebH
	DB	0e4H
	DB	0ebH
	DB	0e5H
	DB	0ebH
	DB	00H
	DB	00H
	DB	00H
	DB	00H
	DB	00H
	DB	00H
	DB	00H
	DB	00H
	DB	00H
	DB	00H
	DB	00H
	DB	00H
	DB	00H
	DB	00H
	DB	00H
	DB	00H
	DB	00H
	DB	00H
	DB	00H
	DB	00H
	DB	00H
	DB	00H
	DB	00H
	DB	00H
	DB	0e4H
	DB	0ebH
	DB	0e4H
	DB	0ebH
	DB	0c5H
	DB	0ebH
	DB	0e4H
	DB	0ebH
	DB	0e4H
	DB	0ebH
	DB	0e5H
	DB	0e3H
	DB	0e4H
	DB	0ebH
	DB	0c4H
	DB	0ebH
	DB	0e4H
	DB	0ebH
	DB	0c4H
	DB	0ebH
	DB	0e5H
	DB	0ebH
	DB	0e4H
	DB	0ebH
	DB	0c4H
	DB	0ebH
	DB	0e4H
	DB	0ebH
	DB	0e5H
	DB	0ebH
	DB	0c4H
	DB	0ebH
	DB	0e4H
	DB	0ebH
	DB	0c5H
	DB	0ebH
	DB	0e4H
	DB	0ebH
	DB	0e4H
	DB	0ebH
	DB	00H
	DB	00H
	DB	00H
	DB	00H
	DB	00H
	DB	00H
	DB	00H
	DB	00H
	DB	00H
	DB	00H
	DB	00H
	DB	00H
	DB	00H
	DB	00H
	DB	00H
	DB	00H
	DB	0e4H
	DB	0ebH
	DB	0e4H
	DB	0ebH
	DB	0c5H
	DB	0ebH
	DB	0e4H
	DB	0ebH
	DB	0e5H
	DB	0ebH
	DB	0e5H
	DB	0ebH
	DB	0c4H
	DB	0ebH
	DB	0e4H
	DB	0ebH
	DB	0e5H
	DB	0ebH
	DB	0e5H
	DB	0ebH
	DB	0e4H
	DB	0ebH
	DB	0e4H
	DB	0ebH
	DB	0e5H
	DB	0ebH
	DB	0c4H
	DB	0e3H
	DB	0e4H
	DB	0ebH
	DB	0e5H
	DB	0ebH
	DB	0e4H
	DB	0ebH
	DB	0e4H
	DB	0e3H
	DB	0e5H
	DB	0ebH
	DB	0e4H
	DB	0ebH
	DB	0c4H
	DB	0ebH
	DB	0e5H
	DB	0ebH
	DB	00H
	DB	00H
	DB	00H
	DB	00H
	DB	00H
	DB	00H
	DB	00H
	DB	00H
	DB	00H
	DB	00H
	DB	00H
	DB	00H
	DB	00H
	DB	00H
	DB	00H
	DB	00H
	DB	0e4H
	DB	0ebH
	DB	0e5H
	DB	0ebH
	DB	0c4H
	DB	0ebH
	DB	0e4H
	DB	0ebH
	DB	0e4H
	DB	0e3H
	DB	0e5H
	DB	0ebH
	DB	0c4H
	DB	0ebH
	DB	0e4H
	DB	0ebH
	DB	0e5H
	DB	0ebH
	DB	0c4H
	DB	0e3H
	DB	0e4H
	DB	0ebH
	DB	0e4H
	DB	0ebH
	DB	0e4H
	DB	0ebH
	DB	0e5H
	DB	0ebH
	DB	0e5H
	DB	0ebH
	DB	0c4H
	DB	0ebH
	DB	0e4H
	DB	0ebH
	DB	0e5H
	DB	0ebH
	DB	0c4H
	DB	0ebH
	DB	0e4H
	DB	0e3H
	DB	0e5H
	DB	0ebH
	DB	0e4H
	DB	0ebH
	DB	0c4H
	DB	0ebH
	DB	00H
	DB	00H
	DB	00H
	DB	00H
	DB	00H
	DB	00H
	DB	00H
	DB	00H
	DB	00H
	DB	00H
	DB	00H
	DB	00H
	DB	0e4H
	DB	0ebH
	DB	0c5H
	DB	0ebH
	DB	0e4H
	DB	0ebH
	DB	0e5H
	DB	0ebH
	DB	0e4H
	DB	0ebH
	DB	0c4H
	DB	0ebH
	DB	0e5H
	DB	0ebH
	DB	0e4H
	DB	0e3H
	DB	0e4H
	DB	0ebH
	DB	0c5H
	DB	0ebH
	DB	0e4H
	DB	0ebH
	DB	0e4H
	DB	0ebH
	DB	00H
	DB	00H
	DB	00H
	DB	00H
	DB	0e4H
	DB	0ebH
	DB	0c4H
	DB	0ebH
	DB	0e5H
	DB	0e3H
	DB	0e4H
	DB	0ebH
	DB	0c5H
	DB	0ebH
	DB	0e4H
	DB	0ebH
	DB	0e5H
	DB	0ebH
	DB	0e4H
	DB	0ebH
	DB	0e4H
	DB	0ebH
	DB	0e5H
	DB	0ebH
	DB	00H
	DB	00H
	DB	00H
	DB	00H
	DB	00H
	DB	00H
	DB	00H
	DB	00H
	DB	00H
	DB	00H
	DB	00H
	DB	00H
	DB	0e4H
	DB	0ebH
	DB	0e4H
	DB	0ebH
	DB	0c5H
	DB	0ebH
	DB	0e4H
	DB	0e3H
	DB	0e5H
	DB	0ebH
	DB	0e4H
	DB	0ebH
	DB	0c4H
	DB	0ebH
	DB	0e5H
	DB	0ebH
	DB	0e4H
	DB	0ebH
	DB	0e4H
	DB	0ebH
	DB	00H
	DB	00H
	DB	00H
	DB	00H
	DB	0e4H
	DB	0ebH
	DB	0c5H
	DB	0ebH
	DB	00H
	DB	00H
	DB	0e4H
	DB	0ebH
	DB	0e4H
	DB	0ebH
	DB	0e5H
	DB	0ebH
	DB	0e4H
	DB	0ebH
	DB	0c4H
	DB	0ebH
	DB	0e5H
	DB	0ebH
	DB	0c4H
	DB	0ebH
	DB	0e4H
	DB	0e3H
	DB	0e5H
	DB	0ebH
	DB	0e4H
	DB	0ebH
	DB	0e4H
	DB	0ebH
	DB	00H
	DB	00H
	DB	00H
	DB	00H
	DB	0e4H
	DB	0ebH
	DB	0e5H
	DB	0ebH
	DB	0c4H
	DB	0ebH
	DB	0e4H
	DB	0ebH
	DB	0e5H
	DB	0ebH
	DB	0c4H
	DB	0ebH
	DB	0e4H
	DB	0ebH
	DB	0e5H
	DB	0ebH
	DB	0e4H
	DB	0ebH
	DB	0c5H
	DB	0ebH
	DB	0e5H
	DB	0ebH
	DB	00H
	DB	00H
	DB	0c5H
	DB	0ebH
	DB	0e4H
	DB	0ebH
	DB	00H
	DB	00H
	DB	0e4H
	DB	0ebH
	DB	00H
	DB	00H
	DB	0e5H
	DB	0ebH
	DB	0c4H
	DB	0ebH
	DB	0e4H
	DB	0ebH
	DB	0e5H
	DB	0e3H
	DB	0e4H
	DB	0ebH
	DB	0e4H
	DB	0ebH
	DB	0c5H
	DB	0ebH
	DB	0e4H
	DB	0ebH
	DB	0c4H
	DB	0ebH
	DB	0c5H
	DB	0ebH
	DB	0e4H
	DB	0ebH
	DB	0e4H
	DB	0ebH
	DB	0c5H
	DB	0ebH
	DB	0e4H
	DB	0ebH
	DB	0e4H
	DB	0ebH
	DB	0e5H
	DB	0ebH
	DB	0e4H
	DB	0e3H
	DB	0e4H
	DB	0ebH
	DB	0e5H
	DB	0ebH
	DB	0c4H
	DB	0ebH
	DB	0e4H
	DB	0e3H
	DB	0e5H
	DB	0ebH
	DB	0e4H
	DB	0ebH
	DB	0e4H
	DB	0e3H
	DB	00H
	DB	00H
	DB	0e4H
	DB	0ebH
	DB	00H
	DB	00H
	DB	00H
	DB	00H
	DB	00H
	DB	00H
	DB	00H
	DB	00H
	DB	00H
	DB	00H
	DB	00H
	DB	00H
	DB	0c5H
	DB	0ebH
	DB	0e4H
	DB	0ebH
	DB	0e5H
	DB	0ebH
	DB	0e4H
	DB	0ebH
	DB	0e5H
	DB	0e3H
	DB	0e4H
	DB	0ebH
	DB	0e5H
	DB	0ebH
	DB	0e4H
	DB	0e3H
	DB	0e5H
	DB	0ebH
	DB	0e4H
	DB	0ebH
	DB	0c5H
	DB	0ebH
	DB	0e4H
	DB	0e3H
	DB	0e4H
	DB	0ebH
	DB	0c5H
	DB	0ebH
	DB	0e4H
	DB	0ebH
	DB	0e5H
	DB	0ebH
	DB	0e4H
	DB	0ebH
	DB	0e5H
	DB	0ebH
	DB	0c4H
	DB	0ebH
	DB	0e4H
	DB	0ebH
	DB	00H
	DB	00H
	DB	00H
	DB	00H
	DB	00H
	DB	00H
	DB	00H
	DB	00H
	DB	00H
	DB	00H
	DB	00H
	DB	00H
	DB	00H
	DB	00H
	DB	00H
	DB	00H
	DB	0e4H
	DB	0ebH
	DB	00H
	DB	00H
	DB	0e4H
	DB	0ebH
	DB	0c4H
	DB	0ebH
	DB	0e5H
	DB	0ebH
	DB	0c4H
	DB	0ebH
	DB	0e4H
	DB	0ebH
	DB	0e5H
	DB	0ebH
	DB	0c4H
	DB	0ebH
	DB	0e4H
	DB	0ebH
	DB	0e4H
	DB	0ebH
	DB	0c5H
	DB	0ebH
	DB	0e4H
	DB	0ebH
	DB	0e5H
	DB	0ebH
	DB	0c4H
	DB	0ebH
	DB	0e4H
	DB	0ebH
	DB	0c5H
	DB	0ebH
	DB	0e4H
	DB	0ebH
	DB	0c4H
	DB	0e3H
	DB	0e5H
	DB	0ebH
	DB	0e4H
	DB	0ebH
	DB	0c5H
	DB	0ebH
	DB	00H
	DB	00H
	DB	0e4H
	DB	0ebH
	DB	00H
	DB	00H
	DB	00H
	DB	00H
	DB	00H
	DB	00H
	DB	00H
	DB	00H
	DB	00H
	DB	00H
	DB	00H
	DB	00H
	DB	00H
	DB	00H
	DB	00H
	DB	00H
	DB	00H
	DB	00H
	DB	00H
	DB	00H
	DB	0e4H
	DB	0e3H
	DB	0e5H
	DB	0ebH
	DB	0c4H
	DB	0ebH
	DB	0e4H
	DB	0ebH
	DB	0e5H
	DB	0ebH
	DB	0c4H
	DB	0ebH
	DB	0e5H
	DB	0ebH
	DB	0e4H
	DB	0e3H
	DB	0e4H
	DB	0ebH
	DB	0e5H
	DB	0ebH
	DB	0e4H
	DB	0ebH
	DB	0e4H
	DB	0e3H
	DB	0e5H
	DB	0ebH
	DB	0e4H
	DB	0ebH
	DB	0e4H
	DB	0ebH
	DB	0e5H
	DB	0ebH
	DB	00H
	DB	00H
	DB	00H
	DB	00H
	DB	00H
	DB	00H
	DB	00H
	DB	00H
	DB	00H
	DB	00H
	DB	00H
	DB	00H
	DB	00H
	DB	00H
	DB	00H
	DB	00H
	DB	00H
	DB	00H
	DB	00H
	DB	00H
	DB	00H
	DB	00H
	DB	00H
	DB	00H
	DB	0e5H
	DB	0ebH
	DB	0e4H
	DB	0ebH
	DB	00H
	DB	00H
	DB	0e5H
	DB	0ebH
	DB	0e4H
	DB	0ebH
	DB	0e4H
	DB	0e3H
	DB	0e5H
	DB	0ebH
	DB	0e4H
	DB	0ebH
	DB	0e4H
	DB	0ebH
	DB	0c5H
	DB	0ebH
	DB	0e4H
	DB	0ebH
	DB	0e4H
	DB	0ebH
	DB	0c5H
	DB	0ebH
	DB	0e4H
	DB	0ebH
	DB	0e5H
	DB	0ebH
	DB	0c4H
	DB	0ebH
	DB	0e4H
	DB	0ebH
	DB	00H
	DB	00H
	DB	0e4H
	DB	0ebH
	DB	0e4H
	DB	0e3H
	DB	00H
	DB	00H
	DB	00H
	DB	00H
	DB	00H
	DB	00H
	DB	00H
	DB	00H
	DB	00H
	DB	00H
	DB	00H
	DB	00H
	DB	00H
	DB	00H
	DB	00H
	DB	00H
	DB	00H
	DB	00H
	DB	00H
	DB	00H
	DB	00H
	DB	00H
	DB	0c4H
	DB	0ebH
	DB	00H
	DB	00H
	DB	0e5H
	DB	0ebH
	DB	0c4H
	DB	0ebH
	DB	0e4H
	DB	0ebH
	DB	0c5H
	DB	0ebH
	DB	0e4H
	DB	0ebH
	DB	0e4H
	DB	0e3H
	DB	0c5H
	DB	0ebH
	DB	0e4H
	DB	0ebH
	DB	0e5H
	DB	0ebH
	DB	0c4H
	DB	0ebH
	DB	0e4H
	DB	0ebH
	DB	0e5H
	DB	0ebH
	DB	0c5H
	DB	0e3H
	DB	0e4H
	DB	0ebH
	DB	00H
	DB	00H
	DB	0c5H
	DB	0ebH
	DB	00H
	DB	00H
	DB	00H
	DB	00H
	DB	00H
	DB	00H
	DB	00H
	DB	00H
	DB	00H
	DB	00H
	DB	00H
	DB	00H
	DB	00H
	DB	00H
	DB	00H
	DB	00H
	DB	00H
	DB	00H
	DB	00H
	DB	00H
	DB	00H
	DB	00H
	DB	00H
	DB	00H
	DB	00H
	DB	00H
	DB	00H
	DB	00H
	DB	00H
	DB	00H
	DB	00H
	DB	00H
	DB	0e5H
	DB	0ebH
	DB	0e4H
	DB	0ebH
	DB	0c5H
	DB	0ebH
	DB	0e4H
	DB	0ebH
	DB	0e4H
	DB	0ebH
	DB	0e5H
	DB	0ebH
	DB	0e4H
	DB	0e3H
	DB	0e4H
	DB	0ebH
	DB	0e5H
	DB	0ebH
	DB	0e4H
	DB	0ebH
	DB	00H
	DB	00H
	DB	00H
	DB	00H
	DB	00H
	DB	00H
	DB	00H
	DB	00H
	DB	00H
	DB	00H
	DB	00H
	DB	00H
	DB	00H
	DB	00H
	DB	00H
	DB	00H
	DB	00H
	DB	00H
	DB	00H
	DB	00H
	DB	00H
	DB	00H
	DB	00H
	DB	00H
	DB	00H
	DB	00H
	DB	00H
	DB	00H
	DB	00H
	DB	00H
	DB	00H
	DB	00H
	DB	00H
	DB	00H
	DB	00H
	DB	00H
	DB	0e4H
	DB	0e3H
	DB	00H
	DB	00H
	DB	0e4H
	DB	0ebH
	DB	0e4H
	DB	0e3H
	DB	0e5H
	DB	0ebH
	DB	0c4H
	DB	0ebH
	DB	0e4H
	DB	0ebH
	DB	0e5H
	DB	0ebH
	DB	0c4H
	DB	0ebH
	DB	0e5H
	DB	0ebH
	DB	0c4H
	DB	0e3H
	DB	0e4H
	DB	0ebH
	DB	00H
	DB	00H
	DB	0e5H
	DB	0ebH
	DB	00H
	DB	00H
	DB	00H
	DB	00H
	DB	00H
	DB	00H
	DB	00H
	DB	00H
	DB	00H
	DB	00H
	DB	00H
	DB	00H
	DB	00H
	DB	00H
	DB	00H
	DB	00H
	DB	00H
	DB	00H
	DB	00H
	DB	00H
	DB	00H
	DB	00H
	DB	00H
	DB	00H
	DB	00H
	DB	00H
	DB	00H
	DB	00H
	DB	00H
	DB	00H
	DB	00H
	DB	00H
	DB	00H
	DB	00H
	DB	00H
	DB	00H
	DB	00H
	DB	00H
	DB	00H
	DB	00H
	DB	0e5H
	DB	0ebH
	DB	0e4H
	DB	0ebH
	DB	0c5H
	DB	0e3H
	DB	0e4H
	DB	0ebH
	DB	0e4H
	DB	0ebH
	DB	0c5H
	DB	0ebH
	DB	00H
	DB	00H
	DB	00H
	DB	00H
	DB	00H
	DB	00H
	DB	00H
	DB	00H
	DB	00H
	DB	00H
	DB	00H
	DB	00H
	DB	00H
	DB	00H
	DB	00H
	DB	00H
	DB	00H
	DB	00H
	DB	00H
	DB	00H
	DB	00H
	DB	00H
	DB	00H
	DB	00H
	DB	00H
	DB	00H
	DB	00H
	DB	00H
	DB	00H
	DB	00H
	DB	00H
	DB	00H
	DB	00H
	DB	00H
	DB	00H
	DB	00H
	DB	00H
	DB	00H
	DB	00H
	DB	00H
	DB	00H
	DB	00H
	DB	00H
	DB	00H
	DB	0c5H
	DB	0ebH
	DB	00H
	DB	00H
	DB	00H
	DB	00H
	DB	0e4H
	DB	0ebH
	DB	0e5H
	DB	0ebH
	DB	0e4H
	DB	0ebH
	DB	0e4H
	DB	0ebH
	DB	00H
	DB	00H
	DB	0e4H
	DB	0ebH
	DB	0e5H
	DB	0ebH
	DB	00H
	DB	00H
	DB	00H
	DB	00H
	DB	00H
	DB	00H
	DB	00H
	DB	00H
	DB	00H
	DB	00H
	DB	00H
	DB	00H
	DB	00H
	DB	00H
	DB	00H
	DB	00H
	DB	00H
	DB	00H
	DB	00H
	DB	00H
	DB	00H
	DB	00H
	DB	00H
	DB	00H
	DB	00H
	DB	00H
	DB	00H
	DB	00H
	DB	00H
	DB	00H
	DB	00H
	DB	00H
	DB	00H
	DB	00H
	DB	00H
	DB	00H
	DB	00H
	DB	00H
	DB	00H
	DB	00H
	DB	00H
	DB	00H
	DB	0e4H
	DB	0ebH
	DB	00H
	DB	00H
	DB	0c4H
	DB	0ebH
	DB	0e4H
	DB	0ebH
	DB	0c5H
	DB	0ebH
	DB	0e5H
	DB	0e3H
	DB	00H
	DB	00H
	DB	0e4H
	DB	0ebH
	DB	00H
	DB	00H
	DB	00H
	DB	00H
	DB	00H
	DB	00H
	DB	00H
	DB	00H
	DB	00H
	DB	00H
	DB	00H
	DB	00H
	DB	00H
	DB	00H
	DB	00H
	DB	00H
	DB	00H
	DB	00H
	DB	00H
	DB	00H
	DB	00H
	DB	00H
	DB	00H
	DB	00H
	DB	00H
	DB	00H
	DB	00H
	DB	00H
	DB	00H
	DB	00H
	DB	00H
	DB	00H
	DB	00H
	DB	00H
	DB	00H
	DB	00H
	DB	00H
	DB	00H
	DB	00H
	DB	00H
	DB	00H
	DB	00H
	DB	00H
	DB	00H
	DB	00H
	DB	00H
	DB	00H
	DB	00H
	DB	0e5H
	DB	0ebH
	DB	00H
	DB	00H
	DB	00H
	DB	00H
	DB	0e4H
	DB	0ebH
	DB	00H
	DB	00H
	DB	00H
	DB	00H
	DB	00H
	DB	00H
	DB	00H
	DB	00H
	DB	00H
	DB	00H
	DB	00H
	DB	00H
	DB	00H
	DB	00H
	DB	00H
	DB	00H
	DB	00H
	DB	00H
	DB	00H
	DB	00H
	DB	00H
	DB	00H
	DB	00H
	DB	00H
	DB	00H
	DB	00H
	DB	00H
	DB	00H
	DB	00H
	DB	00H
	DB	00H
	DB	00H
	DB	00H
	DB	00H
	DB	00H
	DB	00H
	DB	00H
	DB	00H
	DB	00H
	DB	00H
	DB	00H
	DB	00H
	DB	00H
	DB	00H
	DB	00H
	DB	00H
	DB	00H
	DB	00H
	DB	00H
	DB	00H
	DB	00H
	DB	00H
	DB	00H
	DB	00H
	DB	00H
	DB	00H
	DB	00H
	DB	00H
	DB	00H
	DB	00H
	DB	00H
	DB	00H
	DB	00H
	DB	00H
	DB	00H
	DB	00H
	DB	00H
	DB	00H
	DB	00H
	DB	00H
	DB	00H
	DB	00H
	DB	00H
	DB	00H
	DB	00H
	DB	00H
	DB	00H
	DB	00H
	DB	00H
	DB	00H
	DB	00H
	DB	00H
	DB	00H
	DB	00H
	DB	00H
	DB	00H
	DB	00H
	DB	00H
	DB	00H
	DB	00H
	DB	00H
	DB	00H
	DB	00H
	DB	00H
	DB	00H
	DB	00H
	DB	00H
	DB	00H
	DB	00H
	DB	00H
	DB	00H
	DB	00H
	DB	00H
	DB	00H
	DB	00H
	DB	00H
	DB	00H
	DB	00H
	DB	00H
	DB	00H
	DB	00H
	DB	00H
	DB	00H
	DB	00H
	DB	00H
	DB	00H
	DB	00H
	DB	00H
	DB	00H
	DB	00H
	DB	00H
	DB	00H
	DB	00H
	DB	00H
	DB	00H
	DB	00H
	DB	00H
	DB	00H
	DB	00H
	DB	00H
	DB	00H
	DB	00H
	DB	00H
	DB	00H
	DB	00H
	DB	00H
	DB	00H
	DB	00H
	DB	00H
	DB	00H
	DB	00H
	DB	00H
	DB	00H
	DB	00H
	DB	00H
	DB	00H
	DB	00H
	DB	00H
	DB	00H
	DB	00H
	DB	00H
	DB	00H
	DB	00H
	DB	00H
	DB	00H
	DB	00H
	DB	00H
	DB	00H
	DB	00H
	DB	00H
	DB	00H
	DB	00H
	DB	00H
	DB	00H
	DB	00H
	DB	00H
	DB	00H
	DB	00H
	DB	00H
	DB	00H
	DB	00H
	DB	00H
	DB	00H
	DB	00H
	DB	00H
	DB	00H
	DB	00H
	DB	00H
	DB	00H
	DB	00H
	DB	00H
	DB	00H
	DB	00H
	DB	00H
	DB	00H
	DB	00H
	DB	00H
	DB	00H
	DB	00H
	DB	00H
	DB	00H
	DB	00H
	DB	00H
	DB	00H
	DB	00H
	DB	00H
	DB	00H
	DB	00H
	DB	00H
	DB	00H
	DB	00H
	DB	00H
	DB	00H
	DB	00H
	DB	00H
	DB	00H
	DB	00H
	DB	00H
	DB	00H
	DB	00H
	DB	00H
	DB	00H
	DB	00H
	DB	00H
	DB	00H
	DB	00H
	DB	00H
	DB	00H
	DB	00H
	DB	00H
	DB	00H
	DB	00H
	DB	00H
	DB	00H
	DB	00H
	DB	00H
	DB	00H
	DB	00H
	DB	00H
	DB	00H
	DB	00H
	DB	00H
	DB	00H
	DB	00H
	DB	00H
	DB	00H
	DB	00H
	DB	00H
	DB	00H
	DB	00H
	DB	00H
	DB	00H
	DB	00H
	DB	00H
	DB	00H
	DB	00H
	DB	00H
	DB	00H
	DB	00H
	DB	00H
	DB	00H
	DB	00H
	DB	00H
	DB	00H
	DB	00H
	DB	00H
	DB	00H
	DB	00H
	DB	00H
	DB	00H
	DB	00H
	DB	00H
	DB	00H
	DB	00H
	DB	00H
	DB	00H
?_ch1DownOnn_alpha_channel@@3QBEB DB 00H		; _ch1DownOnn_alpha_channel
	DB	00H
	DB	00H
	DB	00H
	DB	00H
	DB	00H
	DB	00H
	DB	00H
	DB	00H
	DB	00H
	DB	00H
	DB	00H
	DB	00H
	DB	00H
	DB	00H
	DB	00H
	DB	00H
	DB	00H
	DB	00H
	DB	00H
	DB	00H
	DB	00H
	DB	00H
	DB	00H
	DB	00H
	DB	00H
	DB	00H
	DB	00H
	DB	00H
	DB	00H
	DB	00H
	DB	00H
	DB	00H
	DB	00H
	DB	00H
	DB	00H
	DB	00H
	DB	00H
	DB	00H
	DB	00H
	DB	00H
	DB	00H
	DB	00H
	DB	00H
	DB	00H
	DB	00H
	DB	00H
	DB	00H
	DB	00H
	DB	00H
	DB	00H
	DB	00H
	DB	00H
	DB	00H
	DB	00H
	DB	00H
	DB	00H
	DB	00H
	DB	00H
	DB	00H
	DB	00H
	DB	00H
	DB	00H
	DB	00H
	DB	00H
	DB	00H
	DB	00H
	DB	00H
	DB	00H
	DB	00H
	DB	00H
	DB	00H
	DB	00H
	DB	00H
	DB	00H
	DB	00H
	DB	00H
	DB	00H
	DB	00H
	DB	00H
	DB	00H
	DB	00H
	DB	00H
	DB	00H
	DB	00H
	DB	00H
	DB	00H
	DB	00H
	DB	00H
	DB	00H
	DB	00H
	DB	00H
	DB	00H
	DB	00H
	DB	00H
	DB	00H
	DB	00H
	DB	00H
	DB	00H
	DB	00H
	DB	00H
	DB	00H
	DB	00H
	DB	00H
	DB	00H
	DB	00H
	DB	00H
	DB	00H
	DB	00H
	DB	00H
	DB	00H
	DB	00H
	DB	00H
	DB	00H
	DB	00H
	DB	00H
	DB	00H
	DB	00H
	DB	00H
	DB	00H
	DB	00H
	DB	00H
	DB	00H
	DB	00H
	DB	00H
	DB	00H
	DB	00H
	DB	00H
	DB	00H
	DB	00H
	DB	00H
	DB	00H
	DB	00H
	DB	00H
	DB	00H
	DB	00H
	DB	00H
	DB	00H
	DB	00H
	DB	00H
	DB	00H
	DB	00H
	DB	00H
	DB	00H
	DB	00H
	DB	00H
	DB	00H
	DB	00H
	DB	00H
	DB	00H
	DB	00H
	DB	00H
	DB	010H
	DB	038H
	DB	030H
	DB	0cH
	DB	00H
	DB	00H
	DB	00H
	DB	00H
	DB	00H
	DB	00H
	DB	00H
	DB	00H
	DB	00H
	DB	00H
	DB	00H
	DB	00H
	DB	00H
	DB	00H
	DB	00H
	DB	00H
	DB	00H
	DB	00H
	DB	0cH
	DB	030H
	DB	038H
	DB	010H
	DB	00H
	DB	00H
	DB	00H
	DB	028H
	DB	0d3H
	DB	0ffH
	DB	0ffH
	DB	0baH
	DB	010H
	DB	00H
	DB	00H
	DB	00H
	DB	00H
	DB	00H
	DB	00H
	DB	00H
	DB	00H
	DB	00H
	DB	00H
	DB	00H
	DB	00H
	DB	00H
	DB	00H
	DB	00H
	DB	00H
	DB	010H
	DB	0baH
	DB	0ffH
	DB	0ffH
	DB	0d3H
	DB	034H
	DB	00H
	DB	014H
	DB	0dfH
	DB	0ffH
	DB	0ffH
	DB	0ffH
	DB	0ffH
	DB	0cfH
	DB	00H
	DB	00H
	DB	00H
	DB	00H
	DB	00H
	DB	00H
	DB	00H
	DB	00H
	DB	00H
	DB	00H
	DB	00H
	DB	00H
	DB	00H
	DB	00H
	DB	00H
	DB	00H
	DB	0baH
	DB	0ffH
	DB	0ffH
	DB	0ffH
	DB	0ffH
	DB	0ebH
	DB	01cH
	DB	0a6H
	DB	0ffH
	DB	0ffH
	DB	0ffH
	DB	0ffH
	DB	0ffH
	DB	0ffH
	DB	0d3H
	DB	014H
	DB	00H
	DB	00H
	DB	00H
	DB	00H
	DB	00H
	DB	00H
	DB	00H
	DB	00H
	DB	00H
	DB	00H
	DB	00H
	DB	00H
	DB	010H
	DB	0c3H
	DB	0ffH
	DB	0ffH
	DB	0ffH
	DB	0ffH
	DB	0ffH
	DB	0ffH
	DB	0aeH
	DB	0efH
	DB	0ffH
	DB	0ffH
	DB	0ffH
	DB	0ffH
	DB	0ffH
	DB	0ffH
	DB	0ffH
	DB	0c7H
	DB	08H
	DB	00H
	DB	00H
	DB	00H
	DB	00H
	DB	00H
	DB	00H
	DB	00H
	DB	00H
	DB	00H
	DB	00H
	DB	08H
	DB	0c3H
	DB	0ffH
	DB	0ffH
	DB	0ffH
	DB	0ffH
	DB	0ffH
	DB	0ffH
	DB	0ffH
	DB	0ffH
	DB	0a2H
	DB	0ffH
	DB	0ffH
	DB	0ffH
	DB	0ffH
	DB	0ffH
	DB	0ffH
	DB	0ffH
	DB	0ffH
	DB	0beH
	DB	08H
	DB	00H
	DB	00H
	DB	00H
	DB	00H
	DB	00H
	DB	00H
	DB	00H
	DB	00H
	DB	08H
	DB	0beH
	DB	0ffH
	DB	0ffH
	DB	0ffH
	DB	0ffH
	DB	0ffH
	DB	0ffH
	DB	0ffH
	DB	0ffH
	DB	0b2H
	DB	010H
	DB	0d3H
	DB	0ffH
	DB	0ffH
	DB	0ffH
	DB	0ffH
	DB	0ffH
	DB	0ffH
	DB	0ffH
	DB	0ffH
	DB	0c3H
	DB	010H
	DB	00H
	DB	00H
	DB	00H
	DB	00H
	DB	00H
	DB	00H
	DB	010H
	DB	0c3H
	DB	0ffH
	DB	0ffH
	DB	0ffH
	DB	0ffH
	DB	0ffH
	DB	0ffH
	DB	0ffH
	DB	0ffH
	DB	0d3H
	DB	0cH
	DB	00H
	DB	00H
	DB	0fbH
	DB	0ffH
	DB	0ffH
	DB	0ffH
	DB	0ffH
	DB	0ffH
	DB	0ffH
	DB	0ffH
	DB	0ffH
	DB	0cfH
	DB	00H
	DB	00H
	DB	00H
	DB	00H
	DB	00H
	DB	00H
	DB	0c3H
	DB	0ffH
	DB	0ffH
	DB	0ffH
	DB	0ffH
	DB	0ffH
	DB	0ffH
	DB	0ffH
	DB	0ffH
	DB	0f7H
	DB	00H
	DB	00H
	DB	00H
	DB	00H
	DB	00H
	DB	0d3H
	DB	0ffH
	DB	0ffH
	DB	0ffH
	DB	0ffH
	DB	0ffH
	DB	0ffH
	DB	0ffH
	DB	0ffH
	DB	0d3H
	DB	014H
	DB	00H
	DB	00H
	DB	010H
	DB	0c3H
	DB	0ffH
	DB	0ffH
	DB	0ffH
	DB	0ffH
	DB	0ffH
	DB	0ffH
	DB	0ffH
	DB	0ffH
	DB	0d7H
	DB	00H
	DB	00H
	DB	00H
	DB	00H
	DB	00H
	DB	00H
	DB	08H
	DB	0e7H
	DB	0ffH
	DB	0ffH
	DB	0ffH
	DB	0ffH
	DB	0ffH
	DB	0ffH
	DB	0ffH
	DB	0ffH
	DB	0cbH
	DB	08H
	DB	08H
	DB	0c3H
	DB	0ffH
	DB	0ffH
	DB	0ffH
	DB	0ffH
	DB	0ffH
	DB	0ffH
	DB	0ffH
	DB	0ffH
	DB	0efH
	DB	010H
	DB	00H
	DB	00H
	DB	00H
	DB	00H
	DB	00H
	DB	00H
	DB	00H
	DB	00H
	DB	0ebH
	DB	0ffH
	DB	0ffH
	DB	0ffH
	DB	0ffH
	DB	0ffH
	DB	0ffH
	DB	0ffH
	DB	0ffH
	DB	0aeH
	DB	0b2H
	DB	0ffH
	DB	0ffH
	DB	0ffH
	DB	0ffH
	DB	0ffH
	DB	0ffH
	DB	0ffH
	DB	0ffH
	DB	0efH
	DB	00H
	DB	00H
	DB	00H
	DB	00H
	DB	00H
	DB	00H
	DB	00H
	DB	00H
	DB	00H
	DB	00H
	DB	010H
	DB	0d3H
	DB	0ffH
	DB	0ffH
	DB	0ffH
	DB	0ffH
	DB	0ffH
	DB	0ffH
	DB	0ffH
	DB	0ffH
	DB	0ffH
	DB	0ffH
	DB	0ffH
	DB	0ffH
	DB	0ffH
	DB	0ffH
	DB	0ffH
	DB	0ffH
	DB	0d7H
	DB	0cH
	DB	00H
	DB	00H
	DB	00H
	DB	00H
	DB	00H
	DB	00H
	DB	00H
	DB	00H
	DB	00H
	DB	00H
	DB	00H
	DB	00H
	DB	0fbH
	DB	0ffH
	DB	0ffH
	DB	0ffH
	DB	0ffH
	DB	0ffH
	DB	0ffH
	DB	0ffH
	DB	0ffH
	DB	0ffH
	DB	0ffH
	DB	0ffH
	DB	0ffH
	DB	0ffH
	DB	0ffH
	DB	0f7H
	DB	00H
	DB	00H
	DB	00H
	DB	00H
	DB	00H
	DB	00H
	DB	00H
	DB	00H
	DB	00H
	DB	00H
	DB	00H
	DB	00H
	DB	00H
	DB	00H
	DB	00H
	DB	0d3H
	DB	0ffH
	DB	0ffH
	DB	0ffH
	DB	0ffH
	DB	0ffH
	DB	0ffH
	DB	0ffH
	DB	0ffH
	DB	0ffH
	DB	0ffH
	DB	0ffH
	DB	0ffH
	DB	0d7H
	DB	00H
	DB	00H
	DB	00H
	DB	00H
	DB	00H
	DB	00H
	DB	00H
	DB	00H
	DB	00H
	DB	00H
	DB	00H
	DB	00H
	DB	00H
	DB	00H
	DB	00H
	DB	00H
	DB	08H
	DB	0e7H
	DB	0ffH
	DB	0ffH
	DB	0ffH
	DB	0ffH
	DB	0ffH
	DB	0ffH
	DB	0ffH
	DB	0ffH
	DB	0ffH
	DB	0ffH
	DB	0efH
	DB	0cH
	DB	00H
	DB	00H
	DB	00H
	DB	00H
	DB	00H
	DB	00H
	DB	00H
	DB	00H
	DB	00H
	DB	00H
	DB	00H
	DB	00H
	DB	00H
	DB	00H
	DB	00H
	DB	00H
	DB	00H
	DB	00H
	DB	0ebH
	DB	0ffH
	DB	0ffH
	DB	0ffH
	DB	0ffH
	DB	0ffH
	DB	0ffH
	DB	0ffH
	DB	0ffH
	DB	0efH
	DB	00H
	DB	00H
	DB	00H
	DB	00H
	DB	00H
	DB	00H
	DB	00H
	DB	00H
	DB	00H
	DB	00H
	DB	00H
	DB	00H
	DB	00H
	DB	00H
	DB	00H
	DB	00H
	DB	00H
	DB	00H
	DB	00H
	DB	00H
	DB	010H
	DB	0d3H
	DB	0ffH
	DB	0ffH
	DB	0ffH
	DB	0ffH
	DB	0ffH
	DB	0ffH
	DB	0d7H
	DB	0cH
	DB	00H
	DB	00H
	DB	00H
	DB	00H
	DB	00H
	DB	00H
	DB	00H
	DB	00H
	DB	00H
	DB	00H
	DB	00H
	DB	00H
	DB	00H
	DB	00H
	DB	00H
	DB	00H
	DB	00H
	DB	00H
	DB	00H
	DB	00H
	DB	00H
	DB	00H
	DB	0fbH
	DB	0ffH
	DB	0ffH
	DB	0ffH
	DB	0ffH
	DB	0f7H
	DB	00H
	DB	00H
	DB	00H
	DB	00H
	DB	00H
	DB	00H
	DB	00H
	DB	00H
	DB	00H
	DB	00H
	DB	00H
	DB	00H
	DB	00H
	DB	00H
	DB	00H
	DB	00H
	DB	00H
	DB	00H
	DB	00H
	DB	00H
	DB	00H
	DB	00H
	DB	00H
	DB	00H
	DB	00H
	DB	0d3H
	DB	0ffH
	DB	0ffH
	DB	0cfH
	DB	00H
	DB	00H
	DB	00H
	DB	00H
	DB	00H
	DB	00H
	DB	00H
	DB	00H
	DB	00H
	DB	00H
	DB	00H
	DB	00H
	DB	00H
	DB	00H
	DB	00H
	DB	00H
	DB	00H
	DB	00H
	DB	00H
	DB	00H
	DB	00H
	DB	00H
	DB	00H
	DB	00H
	DB	00H
	DB	00H
	DB	0cH
	DB	038H
	DB	038H
	DB	0cH
	DB	00H
	DB	00H
	DB	00H
	DB	00H
	DB	00H
	DB	00H
	DB	00H
	DB	00H
	DB	00H
	DB	00H
	DB	00H
	DB	00H
	DB	00H
	DB	00H
	DB	00H
	DB	00H
	DB	00H
	DB	00H
	DB	00H
	DB	00H
	DB	00H
	DB	00H
	DB	00H
	DB	00H
	DB	00H
	DB	00H
	DB	00H
	DB	00H
	DB	00H
	DB	00H
	DB	00H
	DB	00H
	DB	00H
	DB	00H
	DB	00H
	DB	00H
	DB	00H
	DB	00H
	DB	00H
	DB	00H
	DB	00H
	DB	00H
	DB	00H
	DB	00H
	DB	00H
	DB	00H
	DB	00H
	DB	00H
	DB	00H
	DB	00H
	DB	00H
	DB	00H
	DB	00H
	DB	00H
	DB	00H
	DB	00H
	DB	00H
	DB	00H
	DB	00H
	DB	00H
	DB	00H
	DB	00H
	DB	00H
	DB	00H
	DB	00H
	DB	00H
	DB	00H
	DB	00H
	DB	00H
	DB	00H
	DB	00H
	DB	00H
	DB	00H
	DB	00H
	DB	00H
	DB	00H
	DB	00H
	DB	00H
	DB	00H
	DB	00H
	DB	00H
	DB	00H
	DB	00H
	DB	00H
	DB	00H
	DB	00H
	DB	00H
	DB	00H
	DB	00H
	DB	00H
	DB	00H
	DB	00H
	DB	00H
	DB	00H
	DB	00H
	DB	00H
	DB	00H
	DB	00H
	DB	00H
	DB	00H
	DB	00H
	DB	00H
	DB	00H
	DB	00H
	DB	00H
	DB	00H
	DB	00H
	DB	00H
	DB	00H
	DB	00H
	DB	00H
	DB	00H
	DB	00H
	DB	00H
	DB	00H
	DB	00H
	DB	00H
	DB	00H
	DB	00H
	DB	00H
	DB	00H
	DB	00H
	DB	00H
	DB	00H
	DB	00H
	DB	00H
	DB	00H
	DB	00H
	DB	00H
	DB	00H
	DB	00H
	DB	00H
	DB	00H
	DB	00H
	DB	00H
	DB	00H
	DB	00H
	DB	00H
	DB	00H
	DB	00H
	DB	00H
	DB	00H
	DB	00H
	DB	00H
	DB	00H
	DB	00H
	DB	00H
	DB	00H
	DB	00H
	DB	00H
	DB	00H
	DB	00H
	DB	00H
	DB	00H
	DB	00H
	DB	00H
	DB	00H
	DB	00H
	DB	00H
	DB	00H
	DB	00H
	DB	00H
	DB	00H
CONST	ENDS
END
