; Listing generated by Microsoft (R) Optimizing Compiler Version 19.00.24210.0 

	TITLE	C:\MyFiles\SoftwareTeam\Technology\TouchGFX\Project_template\Project\STM32F769_Keil\Graphic\generated\images\src\counter_box.cpp
	.686P
	.XMM
	include listing.inc
	.model	flat

INCLUDELIB MSVCRTD
INCLUDELIB OLDNAMES

PUBLIC	?_counter_box@@3QBEB				; _counter_box
CONST	SEGMENT
?_counter_box@@3QBEB DB 06aH				; _counter_box
	DB	042H
	DB	06aH
	DB	042H
	DB	049H
	DB	042H
	DB	0c8H
	DB	031H
	DB	066H
	DB	029H
	DB	065H
	DB	021H
	DB	066H
	DB	029H
	DB	045H
	DB	021H
	DB	045H
	DB	029H
	DB	066H
	DB	029H
	DB	045H
	DB	021H
	DB	045H
	DB	021H
	DB	046H
	DB	029H
	DB	045H
	DB	021H
	DB	045H
	DB	021H
	DB	025H
	DB	021H
	DB	045H
	DB	021H
	DB	066H
	DB	029H
	DB	045H
	DB	021H
	DB	045H
	DB	021H
	DB	045H
	DB	021H
	DB	025H
	DB	021H
	DB	045H
	DB	029H
	DB	045H
	DB	021H
	DB	045H
	DB	021H
	DB	045H
	DB	021H
	DB	025H
	DB	021H
	DB	045H
	DB	021H
	DB	045H
	DB	029H
	DB	045H
	DB	021H
	DB	045H
	DB	021H
	DB	025H
	DB	021H
	DB	045H
	DB	029H
	DB	066H
	DB	029H
	DB	045H
	DB	021H
	DB	045H
	DB	021H
	DB	045H
	DB	021H
	DB	025H
	DB	021H
	DB	045H
	DB	021H
	DB	045H
	DB	029H
	DB	045H
	DB	021H
	DB	025H
	DB	021H
	DB	025H
	DB	021H
	DB	045H
	DB	021H
	DB	045H
	DB	021H
	DB	045H
	DB	021H
	DB	045H
	DB	029H
	DB	025H
	DB	021H
	DB	045H
	DB	021H
	DB	066H
	DB	029H
	DB	045H
	DB	021H
	DB	045H
	DB	021H
	DB	045H
	DB	021H
	DB	045H
	DB	021H
	DB	065H
	DB	021H
	DB	045H
	DB	021H
	DB	045H
	DB	021H
	DB	045H
	DB	021H
	DB	025H
	DB	021H
	DB	045H
	DB	021H
	DB	045H
	DB	021H
	DB	025H
	DB	021H
	DB	045H
	DB	021H
	DB	025H
	DB	021H
	DB	025H
	DB	021H
	DB	045H
	DB	021H
	DB	025H
	DB	021H
	DB	025H
	DB	021H
	DB	025H
	DB	021H
	DB	025H
	DB	021H
	DB	045H
	DB	021H
	DB	045H
	DB	021H
	DB	045H
	DB	021H
	DB	025H
	DB	021H
	DB	05H
	DB	021H
	DB	045H
	DB	021H
	DB	045H
	DB	021H
	DB	025H
	DB	021H
	DB	045H
	DB	021H
	DB	025H
	DB	021H
	DB	025H
	DB	021H
	DB	045H
	DB	021H
	DB	045H
	DB	021H
	DB	025H
	DB	021H
	DB	025H
	DB	021H
	DB	025H
	DB	021H
	DB	045H
	DB	021H
	DB	025H
	DB	021H
	DB	025H
	DB	021H
	DB	045H
	DB	021H
	DB	04H
	DB	021H
	DB	045H
	DB	021H
	DB	045H
	DB	021H
	DB	025H
	DB	021H
	DB	025H
	DB	021H
	DB	025H
	DB	021H
	DB	045H
	DB	021H
	DB	065H
	DB	029H
	DB	025H
	DB	021H
	DB	025H
	DB	021H
	DB	025H
	DB	021H
	DB	024H
	DB	021H
	DB	045H
	DB	021H
	DB	025H
	DB	021H
	DB	025H
	DB	021H
	DB	025H
	DB	021H
	DB	025H
	DB	021H
	DB	045H
	DB	021H
	DB	045H
	DB	021H
	DB	025H
	DB	021H
	DB	025H
	DB	021H
	DB	025H
	DB	021H
	DB	025H
	DB	021H
	DB	025H
	DB	021H
	DB	025H
	DB	021H
	DB	025H
	DB	021H
	DB	025H
	DB	021H
	DB	04H
	DB	021H
	DB	045H
	DB	021H
	DB	025H
	DB	021H
	DB	025H
	DB	021H
	DB	025H
	DB	021H
	DB	04H
	DB	019H
	DB	025H
	DB	021H
	DB	045H
	DB	021H
	DB	025H
	DB	021H
	DB	025H
	DB	021H
	DB	025H
	DB	021H
	DB	025H
	DB	021H
	DB	025H
	DB	021H
	DB	025H
	DB	021H
	DB	025H
	DB	021H
	DB	04H
	DB	021H
	DB	04H
	DB	019H
	DB	025H
	DB	021H
	DB	025H
	DB	021H
	DB	024H
	DB	021H
	DB	025H
	DB	021H
	DB	04H
	DB	019H
	DB	025H
	DB	021H
	DB	025H
	DB	021H
	DB	025H
	DB	021H
	DB	025H
	DB	021H
	DB	04H
	DB	019H
	DB	025H
	DB	021H
	DB	025H
	DB	021H
	DB	025H
	DB	021H
	DB	046H
	DB	021H
	DB	086H
	DB	029H
	DB	0e8H
	DB	031H
	DB	08H
	DB	03aH
	DB	08H
	DB	03aH
	DB	04aH
	DB	042H
	DB	029H
	DB	03aH
	DB	086H
	DB	029H
	DB	046H
	DB	021H
	DB	066H
	DB	029H
	DB	066H
	DB	029H
	DB	045H
	DB	021H
	DB	066H
	DB	029H
	DB	066H
	DB	029H
	DB	046H
	DB	021H
	DB	066H
	DB	021H
	DB	045H
	DB	021H
	DB	066H
	DB	029H
	DB	066H
	DB	029H
	DB	066H
	DB	029H
	DB	086H
	DB	029H
	DB	066H
	DB	029H
	DB	066H
	DB	029H
	DB	066H
	DB	029H
	DB	066H
	DB	029H
	DB	066H
	DB	029H
	DB	066H
	DB	029H
	DB	045H
	DB	021H
	DB	066H
	DB	029H
	DB	066H
	DB	029H
	DB	066H
	DB	029H
	DB	046H
	DB	029H
	DB	045H
	DB	021H
	DB	046H
	DB	029H
	DB	066H
	DB	029H
	DB	066H
	DB	029H
	DB	086H
	DB	029H
	DB	046H
	DB	021H
	DB	045H
	DB	021H
	DB	066H
	DB	029H
	DB	046H
	DB	029H
	DB	066H
	DB	029H
	DB	066H
	DB	029H
	DB	045H
	DB	021H
	DB	066H
	DB	029H
	DB	066H
	DB	029H
	DB	045H
	DB	021H
	DB	066H
	DB	029H
	DB	045H
	DB	021H
	DB	066H
	DB	029H
	DB	066H
	DB	029H
	DB	045H
	DB	021H
	DB	066H
	DB	029H
	DB	046H
	DB	021H
	DB	045H
	DB	021H
	DB	066H
	DB	029H
	DB	045H
	DB	021H
	DB	045H
	DB	021H
	DB	046H
	DB	029H
	DB	045H
	DB	021H
	DB	066H
	DB	029H
	DB	046H
	DB	029H
	DB	046H
	DB	029H
	DB	046H
	DB	029H
	DB	045H
	DB	021H
	DB	046H
	DB	029H
	DB	066H
	DB	029H
	DB	046H
	DB	029H
	DB	066H
	DB	029H
	DB	045H
	DB	021H
	DB	045H
	DB	021H
	DB	066H
	DB	029H
	DB	045H
	DB	021H
	DB	045H
	DB	021H
	DB	066H
	DB	029H
	DB	045H
	DB	021H
	DB	066H
	DB	029H
	DB	045H
	DB	029H
	DB	045H
	DB	021H
	DB	066H
	DB	029H
	DB	045H
	DB	021H
	DB	046H
	DB	029H
	DB	065H
	DB	029H
	DB	045H
	DB	021H
	DB	066H
	DB	029H
	DB	065H
	DB	021H
	DB	045H
	DB	021H
	DB	046H
	DB	029H
	DB	045H
	DB	021H
	DB	045H
	DB	029H
	DB	045H
	DB	021H
	DB	025H
	DB	021H
	DB	045H
	DB	029H
	DB	045H
	DB	021H
	DB	045H
	DB	021H
	DB	046H
	DB	029H
	DB	045H
	DB	021H
	DB	045H
	DB	021H
	DB	046H
	DB	029H
	DB	045H
	DB	021H
	DB	045H
	DB	021H
	DB	045H
	DB	021H
	DB	025H
	DB	021H
	DB	045H
	DB	029H
	DB	045H
	DB	021H
	DB	045H
	DB	021H
	DB	046H
	DB	021H
	DB	025H
	DB	021H
	DB	045H
	DB	021H
	DB	045H
	DB	021H
	DB	045H
	DB	021H
	DB	045H
	DB	021H
	DB	025H
	DB	021H
	DB	045H
	DB	021H
	DB	045H
	DB	021H
	DB	025H
	DB	021H
	DB	045H
	DB	021H
	DB	025H
	DB	021H
	DB	025H
	DB	021H
	DB	045H
	DB	021H
	DB	045H
	DB	021H
	DB	025H
	DB	021H
	DB	025H
	DB	021H
	DB	025H
	DB	021H
	DB	045H
	DB	021H
	DB	045H
	DB	021H
	DB	045H
	DB	021H
	DB	045H
	DB	021H
	DB	025H
	DB	021H
	DB	045H
	DB	021H
	DB	045H
	DB	029H
	DB	045H
	DB	021H
	DB	045H
	DB	021H
	DB	025H
	DB	021H
	DB	025H
	DB	021H
	DB	045H
	DB	021H
	DB	045H
	DB	021H
	DB	025H
	DB	021H
	DB	045H
	DB	021H
	DB	025H
	DB	021H
	DB	045H
	DB	021H
	DB	045H
	DB	021H
	DB	025H
	DB	021H
	DB	025H
	DB	021H
	DB	025H
	DB	021H
	DB	045H
	DB	021H
	DB	045H
	DB	021H
	DB	025H
	DB	021H
	DB	025H
	DB	021H
	DB	025H
	DB	021H
	DB	024H
	DB	021H
	DB	025H
	DB	021H
	DB	025H
	DB	021H
	DB	025H
	DB	021H
	DB	065H
	DB	029H
	DB	0c7H
	DB	031H
	DB	08H
	DB	03aH
	DB	049H
	DB	042H
	DB	066H
	DB	029H
	DB	045H
	DB	021H
	DB	066H
	DB	029H
	DB	086H
	DB	029H
	DB	066H
	DB	029H
	DB	066H
	DB	029H
	DB	066H
	DB	021H
	DB	066H
	DB	029H
	DB	066H
	DB	029H
	DB	086H
	DB	029H
	DB	066H
	DB	029H
	DB	066H
	DB	029H
	DB	086H
	DB	029H
	DB	086H
	DB	029H
	DB	086H
	DB	029H
	DB	086H
	DB	029H
	DB	066H
	DB	029H
	DB	045H
	DB	021H
	DB	086H
	DB	029H
	DB	086H
	DB	029H
	DB	066H
	DB	029H
	DB	066H
	DB	029H
	DB	066H
	DB	029H
	DB	087H
	DB	029H
	DB	086H
	DB	029H
	DB	086H
	DB	029H
	DB	066H
	DB	029H
	DB	065H
	DB	021H
	DB	086H
	DB	029H
	DB	087H
	DB	029H
	DB	086H
	DB	029H
	DB	066H
	DB	029H
	DB	066H
	DB	029H
	DB	066H
	DB	029H
	DB	086H
	DB	029H
	DB	066H
	DB	029H
	DB	066H
	DB	029H
	DB	066H
	DB	029H
	DB	066H
	DB	021H
	DB	086H
	DB	029H
	DB	066H
	DB	029H
	DB	086H
	DB	029H
	DB	066H
	DB	029H
	DB	046H
	DB	029H
	DB	066H
	DB	021H
	DB	066H
	DB	029H
	DB	086H
	DB	029H
	DB	066H
	DB	029H
	DB	066H
	DB	029H
	DB	065H
	DB	029H
	DB	086H
	DB	029H
	DB	087H
	DB	029H
	DB	066H
	DB	029H
	DB	066H
	DB	029H
	DB	045H
	DB	021H
	DB	066H
	DB	029H
	DB	066H
	DB	029H
	DB	066H
	DB	029H
	DB	066H
	DB	021H
	DB	045H
	DB	021H
	DB	066H
	DB	029H
	DB	086H
	DB	029H
	DB	066H
	DB	029H
	DB	066H
	DB	029H
	DB	066H
	DB	029H
	DB	066H
	DB	029H
	DB	086H
	DB	029H
	DB	066H
	DB	029H
	DB	066H
	DB	029H
	DB	066H
	DB	021H
	DB	045H
	DB	021H
	DB	066H
	DB	029H
	DB	066H
	DB	029H
	DB	066H
	DB	029H
	DB	066H
	DB	029H
	DB	045H
	DB	021H
	DB	066H
	DB	029H
	DB	086H
	DB	029H
	DB	066H
	DB	029H
	DB	066H
	DB	029H
	DB	065H
	DB	029H
	DB	045H
	DB	021H
	DB	066H
	DB	029H
	DB	066H
	DB	029H
	DB	066H
	DB	021H
	DB	065H
	DB	021H
	DB	045H
	DB	021H
	DB	066H
	DB	029H
	DB	066H
	DB	029H
	DB	066H
	DB	021H
	DB	066H
	DB	029H
	DB	045H
	DB	021H
	DB	065H
	DB	021H
	DB	086H
	DB	029H
	DB	066H
	DB	029H
	DB	046H
	DB	029H
	DB	045H
	DB	021H
	DB	045H
	DB	021H
	DB	066H
	DB	029H
	DB	066H
	DB	029H
	DB	066H
	DB	029H
	DB	066H
	DB	029H
	DB	045H
	DB	021H
	DB	045H
	DB	029H
	DB	045H
	DB	029H
	DB	045H
	DB	021H
	DB	066H
	DB	029H
	DB	045H
	DB	021H
	DB	045H
	DB	029H
	DB	066H
	DB	029H
	DB	066H
	DB	029H
	DB	065H
	DB	021H
	DB	045H
	DB	021H
	DB	045H
	DB	021H
	DB	066H
	DB	029H
	DB	045H
	DB	021H
	DB	065H
	DB	021H
	DB	045H
	DB	021H
	DB	045H
	DB	021H
	DB	066H
	DB	029H
	DB	066H
	DB	029H
	DB	046H
	DB	029H
	DB	065H
	DB	029H
	DB	025H
	DB	021H
	DB	045H
	DB	021H
	DB	045H
	DB	029H
	DB	045H
	DB	021H
	DB	045H
	DB	021H
	DB	045H
	DB	021H
	DB	045H
	DB	021H
	DB	066H
	DB	029H
	DB	065H
	DB	029H
	DB	045H
	DB	021H
	DB	045H
	DB	021H
	DB	025H
	DB	021H
	DB	045H
	DB	029H
	DB	045H
	DB	021H
	DB	045H
	DB	029H
	DB	045H
	DB	021H
	DB	025H
	DB	021H
	DB	045H
	DB	021H
	DB	065H
	DB	029H
	DB	045H
	DB	029H
	DB	045H
	DB	021H
	DB	025H
	DB	021H
	DB	025H
	DB	021H
	DB	045H
	DB	021H
	DB	045H
	DB	021H
	DB	025H
	DB	021H
	DB	045H
	DB	021H
	DB	0c8H
	DB	031H
	DB	0e8H
	DB	031H
	DB	045H
	DB	021H
	DB	066H
	DB	029H
	DB	086H
	DB	029H
	DB	086H
	DB	029H
	DB	086H
	DB	029H
	DB	086H
	DB	029H
	DB	087H
	DB	029H
	DB	0a6H
	DB	029H
	DB	0a7H
	DB	031H
	DB	0a7H
	DB	029H
	DB	086H
	DB	029H
	DB	087H
	DB	029H
	DB	087H
	DB	029H
	DB	0a7H
	DB	031H
	DB	086H
	DB	029H
	DB	0a7H
	DB	029H
	DB	087H
	DB	029H
	DB	066H
	DB	029H
	DB	087H
	DB	029H
	DB	0c7H
	DB	031H
	DB	0a7H
	DB	029H
	DB	087H
	DB	029H
	DB	086H
	DB	029H
	DB	086H
	DB	029H
	DB	0a7H
	DB	031H
	DB	0a7H
	DB	031H
	DB	087H
	DB	029H
	DB	086H
	DB	029H
	DB	086H
	DB	029H
	DB	087H
	DB	029H
	DB	0a7H
	DB	031H
	DB	0a7H
	DB	031H
	DB	086H
	DB	029H
	DB	066H
	DB	029H
	DB	086H
	DB	029H
	DB	0a7H
	DB	029H
	DB	086H
	DB	029H
	DB	086H
	DB	029H
	DB	086H
	DB	029H
	DB	087H
	DB	029H
	DB	0a7H
	DB	031H
	DB	087H
	DB	029H
	DB	087H
	DB	029H
	DB	066H
	DB	029H
	DB	066H
	DB	021H
	DB	086H
	DB	029H
	DB	0a7H
	DB	031H
	DB	086H
	DB	029H
	DB	086H
	DB	029H
	DB	066H
	DB	029H
	DB	066H
	DB	029H
	DB	0a7H
	DB	031H
	DB	087H
	DB	029H
	DB	086H
	DB	029H
	DB	086H
	DB	029H
	DB	086H
	DB	029H
	DB	087H
	DB	029H
	DB	086H
	DB	029H
	DB	086H
	DB	029H
	DB	066H
	DB	029H
	DB	066H
	DB	029H
	DB	086H
	DB	029H
	DB	086H
	DB	029H
	DB	086H
	DB	029H
	DB	086H
	DB	029H
	DB	066H
	DB	029H
	DB	066H
	DB	029H
	DB	087H
	DB	029H
	DB	086H
	DB	029H
	DB	086H
	DB	029H
	DB	066H
	DB	029H
	DB	066H
	DB	029H
	DB	086H
	DB	029H
	DB	086H
	DB	029H
	DB	066H
	DB	029H
	DB	086H
	DB	029H
	DB	086H
	DB	029H
	DB	086H
	DB	029H
	DB	087H
	DB	029H
	DB	087H
	DB	029H
	DB	086H
	DB	029H
	DB	066H
	DB	029H
	DB	066H
	DB	029H
	DB	086H
	DB	029H
	DB	087H
	DB	029H
	DB	086H
	DB	029H
	DB	066H
	DB	029H
	DB	066H
	DB	029H
	DB	086H
	DB	029H
	DB	066H
	DB	029H
	DB	086H
	DB	029H
	DB	066H
	DB	029H
	DB	045H
	DB	021H
	DB	086H
	DB	029H
	DB	087H
	DB	031H
	DB	066H
	DB	029H
	DB	086H
	DB	029H
	DB	066H
	DB	029H
	DB	066H
	DB	029H
	DB	086H
	DB	029H
	DB	066H
	DB	029H
	DB	066H
	DB	029H
	DB	066H
	DB	021H
	DB	066H
	DB	029H
	DB	086H
	DB	029H
	DB	066H
	DB	029H
	DB	066H
	DB	029H
	DB	066H
	DB	029H
	DB	066H
	DB	021H
	DB	066H
	DB	029H
	DB	086H
	DB	029H
	DB	086H
	DB	029H
	DB	066H
	DB	029H
	DB	045H
	DB	021H
	DB	066H
	DB	029H
	DB	086H
	DB	029H
	DB	066H
	DB	029H
	DB	066H
	DB	029H
	DB	066H
	DB	029H
	DB	066H
	DB	029H
	DB	066H
	DB	029H
	DB	066H
	DB	029H
	DB	066H
	DB	029H
	DB	066H
	DB	029H
	DB	045H
	DB	021H
	DB	066H
	DB	029H
	DB	086H
	DB	029H
	DB	066H
	DB	029H
	DB	066H
	DB	029H
	DB	066H
	DB	029H
	DB	066H
	DB	029H
	DB	066H
	DB	029H
	DB	066H
	DB	029H
	DB	066H
	DB	021H
	DB	045H
	DB	021H
	DB	066H
	DB	029H
	DB	066H
	DB	029H
	DB	066H
	DB	029H
	DB	066H
	DB	021H
	DB	045H
	DB	029H
	DB	065H
	DB	021H
	DB	066H
	DB	029H
	DB	066H
	DB	029H
	DB	046H
	DB	021H
	DB	065H
	DB	021H
	DB	045H
	DB	021H
	DB	045H
	DB	021H
	DB	045H
	DB	029H
	DB	025H
	DB	021H
	DB	025H
	DB	021H
	DB	0a7H
	DB	029H
	DB	0a7H
	DB	031H
	DB	066H
	DB	029H
	DB	086H
	DB	029H
	DB	066H
	DB	029H
	DB	087H
	DB	029H
	DB	0a7H
	DB	031H
	DB	0a7H
	DB	031H
	DB	0c7H
	DB	031H
	DB	0a7H
	DB	031H
	DB	0a7H
	DB	031H
	DB	0c7H
	DB	031H
	DB	087H
	DB	029H
	DB	0a7H
	DB	031H
	DB	0c7H
	DB	031H
	DB	0a7H
	DB	031H
	DB	0a7H
	DB	031H
	DB	086H
	DB	029H
	DB	0a7H
	DB	031H
	DB	0e8H
	DB	031H
	DB	0a7H
	DB	031H
	DB	0a7H
	DB	031H
	DB	0a7H
	DB	031H
	DB	086H
	DB	029H
	DB	0a7H
	DB	031H
	DB	0a7H
	DB	029H
	DB	086H
	DB	029H
	DB	0a7H
	DB	031H
	DB	0a7H
	DB	031H
	DB	0a7H
	DB	031H
	DB	0a7H
	DB	031H
	DB	086H
	DB	029H
	DB	0a7H
	DB	031H
	DB	0a7H
	DB	031H
	DB	0a7H
	DB	029H
	DB	0a7H
	DB	031H
	DB	086H
	DB	029H
	DB	087H
	DB	029H
	DB	0c7H
	DB	031H
	DB	0a7H
	DB	031H
	DB	0c7H
	DB	031H
	DB	0a7H
	DB	031H
	DB	086H
	DB	029H
	DB	0a7H
	DB	031H
	DB	0a7H
	DB	031H
	DB	0a7H
	DB	031H
	DB	0a7H
	DB	031H
	DB	086H
	DB	029H
	DB	0a7H
	DB	031H
	DB	0a7H
	DB	031H
	DB	0c7H
	DB	031H
	DB	0a7H
	DB	031H
	DB	086H
	DB	029H
	DB	086H
	DB	029H
	DB	0a7H
	DB	031H
	DB	086H
	DB	029H
	DB	0a7H
	DB	031H
	DB	0a7H
	DB	029H
	DB	086H
	DB	029H
	DB	0c7H
	DB	031H
	DB	086H
	DB	029H
	DB	086H
	DB	029H
	DB	0a7H
	DB	031H
	DB	086H
	DB	029H
	DB	0a7H
	DB	031H
	DB	087H
	DB	029H
	DB	086H
	DB	029H
	DB	0a7H
	DB	031H
	DB	066H
	DB	029H
	DB	086H
	DB	029H
	DB	0a7H
	DB	031H
	DB	086H
	DB	029H
	DB	087H
	DB	029H
	DB	086H
	DB	029H
	DB	086H
	DB	029H
	DB	0a7H
	DB	029H
	DB	0a7H
	DB	031H
	DB	0a7H
	DB	029H
	DB	0a7H
	DB	031H
	DB	066H
	DB	029H
	DB	086H
	DB	029H
	DB	0a7H
	DB	031H
	DB	086H
	DB	029H
	DB	086H
	DB	029H
	DB	086H
	DB	029H
	DB	086H
	DB	029H
	DB	087H
	DB	031H
	DB	087H
	DB	029H
	DB	0a7H
	DB	031H
	DB	086H
	DB	029H
	DB	066H
	DB	029H
	DB	087H
	DB	029H
	DB	086H
	DB	029H
	DB	086H
	DB	029H
	DB	086H
	DB	029H
	DB	086H
	DB	029H
	DB	087H
	DB	029H
	DB	087H
	DB	029H
	DB	086H
	DB	029H
	DB	087H
	DB	029H
	DB	086H
	DB	029H
	DB	086H
	DB	029H
	DB	086H
	DB	029H
	DB	066H
	DB	029H
	DB	086H
	DB	029H
	DB	086H
	DB	029H
	DB	066H
	DB	029H
	DB	0a7H
	DB	029H
	DB	087H
	DB	029H
	DB	086H
	DB	029H
	DB	086H
	DB	029H
	DB	066H
	DB	029H
	DB	086H
	DB	029H
	DB	087H
	DB	029H
	DB	086H
	DB	029H
	DB	086H
	DB	029H
	DB	066H
	DB	029H
	DB	066H
	DB	029H
	DB	086H
	DB	029H
	DB	066H
	DB	029H
	DB	086H
	DB	029H
	DB	066H
	DB	029H
	DB	066H
	DB	029H
	DB	086H
	DB	029H
	DB	066H
	DB	029H
	DB	086H
	DB	029H
	DB	086H
	DB	029H
	DB	066H
	DB	029H
	DB	086H
	DB	029H
	DB	066H
	DB	029H
	DB	066H
	DB	029H
	DB	086H
	DB	029H
	DB	066H
	DB	029H
	DB	066H
	DB	029H
	DB	086H
	DB	029H
	DB	046H
	DB	029H
	DB	086H
	DB	029H
	DB	086H
	DB	029H
	DB	046H
	DB	021H
	DB	086H
	DB	029H
	DB	086H
	DB	029H
	DB	086H
	DB	029H
	DB	066H
	DB	029H
	DB	046H
	DB	021H
	DB	066H
	DB	029H
	DB	086H
	DB	029H
	DB	066H
	DB	029H
	DB	086H
	DB	029H
	DB	046H
	DB	029H
	DB	065H
	DB	021H
	DB	066H
	DB	029H
	DB	045H
	DB	021H
	DB	066H
	DB	029H
	DB	086H
	DB	029H
	DB	0a7H
	DB	029H
	DB	086H
	DB	029H
	DB	0a7H
	DB	031H
	DB	087H
	DB	029H
	DB	0c7H
	DB	031H
	DB	0e8H
	DB	039H
	DB	0c7H
	DB	031H
	DB	0a7H
	DB	031H
	DB	0a7H
	DB	031H
	DB	0a7H
	DB	029H
	DB	0c7H
	DB	031H
	DB	0c7H
	DB	031H
	DB	0c7H
	DB	031H
	DB	0c7H
	DB	031H
	DB	0a7H
	DB	031H
	DB	0a7H
	DB	031H
	DB	0c8H
	DB	031H
	DB	0c7H
	DB	031H
	DB	0a7H
	DB	031H
	DB	0a7H
	DB	029H
	DB	0a7H
	DB	031H
	DB	0c8H
	DB	031H
	DB	0a7H
	DB	031H
	DB	0c7H
	DB	031H
	DB	0a7H
	DB	031H
	DB	086H
	DB	029H
	DB	0c7H
	DB	031H
	DB	0c7H
	DB	031H
	DB	0a7H
	DB	031H
	DB	0c7H
	DB	031H
	DB	0a7H
	DB	029H
	DB	0a7H
	DB	031H
	DB	0c7H
	DB	031H
	DB	0a7H
	DB	031H
	DB	0c7H
	DB	031H
	DB	0a7H
	DB	031H
	DB	0a7H
	DB	029H
	DB	0c7H
	DB	031H
	DB	0c7H
	DB	031H
	DB	0a7H
	DB	031H
	DB	0a7H
	DB	029H
	DB	086H
	DB	029H
	DB	0c7H
	DB	031H
	DB	0c8H
	DB	031H
	DB	0c7H
	DB	031H
	DB	0a7H
	DB	029H
	DB	086H
	DB	029H
	DB	0a7H
	DB	031H
	DB	0c8H
	DB	031H
	DB	0c7H
	DB	031H
	DB	0a7H
	DB	029H
	DB	0a7H
	DB	029H
	DB	0a7H
	DB	031H
	DB	0c7H
	DB	031H
	DB	0a7H
	DB	031H
	DB	0a7H
	DB	031H
	DB	0a7H
	DB	029H
	DB	0a6H
	DB	029H
	DB	0c8H
	DB	039H
	DB	0c7H
	DB	031H
	DB	0a7H
	DB	031H
	DB	0c7H
	DB	031H
	DB	086H
	DB	029H
	DB	087H
	DB	029H
	DB	0a7H
	DB	031H
	DB	0a7H
	DB	029H
	DB	0a7H
	DB	031H
	DB	0a6H
	DB	029H
	DB	0a7H
	DB	029H
	DB	0c7H
	DB	031H
	DB	0a7H
	DB	031H
	DB	0a7H
	DB	031H
	DB	0a7H
	DB	029H
	DB	087H
	DB	029H
	DB	0c7H
	DB	031H
	DB	0a7H
	DB	031H
	DB	0a7H
	DB	029H
	DB	0a7H
	DB	031H
	DB	086H
	DB	029H
	DB	086H
	DB	029H
	DB	0a7H
	DB	031H
	DB	0a7H
	DB	031H
	DB	0a7H
	DB	029H
	DB	066H
	DB	029H
	DB	086H
	DB	029H
	DB	0c7H
	DB	031H
	DB	0a7H
	DB	031H
	DB	0a7H
	DB	029H
	DB	087H
	DB	029H
	DB	066H
	DB	029H
	DB	0a7H
	DB	031H
	DB	0c7H
	DB	031H
	DB	0a7H
	DB	029H
	DB	0a7H
	DB	031H
	DB	086H
	DB	029H
	DB	0a7H
	DB	031H
	DB	0c7H
	DB	031H
	DB	0a7H
	DB	029H
	DB	0a7H
	DB	031H
	DB	086H
	DB	029H
	DB	086H
	DB	029H
	DB	0a7H
	DB	029H
	DB	0a7H
	DB	029H
	DB	0a7H
	DB	029H
	DB	086H
	DB	029H
	DB	086H
	DB	029H
	DB	0a7H
	DB	031H
	DB	0a7H
	DB	031H
	DB	0a6H
	DB	029H
	DB	0a7H
	DB	029H
	DB	066H
	DB	029H
	DB	086H
	DB	029H
	DB	0a7H
	DB	031H
	DB	087H
	DB	029H
	DB	086H
	DB	029H
	DB	086H
	DB	029H
	DB	086H
	DB	029H
	DB	0a7H
	DB	029H
	DB	086H
	DB	029H
	DB	0a7H
	DB	029H
	DB	086H
	DB	029H
	DB	086H
	DB	029H
	DB	087H
	DB	029H
	DB	086H
	DB	029H
	DB	087H
	DB	029H
	DB	086H
	DB	029H
	DB	066H
	DB	029H
	DB	086H
	DB	029H
	DB	0a7H
	DB	029H
	DB	086H
	DB	029H
	DB	086H
	DB	029H
	DB	066H
	DB	029H
	DB	066H
	DB	029H
	DB	0a7H
	DB	029H
	DB	086H
	DB	029H
	DB	086H
	DB	029H
	DB	086H
	DB	029H
	DB	066H
	DB	029H
	DB	0a7H
	DB	031H
	DB	086H
	DB	029H
	DB	086H
	DB	029H
	DB	086H
	DB	029H
	DB	066H
	DB	029H
	DB	087H
	DB	029H
	DB	0a7H
	DB	031H
	DB	066H
	DB	029H
	DB	086H
	DB	029H
	DB	046H
	DB	021H
	DB	045H
	DB	021H
	DB	066H
	DB	029H
	DB	045H
	DB	021H
	DB	066H
	DB	029H
	DB	087H
	DB	031H
	DB	0c7H
	DB	031H
	DB	0a7H
	DB	031H
	DB	0a7H
	DB	029H
	DB	0a7H
	DB	031H
	DB	0c7H
	DB	029H
	DB	0e8H
	DB	031H
	DB	0c7H
	DB	031H
	DB	0c7H
	DB	031H
	DB	0c8H
	DB	031H
	DB	0c7H
	DB	031H
	DB	0c7H
	DB	039H
	DB	0c8H
	DB	031H
	DB	0c7H
	DB	031H
	DB	0a7H
	DB	031H
	DB	0a7H
	DB	031H
	DB	0c7H
	DB	031H
	DB	0e8H
	DB	031H
	DB	0c7H
	DB	031H
	DB	0a7H
	DB	031H
	DB	0a7H
	DB	031H
	DB	0c7H
	DB	031H
	DB	0e8H
	DB	031H
	DB	0c7H
	DB	031H
	DB	0c8H
	DB	031H
	DB	0c7H
	DB	031H
	DB	0a7H
	DB	031H
	DB	0c8H
	DB	031H
	DB	0c8H
	DB	031H
	DB	0c7H
	DB	031H
	DB	0c8H
	DB	031H
	DB	0a7H
	DB	031H
	DB	0c7H
	DB	031H
	DB	0c8H
	DB	031H
	DB	0a7H
	DB	031H
	DB	0a7H
	DB	031H
	DB	0c7H
	DB	031H
	DB	0a7H
	DB	031H
	DB	0c8H
	DB	031H
	DB	0c7H
	DB	031H
	DB	0a7H
	DB	031H
	DB	0c7H
	DB	031H
	DB	0a7H
	DB	031H
	DB	0c7H
	DB	031H
	DB	0c7H
	DB	031H
	DB	0c7H
	DB	031H
	DB	0a7H
	DB	031H
	DB	087H
	DB	029H
	DB	0c7H
	DB	031H
	DB	0c7H
	DB	031H
	DB	0c7H
	DB	031H
	DB	0c8H
	DB	031H
	DB	0a7H
	DB	031H
	DB	0a7H
	DB	031H
	DB	0e7H
	DB	031H
	DB	0a7H
	DB	031H
	DB	0c7H
	DB	031H
	DB	0c8H
	DB	031H
	DB	0a7H
	DB	031H
	DB	0c8H
	DB	031H
	DB	0c7H
	DB	031H
	DB	0c7H
	DB	031H
	DB	0c8H
	DB	031H
	DB	0a7H
	DB	031H
	DB	0a7H
	DB	031H
	DB	0c7H
	DB	031H
	DB	0a7H
	DB	031H
	DB	0a7H
	DB	031H
	DB	0a7H
	DB	029H
	DB	0a7H
	DB	031H
	DB	0c7H
	DB	031H
	DB	0a7H
	DB	031H
	DB	0a7H
	DB	031H
	DB	0a7H
	DB	031H
	DB	0a7H
	DB	029H
	DB	0a7H
	DB	031H
	DB	0c7H
	DB	031H
	DB	0a7H
	DB	031H
	DB	0a7H
	DB	031H
	DB	0a7H
	DB	029H
	DB	0a7H
	DB	031H
	DB	0c7H
	DB	031H
	DB	0a7H
	DB	031H
	DB	0c7H
	DB	031H
	DB	0a7H
	DB	029H
	DB	087H
	DB	031H
	DB	0c7H
	DB	031H
	DB	0a7H
	DB	031H
	DB	0a7H
	DB	031H
	DB	0a7H
	DB	031H
	DB	0a6H
	DB	029H
	DB	0a7H
	DB	031H
	DB	0a7H
	DB	031H
	DB	087H
	DB	029H
	DB	086H
	DB	029H
	DB	0a6H
	DB	029H
	DB	0a7H
	DB	031H
	DB	0a7H
	DB	031H
	DB	0a7H
	DB	031H
	DB	0a7H
	DB	031H
	DB	0a7H
	DB	031H
	DB	086H
	DB	029H
	DB	0a7H
	DB	031H
	DB	0a6H
	DB	031H
	DB	086H
	DB	029H
	DB	087H
	DB	031H
	DB	0a7H
	DB	029H
	DB	0a7H
	DB	031H
	DB	0a7H
	DB	031H
	DB	087H
	DB	029H
	DB	0a7H
	DB	031H
	DB	086H
	DB	029H
	DB	0a7H
	DB	029H
	DB	0a7H
	DB	031H
	DB	087H
	DB	029H
	DB	086H
	DB	029H
	DB	086H
	DB	029H
	DB	086H
	DB	029H
	DB	0a7H
	DB	031H
	DB	0a6H
	DB	029H
	DB	0a7H
	DB	031H
	DB	0a7H
	DB	029H
	DB	086H
	DB	029H
	DB	0a7H
	DB	031H
	DB	0a7H
	DB	031H
	DB	086H
	DB	029H
	DB	087H
	DB	029H
	DB	086H
	DB	029H
	DB	087H
	DB	029H
	DB	0a7H
	DB	031H
	DB	086H
	DB	029H
	DB	086H
	DB	029H
	DB	086H
	DB	029H
	DB	086H
	DB	029H
	DB	087H
	DB	031H
	DB	086H
	DB	029H
	DB	087H
	DB	029H
	DB	086H
	DB	029H
	DB	086H
	DB	029H
	DB	0a7H
	DB	031H
	DB	0a7H
	DB	029H
	DB	086H
	DB	029H
	DB	086H
	DB	029H
	DB	086H
	DB	029H
	DB	086H
	DB	029H
	DB	0a7H
	DB	029H
	DB	086H
	DB	029H
	DB	086H
	DB	029H
	DB	045H
	DB	021H
	DB	045H
	DB	021H
	DB	065H
	DB	029H
	DB	086H
	DB	029H
	DB	086H
	DB	029H
	DB	0a7H
	DB	029H
	DB	0c7H
	DB	031H
	DB	0c7H
	DB	031H
	DB	0c7H
	DB	031H
	DB	0a7H
	DB	031H
	DB	0c7H
	DB	031H
	DB	0e8H
	DB	039H
	DB	08H
	DB	03aH
	DB	0e8H
	DB	031H
	DB	0c8H
	DB	031H
	DB	0a7H
	DB	031H
	DB	0c8H
	DB	031H
	DB	0c7H
	DB	031H
	DB	0c8H
	DB	031H
	DB	0c8H
	DB	031H
	DB	0a7H
	DB	031H
	DB	0a7H
	DB	031H
	DB	0c7H
	DB	031H
	DB	0e8H
	DB	031H
	DB	0e7H
	DB	031H
	DB	0a7H
	DB	031H
	DB	0c7H
	DB	031H
	DB	0c8H
	DB	031H
	DB	0e8H
	DB	031H
	DB	0e8H
	DB	039H
	DB	0a7H
	DB	031H
	DB	0c7H
	DB	031H
	DB	0e8H
	DB	031H
	DB	0c7H
	DB	031H
	DB	0e8H
	DB	031H
	DB	0c7H
	DB	031H
	DB	0a7H
	DB	031H
	DB	0c7H
	DB	031H
	DB	0c7H
	DB	031H
	DB	0c7H
	DB	031H
	DB	0c7H
	DB	031H
	DB	0c7H
	DB	031H
	DB	0c7H
	DB	031H
	DB	0c8H
	DB	031H
	DB	0a7H
	DB	031H
	DB	0e8H
	DB	031H
	DB	0c7H
	DB	031H
	DB	0a7H
	DB	031H
	DB	0a7H
	DB	031H
	DB	0c8H
	DB	031H
	DB	0c8H
	DB	031H
	DB	0a7H
	DB	031H
	DB	0a7H
	DB	031H
	DB	0c8H
	DB	031H
	DB	0c8H
	DB	031H
	DB	0c7H
	DB	031H
	DB	0a7H
	DB	031H
	DB	0a7H
	DB	031H
	DB	0a7H
	DB	031H
	DB	0e8H
	DB	031H
	DB	0c8H
	DB	031H
	DB	0c7H
	DB	031H
	DB	0a7H
	DB	031H
	DB	0a7H
	DB	031H
	DB	0c7H
	DB	031H
	DB	0c7H
	DB	031H
	DB	0c7H
	DB	031H
	DB	0c7H
	DB	031H
	DB	0a7H
	DB	029H
	DB	0a7H
	DB	031H
	DB	0e8H
	DB	039H
	DB	0c8H
	DB	031H
	DB	0a7H
	DB	031H
	DB	0a7H
	DB	031H
	DB	0a7H
	DB	029H
	DB	0c7H
	DB	031H
	DB	0c7H
	DB	031H
	DB	0c7H
	DB	031H
	DB	0a7H
	DB	031H
	DB	0a7H
	DB	031H
	DB	0c7H
	DB	031H
	DB	0c7H
	DB	031H
	DB	0c7H
	DB	031H
	DB	0a7H
	DB	031H
	DB	087H
	DB	029H
	DB	0a7H
	DB	031H
	DB	0c8H
	DB	031H
	DB	0c8H
	DB	031H
	DB	0c7H
	DB	031H
	DB	0a7H
	DB	029H
	DB	0a7H
	DB	029H
	DB	0e7H
	DB	031H
	DB	0c7H
	DB	031H
	DB	0a7H
	DB	031H
	DB	0a7H
	DB	029H
	DB	087H
	DB	031H
	DB	0a7H
	DB	031H
	DB	0a7H
	DB	031H
	DB	0a7H
	DB	031H
	DB	0a7H
	DB	031H
	DB	086H
	DB	029H
	DB	087H
	DB	029H
	DB	0a7H
	DB	031H
	DB	0a7H
	DB	031H
	DB	0c7H
	DB	031H
	DB	087H
	DB	029H
	DB	087H
	DB	029H
	DB	0a7H
	DB	031H
	DB	0a7H
	DB	031H
	DB	0c7H
	DB	031H
	DB	0a7H
	DB	031H
	DB	0a7H
	DB	029H
	DB	086H
	DB	031H
	DB	0a7H
	DB	031H
	DB	0c7H
	DB	031H
	DB	0a7H
	DB	031H
	DB	086H
	DB	029H
	DB	086H
	DB	029H
	DB	0a7H
	DB	031H
	DB	0a7H
	DB	031H
	DB	0a7H
	DB	031H
	DB	087H
	DB	029H
	DB	086H
	DB	029H
	DB	0a7H
	DB	031H
	DB	0a7H
	DB	031H
	DB	0a7H
	DB	031H
	DB	0a7H
	DB	031H
	DB	086H
	DB	029H
	DB	086H
	DB	029H
	DB	0a7H
	DB	031H
	DB	0a7H
	DB	031H
	DB	086H
	DB	029H
	DB	086H
	DB	029H
	DB	0a7H
	DB	031H
	DB	0a7H
	DB	031H
	DB	086H
	DB	029H
	DB	087H
	DB	029H
	DB	086H
	DB	029H
	DB	087H
	DB	031H
	DB	0a7H
	DB	031H
	DB	0a7H
	DB	031H
	DB	087H
	DB	029H
	DB	086H
	DB	029H
	DB	086H
	DB	029H
	DB	087H
	DB	031H
	DB	086H
	DB	029H
	DB	0a7H
	DB	031H
	DB	087H
	DB	031H
	DB	066H
	DB	029H
	DB	086H
	DB	029H
	DB	087H
	DB	031H
	DB	086H
	DB	029H
	DB	066H
	DB	029H
	DB	045H
	DB	021H
	DB	045H
	DB	021H
	DB	086H
	DB	029H
	DB	0a7H
	DB	029H
	DB	086H
	DB	029H
	DB	0c7H
	DB	031H
	DB	0e8H
	DB	039H
	DB	0c8H
	DB	031H
	DB	0e8H
	DB	031H
	DB	0a7H
	DB	031H
	DB	0e8H
	DB	031H
	DB	029H
	DB	03aH
	DB	0c8H
	DB	039H
	DB	0e8H
	DB	031H
	DB	0c7H
	DB	031H
	DB	0c7H
	DB	031H
	DB	0e8H
	DB	031H
	DB	0e8H
	DB	031H
	DB	0e7H
	DB	031H
	DB	0c7H
	DB	031H
	DB	0a7H
	DB	031H
	DB	0e8H
	DB	031H
	DB	08H
	DB	03aH
	DB	0e8H
	DB	039H
	DB	0e8H
	DB	039H
	DB	0c7H
	DB	031H
	DB	0a7H
	DB	031H
	DB	0e8H
	DB	039H
	DB	0e8H
	DB	031H
	DB	0c8H
	DB	031H
	DB	0a7H
	DB	031H
	DB	0a7H
	DB	031H
	DB	0e8H
	DB	031H
	DB	0c8H
	DB	031H
	DB	0c8H
	DB	031H
	DB	0e7H
	DB	031H
	DB	0a7H
	DB	029H
	DB	0e8H
	DB	031H
	DB	08H
	DB	03aH
	DB	0e8H
	DB	031H
	DB	0c8H
	DB	031H
	DB	0a7H
	DB	031H
	DB	0c7H
	DB	031H
	DB	0e8H
	DB	039H
	DB	0e7H
	DB	031H
	DB	0c8H
	DB	031H
	DB	0c8H
	DB	031H
	DB	0c7H
	DB	031H
	DB	0e8H
	DB	031H
	DB	0e8H
	DB	039H
	DB	0e7H
	DB	031H
	DB	0a7H
	DB	031H
	DB	087H
	DB	029H
	DB	0c7H
	DB	031H
	DB	0e8H
	DB	039H
	DB	0c8H
	DB	031H
	DB	0c7H
	DB	031H
	DB	0a7H
	DB	029H
	DB	0c7H
	DB	031H
	DB	0e8H
	DB	031H
	DB	0a7H
	DB	031H
	DB	0c7H
	DB	031H
	DB	0a7H
	DB	029H
	DB	0a7H
	DB	031H
	DB	0e8H
	DB	031H
	DB	0c8H
	DB	031H
	DB	0c7H
	DB	031H
	DB	0c7H
	DB	031H
	DB	0a7H
	DB	029H
	DB	0e8H
	DB	031H
	DB	0e8H
	DB	039H
	DB	0c7H
	DB	031H
	DB	0c7H
	DB	031H
	DB	0a7H
	DB	029H
	DB	0c7H
	DB	031H
	DB	0e8H
	DB	031H
	DB	0c7H
	DB	031H
	DB	0c7H
	DB	031H
	DB	0a7H
	DB	029H
	DB	0a7H
	DB	029H
	DB	0c8H
	DB	031H
	DB	0c7H
	DB	031H
	DB	0c7H
	DB	031H
	DB	0a7H
	DB	029H
	DB	087H
	DB	029H
	DB	0c7H
	DB	031H
	DB	0e8H
	DB	031H
	DB	0c7H
	DB	031H
	DB	0a7H
	DB	031H
	DB	086H
	DB	029H
	DB	0c8H
	DB	031H
	DB	0e8H
	DB	039H
	DB	0e7H
	DB	031H
	DB	0a7H
	DB	031H
	DB	0a7H
	DB	029H
	DB	086H
	DB	029H
	DB	0c7H
	DB	031H
	DB	0c8H
	DB	031H
	DB	0a7H
	DB	031H
	DB	0a7H
	DB	031H
	DB	086H
	DB	029H
	DB	0a7H
	DB	031H
	DB	0e8H
	DB	031H
	DB	0a7H
	DB	031H
	DB	0c7H
	DB	031H
	DB	086H
	DB	029H
	DB	0a7H
	DB	031H
	DB	0e8H
	DB	031H
	DB	0c7H
	DB	031H
	DB	0c7H
	DB	031H
	DB	086H
	DB	029H
	DB	087H
	DB	029H
	DB	0c7H
	DB	031H
	DB	0c7H
	DB	031H
	DB	0a7H
	DB	031H
	DB	0a7H
	DB	031H
	DB	086H
	DB	029H
	DB	0a7H
	DB	029H
	DB	0c7H
	DB	031H
	DB	0c7H
	DB	031H
	DB	0a7H
	DB	031H
	DB	086H
	DB	029H
	DB	0a7H
	DB	029H
	DB	0a7H
	DB	031H
	DB	0a7H
	DB	031H
	DB	0a7H
	DB	029H
	DB	0a6H
	DB	029H
	DB	066H
	DB	029H
	DB	0a7H
	DB	031H
	DB	0a7H
	DB	031H
	DB	0a7H
	DB	029H
	DB	087H
	DB	029H
	DB	086H
	DB	029H
	DB	0a7H
	DB	031H
	DB	0c7H
	DB	031H
	DB	0c7H
	DB	031H
	DB	0a7H
	DB	029H
	DB	086H
	DB	029H
	DB	086H
	DB	029H
	DB	0a7H
	DB	031H
	DB	0a7H
	DB	031H
	DB	0a7H
	DB	029H
	DB	066H
	DB	029H
	DB	086H
	DB	029H
	DB	0a7H
	DB	031H
	DB	0a7H
	DB	031H
	DB	0a7H
	DB	029H
	DB	086H
	DB	029H
	DB	0a7H
	DB	029H
	DB	0a7H
	DB	031H
	DB	087H
	DB	031H
	DB	066H
	DB	029H
	DB	066H
	DB	029H
	DB	025H
	DB	021H
	DB	0a7H
	DB	031H
	DB	0a7H
	DB	031H
	DB	0c7H
	DB	031H
	DB	0a7H
	DB	031H
	DB	0c8H
	DB	031H
	DB	0e8H
	DB	031H
	DB	0e8H
	DB	031H
	DB	0c8H
	DB	031H
	DB	0c7H
	DB	031H
	DB	0c7H
	DB	031H
	DB	0e8H
	DB	039H
	DB	0e8H
	DB	031H
	DB	0e8H
	DB	031H
	DB	0c7H
	DB	031H
	DB	0a7H
	DB	031H
	DB	08H
	DB	03aH
	DB	0e8H
	DB	039H
	DB	0e8H
	DB	031H
	DB	0e8H
	DB	031H
	DB	0a7H
	DB	031H
	DB	0e8H
	DB	031H
	DB	08H
	DB	03aH
	DB	0c8H
	DB	031H
	DB	0c8H
	DB	031H
	DB	0a7H
	DB	031H
	DB	0c7H
	DB	031H
	DB	0e8H
	DB	031H
	DB	0e8H
	DB	031H
	DB	0c7H
	DB	031H
	DB	0c7H
	DB	031H
	DB	0a7H
	DB	031H
	DB	0e8H
	DB	031H
	DB	0c8H
	DB	031H
	DB	0c7H
	DB	031H
	DB	0c7H
	DB	031H
	DB	0a7H
	DB	031H
	DB	0e8H
	DB	031H
	DB	0e8H
	DB	039H
	DB	0c8H
	DB	031H
	DB	0e8H
	DB	031H
	DB	0c7H
	DB	031H
	DB	0c7H
	DB	031H
	DB	0e8H
	DB	031H
	DB	0c7H
	DB	031H
	DB	0e8H
	DB	031H
	DB	0e7H
	DB	031H
	DB	0a7H
	DB	031H
	DB	0e8H
	DB	031H
	DB	0e8H
	DB	031H
	DB	0c7H
	DB	031H
	DB	0c7H
	DB	031H
	DB	0a7H
	DB	029H
	DB	0c7H
	DB	031H
	DB	0e8H
	DB	031H
	DB	0c7H
	DB	031H
	DB	0c8H
	DB	031H
	DB	0a7H
	DB	031H
	DB	0c7H
	DB	031H
	DB	0e8H
	DB	031H
	DB	0c7H
	DB	031H
	DB	0c7H
	DB	031H
	DB	0c8H
	DB	031H
	DB	0a7H
	DB	031H
	DB	0c8H
	DB	031H
	DB	0c8H
	DB	031H
	DB	0c7H
	DB	031H
	DB	0a7H
	DB	031H
	DB	0a7H
	DB	029H
	DB	0a7H
	DB	031H
	DB	0e7H
	DB	031H
	DB	0a7H
	DB	031H
	DB	0c8H
	DB	031H
	DB	0a7H
	DB	031H
	DB	0a7H
	DB	031H
	DB	0e8H
	DB	031H
	DB	0c7H
	DB	031H
	DB	0a7H
	DB	031H
	DB	0a7H
	DB	031H
	DB	0a7H
	DB	031H
	DB	0c8H
	DB	031H
	DB	0c7H
	DB	031H
	DB	0a7H
	DB	031H
	DB	0c7H
	DB	031H
	DB	0a7H
	DB	029H
	DB	0a7H
	DB	031H
	DB	0c7H
	DB	031H
	DB	0c7H
	DB	031H
	DB	0c7H
	DB	031H
	DB	0a7H
	DB	031H
	DB	0a7H
	DB	031H
	DB	0e8H
	DB	031H
	DB	0c7H
	DB	031H
	DB	0a7H
	DB	031H
	DB	0a7H
	DB	029H
	DB	0a7H
	DB	029H
	DB	0c7H
	DB	031H
	DB	0a7H
	DB	031H
	DB	0c7H
	DB	031H
	DB	0c7H
	DB	031H
	DB	0a7H
	DB	029H
	DB	0a7H
	DB	031H
	DB	0c7H
	DB	031H
	DB	0a7H
	DB	031H
	DB	0c7H
	DB	031H
	DB	0a7H
	DB	029H
	DB	0a7H
	DB	031H
	DB	0a7H
	DB	031H
	DB	0a7H
	DB	029H
	DB	0c7H
	DB	031H
	DB	0a7H
	DB	031H
	DB	0a7H
	DB	029H
	DB	0c7H
	DB	031H
	DB	0c7H
	DB	031H
	DB	0c7H
	DB	031H
	DB	0c7H
	DB	031H
	DB	087H
	DB	029H
	DB	0a7H
	DB	031H
	DB	0c7H
	DB	031H
	DB	086H
	DB	029H
	DB	0c7H
	DB	031H
	DB	087H
	DB	029H
	DB	0a6H
	DB	029H
	DB	0a7H
	DB	031H
	DB	0a7H
	DB	029H
	DB	0c7H
	DB	031H
	DB	0a7H
	DB	031H
	DB	087H
	DB	029H
	DB	0c7H
	DB	031H
	DB	0a7H
	DB	031H
	DB	0a7H
	DB	029H
	DB	0a7H
	DB	031H
	DB	086H
	DB	029H
	DB	0a7H
	DB	031H
	DB	0a7H
	DB	031H
	DB	066H
	DB	029H
	DB	0a7H
	DB	029H
	DB	0a7H
	DB	031H
	DB	086H
	DB	029H
	DB	0a7H
	DB	031H
	DB	0a7H
	DB	029H
	DB	086H
	DB	029H
	DB	0a7H
	DB	029H
	DB	086H
	DB	029H
	DB	0a7H
	DB	031H
	DB	087H
	DB	029H
	DB	086H
	DB	029H
	DB	0a6H
	DB	029H
	DB	086H
	DB	029H
	DB	087H
	DB	029H
	DB	086H
	DB	029H
	DB	046H
	DB	029H
	DB	066H
	DB	029H
	DB	086H
	DB	029H
	DB	0c7H
	DB	031H
	DB	0c8H
	DB	031H
	DB	0c7H
	DB	031H
	DB	0a7H
	DB	029H
	DB	0c7H
	DB	031H
	DB	08H
	DB	03aH
	DB	0c8H
	DB	031H
	DB	0c7H
	DB	031H
	DB	0c7H
	DB	031H
	DB	0a7H
	DB	031H
	DB	08H
	DB	03aH
	DB	0e8H
	DB	039H
	DB	0c7H
	DB	031H
	DB	0a7H
	DB	031H
	DB	0c7H
	DB	031H
	DB	0e8H
	DB	031H
	DB	0e8H
	DB	039H
	DB	0e8H
	DB	031H
	DB	0c7H
	DB	031H
	DB	0a7H
	DB	031H
	DB	0e8H
	DB	031H
	DB	08H
	DB	03aH
	DB	0c8H
	DB	031H
	DB	0c7H
	DB	031H
	DB	0c7H
	DB	031H
	DB	0a7H
	DB	031H
	DB	08H
	DB	03aH
	DB	08H
	DB	03aH
	DB	0c8H
	DB	031H
	DB	0c7H
	DB	031H
	DB	0c7H
	DB	031H
	DB	0c8H
	DB	031H
	DB	0c8H
	DB	039H
	DB	0e8H
	DB	031H
	DB	0c8H
	DB	031H
	DB	087H
	DB	029H
	DB	0c7H
	DB	031H
	DB	08H
	DB	03aH
	DB	0e8H
	DB	039H
	DB	0e8H
	DB	031H
	DB	0a7H
	DB	031H
	DB	0a7H
	DB	031H
	DB	08H
	DB	03aH
	DB	0c7H
	DB	031H
	DB	0c7H
	DB	031H
	DB	0c7H
	DB	031H
	DB	087H
	DB	029H
	DB	0e8H
	DB	031H
	DB	0e8H
	DB	039H
	DB	0c7H
	DB	031H
	DB	0e7H
	DB	031H
	DB	0a7H
	DB	029H
	DB	0a7H
	DB	031H
	DB	0e8H
	DB	039H
	DB	0e8H
	DB	031H
	DB	0c7H
	DB	031H
	DB	0a7H
	DB	031H
	DB	0a7H
	DB	031H
	DB	0e8H
	DB	031H
	DB	0c8H
	DB	031H
	DB	0c7H
	DB	031H
	DB	0a7H
	DB	031H
	DB	0a7H
	DB	031H
	DB	0c8H
	DB	031H
	DB	0e8H
	DB	031H
	DB	0c7H
	DB	031H
	DB	0a7H
	DB	031H
	DB	0a7H
	DB	029H
	DB	0a7H
	DB	031H
	DB	0c8H
	DB	031H
	DB	0c7H
	DB	031H
	DB	0c7H
	DB	031H
	DB	0a7H
	DB	031H
	DB	0a7H
	DB	031H
	DB	0e8H
	DB	031H
	DB	0c7H
	DB	031H
	DB	0c7H
	DB	031H
	DB	0c7H
	DB	031H
	DB	087H
	DB	029H
	DB	0c7H
	DB	031H
	DB	0c8H
	DB	031H
	DB	0a7H
	DB	031H
	DB	0a7H
	DB	031H
	DB	086H
	DB	029H
	DB	0c7H
	DB	031H
	DB	0e8H
	DB	039H
	DB	0c7H
	DB	031H
	DB	0a7H
	DB	031H
	DB	087H
	DB	029H
	DB	086H
	DB	029H
	DB	0c7H
	DB	031H
	DB	0c7H
	DB	031H
	DB	0a7H
	DB	031H
	DB	0a7H
	DB	029H
	DB	087H
	DB	029H
	DB	0a7H
	DB	031H
	DB	0e7H
	DB	031H
	DB	0c7H
	DB	031H
	DB	0a7H
	DB	031H
	DB	087H
	DB	029H
	DB	0a7H
	DB	029H
	DB	0a7H
	DB	031H
	DB	0c7H
	DB	031H
	DB	0c7H
	DB	031H
	DB	087H
	DB	029H
	DB	086H
	DB	029H
	DB	0c7H
	DB	031H
	DB	0c8H
	DB	031H
	DB	0a7H
	DB	031H
	DB	0a7H
	DB	031H
	DB	087H
	DB	029H
	DB	0c7H
	DB	031H
	DB	0c7H
	DB	031H
	DB	0a7H
	DB	031H
	DB	0a7H
	DB	031H
	DB	086H
	DB	029H
	DB	086H
	DB	029H
	DB	0c7H
	DB	031H
	DB	0a7H
	DB	031H
	DB	0a7H
	DB	031H
	DB	086H
	DB	029H
	DB	087H
	DB	029H
	DB	0c7H
	DB	031H
	DB	0c7H
	DB	031H
	DB	0a7H
	DB	031H
	DB	0a7H
	DB	029H
	DB	086H
	DB	029H
	DB	0c7H
	DB	031H
	DB	0a7H
	DB	031H
	DB	086H
	DB	029H
	DB	086H
	DB	029H
	DB	086H
	DB	029H
	DB	086H
	DB	029H
	DB	0a7H
	DB	031H
	DB	0a7H
	DB	031H
	DB	0a7H
	DB	031H
	DB	086H
	DB	029H
	DB	086H
	DB	029H
	DB	0a7H
	DB	031H
	DB	0a7H
	DB	031H
	DB	086H
	DB	029H
	DB	086H
	DB	029H
	DB	086H
	DB	029H
	DB	0a7H
	DB	031H
	DB	0a7H
	DB	031H
	DB	086H
	DB	029H
	DB	086H
	DB	029H
	DB	066H
	DB	029H
	DB	086H
	DB	029H
	DB	066H
	DB	029H
	DB	046H
	DB	021H
	DB	086H
	DB	029H
	DB	0c7H
	DB	031H
	DB	0e8H
	DB	039H
	DB	0c8H
	DB	031H
	DB	0c7H
	DB	031H
	DB	0a7H
	DB	031H
	DB	0e8H
	DB	039H
	DB	0e8H
	DB	039H
	DB	0c7H
	DB	031H
	DB	0c7H
	DB	031H
	DB	0c7H
	DB	031H
	DB	0c8H
	DB	031H
	DB	0e8H
	DB	039H
	DB	0e8H
	DB	031H
	DB	0c7H
	DB	031H
	DB	0a7H
	DB	031H
	DB	0c7H
	DB	031H
	DB	0c8H
	DB	031H
	DB	0e8H
	DB	031H
	DB	0e8H
	DB	039H
	DB	0c7H
	DB	031H
	DB	0c7H
	DB	031H
	DB	0e8H
	DB	031H
	DB	0e8H
	DB	039H
	DB	0e8H
	DB	031H
	DB	0e8H
	DB	031H
	DB	0c7H
	DB	031H
	DB	0c8H
	DB	031H
	DB	0c8H
	DB	031H
	DB	0e7H
	DB	031H
	DB	0c7H
	DB	031H
	DB	0a7H
	DB	031H
	DB	0c7H
	DB	031H
	DB	0e8H
	DB	039H
	DB	0e8H
	DB	031H
	DB	0e8H
	DB	031H
	DB	0a7H
	DB	031H
	DB	0c7H
	DB	031H
	DB	0e8H
	DB	031H
	DB	0e8H
	DB	031H
	DB	0c8H
	DB	031H
	DB	0e8H
	DB	031H
	DB	0c7H
	DB	031H
	DB	0e8H
	DB	031H
	DB	0e8H
	DB	031H
	DB	0c8H
	DB	031H
	DB	0e8H
	DB	031H
	DB	0a7H
	DB	031H
	DB	0c7H
	DB	031H
	DB	0e8H
	DB	039H
	DB	0e8H
	DB	031H
	DB	0c7H
	DB	031H
	DB	0a7H
	DB	031H
	DB	0a7H
	DB	031H
	DB	0c7H
	DB	031H
	DB	0e8H
	DB	031H
	DB	0c7H
	DB	031H
	DB	0c7H
	DB	031H
	DB	0a7H
	DB	029H
	DB	0c7H
	DB	031H
	DB	0c8H
	DB	031H
	DB	0c7H
	DB	031H
	DB	0c7H
	DB	031H
	DB	0c7H
	DB	031H
	DB	0c7H
	DB	031H
	DB	0c7H
	DB	031H
	DB	0c7H
	DB	031H
	DB	0c7H
	DB	031H
	DB	0c7H
	DB	031H
	DB	0a7H
	DB	031H
	DB	0c7H
	DB	031H
	DB	0c7H
	DB	031H
	DB	0c7H
	DB	031H
	DB	0a7H
	DB	031H
	DB	0a7H
	DB	031H
	DB	0c7H
	DB	031H
	DB	0c8H
	DB	031H
	DB	0a7H
	DB	031H
	DB	0c8H
	DB	031H
	DB	0a7H
	DB	031H
	DB	0a7H
	DB	031H
	DB	0e7H
	DB	031H
	DB	0c7H
	DB	031H
	DB	0a7H
	DB	031H
	DB	0a7H
	DB	029H
	DB	0a7H
	DB	029H
	DB	0c7H
	DB	031H
	DB	0a7H
	DB	031H
	DB	0c7H
	DB	031H
	DB	0c7H
	DB	031H
	DB	0a7H
	DB	029H
	DB	0a7H
	DB	031H
	DB	0c7H
	DB	031H
	DB	0c7H
	DB	031H
	DB	0a7H
	DB	031H
	DB	0a7H
	DB	029H
	DB	087H
	DB	029H
	DB	0c7H
	DB	031H
	DB	0a7H
	DB	031H
	DB	0a7H
	DB	031H
	DB	0a7H
	DB	031H
	DB	0a7H
	DB	029H
	DB	0a7H
	DB	031H
	DB	0c7H
	DB	031H
	DB	0c7H
	DB	031H
	DB	0a7H
	DB	029H
	DB	087H
	DB	029H
	DB	0c7H
	DB	031H
	DB	0c7H
	DB	031H
	DB	0a7H
	DB	031H
	DB	0a7H
	DB	031H
	DB	0a6H
	DB	029H
	DB	087H
	DB	029H
	DB	0c7H
	DB	031H
	DB	0c7H
	DB	031H
	DB	087H
	DB	029H
	DB	0a7H
	DB	029H
	DB	0a7H
	DB	029H
	DB	0a7H
	DB	031H
	DB	0a7H
	DB	031H
	DB	0a7H
	DB	031H
	DB	0a7H
	DB	029H
	DB	087H
	DB	029H
	DB	0a7H
	DB	031H
	DB	0a7H
	DB	031H
	DB	087H
	DB	031H
	DB	0a7H
	DB	029H
	DB	086H
	DB	029H
	DB	087H
	DB	029H
	DB	0c7H
	DB	031H
	DB	0a7H
	DB	031H
	DB	0a7H
	DB	031H
	DB	086H
	DB	029H
	DB	086H
	DB	029H
	DB	0a7H
	DB	031H
	DB	0a7H
	DB	031H
	DB	086H
	DB	029H
	DB	0a7H
	DB	029H
	DB	086H
	DB	029H
	DB	087H
	DB	029H
	DB	0a7H
	DB	031H
	DB	087H
	DB	029H
	DB	087H
	DB	031H
	DB	0a6H
	DB	029H
	DB	0a7H
	DB	031H
	DB	0a7H
	DB	031H
	DB	0a7H
	DB	031H
	DB	086H
	DB	029H
	DB	086H
	DB	029H
	DB	066H
	DB	029H
	DB	086H
	DB	029H
	DB	066H
	DB	029H
	DB	086H
	DB	029H
	DB	086H
	DB	029H
	DB	0c7H
	DB	031H
	DB	0c8H
	DB	031H
	DB	0c7H
	DB	031H
	DB	0c7H
	DB	031H
	DB	0a7H
	DB	031H
	DB	0e8H
	DB	031H
	DB	0e8H
	DB	039H
	DB	0c7H
	DB	031H
	DB	0e8H
	DB	031H
	DB	0a7H
	DB	031H
	DB	0c7H
	DB	031H
	DB	0e8H
	DB	031H
	DB	0c8H
	DB	031H
	DB	0e8H
	DB	039H
	DB	0c7H
	DB	031H
	DB	0a7H
	DB	031H
	DB	0c7H
	DB	031H
	DB	0c8H
	DB	031H
	DB	0c8H
	DB	031H
	DB	0c7H
	DB	031H
	DB	0a7H
	DB	031H
	DB	0e7H
	DB	031H
	DB	0c8H
	DB	031H
	DB	0c7H
	DB	031H
	DB	08H
	DB	03aH
	DB	0c7H
	DB	031H
	DB	0c7H
	DB	031H
	DB	0e8H
	DB	031H
	DB	0c8H
	DB	031H
	DB	0c7H
	DB	031H
	DB	0c7H
	DB	031H
	DB	0a7H
	DB	031H
	DB	0e7H
	DB	031H
	DB	0a7H
	DB	031H
	DB	0c7H
	DB	031H
	DB	0c8H
	DB	031H
	DB	0c7H
	DB	031H
	DB	0c7H
	DB	031H
	DB	0e8H
	DB	039H
	DB	0e8H
	DB	031H
	DB	0e8H
	DB	039H
	DB	0c7H
	DB	031H
	DB	0c7H
	DB	031H
	DB	0c8H
	DB	031H
	DB	0c7H
	DB	031H
	DB	0e8H
	DB	039H
	DB	0a7H
	DB	031H
	DB	0a7H
	DB	029H
	DB	0c7H
	DB	031H
	DB	0c7H
	DB	031H
	DB	0c8H
	DB	031H
	DB	0e7H
	DB	031H
	DB	0a7H
	DB	031H
	DB	0c7H
	DB	031H
	DB	0c8H
	DB	031H
	DB	0c7H
	DB	031H
	DB	0c7H
	DB	031H
	DB	0a7H
	DB	031H
	DB	0c7H
	DB	031H
	DB	0c7H
	DB	031H
	DB	0c8H
	DB	031H
	DB	0e8H
	DB	039H
	DB	0a7H
	DB	031H
	DB	0a7H
	DB	031H
	DB	0c7H
	DB	031H
	DB	0c8H
	DB	031H
	DB	0e8H
	DB	039H
	DB	0e8H
	DB	031H
	DB	0a7H
	DB	031H
	DB	0c7H
	DB	031H
	DB	0a7H
	DB	031H
	DB	0c7H
	DB	029H
	DB	0c7H
	DB	031H
	DB	0a7H
	DB	029H
	DB	0a7H
	DB	031H
	DB	0c7H
	DB	031H
	DB	0c7H
	DB	031H
	DB	0e8H
	DB	031H
	DB	0a7H
	DB	031H
	DB	0a7H
	DB	029H
	DB	0c7H
	DB	031H
	DB	0a7H
	DB	031H
	DB	0c7H
	DB	031H
	DB	0c7H
	DB	031H
	DB	0a7H
	DB	029H
	DB	0a7H
	DB	031H
	DB	0c7H
	DB	031H
	DB	0c7H
	DB	031H
	DB	0c8H
	DB	031H
	DB	0a7H
	DB	031H
	DB	0a7H
	DB	031H
	DB	0c7H
	DB	031H
	DB	0a7H
	DB	031H
	DB	0a7H
	DB	031H
	DB	0a7H
	DB	031H
	DB	0a7H
	DB	029H
	DB	0c7H
	DB	031H
	DB	0a7H
	DB	031H
	DB	0a7H
	DB	029H
	DB	0c7H
	DB	031H
	DB	086H
	DB	029H
	DB	0a7H
	DB	031H
	DB	0a7H
	DB	029H
	DB	0a7H
	DB	031H
	DB	0c8H
	DB	031H
	DB	0a7H
	DB	031H
	DB	087H
	DB	029H
	DB	0a7H
	DB	029H
	DB	0a7H
	DB	029H
	DB	0a7H
	DB	029H
	DB	087H
	DB	029H
	DB	0a7H
	DB	029H
	DB	0c7H
	DB	031H
	DB	0a7H
	DB	031H
	DB	0a7H
	DB	031H
	DB	0c7H
	DB	031H
	DB	086H
	DB	029H
	DB	0a7H
	DB	029H
	DB	0a7H
	DB	031H
	DB	0a7H
	DB	031H
	DB	0c7H
	DB	031H
	DB	086H
	DB	029H
	DB	086H
	DB	029H
	DB	0a7H
	DB	031H
	DB	0a7H
	DB	029H
	DB	0a6H
	DB	029H
	DB	086H
	DB	029H
	DB	086H
	DB	029H
	DB	0a7H
	DB	031H
	DB	0a7H
	DB	031H
	DB	0a7H
	DB	029H
	DB	0a7H
	DB	029H
	DB	086H
	DB	029H
	DB	087H
	DB	029H
	DB	087H
	DB	029H
	DB	086H
	DB	029H
	DB	0a7H
	DB	031H
	DB	086H
	DB	029H
	DB	0a6H
	DB	029H
	DB	0c7H
	DB	031H
	DB	087H
	DB	029H
	DB	0a7H
	DB	031H
	DB	086H
	DB	029H
	DB	086H
	DB	029H
	DB	0a7H
	DB	031H
	DB	087H
	DB	031H
	DB	086H
	DB	029H
	DB	086H
	DB	029H
	DB	066H
	DB	029H
	DB	066H
	DB	021H
	DB	087H
	DB	029H
	DB	0a7H
	DB	031H
	DB	0a7H
	DB	029H
	DB	0c8H
	DB	031H
	DB	0e8H
	DB	039H
	DB	0e8H
	DB	031H
	DB	0c7H
	DB	031H
	DB	0a7H
	DB	031H
	DB	0e8H
	DB	031H
	DB	0e8H
	DB	031H
	DB	0c8H
	DB	031H
	DB	0e8H
	DB	031H
	DB	0a7H
	DB	031H
	DB	0a7H
	DB	031H
	DB	08H
	DB	03aH
	DB	0e8H
	DB	031H
	DB	0c7H
	DB	031H
	DB	0c7H
	DB	031H
	DB	0a7H
	DB	031H
	DB	0e8H
	DB	031H
	DB	0c8H
	DB	031H
	DB	0c7H
	DB	031H
	DB	0e8H
	DB	031H
	DB	0a7H
	DB	031H
	DB	0c7H
	DB	031H
	DB	0e8H
	DB	031H
	DB	0c8H
	DB	031H
	DB	0c8H
	DB	031H
	DB	0a7H
	DB	031H
	DB	0c7H
	DB	031H
	DB	08H
	DB	03aH
	DB	0e8H
	DB	031H
	DB	0c8H
	DB	031H
	DB	0c7H
	DB	031H
	DB	0a7H
	DB	031H
	DB	0c8H
	DB	031H
	DB	0e8H
	DB	031H
	DB	0c7H
	DB	031H
	DB	0c7H
	DB	031H
	DB	0a7H
	DB	031H
	DB	0c7H
	DB	031H
	DB	0e8H
	DB	039H
	DB	0c7H
	DB	031H
	DB	0c8H
	DB	031H
	DB	0a7H
	DB	031H
	DB	0c7H
	DB	031H
	DB	0e8H
	DB	039H
	DB	0e8H
	DB	031H
	DB	0c7H
	DB	031H
	DB	0a7H
	DB	031H
	DB	0a7H
	DB	031H
	DB	0e8H
	DB	031H
	DB	0c8H
	DB	031H
	DB	0c7H
	DB	031H
	DB	0c7H
	DB	031H
	DB	0a7H
	DB	029H
	DB	0c8H
	DB	031H
	DB	0e8H
	DB	039H
	DB	0c7H
	DB	031H
	DB	0c7H
	DB	031H
	DB	0a7H
	DB	031H
	DB	0a7H
	DB	031H
	DB	0e8H
	DB	031H
	DB	0c8H
	DB	031H
	DB	0a7H
	DB	031H
	DB	0c7H
	DB	031H
	DB	0a7H
	DB	031H
	DB	0c7H
	DB	031H
	DB	0c7H
	DB	031H
	DB	0c8H
	DB	031H
	DB	0c7H
	DB	031H
	DB	087H
	DB	029H
	DB	0a7H
	DB	031H
	DB	0e8H
	DB	031H
	DB	0c7H
	DB	031H
	DB	0c8H
	DB	031H
	DB	087H
	DB	029H
	DB	087H
	DB	029H
	DB	0c7H
	DB	031H
	DB	0c7H
	DB	031H
	DB	0c7H
	DB	031H
	DB	087H
	DB	029H
	DB	086H
	DB	029H
	DB	0a7H
	DB	031H
	DB	0c7H
	DB	031H
	DB	0a7H
	DB	031H
	DB	0a7H
	DB	031H
	DB	0a7H
	DB	029H
	DB	0c8H
	DB	031H
	DB	0c8H
	DB	031H
	DB	0a7H
	DB	031H
	DB	0c7H
	DB	031H
	DB	087H
	DB	029H
	DB	086H
	DB	029H
	DB	0c7H
	DB	031H
	DB	0c7H
	DB	031H
	DB	0a7H
	DB	031H
	DB	0a7H
	DB	029H
	DB	086H
	DB	029H
	DB	0c7H
	DB	031H
	DB	0c7H
	DB	031H
	DB	0c7H
	DB	031H
	DB	0a7H
	DB	031H
	DB	086H
	DB	029H
	DB	086H
	DB	029H
	DB	0c7H
	DB	031H
	DB	0c7H
	DB	031H
	DB	0a7H
	DB	031H
	DB	0a7H
	DB	029H
	DB	086H
	DB	029H
	DB	0c7H
	DB	031H
	DB	0a7H
	DB	031H
	DB	0a7H
	DB	031H
	DB	0a7H
	DB	029H
	DB	086H
	DB	029H
	DB	0c7H
	DB	031H
	DB	0c7H
	DB	031H
	DB	0a7H
	DB	031H
	DB	0a7H
	DB	031H
	DB	086H
	DB	029H
	DB	0a7H
	DB	029H
	DB	0c7H
	DB	031H
	DB	0a7H
	DB	031H
	DB	0a7H
	DB	029H
	DB	086H
	DB	029H
	DB	0a7H
	DB	029H
	DB	0a7H
	DB	031H
	DB	0a7H
	DB	031H
	DB	0a7H
	DB	031H
	DB	087H
	DB	029H
	DB	086H
	DB	029H
	DB	0a7H
	DB	031H
	DB	0a7H
	DB	031H
	DB	0a7H
	DB	029H
	DB	0a7H
	DB	029H
	DB	086H
	DB	029H
	DB	086H
	DB	029H
	DB	0a7H
	DB	031H
	DB	0a7H
	DB	031H
	DB	0a7H
	DB	029H
	DB	066H
	DB	029H
	DB	086H
	DB	029H
	DB	0c7H
	DB	031H
	DB	0a7H
	DB	029H
	DB	086H
	DB	029H
	DB	086H
	DB	029H
	DB	086H
	DB	029H
	DB	0a7H
	DB	031H
	DB	086H
	DB	029H
	DB	086H
	DB	029H
	DB	086H
	DB	029H
	DB	045H
	DB	021H
	DB	086H
	DB	029H
	DB	0a7H
	DB	031H
	DB	0c7H
	DB	031H
	DB	0c7H
	DB	031H
	DB	0e8H
	DB	039H
	DB	0e8H
	DB	039H
	DB	0c8H
	DB	031H
	DB	0c7H
	DB	031H
	DB	0a7H
	DB	031H
	DB	0c8H
	DB	031H
	DB	08H
	DB	03aH
	DB	0e8H
	DB	031H
	DB	0c7H
	DB	031H
	DB	0a7H
	DB	031H
	DB	0c7H
	DB	031H
	DB	0e8H
	DB	031H
	DB	0c8H
	DB	031H
	DB	0c8H
	DB	031H
	DB	0c7H
	DB	031H
	DB	0c7H
	DB	031H
	DB	0e8H
	DB	039H
	DB	0e8H
	DB	031H
	DB	0c7H
	DB	031H
	DB	0c8H
	DB	031H
	DB	0c7H
	DB	031H
	DB	0c8H
	DB	031H
	DB	0c8H
	DB	031H
	DB	0c7H
	DB	031H
	DB	0e8H
	DB	031H
	DB	0a7H
	DB	031H
	DB	0a7H
	DB	031H
	DB	0e8H
	DB	031H
	DB	0c8H
	DB	031H
	DB	0c7H
	DB	031H
	DB	0c7H
	DB	031H
	DB	0c7H
	DB	031H
	DB	0e8H
	DB	039H
	DB	0e7H
	DB	031H
	DB	0a7H
	DB	031H
	DB	0c7H
	DB	031H
	DB	0c7H
	DB	031H
	DB	0c7H
	DB	031H
	DB	0c8H
	DB	031H
	DB	0c7H
	DB	031H
	DB	0c7H
	DB	031H
	DB	0c7H
	DB	031H
	DB	0c8H
	DB	031H
	DB	0e8H
	DB	031H
	DB	0c7H
	DB	031H
	DB	0c8H
	DB	031H
	DB	0e7H
	DB	031H
	DB	0a7H
	DB	031H
	DB	0c7H
	DB	031H
	DB	0e8H
	DB	031H
	DB	0a7H
	DB	031H
	DB	0a7H
	DB	031H
	DB	0a7H
	DB	031H
	DB	0c8H
	DB	031H
	DB	0e8H
	DB	031H
	DB	0c8H
	DB	031H
	DB	0c7H
	DB	031H
	DB	0a7H
	DB	031H
	DB	0c7H
	DB	031H
	DB	0e8H
	DB	031H
	DB	0c7H
	DB	031H
	DB	0c7H
	DB	031H
	DB	0a7H
	DB	031H
	DB	0a7H
	DB	029H
	DB	0c8H
	DB	031H
	DB	0c7H
	DB	031H
	DB	0a7H
	DB	031H
	DB	0c7H
	DB	031H
	DB	0a7H
	DB	031H
	DB	0a7H
	DB	031H
	DB	0e8H
	DB	031H
	DB	0c7H
	DB	031H
	DB	0a7H
	DB	031H
	DB	087H
	DB	029H
	DB	0c7H
	DB	031H
	DB	0c8H
	DB	031H
	DB	0c7H
	DB	031H
	DB	0a7H
	DB	029H
	DB	087H
	DB	029H
	DB	0a7H
	DB	031H
	DB	0c7H
	DB	031H
	DB	0c7H
	DB	031H
	DB	0a7H
	DB	031H
	DB	0c8H
	DB	031H
	DB	0c7H
	DB	031H
	DB	0c7H
	DB	031H
	DB	0c7H
	DB	031H
	DB	0a7H
	DB	031H
	DB	0c7H
	DB	031H
	DB	0a7H
	DB	029H
	DB	0a7H
	DB	031H
	DB	0c7H
	DB	031H
	DB	0a7H
	DB	031H
	DB	087H
	DB	029H
	DB	0a7H
	DB	029H
	DB	0a7H
	DB	031H
	DB	0c7H
	DB	031H
	DB	0c7H
	DB	031H
	DB	0c7H
	DB	031H
	DB	0a7H
	DB	031H
	DB	087H
	DB	029H
	DB	0a7H
	DB	031H
	DB	0a7H
	DB	031H
	DB	0a7H
	DB	029H
	DB	0c7H
	DB	031H
	DB	0a7H
	DB	031H
	DB	086H
	DB	029H
	DB	0c7H
	DB	031H
	DB	0a7H
	DB	031H
	DB	0a7H
	DB	031H
	DB	0a7H
	DB	029H
	DB	086H
	DB	029H
	DB	0a7H
	DB	031H
	DB	0a7H
	DB	029H
	DB	086H
	DB	029H
	DB	087H
	DB	029H
	DB	086H
	DB	029H
	DB	0a7H
	DB	031H
	DB	0c7H
	DB	031H
	DB	087H
	DB	031H
	DB	0a7H
	DB	031H
	DB	0a7H
	DB	031H
	DB	087H
	DB	029H
	DB	0a7H
	DB	031H
	DB	0a7H
	DB	031H
	DB	0a7H
	DB	031H
	DB	0a7H
	DB	029H
	DB	0a7H
	DB	029H
	DB	0a7H
	DB	031H
	DB	0a7H
	DB	031H
	DB	086H
	DB	029H
	DB	0a7H
	DB	031H
	DB	0a7H
	DB	029H
	DB	0a7H
	DB	031H
	DB	087H
	DB	029H
	DB	087H
	DB	029H
	DB	086H
	DB	029H
	DB	066H
	DB	029H
	DB	087H
	DB	029H
	DB	0c7H
	DB	031H
	DB	087H
	DB	029H
	DB	086H
	DB	029H
	DB	0a7H
	DB	029H
	DB	087H
	DB	029H
	DB	086H
	DB	029H
	DB	086H
	DB	029H
	DB	066H
	DB	029H
	DB	045H
	DB	021H
	DB	087H
	DB	029H
	DB	0a7H
	DB	031H
	DB	0c7H
	DB	031H
	DB	0a7H
	DB	031H
	DB	0a7H
	DB	031H
	DB	0e8H
	DB	031H
	DB	0e8H
	DB	031H
	DB	0c8H
	DB	031H
	DB	0c7H
	DB	031H
	DB	0c7H
	DB	031H
	DB	0c8H
	DB	031H
	DB	0e8H
	DB	039H
	DB	0e8H
	DB	031H
	DB	0c8H
	DB	031H
	DB	0a7H
	DB	031H
	DB	0c7H
	DB	031H
	DB	0e8H
	DB	031H
	DB	0e8H
	DB	031H
	DB	0e8H
	DB	039H
	DB	0c7H
	DB	031H
	DB	0a7H
	DB	031H
	DB	0e8H
	DB	039H
	DB	0c8H
	DB	031H
	DB	0c7H
	DB	031H
	DB	0e8H
	DB	039H
	DB	0a7H
	DB	031H
	DB	0c7H
	DB	031H
	DB	0e8H
	DB	039H
	DB	0e8H
	DB	039H
	DB	0c8H
	DB	031H
	DB	0a7H
	DB	031H
	DB	0c7H
	DB	031H
	DB	0e8H
	DB	031H
	DB	0e8H
	DB	031H
	DB	0c8H
	DB	031H
	DB	0a7H
	DB	031H
	DB	0c7H
	DB	031H
	DB	0c8H
	DB	031H
	DB	0e8H
	DB	031H
	DB	0c7H
	DB	031H
	DB	0c7H
	DB	031H
	DB	0a7H
	DB	031H
	DB	0c8H
	DB	031H
	DB	0e8H
	DB	039H
	DB	0e8H
	DB	031H
	DB	0c7H
	DB	031H
	DB	0a7H
	DB	031H
	DB	0a7H
	DB	031H
	DB	0c7H
	DB	031H
	DB	0c8H
	DB	031H
	DB	0e8H
	DB	031H
	DB	0a7H
	DB	031H
	DB	0a7H
	DB	031H
	DB	0c8H
	DB	031H
	DB	0c7H
	DB	031H
	DB	0c7H
	DB	031H
	DB	0c7H
	DB	031H
	DB	0a7H
	DB	031H
	DB	0c8H
	DB	031H
	DB	0c8H
	DB	031H
	DB	0c8H
	DB	031H
	DB	0c7H
	DB	031H
	DB	0a7H
	DB	029H
	DB	0a7H
	DB	031H
	DB	0e8H
	DB	031H
	DB	0c8H
	DB	031H
	DB	0c7H
	DB	031H
	DB	0a7H
	DB	031H
	DB	0a7H
	DB	029H
	DB	0c7H
	DB	031H
	DB	0c7H
	DB	031H
	DB	0c8H
	DB	031H
	DB	0c7H
	DB	031H
	DB	087H
	DB	029H
	DB	0c7H
	DB	031H
	DB	0c7H
	DB	031H
	DB	0c8H
	DB	039H
	DB	0c7H
	DB	031H
	DB	086H
	DB	029H
	DB	0a7H
	DB	029H
	DB	0c7H
	DB	031H
	DB	0c7H
	DB	031H
	DB	0c7H
	DB	031H
	DB	0a7H
	DB	031H
	DB	0a7H
	DB	029H
	DB	0c7H
	DB	031H
	DB	0a7H
	DB	031H
	DB	0c7H
	DB	031H
	DB	0a7H
	DB	031H
	DB	0a7H
	DB	029H
	DB	0a7H
	DB	031H
	DB	0c7H
	DB	031H
	DB	0a7H
	DB	031H
	DB	0c7H
	DB	031H
	DB	0a7H
	DB	029H
	DB	0a7H
	DB	031H
	DB	0a7H
	DB	031H
	DB	0a7H
	DB	031H
	DB	0c7H
	DB	031H
	DB	0a7H
	DB	031H
	DB	0a7H
	DB	029H
	DB	0a7H
	DB	031H
	DB	0c7H
	DB	031H
	DB	0c8H
	DB	031H
	DB	0c7H
	DB	031H
	DB	087H
	DB	029H
	DB	087H
	DB	029H
	DB	0a7H
	DB	031H
	DB	0c7H
	DB	031H
	DB	0a7H
	DB	031H
	DB	086H
	DB	029H
	DB	0a6H
	DB	029H
	DB	0c7H
	DB	031H
	DB	0a7H
	DB	031H
	DB	0a7H
	DB	029H
	DB	086H
	DB	029H
	DB	086H
	DB	029H
	DB	0a7H
	DB	031H
	DB	0a7H
	DB	029H
	DB	0a7H
	DB	031H
	DB	0a7H
	DB	029H
	DB	086H
	DB	029H
	DB	0a7H
	DB	029H
	DB	0c7H
	DB	031H
	DB	0a7H
	DB	031H
	DB	0a7H
	DB	031H
	DB	086H
	DB	029H
	DB	086H
	DB	029H
	DB	0a7H
	DB	031H
	DB	0c7H
	DB	031H
	DB	0a7H
	DB	031H
	DB	086H
	DB	029H
	DB	086H
	DB	029H
	DB	0a7H
	DB	031H
	DB	087H
	DB	029H
	DB	0a7H
	DB	031H
	DB	0a7H
	DB	031H
	DB	086H
	DB	029H
	DB	086H
	DB	029H
	DB	0a6H
	DB	031H
	DB	0a6H
	DB	029H
	DB	087H
	DB	031H
	DB	086H
	DB	029H
	DB	087H
	DB	031H
	DB	0a7H
	DB	031H
	DB	086H
	DB	029H
	DB	0a7H
	DB	031H
	DB	086H
	DB	029H
	DB	066H
	DB	029H
	DB	087H
	DB	029H
	DB	066H
	DB	029H
	DB	045H
	DB	021H
	DB	086H
	DB	029H
	DB	0c7H
	DB	031H
	DB	0a7H
	DB	031H
	DB	0c7H
	DB	031H
	DB	0c7H
	DB	031H
	DB	0c7H
	DB	031H
	DB	08H
	DB	03aH
	DB	0e8H
	DB	031H
	DB	0c7H
	DB	031H
	DB	0e8H
	DB	031H
	DB	0a7H
	DB	031H
	DB	0e8H
	DB	039H
	DB	08H
	DB	03aH
	DB	0e8H
	DB	031H
	DB	0c8H
	DB	031H
	DB	0a7H
	DB	031H
	DB	0c7H
	DB	031H
	DB	08H
	DB	03aH
	DB	0c8H
	DB	031H
	DB	0e8H
	DB	031H
	DB	0c7H
	DB	031H
	DB	0c7H
	DB	031H
	DB	0e8H
	DB	039H
	DB	0e8H
	DB	031H
	DB	0c8H
	DB	031H
	DB	0c7H
	DB	031H
	DB	0a7H
	DB	029H
	DB	0c8H
	DB	031H
	DB	0e8H
	DB	039H
	DB	0e7H
	DB	031H
	DB	0e8H
	DB	031H
	DB	0a7H
	DB	031H
	DB	0c7H
	DB	031H
	DB	0e8H
	DB	039H
	DB	0e8H
	DB	031H
	DB	0e8H
	DB	031H
	DB	0a7H
	DB	031H
	DB	0a7H
	DB	031H
	DB	0e8H
	DB	031H
	DB	0c8H
	DB	031H
	DB	0c7H
	DB	031H
	DB	0c7H
	DB	031H
	DB	0a7H
	DB	029H
	DB	0c8H
	DB	031H
	DB	0e8H
	DB	031H
	DB	0c8H
	DB	031H
	DB	0c8H
	DB	031H
	DB	0a7H
	DB	029H
	DB	0a7H
	DB	031H
	DB	0c8H
	DB	039H
	DB	0e8H
	DB	031H
	DB	0e7H
	DB	031H
	DB	0c7H
	DB	031H
	DB	0a7H
	DB	031H
	DB	0c8H
	DB	031H
	DB	0c8H
	DB	031H
	DB	0c7H
	DB	031H
	DB	0c7H
	DB	031H
	DB	0a7H
	DB	031H
	DB	0e8H
	DB	039H
	DB	0e7H
	DB	031H
	DB	0a7H
	DB	031H
	DB	0c7H
	DB	031H
	DB	0a7H
	DB	029H
	DB	0c7H
	DB	031H
	DB	0e8H
	DB	039H
	DB	0c7H
	DB	031H
	DB	0c7H
	DB	031H
	DB	0a7H
	DB	031H
	DB	0a7H
	DB	031H
	DB	0e8H
	DB	031H
	DB	0a7H
	DB	031H
	DB	0c7H
	DB	031H
	DB	0c7H
	DB	031H
	DB	087H
	DB	029H
	DB	0a7H
	DB	031H
	DB	0e8H
	DB	031H
	DB	0c7H
	DB	031H
	DB	0c7H
	DB	031H
	DB	086H
	DB	029H
	DB	0a7H
	DB	031H
	DB	0e8H
	DB	031H
	DB	0a7H
	DB	031H
	DB	0a7H
	DB	031H
	DB	0a7H
	DB	029H
	DB	0a7H
	DB	029H
	DB	0a7H
	DB	031H
	DB	0c7H
	DB	031H
	DB	0a7H
	DB	029H
	DB	087H
	DB	029H
	DB	0a7H
	DB	029H
	DB	0c7H
	DB	031H
	DB	0c7H
	DB	031H
	DB	0a7H
	DB	031H
	DB	0a7H
	DB	031H
	DB	087H
	DB	029H
	DB	0a7H
	DB	029H
	DB	0e8H
	DB	031H
	DB	0c7H
	DB	031H
	DB	0a7H
	DB	029H
	DB	087H
	DB	029H
	DB	087H
	DB	029H
	DB	0a7H
	DB	031H
	DB	0c7H
	DB	031H
	DB	0a7H
	DB	031H
	DB	0a7H
	DB	031H
	DB	086H
	DB	029H
	DB	0a7H
	DB	031H
	DB	0a7H
	DB	031H
	DB	0a7H
	DB	031H
	DB	0c7H
	DB	031H
	DB	086H
	DB	029H
	DB	087H
	DB	029H
	DB	0c7H
	DB	031H
	DB	0a7H
	DB	031H
	DB	0a7H
	DB	031H
	DB	0a7H
	DB	029H
	DB	086H
	DB	029H
	DB	0c7H
	DB	031H
	DB	0a7H
	DB	031H
	DB	0a7H
	DB	029H
	DB	087H
	DB	031H
	DB	066H
	DB	029H
	DB	0a7H
	DB	031H
	DB	0a7H
	DB	031H
	DB	0a6H
	DB	029H
	DB	0a7H
	DB	029H
	DB	086H
	DB	029H
	DB	0a7H
	DB	029H
	DB	0c7H
	DB	031H
	DB	0a7H
	DB	031H
	DB	086H
	DB	029H
	DB	086H
	DB	029H
	DB	087H
	DB	029H
	DB	0c7H
	DB	031H
	DB	0a7H
	DB	031H
	DB	086H
	DB	029H
	DB	0a6H
	DB	029H
	DB	066H
	DB	029H
	DB	0a7H
	DB	031H
	DB	0a7H
	DB	031H
	DB	0a7H
	DB	029H
	DB	0a7H
	DB	031H
	DB	086H
	DB	029H
	DB	086H
	DB	029H
	DB	0a7H
	DB	031H
	DB	087H
	DB	029H
	DB	086H
	DB	029H
	DB	086H
	DB	029H
	DB	066H
	DB	029H
	DB	087H
	DB	029H
	DB	066H
	DB	029H
	DB	086H
	DB	029H
	DB	087H
	DB	029H
	DB	0c7H
	DB	031H
	DB	0a7H
	DB	031H
	DB	0e8H
	DB	031H
	DB	0c8H
	DB	031H
	DB	0c7H
	DB	031H
	DB	0e8H
	DB	039H
	DB	0e8H
	DB	031H
	DB	0c7H
	DB	031H
	DB	0c8H
	DB	031H
	DB	0c7H
	DB	031H
	DB	0e8H
	DB	031H
	DB	0c8H
	DB	031H
	DB	0c7H
	DB	031H
	DB	0c8H
	DB	031H
	DB	0c8H
	DB	031H
	DB	0c7H
	DB	031H
	DB	0e8H
	DB	039H
	DB	0c7H
	DB	031H
	DB	0e8H
	DB	031H
	DB	0c7H
	DB	031H
	DB	0c7H
	DB	031H
	DB	0c8H
	DB	031H
	DB	0c7H
	DB	031H
	DB	0a7H
	DB	031H
	DB	0e8H
	DB	039H
	DB	0a7H
	DB	031H
	DB	0c7H
	DB	031H
	DB	0e8H
	DB	039H
	DB	0e8H
	DB	031H
	DB	0c8H
	DB	031H
	DB	0c7H
	DB	031H
	DB	0a7H
	DB	031H
	DB	0e8H
	DB	031H
	DB	0c7H
	DB	031H
	DB	0c7H
	DB	031H
	DB	0c7H
	DB	031H
	DB	0c7H
	DB	031H
	DB	0e8H
	DB	031H
	DB	0c8H
	DB	031H
	DB	0c7H
	DB	031H
	DB	0c7H
	DB	031H
	DB	0a7H
	DB	031H
	DB	0c7H
	DB	031H
	DB	0e8H
	DB	039H
	DB	0c7H
	DB	031H
	DB	0c7H
	DB	031H
	DB	0c7H
	DB	031H
	DB	0a7H
	DB	031H
	DB	0c8H
	DB	031H
	DB	0c7H
	DB	031H
	DB	0c7H
	DB	031H
	DB	0a7H
	DB	031H
	DB	0a7H
	DB	031H
	DB	0c8H
	DB	031H
	DB	0c7H
	DB	031H
	DB	0a7H
	DB	031H
	DB	0e8H
	DB	031H
	DB	0a7H
	DB	031H
	DB	0c7H
	DB	031H
	DB	0c8H
	DB	031H
	DB	0c7H
	DB	031H
	DB	0c7H
	DB	031H
	DB	0a7H
	DB	031H
	DB	0a7H
	DB	031H
	DB	0e8H
	DB	031H
	DB	0c7H
	DB	031H
	DB	0c7H
	DB	031H
	DB	0c8H
	DB	031H
	DB	0a7H
	DB	031H
	DB	0c7H
	DB	031H
	DB	0a7H
	DB	031H
	DB	0c7H
	DB	031H
	DB	0c7H
	DB	031H
	DB	087H
	DB	029H
	DB	0c7H
	DB	031H
	DB	0c8H
	DB	031H
	DB	0c7H
	DB	031H
	DB	0e8H
	DB	039H
	DB	0a7H
	DB	031H
	DB	0a7H
	DB	029H
	DB	0c7H
	DB	031H
	DB	0a7H
	DB	031H
	DB	0a7H
	DB	031H
	DB	0c8H
	DB	031H
	DB	0a7H
	DB	029H
	DB	0e8H
	DB	031H
	DB	0a7H
	DB	031H
	DB	0a7H
	DB	029H
	DB	0c7H
	DB	031H
	DB	087H
	DB	029H
	DB	0c7H
	DB	031H
	DB	0c7H
	DB	031H
	DB	0a7H
	DB	029H
	DB	0c7H
	DB	031H
	DB	0c7H
	DB	031H
	DB	0a7H
	DB	029H
	DB	0c7H
	DB	031H
	DB	0c7H
	DB	031H
	DB	0a7H
	DB	029H
	DB	0a7H
	DB	031H
	DB	0a6H
	DB	029H
	DB	0c8H
	DB	031H
	DB	0c7H
	DB	031H
	DB	087H
	DB	029H
	DB	0a7H
	DB	029H
	DB	086H
	DB	029H
	DB	0a7H
	DB	029H
	DB	0a7H
	DB	031H
	DB	0a7H
	DB	031H
	DB	0a7H
	DB	031H
	DB	087H
	DB	029H
	DB	0a7H
	DB	029H
	DB	0c7H
	DB	031H
	DB	0a7H
	DB	031H
	DB	0c7H
	DB	031H
	DB	0a7H
	DB	031H
	DB	086H
	DB	029H
	DB	0a7H
	DB	031H
	DB	0a7H
	DB	029H
	DB	086H
	DB	029H
	DB	0a7H
	DB	031H
	DB	086H
	DB	029H
	DB	0a7H
	DB	029H
	DB	0a7H
	DB	031H
	DB	086H
	DB	029H
	DB	086H
	DB	029H
	DB	086H
	DB	029H
	DB	0a7H
	DB	031H
	DB	0c7H
	DB	031H
	DB	086H
	DB	029H
	DB	087H
	DB	029H
	DB	0a7H
	DB	029H
	DB	086H
	DB	029H
	DB	0a7H
	DB	031H
	DB	0a7H
	DB	029H
	DB	087H
	DB	029H
	DB	0a7H
	DB	031H
	DB	086H
	DB	029H
	DB	0a7H
	DB	029H
	DB	0a7H
	DB	029H
	DB	086H
	DB	029H
	DB	0a7H
	DB	031H
	DB	066H
	DB	029H
	DB	086H
	DB	029H
	DB	0a7H
	DB	031H
	DB	086H
	DB	029H
	DB	086H
	DB	029H
	DB	086H
	DB	029H
	DB	046H
	DB	029H
	DB	066H
	DB	029H
	DB	086H
	DB	029H
	DB	086H
	DB	029H
	DB	0a7H
	DB	029H
	DB	0e8H
	DB	031H
	DB	0e8H
	DB	039H
	DB	0c8H
	DB	031H
	DB	0a7H
	DB	031H
	DB	0a7H
	DB	031H
	DB	0e8H
	DB	031H
	DB	0e8H
	DB	031H
	DB	0c7H
	DB	031H
	DB	0c8H
	DB	031H
	DB	0c7H
	DB	031H
	DB	0c7H
	DB	031H
	DB	0e8H
	DB	039H
	DB	0e8H
	DB	031H
	DB	0c7H
	DB	031H
	DB	0a7H
	DB	031H
	DB	0c7H
	DB	031H
	DB	08H
	DB	03aH
	DB	0c8H
	DB	031H
	DB	0c7H
	DB	031H
	DB	0c7H
	DB	031H
	DB	0a7H
	DB	031H
	DB	0e8H
	DB	031H
	DB	0e8H
	DB	039H
	DB	0e8H
	DB	031H
	DB	0e7H
	DB	031H
	DB	0a7H
	DB	031H
	DB	0c8H
	DB	031H
	DB	0e8H
	DB	039H
	DB	0e7H
	DB	031H
	DB	0c7H
	DB	031H
	DB	0a7H
	DB	031H
	DB	0a7H
	DB	031H
	DB	0c8H
	DB	031H
	DB	0e8H
	DB	031H
	DB	0c7H
	DB	031H
	DB	0a7H
	DB	031H
	DB	0a7H
	DB	031H
	DB	0e8H
	DB	039H
	DB	0e8H
	DB	031H
	DB	0c7H
	DB	031H
	DB	0c7H
	DB	031H
	DB	0a7H
	DB	029H
	DB	0a7H
	DB	031H
	DB	0c7H
	DB	031H
	DB	0e8H
	DB	039H
	DB	0c7H
	DB	031H
	DB	0a7H
	DB	031H
	DB	0a7H
	DB	029H
	DB	0c7H
	DB	031H
	DB	0c8H
	DB	031H
	DB	0a7H
	DB	031H
	DB	0c7H
	DB	031H
	DB	087H
	DB	029H
	DB	0a7H
	DB	031H
	DB	0c7H
	DB	031H
	DB	0a7H
	DB	031H
	DB	0a7H
	DB	031H
	DB	0a7H
	DB	029H
	DB	0a7H
	DB	031H
	DB	0c7H
	DB	031H
	DB	0c7H
	DB	031H
	DB	0c7H
	DB	031H
	DB	0a7H
	DB	029H
	DB	0a7H
	DB	031H
	DB	0c8H
	DB	031H
	DB	0c7H
	DB	031H
	DB	0a7H
	DB	031H
	DB	0c7H
	DB	031H
	DB	087H
	DB	029H
	DB	0c8H
	DB	031H
	DB	0e8H
	DB	039H
	DB	0c7H
	DB	031H
	DB	0c7H
	DB	031H
	DB	086H
	DB	029H
	DB	0c7H
	DB	031H
	DB	0c8H
	DB	031H
	DB	0c7H
	DB	031H
	DB	0c7H
	DB	031H
	DB	087H
	DB	029H
	DB	0a7H
	DB	031H
	DB	0e8H
	DB	031H
	DB	0e7H
	DB	031H
	DB	0c7H
	DB	031H
	DB	0a7H
	DB	031H
	DB	0a7H
	DB	029H
	DB	0c7H
	DB	031H
	DB	0c7H
	DB	031H
	DB	0c7H
	DB	031H
	DB	0a7H
	DB	031H
	DB	087H
	DB	029H
	DB	0a7H
	DB	029H
	DB	0c7H
	DB	031H
	DB	0a7H
	DB	031H
	DB	0a7H
	DB	031H
	DB	087H
	DB	029H
	DB	0a6H
	DB	031H
	DB	0a7H
	DB	031H
	DB	0c7H
	DB	031H
	DB	0c7H
	DB	031H
	DB	0a7H
	DB	031H
	DB	086H
	DB	029H
	DB	0c7H
	DB	031H
	DB	0a7H
	DB	031H
	DB	0a7H
	DB	029H
	DB	0a7H
	DB	031H
	DB	086H
	DB	029H
	DB	0a7H
	DB	029H
	DB	0c8H
	DB	031H
	DB	0a7H
	DB	031H
	DB	0a7H
	DB	029H
	DB	086H
	DB	029H
	DB	087H
	DB	029H
	DB	0c7H
	DB	031H
	DB	0a7H
	DB	031H
	DB	0a7H
	DB	029H
	DB	0a7H
	DB	029H
	DB	086H
	DB	029H
	DB	0a7H
	DB	031H
	DB	0a7H
	DB	029H
	DB	0a7H
	DB	029H
	DB	0a7H
	DB	031H
	DB	086H
	DB	029H
	DB	087H
	DB	029H
	DB	0c7H
	DB	031H
	DB	0a7H
	DB	031H
	DB	086H
	DB	029H
	DB	086H
	DB	029H
	DB	087H
	DB	029H
	DB	0a7H
	DB	031H
	DB	0a7H
	DB	031H
	DB	0a6H
	DB	029H
	DB	086H
	DB	029H
	DB	086H
	DB	029H
	DB	086H
	DB	029H
	DB	0a7H
	DB	031H
	DB	0a7H
	DB	029H
	DB	086H
	DB	029H
	DB	066H
	DB	029H
	DB	0a7H
	DB	031H
	DB	0a7H
	DB	031H
	DB	087H
	DB	029H
	DB	0a6H
	DB	029H
	DB	086H
	DB	029H
	DB	086H
	DB	029H
	DB	0a7H
	DB	031H
	DB	087H
	DB	029H
	DB	086H
	DB	029H
	DB	066H
	DB	029H
	DB	045H
	DB	021H
	DB	086H
	DB	029H
	DB	0a7H
	DB	031H
	DB	0a7H
	DB	031H
	DB	0c7H
	DB	031H
	DB	0e8H
	DB	039H
	DB	0e8H
	DB	031H
	DB	0c7H
	DB	031H
	DB	0a7H
	DB	031H
	DB	0c7H
	DB	031H
	DB	0e8H
	DB	039H
	DB	0e8H
	DB	031H
	DB	0c7H
	DB	031H
	DB	0a7H
	DB	031H
	DB	0a7H
	DB	029H
	DB	0e8H
	DB	031H
	DB	0e8H
	DB	039H
	DB	0c7H
	DB	031H
	DB	0e8H
	DB	031H
	DB	0c8H
	DB	031H
	DB	0e7H
	DB	031H
	DB	0c8H
	DB	031H
	DB	0c7H
	DB	031H
	DB	0a7H
	DB	031H
	DB	0c7H
	DB	031H
	DB	0c7H
	DB	031H
	DB	0e8H
	DB	039H
	DB	0e8H
	DB	031H
	DB	0c7H
	DB	031H
	DB	0c7H
	DB	031H
	DB	0c7H
	DB	031H
	DB	0e8H
	DB	031H
	DB	0e8H
	DB	031H
	DB	0c7H
	DB	031H
	DB	0c7H
	DB	031H
	DB	0c7H
	DB	031H
	DB	0c8H
	DB	031H
	DB	0e8H
	DB	039H
	DB	0c7H
	DB	031H
	DB	0c8H
	DB	031H
	DB	0c7H
	DB	031H
	DB	0a7H
	DB	031H
	DB	0c8H
	DB	031H
	DB	0c7H
	DB	031H
	DB	0c7H
	DB	031H
	DB	0a7H
	DB	031H
	DB	0a7H
	DB	029H
	DB	0c7H
	DB	031H
	DB	0c8H
	DB	031H
	DB	0c7H
	DB	031H
	DB	0c7H
	DB	031H
	DB	0a7H
	DB	031H
	DB	0a7H
	DB	031H
	DB	0c8H
	DB	031H
	DB	0c7H
	DB	031H
	DB	0c7H
	DB	031H
	DB	0c7H
	DB	031H
	DB	0a7H
	DB	029H
	DB	0c7H
	DB	031H
	DB	0c7H
	DB	031H
	DB	0c7H
	DB	031H
	DB	0c7H
	DB	031H
	DB	0a7H
	DB	029H
	DB	0c7H
	DB	031H
	DB	0c8H
	DB	031H
	DB	0a7H
	DB	031H
	DB	0c7H
	DB	031H
	DB	087H
	DB	029H
	DB	0a7H
	DB	031H
	DB	0e8H
	DB	031H
	DB	0a7H
	DB	031H
	DB	0c7H
	DB	031H
	DB	0c7H
	DB	031H
	DB	0a7H
	DB	029H
	DB	0c8H
	DB	031H
	DB	0c7H
	DB	031H
	DB	0a7H
	DB	031H
	DB	0c7H
	DB	031H
	DB	0a7H
	DB	029H
	DB	0a7H
	DB	031H
	DB	0c7H
	DB	031H
	DB	0c7H
	DB	031H
	DB	0a7H
	DB	031H
	DB	0a7H
	DB	029H
	DB	0a7H
	DB	031H
	DB	0e8H
	DB	039H
	DB	0a7H
	DB	031H
	DB	0c7H
	DB	031H
	DB	0a7H
	DB	031H
	DB	087H
	DB	029H
	DB	0c7H
	DB	031H
	DB	0a7H
	DB	031H
	DB	0a7H
	DB	031H
	DB	0a7H
	DB	031H
	DB	0a7H
	DB	029H
	DB	0a7H
	DB	031H
	DB	0c7H
	DB	031H
	DB	0c7H
	DB	031H
	DB	0a7H
	DB	029H
	DB	086H
	DB	029H
	DB	087H
	DB	029H
	DB	0c7H
	DB	031H
	DB	0a7H
	DB	031H
	DB	0a7H
	DB	031H
	DB	087H
	DB	029H
	DB	086H
	DB	029H
	DB	0c7H
	DB	031H
	DB	0a7H
	DB	031H
	DB	0a7H
	DB	031H
	DB	0a7H
	DB	029H
	DB	0a6H
	DB	029H
	DB	0a7H
	DB	031H
	DB	0a7H
	DB	031H
	DB	0a7H
	DB	031H
	DB	086H
	DB	029H
	DB	086H
	DB	029H
	DB	0a7H
	DB	031H
	DB	0c7H
	DB	031H
	DB	0a7H
	DB	031H
	DB	0a7H
	DB	029H
	DB	0a6H
	DB	029H
	DB	086H
	DB	029H
	DB	0a7H
	DB	031H
	DB	0a7H
	DB	031H
	DB	0a7H
	DB	031H
	DB	086H
	DB	029H
	DB	086H
	DB	029H
	DB	0a7H
	DB	031H
	DB	0a7H
	DB	031H
	DB	087H
	DB	029H
	DB	086H
	DB	029H
	DB	086H
	DB	029H
	DB	0a7H
	DB	029H
	DB	0a7H
	DB	031H
	DB	0a7H
	DB	031H
	DB	087H
	DB	029H
	DB	066H
	DB	029H
	DB	086H
	DB	029H
	DB	0a7H
	DB	031H
	DB	0a7H
	DB	031H
	DB	086H
	DB	029H
	DB	0a7H
	DB	031H
	DB	086H
	DB	029H
	DB	087H
	DB	029H
	DB	0a7H
	DB	031H
	DB	0a7H
	DB	031H
	DB	087H
	DB	031H
	DB	086H
	DB	029H
	DB	087H
	DB	029H
	DB	086H
	DB	031H
	DB	086H
	DB	029H
	DB	066H
	DB	029H
	DB	045H
	DB	021H
	DB	086H
	DB	029H
	DB	087H
	DB	029H
	DB	0c7H
	DB	031H
	DB	0a7H
	DB	031H
	DB	0c7H
	DB	031H
	DB	0e8H
	DB	039H
	DB	0e8H
	DB	031H
	DB	0e8H
	DB	031H
	DB	0c7H
	DB	031H
	DB	0a7H
	DB	031H
	DB	0c8H
	DB	031H
	DB	0c7H
	DB	031H
	DB	0c7H
	DB	031H
	DB	0c8H
	DB	031H
	DB	0a7H
	DB	031H
	DB	0e8H
	DB	031H
	DB	0e8H
	DB	039H
	DB	0c8H
	DB	031H
	DB	0e8H
	DB	031H
	DB	0a7H
	DB	031H
	DB	0a7H
	DB	031H
	DB	0e8H
	DB	031H
	DB	0a7H
	DB	031H
	DB	0c8H
	DB	031H
	DB	0e8H
	DB	031H
	DB	0c7H
	DB	031H
	DB	0c8H
	DB	031H
	DB	0c7H
	DB	031H
	DB	0e8H
	DB	031H
	DB	0e8H
	DB	039H
	DB	0a7H
	DB	031H
	DB	0c8H
	DB	031H
	DB	0c7H
	DB	031H
	DB	0c7H
	DB	031H
	DB	0e8H
	DB	031H
	DB	0a7H
	DB	031H
	DB	0c7H
	DB	031H
	DB	0e8H
	DB	039H
	DB	0c7H
	DB	031H
	DB	0e8H
	DB	031H
	DB	0a7H
	DB	031H
	DB	0a7H
	DB	031H
	DB	0c8H
	DB	031H
	DB	0a7H
	DB	031H
	DB	0c7H
	DB	031H
	DB	0c7H
	DB	031H
	DB	0a7H
	DB	031H
	DB	0c7H
	DB	031H
	DB	0c7H
	DB	031H
	DB	0a7H
	DB	029H
	DB	0c7H
	DB	031H
	DB	0c7H
	DB	031H
	DB	0c7H
	DB	031H
	DB	0c8H
	DB	031H
	DB	0c7H
	DB	031H
	DB	0c8H
	DB	031H
	DB	0c7H
	DB	031H
	DB	0a7H
	DB	031H
	DB	0e8H
	DB	031H
	DB	0c8H
	DB	031H
	DB	0c8H
	DB	031H
	DB	0c7H
	DB	031H
	DB	0a7H
	DB	031H
	DB	0a7H
	DB	031H
	DB	0c7H
	DB	031H
	DB	0c7H
	DB	031H
	DB	0c8H
	DB	031H
	DB	0a7H
	DB	031H
	DB	0c7H
	DB	031H
	DB	0c7H
	DB	031H
	DB	0a7H
	DB	029H
	DB	0e8H
	DB	031H
	DB	0a7H
	DB	031H
	DB	0a6H
	DB	029H
	DB	0c7H
	DB	031H
	DB	0c8H
	DB	031H
	DB	0c7H
	DB	031H
	DB	0a7H
	DB	031H
	DB	0a7H
	DB	029H
	DB	0c7H
	DB	031H
	DB	0c7H
	DB	031H
	DB	0a7H
	DB	031H
	DB	0a7H
	DB	031H
	DB	0a7H
	DB	029H
	DB	0a7H
	DB	029H
	DB	0a7H
	DB	031H
	DB	0a7H
	DB	029H
	DB	0c7H
	DB	031H
	DB	0a7H
	DB	031H
	DB	086H
	DB	029H
	DB	0c7H
	DB	031H
	DB	0a7H
	DB	031H
	DB	0c7H
	DB	031H
	DB	0c7H
	DB	031H
	DB	0a7H
	DB	029H
	DB	0a7H
	DB	031H
	DB	0a7H
	DB	029H
	DB	0a7H
	DB	031H
	DB	0a7H
	DB	031H
	DB	087H
	DB	029H
	DB	0a7H
	DB	029H
	DB	0c7H
	DB	031H
	DB	087H
	DB	029H
	DB	0a7H
	DB	031H
	DB	0a7H
	DB	031H
	DB	086H
	DB	029H
	DB	0c7H
	DB	031H
	DB	0a7H
	DB	031H
	DB	0c7H
	DB	031H
	DB	0a7H
	DB	031H
	DB	0a6H
	DB	029H
	DB	0a7H
	DB	031H
	DB	0a7H
	DB	031H
	DB	0a7H
	DB	031H
	DB	0a7H
	DB	031H
	DB	086H
	DB	029H
	DB	0a7H
	DB	029H
	DB	0a7H
	DB	031H
	DB	0a7H
	DB	031H
	DB	0c7H
	DB	031H
	DB	087H
	DB	031H
	DB	086H
	DB	029H
	DB	0a7H
	DB	031H
	DB	087H
	DB	029H
	DB	0c7H
	DB	031H
	DB	0c7H
	DB	031H
	DB	086H
	DB	029H
	DB	087H
	DB	029H
	DB	0a7H
	DB	031H
	DB	0a7H
	DB	029H
	DB	0a7H
	DB	031H
	DB	086H
	DB	029H
	DB	0a6H
	DB	029H
	DB	0a7H
	DB	031H
	DB	0a7H
	DB	031H
	DB	0a7H
	DB	031H
	DB	086H
	DB	029H
	DB	086H
	DB	029H
	DB	0a7H
	DB	031H
	DB	0a7H
	DB	029H
	DB	0a7H
	DB	029H
	DB	086H
	DB	029H
	DB	086H
	DB	029H
	DB	0a7H
	DB	031H
	DB	087H
	DB	031H
	DB	0a7H
	DB	031H
	DB	0a7H
	DB	029H
	DB	066H
	DB	029H
	DB	086H
	DB	029H
	DB	086H
	DB	029H
	DB	066H
	DB	029H
	DB	066H
	DB	029H
	DB	086H
	DB	029H
	DB	0c7H
	DB	031H
	DB	0a7H
	DB	031H
	DB	0c7H
	DB	031H
	DB	0a7H
	DB	031H
	DB	0c7H
	DB	031H
	DB	0e8H
	DB	039H
	DB	0c7H
	DB	031H
	DB	0c7H
	DB	031H
	DB	0c7H
	DB	031H
	DB	0a7H
	DB	031H
	DB	0c8H
	DB	031H
	DB	0e8H
	DB	031H
	DB	0e7H
	DB	031H
	DB	0a7H
	DB	031H
	DB	0c7H
	DB	031H
	DB	0c7H
	DB	031H
	DB	0e8H
	DB	039H
	DB	0c7H
	DB	031H
	DB	0e7H
	DB	031H
	DB	0c7H
	DB	031H
	DB	0c7H
	DB	031H
	DB	08H
	DB	03aH
	DB	0c8H
	DB	031H
	DB	0c7H
	DB	031H
	DB	0c7H
	DB	031H
	DB	0a7H
	DB	029H
	DB	0e8H
	DB	039H
	DB	0e8H
	DB	031H
	DB	0c7H
	DB	031H
	DB	0c7H
	DB	031H
	DB	0a7H
	DB	031H
	DB	0c8H
	DB	031H
	DB	0e8H
	DB	039H
	DB	0c8H
	DB	031H
	DB	0c7H
	DB	031H
	DB	0a7H
	DB	031H
	DB	0a7H
	DB	031H
	DB	0e8H
	DB	031H
	DB	0c8H
	DB	031H
	DB	0c7H
	DB	031H
	DB	0a7H
	DB	031H
	DB	0c7H
	DB	031H
	DB	0e8H
	DB	031H
	DB	0c8H
	DB	031H
	DB	0c7H
	DB	031H
	DB	0c7H
	DB	031H
	DB	0a7H
	DB	029H
	DB	0c8H
	DB	031H
	DB	0c8H
	DB	031H
	DB	0c7H
	DB	031H
	DB	0c7H
	DB	031H
	DB	0a7H
	DB	029H
	DB	0a7H
	DB	031H
	DB	0e8H
	DB	039H
	DB	0c7H
	DB	031H
	DB	0c7H
	DB	031H
	DB	0a7H
	DB	031H
	DB	0a7H
	DB	031H
	DB	0e8H
	DB	031H
	DB	0e8H
	DB	031H
	DB	0a7H
	DB	031H
	DB	0a7H
	DB	031H
	DB	087H
	DB	029H
	DB	0c7H
	DB	031H
	DB	0e8H
	DB	039H
	DB	0c7H
	DB	031H
	DB	0c7H
	DB	031H
	DB	0a7H
	DB	029H
	DB	0a7H
	DB	029H
	DB	0e8H
	DB	031H
	DB	0c7H
	DB	031H
	DB	0c7H
	DB	031H
	DB	0c7H
	DB	031H
	DB	087H
	DB	029H
	DB	0c7H
	DB	031H
	DB	0a7H
	DB	031H
	DB	0a7H
	DB	031H
	DB	0c7H
	DB	031H
	DB	0a7H
	DB	031H
	DB	0a7H
	DB	031H
	DB	0c7H
	DB	031H
	DB	0a7H
	DB	031H
	DB	0a7H
	DB	031H
	DB	0a6H
	DB	029H
	DB	0a7H
	DB	031H
	DB	0c8H
	DB	031H
	DB	0a7H
	DB	031H
	DB	0a7H
	DB	031H
	DB	0a7H
	DB	029H
	DB	086H
	DB	029H
	DB	0a7H
	DB	031H
	DB	0a7H
	DB	031H
	DB	0c7H
	DB	031H
	DB	0a7H
	DB	031H
	DB	087H
	DB	029H
	DB	0c7H
	DB	031H
	DB	0e7H
	DB	031H
	DB	0c7H
	DB	031H
	DB	0a7H
	DB	031H
	DB	086H
	DB	029H
	DB	0a7H
	DB	031H
	DB	0c7H
	DB	031H
	DB	0a7H
	DB	029H
	DB	0c7H
	DB	031H
	DB	0a7H
	DB	031H
	DB	0a7H
	DB	029H
	DB	0c7H
	DB	031H
	DB	0a7H
	DB	031H
	DB	0a7H
	DB	031H
	DB	0c7H
	DB	031H
	DB	087H
	DB	029H
	DB	0a7H
	DB	029H
	DB	0c7H
	DB	031H
	DB	0a7H
	DB	031H
	DB	0a7H
	DB	029H
	DB	086H
	DB	029H
	DB	086H
	DB	029H
	DB	0c7H
	DB	031H
	DB	0a7H
	DB	031H
	DB	0a7H
	DB	029H
	DB	0a7H
	DB	031H
	DB	086H
	DB	029H
	DB	0a7H
	DB	029H
	DB	0a7H
	DB	031H
	DB	0c7H
	DB	031H
	DB	0a7H
	DB	029H
	DB	086H
	DB	029H
	DB	086H
	DB	029H
	DB	0a7H
	DB	031H
	DB	0a7H
	DB	029H
	DB	0a7H
	DB	029H
	DB	086H
	DB	029H
	DB	086H
	DB	029H
	DB	0a7H
	DB	031H
	DB	0a7H
	DB	029H
	DB	0a7H
	DB	029H
	DB	086H
	DB	029H
	DB	066H
	DB	029H
	DB	0a7H
	DB	031H
	DB	0a7H
	DB	031H
	DB	086H
	DB	029H
	DB	0a6H
	DB	029H
	DB	066H
	DB	029H
	DB	086H
	DB	029H
	DB	0c7H
	DB	031H
	DB	087H
	DB	029H
	DB	086H
	DB	029H
	DB	066H
	DB	029H
	DB	066H
	DB	029H
	DB	0a7H
	DB	031H
	DB	066H
	DB	021H
	DB	066H
	DB	029H
	DB	0a7H
	DB	031H
	DB	0c7H
	DB	031H
	DB	0a7H
	DB	031H
	DB	0a7H
	DB	031H
	DB	0c8H
	DB	031H
	DB	0c7H
	DB	031H
	DB	0e8H
	DB	039H
	DB	0c8H
	DB	031H
	DB	0a7H
	DB	031H
	DB	0c7H
	DB	031H
	DB	0c7H
	DB	031H
	DB	0e8H
	DB	031H
	DB	0c8H
	DB	031H
	DB	0a7H
	DB	031H
	DB	0a7H
	DB	031H
	DB	0c7H
	DB	031H
	DB	0c8H
	DB	031H
	DB	0e8H
	DB	039H
	DB	0c7H
	DB	031H
	DB	0c8H
	DB	031H
	DB	0a7H
	DB	031H
	DB	0e7H
	DB	031H
	DB	0e8H
	DB	039H
	DB	0c7H
	DB	031H
	DB	0a7H
	DB	031H
	DB	0c7H
	DB	031H
	DB	0c7H
	DB	031H
	DB	0c8H
	DB	031H
	DB	0e8H
	DB	031H
	DB	0c8H
	DB	031H
	DB	0c7H
	DB	031H
	DB	0a7H
	DB	031H
	DB	0c7H
	DB	031H
	DB	0e8H
	DB	039H
	DB	0c7H
	DB	031H
	DB	0c7H
	DB	031H
	DB	0a7H
	DB	031H
	DB	0c7H
	DB	031H
	DB	0e8H
	DB	031H
	DB	0c7H
	DB	031H
	DB	0e8H
	DB	031H
	DB	0c7H
	DB	031H
	DB	0a7H
	DB	031H
	DB	0c8H
	DB	031H
	DB	0c7H
	DB	031H
	DB	0c7H
	DB	031H
	DB	0c8H
	DB	031H
	DB	0c7H
	DB	031H
	DB	0a7H
	DB	031H
	DB	0c8H
	DB	031H
	DB	0a7H
	DB	031H
	DB	0a7H
	DB	031H
	DB	0c7H
	DB	031H
	DB	0a7H
	DB	031H
	DB	0e8H
	DB	031H
	DB	0e7H
	DB	031H
	DB	0c7H
	DB	031H
	DB	0c7H
	DB	031H
	DB	0c7H
	DB	031H
	DB	0c7H
	DB	031H
	DB	0c7H
	DB	031H
	DB	0a7H
	DB	031H
	DB	0c7H
	DB	031H
	DB	0a7H
	DB	029H
	DB	0c7H
	DB	031H
	DB	0e8H
	DB	031H
	DB	0c7H
	DB	031H
	DB	0a7H
	DB	031H
	DB	0a7H
	DB	031H
	DB	0a7H
	DB	031H
	DB	0c8H
	DB	031H
	DB	0c7H
	DB	031H
	DB	0a7H
	DB	031H
	DB	0a7H
	DB	031H
	DB	0a7H
	DB	029H
	DB	0c7H
	DB	031H
	DB	0a7H
	DB	031H
	DB	0a7H
	DB	031H
	DB	0a7H
	DB	031H
	DB	0a7H
	DB	029H
	DB	0c7H
	DB	031H
	DB	0c8H
	DB	031H
	DB	0a7H
	DB	029H
	DB	0c7H
	DB	031H
	DB	0c7H
	DB	031H
	DB	0a7H
	DB	031H
	DB	0c7H
	DB	031H
	DB	0a7H
	DB	031H
	DB	0a7H
	DB	031H
	DB	0a7H
	DB	029H
	DB	087H
	DB	029H
	DB	0c7H
	DB	031H
	DB	0a7H
	DB	031H
	DB	0a7H
	DB	029H
	DB	0a7H
	DB	031H
	DB	0a7H
	DB	031H
	DB	0a7H
	DB	031H
	DB	0c7H
	DB	031H
	DB	0a7H
	DB	031H
	DB	0a7H
	DB	031H
	DB	087H
	DB	029H
	DB	087H
	DB	029H
	DB	0c7H
	DB	031H
	DB	0a7H
	DB	031H
	DB	0a7H
	DB	029H
	DB	0a7H
	DB	031H
	DB	0a7H
	DB	029H
	DB	0a7H
	DB	031H
	DB	0a7H
	DB	031H
	DB	0a7H
	DB	029H
	DB	0a7H
	DB	031H
	DB	086H
	DB	029H
	DB	0a7H
	DB	031H
	DB	0c7H
	DB	031H
	DB	0a7H
	DB	031H
	DB	087H
	DB	029H
	DB	086H
	DB	029H
	DB	087H
	DB	029H
	DB	0c7H
	DB	031H
	DB	0a7H
	DB	031H
	DB	087H
	DB	029H
	DB	0a6H
	DB	029H
	DB	086H
	DB	029H
	DB	0a7H
	DB	031H
	DB	0a7H
	DB	031H
	DB	0a7H
	DB	031H
	DB	0a7H
	DB	031H
	DB	086H
	DB	029H
	DB	0a6H
	DB	029H
	DB	0a7H
	DB	031H
	DB	086H
	DB	029H
	DB	086H
	DB	029H
	DB	086H
	DB	029H
	DB	086H
	DB	029H
	DB	0a7H
	DB	031H
	DB	087H
	DB	029H
	DB	087H
	DB	031H
	DB	0a6H
	DB	029H
	DB	0a6H
	DB	029H
	DB	0a7H
	DB	031H
	DB	0a7H
	DB	031H
	DB	087H
	DB	029H
	DB	087H
	DB	029H
	DB	086H
	DB	029H
	DB	0a7H
	DB	029H
	DB	087H
	DB	031H
	DB	086H
	DB	029H
	DB	086H
	DB	029H
	DB	066H
	DB	029H
	DB	066H
	DB	029H
	DB	066H
	DB	029H
	DB	086H
	DB	029H
	DB	086H
	DB	029H
	DB	0a7H
	DB	029H
	DB	0a7H
	DB	031H
	DB	0c7H
	DB	031H
	DB	0e8H
	DB	031H
	DB	0a7H
	DB	031H
	DB	0c7H
	DB	031H
	DB	0e8H
	DB	031H
	DB	0c8H
	DB	031H
	DB	0e8H
	DB	031H
	DB	0e7H
	DB	031H
	DB	0a7H
	DB	031H
	DB	0e8H
	DB	031H
	DB	0e7H
	DB	031H
	DB	0a7H
	DB	031H
	DB	0c7H
	DB	031H
	DB	0c7H
	DB	031H
	DB	0a7H
	DB	031H
	DB	0e8H
	DB	031H
	DB	0c8H
	DB	031H
	DB	0c7H
	DB	031H
	DB	0a7H
	DB	031H
	DB	0c8H
	DB	031H
	DB	0e8H
	DB	031H
	DB	0c8H
	DB	031H
	DB	0c8H
	DB	031H
	DB	0c7H
	DB	031H
	DB	0a7H
	DB	031H
	DB	0c8H
	DB	031H
	DB	0e8H
	DB	031H
	DB	0e8H
	DB	031H
	DB	0c7H
	DB	031H
	DB	0a7H
	DB	029H
	DB	0c7H
	DB	031H
	DB	0e8H
	DB	031H
	DB	0c8H
	DB	031H
	DB	0c7H
	DB	031H
	DB	0c7H
	DB	031H
	DB	0c7H
	DB	031H
	DB	0c8H
	DB	031H
	DB	0c7H
	DB	031H
	DB	0c7H
	DB	031H
	DB	0a7H
	DB	031H
	DB	0a7H
	DB	031H
	DB	0c8H
	DB	031H
	DB	0c7H
	DB	031H
	DB	0c8H
	DB	031H
	DB	0c7H
	DB	031H
	DB	0a7H
	DB	031H
	DB	0c7H
	DB	031H
	DB	0e8H
	DB	031H
	DB	0c7H
	DB	031H
	DB	0c7H
	DB	031H
	DB	0a7H
	DB	029H
	DB	0a7H
	DB	031H
	DB	0c8H
	DB	031H
	DB	0c8H
	DB	031H
	DB	0e8H
	DB	039H
	DB	0c7H
	DB	031H
	DB	0a7H
	DB	029H
	DB	0c7H
	DB	031H
	DB	0c7H
	DB	031H
	DB	0e8H
	DB	031H
	DB	0c7H
	DB	031H
	DB	087H
	DB	029H
	DB	0c7H
	DB	031H
	DB	0c7H
	DB	031H
	DB	0a7H
	DB	031H
	DB	0c8H
	DB	031H
	DB	0a7H
	DB	031H
	DB	0a7H
	DB	029H
	DB	0a7H
	DB	031H
	DB	0c7H
	DB	031H
	DB	0c8H
	DB	031H
	DB	0a7H
	DB	031H
	DB	0a7H
	DB	029H
	DB	0c7H
	DB	031H
	DB	0c8H
	DB	031H
	DB	0c8H
	DB	031H
	DB	0a7H
	DB	029H
	DB	0a7H
	DB	029H
	DB	0a7H
	DB	031H
	DB	0c7H
	DB	031H
	DB	0c7H
	DB	031H
	DB	0c7H
	DB	031H
	DB	087H
	DB	029H
	DB	0a7H
	DB	029H
	DB	0c7H
	DB	031H
	DB	0a7H
	DB	031H
	DB	0a7H
	DB	031H
	DB	0a7H
	DB	029H
	DB	0a7H
	DB	029H
	DB	0a7H
	DB	031H
	DB	0a7H
	DB	031H
	DB	0c7H
	DB	031H
	DB	0a7H
	DB	031H
	DB	087H
	DB	029H
	DB	0a7H
	DB	029H
	DB	0c7H
	DB	031H
	DB	0c7H
	DB	031H
	DB	0a7H
	DB	031H
	DB	0a7H
	DB	029H
	DB	087H
	DB	031H
	DB	0a7H
	DB	031H
	DB	0a7H
	DB	031H
	DB	0a7H
	DB	031H
	DB	0a7H
	DB	029H
	DB	0a6H
	DB	029H
	DB	0a7H
	DB	029H
	DB	0a7H
	DB	031H
	DB	0a7H
	DB	031H
	DB	0a7H
	DB	031H
	DB	086H
	DB	029H
	DB	0a7H
	DB	029H
	DB	0a7H
	DB	031H
	DB	087H
	DB	029H
	DB	0a7H
	DB	031H
	DB	086H
	DB	029H
	DB	087H
	DB	029H
	DB	0a7H
	DB	031H
	DB	0a7H
	DB	031H
	DB	0a7H
	DB	031H
	DB	0a6H
	DB	029H
	DB	0a7H
	DB	029H
	DB	0a7H
	DB	031H
	DB	0a7H
	DB	031H
	DB	0a7H
	DB	031H
	DB	087H
	DB	029H
	DB	086H
	DB	029H
	DB	0a7H
	DB	031H
	DB	0a7H
	DB	031H
	DB	086H
	DB	029H
	DB	0a7H
	DB	031H
	DB	086H
	DB	029H
	DB	086H
	DB	029H
	DB	0a7H
	DB	031H
	DB	0a7H
	DB	031H
	DB	087H
	DB	029H
	DB	087H
	DB	029H
	DB	086H
	DB	029H
	DB	087H
	DB	029H
	DB	0a7H
	DB	031H
	DB	0a7H
	DB	031H
	DB	0a6H
	DB	029H
	DB	066H
	DB	029H
	DB	086H
	DB	029H
	DB	0a7H
	DB	031H
	DB	086H
	DB	029H
	DB	066H
	DB	029H
	DB	045H
	DB	021H
	DB	045H
	DB	021H
	DB	086H
	DB	029H
	DB	087H
	DB	029H
	DB	086H
	DB	029H
	DB	0c7H
	DB	031H
	DB	0e8H
	DB	031H
	DB	0c8H
	DB	031H
	DB	0c8H
	DB	031H
	DB	0a7H
	DB	031H
	DB	0e8H
	DB	031H
	DB	0e8H
	DB	039H
	DB	0e8H
	DB	031H
	DB	0c7H
	DB	031H
	DB	0a7H
	DB	031H
	DB	0a7H
	DB	031H
	DB	0e8H
	DB	039H
	DB	0e8H
	DB	031H
	DB	0c7H
	DB	031H
	DB	0c7H
	DB	031H
	DB	0a7H
	DB	029H
	DB	0c7H
	DB	031H
	DB	0e8H
	DB	039H
	DB	0c7H
	DB	031H
	DB	0c7H
	DB	031H
	DB	0a7H
	DB	029H
	DB	0c7H
	DB	031H
	DB	0e8H
	DB	039H
	DB	0c7H
	DB	031H
	DB	0e8H
	DB	031H
	DB	0c7H
	DB	031H
	DB	0a7H
	DB	031H
	DB	0e8H
	DB	039H
	DB	0e8H
	DB	031H
	DB	0c7H
	DB	031H
	DB	0a7H
	DB	031H
	DB	0a7H
	DB	029H
	DB	0c8H
	DB	031H
	DB	0c8H
	DB	031H
	DB	0c7H
	DB	031H
	DB	0c8H
	DB	031H
	DB	0a7H
	DB	031H
	DB	0c7H
	DB	031H
	DB	0c8H
	DB	031H
	DB	0c7H
	DB	031H
	DB	0c7H
	DB	031H
	DB	0a7H
	DB	029H
	DB	0a7H
	DB	031H
	DB	0e8H
	DB	031H
	DB	0c8H
	DB	031H
	DB	0c7H
	DB	031H
	DB	0c7H
	DB	031H
	DB	0a7H
	DB	031H
	DB	0e8H
	DB	031H
	DB	0e8H
	DB	039H
	DB	0a7H
	DB	031H
	DB	0c7H
	DB	031H
	DB	0a7H
	DB	029H
	DB	0c7H
	DB	031H
	DB	0e8H
	DB	039H
	DB	0c7H
	DB	031H
	DB	0a7H
	DB	031H
	DB	0a7H
	DB	031H
	DB	087H
	DB	029H
	DB	0c8H
	DB	031H
	DB	0e8H
	DB	031H
	DB	0c7H
	DB	031H
	DB	0a7H
	DB	029H
	DB	0a7H
	DB	029H
	DB	0c8H
	DB	031H
	DB	0c8H
	DB	031H
	DB	0c7H
	DB	031H
	DB	0c7H
	DB	031H
	DB	0a7H
	DB	029H
	DB	0a7H
	DB	031H
	DB	0e8H
	DB	031H
	DB	0c7H
	DB	031H
	DB	0a7H
	DB	031H
	DB	0a7H
	DB	029H
	DB	0a7H
	DB	029H
	DB	0c7H
	DB	031H
	DB	0c7H
	DB	031H
	DB	0c7H
	DB	031H
	DB	0a7H
	DB	029H
	DB	086H
	DB	029H
	DB	0a7H
	DB	031H
	DB	0c7H
	DB	031H
	DB	0a7H
	DB	029H
	DB	0a7H
	DB	031H
	DB	0a7H
	DB	031H
	DB	0c7H
	DB	031H
	DB	0c7H
	DB	031H
	DB	0a7H
	DB	031H
	DB	0c7H
	DB	031H
	DB	0a7H
	DB	031H
	DB	086H
	DB	029H
	DB	0c8H
	DB	031H
	DB	0c7H
	DB	031H
	DB	0a7H
	DB	029H
	DB	0a7H
	DB	029H
	DB	086H
	DB	029H
	DB	0c7H
	DB	031H
	DB	0e8H
	DB	031H
	DB	0a7H
	DB	031H
	DB	0c7H
	DB	031H
	DB	086H
	DB	029H
	DB	0a7H
	DB	031H
	DB	0c8H
	DB	031H
	DB	0a7H
	DB	031H
	DB	0c7H
	DB	031H
	DB	086H
	DB	029H
	DB	066H
	DB	029H
	DB	0a7H
	DB	031H
	DB	0a7H
	DB	031H
	DB	0a7H
	DB	029H
	DB	0a6H
	DB	029H
	DB	086H
	DB	029H
	DB	0a7H
	DB	031H
	DB	0a7H
	DB	031H
	DB	0a7H
	DB	031H
	DB	0a7H
	DB	031H
	DB	086H
	DB	029H
	DB	086H
	DB	029H
	DB	0c7H
	DB	031H
	DB	0a7H
	DB	029H
	DB	087H
	DB	031H
	DB	086H
	DB	029H
	DB	066H
	DB	029H
	DB	0a7H
	DB	031H
	DB	0a7H
	DB	029H
	DB	0a7H
	DB	029H
	DB	0a7H
	DB	029H
	DB	086H
	DB	029H
	DB	0a7H
	DB	031H
	DB	0a7H
	DB	029H
	DB	087H
	DB	029H
	DB	0a7H
	DB	031H
	DB	086H
	DB	029H
	DB	086H
	DB	029H
	DB	0a7H
	DB	031H
	DB	086H
	DB	029H
	DB	086H
	DB	029H
	DB	086H
	DB	029H
	DB	086H
	DB	029H
	DB	087H
	DB	031H
	DB	0a7H
	DB	029H
	DB	0a6H
	DB	029H
	DB	066H
	DB	029H
	DB	086H
	DB	029H
	DB	087H
	DB	029H
	DB	0a7H
	DB	031H
	DB	086H
	DB	029H
	DB	066H
	DB	029H
	DB	045H
	DB	021H
	DB	0a7H
	DB	029H
	DB	087H
	DB	029H
	DB	0a7H
	DB	031H
	DB	0a7H
	DB	031H
	DB	0c8H
	DB	031H
	DB	0e8H
	DB	031H
	DB	0c7H
	DB	031H
	DB	0e8H
	DB	031H
	DB	0c7H
	DB	031H
	DB	0c7H
	DB	031H
	DB	0e8H
	DB	039H
	DB	0e7H
	DB	031H
	DB	0c8H
	DB	031H
	DB	0c7H
	DB	031H
	DB	0a7H
	DB	031H
	DB	0e8H
	DB	031H
	DB	0e8H
	DB	031H
	DB	0e8H
	DB	031H
	DB	0e8H
	DB	031H
	DB	0a7H
	DB	031H
	DB	0c7H
	DB	031H
	DB	0e8H
	DB	031H
	DB	0a7H
	DB	031H
	DB	0c7H
	DB	031H
	DB	0a7H
	DB	031H
	DB	0c7H
	DB	031H
	DB	0c8H
	DB	031H
	DB	0c7H
	DB	031H
	DB	0c7H
	DB	031H
	DB	0c7H
	DB	031H
	DB	0a7H
	DB	031H
	DB	0c8H
	DB	031H
	DB	0c7H
	DB	031H
	DB	0c7H
	DB	031H
	DB	0c8H
	DB	031H
	DB	0a7H
	DB	031H
	DB	0c7H
	DB	031H
	DB	0c8H
	DB	031H
	DB	0c7H
	DB	031H
	DB	0c7H
	DB	031H
	DB	0c7H
	DB	031H
	DB	0c7H
	DB	031H
	DB	0c8H
	DB	031H
	DB	0c8H
	DB	031H
	DB	0c7H
	DB	031H
	DB	0c7H
	DB	031H
	DB	0a7H
	DB	031H
	DB	0c8H
	DB	031H
	DB	0e8H
	DB	031H
	DB	0c7H
	DB	031H
	DB	0a7H
	DB	031H
	DB	0a7H
	DB	031H
	DB	0c7H
	DB	031H
	DB	0c8H
	DB	031H
	DB	0a7H
	DB	031H
	DB	0c7H
	DB	031H
	DB	0a7H
	DB	031H
	DB	0a7H
	DB	031H
	DB	0c7H
	DB	031H
	DB	0a7H
	DB	029H
	DB	0c7H
	DB	031H
	DB	0a7H
	DB	031H
	DB	087H
	DB	029H
	DB	0c7H
	DB	031H
	DB	0c8H
	DB	031H
	DB	0a7H
	DB	031H
	DB	0c7H
	DB	031H
	DB	0a7H
	DB	031H
	DB	0c7H
	DB	031H
	DB	0c7H
	DB	031H
	DB	0c7H
	DB	031H
	DB	0c7H
	DB	031H
	DB	0a7H
	DB	031H
	DB	0a7H
	DB	031H
	DB	0c8H
	DB	031H
	DB	0c7H
	DB	031H
	DB	0c8H
	DB	039H
	DB	0a7H
	DB	031H
	DB	087H
	DB	029H
	DB	0c7H
	DB	031H
	DB	0a7H
	DB	031H
	DB	087H
	DB	029H
	DB	0a7H
	DB	029H
	DB	087H
	DB	029H
	DB	0a7H
	DB	031H
	DB	0c7H
	DB	031H
	DB	0a7H
	DB	031H
	DB	0a7H
	DB	031H
	DB	0a7H
	DB	029H
	DB	0a7H
	DB	029H
	DB	0c7H
	DB	031H
	DB	087H
	DB	029H
	DB	0c7H
	DB	031H
	DB	0a7H
	DB	031H
	DB	087H
	DB	029H
	DB	0c7H
	DB	031H
	DB	0a7H
	DB	031H
	DB	0a6H
	DB	029H
	DB	0a7H
	DB	031H
	DB	0a7H
	DB	031H
	DB	0a7H
	DB	031H
	DB	0a7H
	DB	031H
	DB	0a7H
	DB	029H
	DB	0a7H
	DB	031H
	DB	0a6H
	DB	029H
	DB	0a7H
	DB	029H
	DB	0c7H
	DB	031H
	DB	0a7H
	DB	031H
	DB	0a7H
	DB	031H
	DB	0a7H
	DB	029H
	DB	086H
	DB	029H
	DB	0a7H
	DB	031H
	DB	0a7H
	DB	029H
	DB	086H
	DB	029H
	DB	087H
	DB	029H
	DB	0a6H
	DB	029H
	DB	0a7H
	DB	031H
	DB	0a7H
	DB	031H
	DB	086H
	DB	029H
	DB	0a7H
	DB	029H
	DB	086H
	DB	029H
	DB	087H
	DB	031H
	DB	0a7H
	DB	031H
	DB	086H
	DB	029H
	DB	0a7H
	DB	029H
	DB	086H
	DB	029H
	DB	086H
	DB	029H
	DB	0a7H
	DB	031H
	DB	0a7H
	DB	031H
	DB	086H
	DB	029H
	DB	086H
	DB	029H
	DB	086H
	DB	029H
	DB	0a7H
	DB	031H
	DB	087H
	DB	031H
	DB	086H
	DB	029H
	DB	0a7H
	DB	031H
	DB	086H
	DB	029H
	DB	086H
	DB	029H
	DB	0a7H
	DB	031H
	DB	0a7H
	DB	031H
	DB	0a7H
	DB	031H
	DB	0a7H
	DB	031H
	DB	086H
	DB	029H
	DB	0a7H
	DB	029H
	DB	086H
	DB	029H
	DB	086H
	DB	029H
	DB	086H
	DB	029H
	DB	066H
	DB	029H
	DB	087H
	DB	029H
	DB	0a6H
	DB	029H
	DB	045H
	DB	021H
	DB	066H
	DB	029H
	DB	0a6H
	DB	029H
	DB	0a7H
	DB	031H
	DB	0a7H
	DB	031H
	DB	0a7H
	DB	031H
	DB	0a7H
	DB	031H
	DB	0c7H
	DB	031H
	DB	0c7H
	DB	031H
	DB	0e8H
	DB	039H
	DB	0c7H
	DB	031H
	DB	0a7H
	DB	031H
	DB	0c7H
	DB	031H
	DB	0e8H
	DB	039H
	DB	0e8H
	DB	031H
	DB	0c8H
	DB	031H
	DB	0c7H
	DB	031H
	DB	0a7H
	DB	031H
	DB	0c8H
	DB	031H
	DB	0e8H
	DB	039H
	DB	0e8H
	DB	039H
	DB	0c7H
	DB	031H
	DB	0a7H
	DB	029H
	DB	0c7H
	DB	031H
	DB	08H
	DB	03aH
	DB	0c8H
	DB	031H
	DB	0a7H
	DB	031H
	DB	0c7H
	DB	031H
	DB	0a7H
	DB	031H
	DB	0e8H
	DB	031H
	DB	0c7H
	DB	031H
	DB	0e8H
	DB	031H
	DB	0c7H
	DB	031H
	DB	0a7H
	DB	031H
	DB	0c8H
	DB	031H
	DB	0e8H
	DB	031H
	DB	0c7H
	DB	031H
	DB	0c7H
	DB	031H
	DB	0c7H
	DB	031H
	DB	0c7H
	DB	031H
	DB	0e8H
	DB	039H
	DB	0c7H
	DB	031H
	DB	0c7H
	DB	031H
	DB	0a7H
	DB	031H
	DB	0a7H
	DB	029H
	DB	08H
	DB	03aH
	DB	0e8H
	DB	039H
	DB	0c7H
	DB	031H
	DB	0a7H
	DB	031H
	DB	0a6H
	DB	029H
	DB	0c7H
	DB	031H
	DB	0e8H
	DB	039H
	DB	0a7H
	DB	031H
	DB	0a7H
	DB	029H
	DB	0a7H
	DB	029H
	DB	0a7H
	DB	031H
	DB	0c7H
	DB	031H
	DB	0c7H
	DB	031H
	DB	0c7H
	DB	031H
	DB	0a7H
	DB	029H
	DB	0a7H
	DB	031H
	DB	0e8H
	DB	031H
	DB	0e7H
	DB	031H
	DB	0c7H
	DB	031H
	DB	0a7H
	DB	031H
	DB	0a7H
	DB	029H
	DB	0a7H
	DB	031H
	DB	0c7H
	DB	031H
	DB	0c8H
	DB	031H
	DB	0c7H
	DB	031H
	DB	0a6H
	DB	029H
	DB	0c7H
	DB	031H
	DB	0e8H
	DB	031H
	DB	0c7H
	DB	031H
	DB	0c7H
	DB	031H
	DB	0a7H
	DB	029H
	DB	0a7H
	DB	031H
	DB	0c7H
	DB	031H
	DB	0e8H
	DB	031H
	DB	0e7H
	DB	031H
	DB	0a7H
	DB	031H
	DB	086H
	DB	029H
	DB	0a7H
	DB	031H
	DB	0a7H
	DB	031H
	DB	0a7H
	DB	031H
	DB	0a7H
	DB	029H
	DB	086H
	DB	029H
	DB	0a7H
	DB	031H
	DB	0c7H
	DB	031H
	DB	0a7H
	DB	031H
	DB	0a7H
	DB	031H
	DB	0a6H
	DB	029H
	DB	086H
	DB	029H
	DB	0a7H
	DB	031H
	DB	0c7H
	DB	031H
	DB	0c7H
	DB	031H
	DB	087H
	DB	029H
	DB	086H
	DB	029H
	DB	0c7H
	DB	031H
	DB	0c8H
	DB	031H
	DB	0a7H
	DB	031H
	DB	0a7H
	DB	031H
	DB	086H
	DB	029H
	DB	0a7H
	DB	029H
	DB	0c7H
	DB	031H
	DB	0a7H
	DB	031H
	DB	0a7H
	DB	031H
	DB	0a6H
	DB	029H
	DB	086H
	DB	029H
	DB	0c7H
	DB	031H
	DB	0c7H
	DB	031H
	DB	0a7H
	DB	029H
	DB	086H
	DB	029H
	DB	086H
	DB	029H
	DB	0a7H
	DB	029H
	DB	0a7H
	DB	031H
	DB	087H
	DB	031H
	DB	0a7H
	DB	029H
	DB	086H
	DB	029H
	DB	086H
	DB	029H
	DB	0a7H
	DB	029H
	DB	0a7H
	DB	031H
	DB	0a7H
	DB	031H
	DB	086H
	DB	029H
	DB	086H
	DB	029H
	DB	0c7H
	DB	031H
	DB	0a7H
	DB	031H
	DB	0a7H
	DB	031H
	DB	086H
	DB	029H
	DB	086H
	DB	029H
	DB	0a7H
	DB	031H
	DB	0a7H
	DB	031H
	DB	0a7H
	DB	029H
	DB	086H
	DB	029H
	DB	086H
	DB	029H
	DB	086H
	DB	029H
	DB	0a7H
	DB	029H
	DB	0a7H
	DB	031H
	DB	087H
	DB	031H
	DB	086H
	DB	029H
	DB	086H
	DB	029H
	DB	0c7H
	DB	031H
	DB	0a7H
	DB	031H
	DB	087H
	DB	029H
	DB	0a6H
	DB	029H
	DB	066H
	DB	029H
	DB	087H
	DB	031H
	DB	0a7H
	DB	029H
	DB	086H
	DB	029H
	DB	066H
	DB	029H
	DB	066H
	DB	029H
	DB	066H
	DB	029H
	DB	066H
	DB	029H
	DB	065H
	DB	021H
	DB	066H
	DB	029H
	DB	0a7H
	DB	031H
	DB	0c7H
	DB	031H
	DB	0c7H
	DB	031H
	DB	0e8H
	DB	031H
	DB	0a7H
	DB	031H
	DB	0c7H
	DB	031H
	DB	0e8H
	DB	031H
	DB	0c8H
	DB	031H
	DB	0c8H
	DB	031H
	DB	0c7H
	DB	031H
	DB	0c8H
	DB	031H
	DB	0e8H
	DB	031H
	DB	0c8H
	DB	031H
	DB	0c7H
	DB	031H
	DB	0c7H
	DB	031H
	DB	0c7H
	DB	031H
	DB	0c8H
	DB	031H
	DB	0c8H
	DB	031H
	DB	0c7H
	DB	031H
	DB	0a7H
	DB	031H
	DB	0a7H
	DB	031H
	DB	0e8H
	DB	031H
	DB	0c8H
	DB	031H
	DB	0c7H
	DB	031H
	DB	0c7H
	DB	031H
	DB	0c7H
	DB	031H
	DB	0c8H
	DB	031H
	DB	0e8H
	DB	031H
	DB	0c7H
	DB	031H
	DB	0c7H
	DB	031H
	DB	0c7H
	DB	031H
	DB	0c7H
	DB	031H
	DB	0c8H
	DB	031H
	DB	0c8H
	DB	031H
	DB	0c7H
	DB	031H
	DB	0a7H
	DB	031H
	DB	0a7H
	DB	031H
	DB	0e8H
	DB	031H
	DB	0c8H
	DB	031H
	DB	0c7H
	DB	031H
	DB	0c7H
	DB	031H
	DB	0a7H
	DB	031H
	DB	0c8H
	DB	031H
	DB	0e8H
	DB	031H
	DB	0e8H
	DB	031H
	DB	0c7H
	DB	031H
	DB	0a7H
	DB	031H
	DB	0a7H
	DB	031H
	DB	0e8H
	DB	031H
	DB	0e8H
	DB	031H
	DB	0a7H
	DB	031H
	DB	0a7H
	DB	031H
	DB	0a7H
	DB	029H
	DB	0c7H
	DB	031H
	DB	0c8H
	DB	031H
	DB	0c7H
	DB	031H
	DB	0a7H
	DB	031H
	DB	0a7H
	DB	029H
	DB	0c8H
	DB	031H
	DB	0c8H
	DB	031H
	DB	0c7H
	DB	031H
	DB	0c7H
	DB	031H
	DB	0a7H
	DB	031H
	DB	0a6H
	DB	029H
	DB	0c7H
	DB	031H
	DB	0c8H
	DB	031H
	DB	0c7H
	DB	031H
	DB	0a7H
	DB	031H
	DB	0a7H
	DB	029H
	DB	0c8H
	DB	031H
	DB	0c8H
	DB	031H
	DB	0c7H
	DB	031H
	DB	0c7H
	DB	031H
	DB	0a7H
	DB	029H
	DB	0a7H
	DB	031H
	DB	0c7H
	DB	031H
	DB	0c7H
	DB	031H
	DB	0a7H
	DB	031H
	DB	0a7H
	DB	031H
	DB	0a7H
	DB	031H
	DB	0c7H
	DB	031H
	DB	0c7H
	DB	031H
	DB	0c7H
	DB	031H
	DB	0a7H
	DB	031H
	DB	087H
	DB	029H
	DB	0c7H
	DB	031H
	DB	0c7H
	DB	031H
	DB	0a7H
	DB	031H
	DB	0c7H
	DB	031H
	DB	087H
	DB	029H
	DB	0c7H
	DB	031H
	DB	0c7H
	DB	031H
	DB	0a7H
	DB	031H
	DB	0a7H
	DB	031H
	DB	0a7H
	DB	029H
	DB	0a7H
	DB	031H
	DB	0c7H
	DB	031H
	DB	0c7H
	DB	031H
	DB	0a7H
	DB	031H
	DB	086H
	DB	029H
	DB	086H
	DB	029H
	DB	0a7H
	DB	031H
	DB	0a7H
	DB	031H
	DB	0a7H
	DB	031H
	DB	0a7H
	DB	029H
	DB	087H
	DB	029H
	DB	0a7H
	DB	031H
	DB	0c7H
	DB	031H
	DB	0a7H
	DB	031H
	DB	0a7H
	DB	031H
	DB	086H
	DB	029H
	DB	086H
	DB	029H
	DB	0c7H
	DB	031H
	DB	0c7H
	DB	031H
	DB	087H
	DB	029H
	DB	086H
	DB	029H
	DB	087H
	DB	029H
	DB	0a7H
	DB	031H
	DB	0c7H
	DB	031H
	DB	0a7H
	DB	029H
	DB	0a6H
	DB	029H
	DB	086H
	DB	029H
	DB	0a7H
	DB	031H
	DB	0a7H
	DB	031H
	DB	0a7H
	DB	029H
	DB	0a7H
	DB	031H
	DB	086H
	DB	029H
	DB	066H
	DB	029H
	DB	0c7H
	DB	031H
	DB	0c7H
	DB	031H
	DB	087H
	DB	029H
	DB	086H
	DB	029H
	DB	086H
	DB	029H
	DB	0a7H
	DB	031H
	DB	087H
	DB	029H
	DB	087H
	DB	029H
	DB	0a7H
	DB	029H
	DB	086H
	DB	029H
	DB	0a7H
	DB	031H
	DB	0a7H
	DB	031H
	DB	087H
	DB	029H
	DB	0a7H
	DB	029H
	DB	086H
	DB	029H
	DB	066H
	DB	029H
	DB	0a7H
	DB	031H
	DB	0a7H
	DB	031H
	DB	086H
	DB	029H
	DB	066H
	DB	029H
	DB	046H
	DB	029H
	DB	066H
	DB	029H
	DB	065H
	DB	029H
	DB	086H
	DB	029H
	DB	086H
	DB	029H
	DB	0c7H
	DB	031H
	DB	0c8H
	DB	031H
	DB	0e8H
	DB	031H
	DB	0e8H
	DB	031H
	DB	0c7H
	DB	031H
	DB	0c7H
	DB	031H
	DB	0c8H
	DB	031H
	DB	0e8H
	DB	031H
	DB	08H
	DB	03aH
	DB	0a7H
	DB	031H
	DB	0c7H
	DB	031H
	DB	0c7H
	DB	031H
	DB	0a7H
	DB	031H
	DB	0c8H
	DB	031H
	DB	0c7H
	DB	031H
	DB	0c7H
	DB	031H
	DB	0c7H
	DB	031H
	DB	0e8H
	DB	031H
	DB	0e8H
	DB	031H
	DB	0e8H
	DB	031H
	DB	0a7H
	DB	029H
	DB	0c7H
	DB	031H
	DB	0e8H
	DB	031H
	DB	0c7H
	DB	031H
	DB	0e8H
	DB	031H
	DB	0a7H
	DB	031H
	DB	0a7H
	DB	031H
	DB	0e8H
	DB	031H
	DB	0e8H
	DB	031H
	DB	0e8H
	DB	031H
	DB	0a7H
	DB	031H
	DB	0c7H
	DB	031H
	DB	0c8H
	DB	031H
	DB	0a7H
	DB	031H
	DB	0c7H
	DB	031H
	DB	0c8H
	DB	031H
	DB	0a7H
	DB	031H
	DB	0e8H
	DB	031H
	DB	0c8H
	DB	031H
	DB	0a7H
	DB	029H
	DB	0c7H
	DB	031H
	DB	0a7H
	DB	031H
	DB	0c7H
	DB	031H
	DB	0a7H
	DB	031H
	DB	0c7H
	DB	031H
	DB	0e8H
	DB	031H
	DB	0a7H
	DB	031H
	DB	0a7H
	DB	031H
	DB	0c7H
	DB	031H
	DB	0a7H
	DB	029H
	DB	0c7H
	DB	031H
	DB	0c7H
	DB	031H
	DB	087H
	DB	029H
	DB	0c7H
	DB	031H
	DB	0a7H
	DB	031H
	DB	0a7H
	DB	031H
	DB	0c7H
	DB	031H
	DB	0a7H
	DB	029H
	DB	0a7H
	DB	031H
	DB	0c7H
	DB	031H
	DB	0a7H
	DB	031H
	DB	0c8H
	DB	031H
	DB	0c7H
	DB	031H
	DB	0a7H
	DB	029H
	DB	0c7H
	DB	031H
	DB	0c7H
	DB	031H
	DB	0c8H
	DB	031H
	DB	087H
	DB	031H
	DB	086H
	DB	029H
	DB	0c7H
	DB	031H
	DB	0c7H
	DB	031H
	DB	0c7H
	DB	031H
	DB	0c7H
	DB	031H
	DB	0a7H
	DB	029H
	DB	0a7H
	DB	029H
	DB	0e8H
	DB	031H
	DB	0c7H
	DB	031H
	DB	0c8H
	DB	031H
	DB	0c7H
	DB	031H
	DB	087H
	DB	029H
	DB	0a7H
	DB	031H
	DB	0a7H
	DB	031H
	DB	0c7H
	DB	031H
	DB	0c7H
	DB	031H
	DB	087H
	DB	029H
	DB	0c7H
	DB	031H
	DB	0c7H
	DB	031H
	DB	0a7H
	DB	031H
	DB	0c7H
	DB	031H
	DB	087H
	DB	029H
	DB	0a7H
	DB	029H
	DB	087H
	DB	031H
	DB	0a7H
	DB	031H
	DB	0c7H
	DB	031H
	DB	087H
	DB	029H
	DB	086H
	DB	029H
	DB	0a7H
	DB	031H
	DB	0a7H
	DB	029H
	DB	0c7H
	DB	031H
	DB	0a7H
	DB	031H
	DB	0a6H
	DB	029H
	DB	0a7H
	DB	029H
	DB	0a7H
	DB	031H
	DB	0a6H
	DB	029H
	DB	0a7H
	DB	031H
	DB	087H
	DB	029H
	DB	087H
	DB	029H
	DB	0a7H
	DB	031H
	DB	0a7H
	DB	029H
	DB	0c7H
	DB	031H
	DB	087H
	DB	029H
	DB	086H
	DB	029H
	DB	0a7H
	DB	031H
	DB	086H
	DB	029H
	DB	0a7H
	DB	031H
	DB	0a7H
	DB	031H
	DB	086H
	DB	029H
	DB	087H
	DB	029H
	DB	0a7H
	DB	031H
	DB	087H
	DB	029H
	DB	0a7H
	DB	031H
	DB	087H
	DB	029H
	DB	086H
	DB	029H
	DB	0a7H
	DB	029H
	DB	0a7H
	DB	029H
	DB	0a7H
	DB	031H
	DB	086H
	DB	029H
	DB	086H
	DB	029H
	DB	087H
	DB	031H
	DB	0a7H
	DB	029H
	DB	0a7H
	DB	031H
	DB	087H
	DB	031H
	DB	066H
	DB	029H
	DB	0a7H
	DB	029H
	DB	0a7H
	DB	031H
	DB	086H
	DB	029H
	DB	0a7H
	DB	031H
	DB	086H
	DB	029H
	DB	0a7H
	DB	029H
	DB	086H
	DB	029H
	DB	086H
	DB	029H
	DB	0a7H
	DB	031H
	DB	086H
	DB	029H
	DB	086H
	DB	029H
	DB	087H
	DB	029H
	DB	086H
	DB	029H
	DB	086H
	DB	029H
	DB	086H
	DB	029H
	DB	045H
	DB	021H
	DB	046H
	DB	029H
	DB	087H
	DB	029H
	DB	086H
	DB	029H
	DB	0a7H
	DB	029H
	DB	0e8H
	DB	031H
	DB	0c7H
	DB	031H
	DB	0c7H
	DB	031H
	DB	0c7H
	DB	031H
	DB	0c7H
	DB	031H
	DB	0c7H
	DB	031H
	DB	0e8H
	DB	031H
	DB	0c7H
	DB	031H
	DB	0c7H
	DB	031H
	DB	0a7H
	DB	031H
	DB	0c7H
	DB	031H
	DB	0e8H
	DB	031H
	DB	0c7H
	DB	031H
	DB	0c8H
	DB	031H
	DB	0e8H
	DB	031H
	DB	0a7H
	DB	031H
	DB	0c7H
	DB	031H
	DB	0e8H
	DB	039H
	DB	0c8H
	DB	031H
	DB	0c7H
	DB	031H
	DB	0a7H
	DB	031H
	DB	0c8H
	DB	031H
	DB	0c8H
	DB	031H
	DB	0c8H
	DB	031H
	DB	0e7H
	DB	031H
	DB	0a7H
	DB	031H
	DB	0c7H
	DB	031H
	DB	0e8H
	DB	039H
	DB	0c8H
	DB	031H
	DB	0c7H
	DB	031H
	DB	0c7H
	DB	031H
	DB	0a7H
	DB	029H
	DB	0c7H
	DB	031H
	DB	0e8H
	DB	039H
	DB	0c7H
	DB	031H
	DB	0c7H
	DB	031H
	DB	0a7H
	DB	029H
	DB	0c7H
	DB	031H
	DB	0c8H
	DB	031H
	DB	0c7H
	DB	031H
	DB	0c7H
	DB	031H
	DB	0a7H
	DB	031H
	DB	0a7H
	DB	029H
	DB	0c7H
	DB	031H
	DB	0c7H
	DB	031H
	DB	0a7H
	DB	031H
	DB	0a7H
	DB	029H
	DB	087H
	DB	029H
	DB	0c7H
	DB	031H
	DB	0c8H
	DB	031H
	DB	0c7H
	DB	031H
	DB	0c7H
	DB	031H
	DB	087H
	DB	029H
	DB	0a7H
	DB	029H
	DB	0e8H
	DB	031H
	DB	0c7H
	DB	031H
	DB	0c7H
	DB	031H
	DB	0a7H
	DB	031H
	DB	086H
	DB	029H
	DB	0c7H
	DB	031H
	DB	0e8H
	DB	031H
	DB	0c8H
	DB	031H
	DB	0a7H
	DB	031H
	DB	087H
	DB	031H
	DB	0c7H
	DB	031H
	DB	0c8H
	DB	031H
	DB	0c7H
	DB	031H
	DB	0a7H
	DB	031H
	DB	087H
	DB	029H
	DB	0a7H
	DB	031H
	DB	0c8H
	DB	031H
	DB	0a7H
	DB	031H
	DB	0a7H
	DB	031H
	DB	086H
	DB	029H
	DB	0c7H
	DB	031H
	DB	0c8H
	DB	031H
	DB	0a7H
	DB	031H
	DB	0c7H
	DB	031H
	DB	0a7H
	DB	029H
	DB	086H
	DB	029H
	DB	0c7H
	DB	031H
	DB	0c7H
	DB	031H
	DB	0c7H
	DB	031H
	DB	0a7H
	DB	031H
	DB	087H
	DB	029H
	DB	0c7H
	DB	031H
	DB	0a7H
	DB	031H
	DB	0a7H
	DB	029H
	DB	0a7H
	DB	031H
	DB	086H
	DB	029H
	DB	086H
	DB	029H
	DB	0c7H
	DB	031H
	DB	0a7H
	DB	031H
	DB	0c7H
	DB	031H
	DB	0a7H
	DB	029H
	DB	086H
	DB	029H
	DB	0a7H
	DB	031H
	DB	0c8H
	DB	031H
	DB	0c7H
	DB	031H
	DB	0a7H
	DB	031H
	DB	086H
	DB	029H
	DB	0a7H
	DB	031H
	DB	0c7H
	DB	031H
	DB	0a7H
	DB	029H
	DB	0a7H
	DB	031H
	DB	086H
	DB	029H
	DB	086H
	DB	029H
	DB	0a7H
	DB	031H
	DB	0a7H
	DB	029H
	DB	0a7H
	DB	031H
	DB	087H
	DB	029H
	DB	066H
	DB	029H
	DB	0a7H
	DB	031H
	DB	0c7H
	DB	031H
	DB	0a7H
	DB	029H
	DB	0a7H
	DB	031H
	DB	086H
	DB	029H
	DB	087H
	DB	031H
	DB	0a7H
	DB	031H
	DB	0a7H
	DB	031H
	DB	0a7H
	DB	031H
	DB	086H
	DB	029H
	DB	086H
	DB	029H
	DB	0a7H
	DB	031H
	DB	0a7H
	DB	029H
	DB	0a7H
	DB	029H
	DB	086H
	DB	029H
	DB	086H
	DB	029H
	DB	0a7H
	DB	031H
	DB	0c7H
	DB	031H
	DB	086H
	DB	029H
	DB	086H
	DB	029H
	DB	086H
	DB	029H
	DB	086H
	DB	029H
	DB	0a7H
	DB	031H
	DB	087H
	DB	029H
	DB	086H
	DB	029H
	DB	086H
	DB	029H
	DB	066H
	DB	029H
	DB	0a7H
	DB	031H
	DB	0a7H
	DB	031H
	DB	087H
	DB	031H
	DB	086H
	DB	029H
	DB	066H
	DB	029H
	DB	0a7H
	DB	031H
	DB	0a7H
	DB	031H
	DB	086H
	DB	029H
	DB	066H
	DB	021H
	DB	025H
	DB	021H
	DB	086H
	DB	029H
	DB	087H
	DB	029H
	DB	0a7H
	DB	031H
	DB	0a7H
	DB	031H
	DB	0e8H
	DB	031H
	DB	0c8H
	DB	031H
	DB	0c7H
	DB	031H
	DB	0e8H
	DB	031H
	DB	0a7H
	DB	031H
	DB	0c7H
	DB	031H
	DB	0c8H
	DB	031H
	DB	0c7H
	DB	031H
	DB	0e8H
	DB	031H
	DB	0c7H
	DB	031H
	DB	0c7H
	DB	031H
	DB	0e8H
	DB	031H
	DB	0c7H
	DB	031H
	DB	0e8H
	DB	031H
	DB	0c7H
	DB	031H
	DB	0a7H
	DB	031H
	DB	0e8H
	DB	039H
	DB	0c8H
	DB	031H
	DB	0c7H
	DB	031H
	DB	0c7H
	DB	031H
	DB	0a7H
	DB	029H
	DB	0c7H
	DB	031H
	DB	0e8H
	DB	039H
	DB	0c7H
	DB	031H
	DB	0c8H
	DB	031H
	DB	0c7H
	DB	031H
	DB	0c7H
	DB	031H
	DB	0c8H
	DB	031H
	DB	0c7H
	DB	031H
	DB	0c8H
	DB	039H
	DB	0c7H
	DB	031H
	DB	0a7H
	DB	031H
	DB	0c8H
	DB	031H
	DB	0c8H
	DB	031H
	DB	0c7H
	DB	031H
	DB	0c7H
	DB	031H
	DB	0c8H
	DB	031H
	DB	0c7H
	DB	031H
	DB	0c8H
	DB	031H
	DB	0c7H
	DB	031H
	DB	0e8H
	DB	031H
	DB	0a7H
	DB	031H
	DB	0a7H
	DB	031H
	DB	0c8H
	DB	031H
	DB	0c7H
	DB	031H
	DB	0a7H
	DB	031H
	DB	0a7H
	DB	031H
	DB	0c7H
	DB	031H
	DB	0c8H
	DB	031H
	DB	0c7H
	DB	031H
	DB	0c7H
	DB	031H
	DB	0a7H
	DB	031H
	DB	0c7H
	DB	031H
	DB	0a7H
	DB	031H
	DB	0c7H
	DB	031H
	DB	0a7H
	DB	031H
	DB	0c7H
	DB	031H
	DB	0a7H
	DB	029H
	DB	0a7H
	DB	031H
	DB	0c7H
	DB	031H
	DB	0c7H
	DB	031H
	DB	0a7H
	DB	031H
	DB	0c7H
	DB	031H
	DB	0a7H
	DB	031H
	DB	0c7H
	DB	031H
	DB	0c7H
	DB	031H
	DB	0c7H
	DB	031H
	DB	0a7H
	DB	031H
	DB	0a7H
	DB	029H
	DB	0a7H
	DB	031H
	DB	0c7H
	DB	031H
	DB	0c7H
	DB	031H
	DB	0a7H
	DB	031H
	DB	0a7H
	DB	031H
	DB	0a7H
	DB	031H
	DB	0c7H
	DB	031H
	DB	0a7H
	DB	031H
	DB	0a7H
	DB	031H
	DB	0c7H
	DB	031H
	DB	0a7H
	DB	029H
	DB	0a7H
	DB	031H
	DB	0c8H
	DB	031H
	DB	0a7H
	DB	031H
	DB	0a7H
	DB	031H
	DB	0a7H
	DB	029H
	DB	0c7H
	DB	031H
	DB	0c7H
	DB	031H
	DB	0a7H
	DB	031H
	DB	087H
	DB	029H
	DB	0a7H
	DB	029H
	DB	0a7H
	DB	029H
	DB	0c7H
	DB	031H
	DB	0a7H
	DB	031H
	DB	0a7H
	DB	031H
	DB	0a7H
	DB	031H
	DB	087H
	DB	029H
	DB	0a7H
	DB	031H
	DB	0c7H
	DB	031H
	DB	0a7H
	DB	031H
	DB	0a7H
	DB	031H
	DB	0a7H
	DB	029H
	DB	0a7H
	DB	031H
	DB	0a7H
	DB	031H
	DB	0a7H
	DB	029H
	DB	0a7H
	DB	029H
	DB	087H
	DB	029H
	DB	0a7H
	DB	031H
	DB	0a7H
	DB	031H
	DB	0a7H
	DB	031H
	DB	0a6H
	DB	029H
	DB	086H
	DB	029H
	DB	0a7H
	DB	029H
	DB	0a7H
	DB	029H
	DB	0a7H
	DB	031H
	DB	0a6H
	DB	031H
	DB	087H
	DB	029H
	DB	086H
	DB	029H
	DB	0a6H
	DB	029H
	DB	0a7H
	DB	031H
	DB	0a6H
	DB	029H
	DB	0a7H
	DB	029H
	DB	086H
	DB	029H
	DB	086H
	DB	029H
	DB	087H
	DB	031H
	DB	087H
	DB	029H
	DB	0a7H
	DB	031H
	DB	0a7H
	DB	031H
	DB	087H
	DB	029H
	DB	0a7H
	DB	031H
	DB	0a7H
	DB	031H
	DB	086H
	DB	029H
	DB	086H
	DB	029H
	DB	086H
	DB	029H
	DB	087H
	DB	029H
	DB	0a7H
	DB	031H
	DB	086H
	DB	029H
	DB	086H
	DB	029H
	DB	086H
	DB	029H
	DB	0a7H
	DB	029H
	DB	0a7H
	DB	031H
	DB	086H
	DB	029H
	DB	086H
	DB	029H
	DB	086H
	DB	029H
	DB	086H
	DB	029H
	DB	087H
	DB	029H
	DB	086H
	DB	029H
	DB	046H
	DB	029H
	DB	045H
	DB	021H
	DB	086H
	DB	029H
	DB	0a7H
	DB	031H
	DB	0c7H
	DB	031H
	DB	0a7H
	DB	031H
	DB	0a7H
	DB	031H
	DB	0e8H
	DB	031H
	DB	0e8H
	DB	039H
	DB	0c8H
	DB	031H
	DB	0c7H
	DB	031H
	DB	0a7H
	DB	031H
	DB	0c7H
	DB	031H
	DB	0c8H
	DB	031H
	DB	0e8H
	DB	031H
	DB	0c8H
	DB	031H
	DB	0a7H
	DB	031H
	DB	0a7H
	DB	031H
	DB	0c8H
	DB	031H
	DB	0c7H
	DB	031H
	DB	0c7H
	DB	031H
	DB	0c7H
	DB	031H
	DB	0a7H
	DB	031H
	DB	0c7H
	DB	031H
	DB	0e8H
	DB	031H
	DB	0c7H
	DB	031H
	DB	0e7H
	DB	031H
	DB	0a7H
	DB	031H
	DB	0c7H
	DB	031H
	DB	0c8H
	DB	031H
	DB	0c8H
	DB	031H
	DB	0c7H
	DB	031H
	DB	0a7H
	DB	031H
	DB	0a7H
	DB	031H
	DB	0c8H
	DB	031H
	DB	0e8H
	DB	031H
	DB	0c8H
	DB	031H
	DB	0c7H
	DB	031H
	DB	0c7H
	DB	031H
	DB	0c8H
	DB	031H
	DB	0e8H
	DB	031H
	DB	0e8H
	DB	039H
	DB	0c7H
	DB	031H
	DB	0a7H
	DB	029H
	DB	0c7H
	DB	031H
	DB	0c8H
	DB	031H
	DB	0c8H
	DB	031H
	DB	0c7H
	DB	031H
	DB	0a7H
	DB	031H
	DB	0c7H
	DB	031H
	DB	0e8H
	DB	031H
	DB	0e8H
	DB	031H
	DB	0c7H
	DB	031H
	DB	0a7H
	DB	031H
	DB	0a7H
	DB	031H
	DB	0a7H
	DB	031H
	DB	0a7H
	DB	031H
	DB	0c7H
	DB	031H
	DB	0c7H
	DB	031H
	DB	087H
	DB	029H
	DB	0c7H
	DB	031H
	DB	0c8H
	DB	031H
	DB	0c7H
	DB	031H
	DB	0c7H
	DB	031H
	DB	0a7H
	DB	031H
	DB	0a7H
	DB	031H
	DB	0c7H
	DB	031H
	DB	0e8H
	DB	031H
	DB	0c8H
	DB	031H
	DB	0a7H
	DB	031H
	DB	0a7H
	DB	029H
	DB	0a7H
	DB	031H
	DB	0c7H
	DB	031H
	DB	0c7H
	DB	031H
	DB	0c7H
	DB	031H
	DB	086H
	DB	029H
	DB	0c7H
	DB	031H
	DB	0e8H
	DB	031H
	DB	0c7H
	DB	031H
	DB	0c7H
	DB	031H
	DB	0a6H
	DB	029H
	DB	0a7H
	DB	029H
	DB	0a7H
	DB	031H
	DB	0a7H
	DB	031H
	DB	0c7H
	DB	031H
	DB	0a7H
	DB	029H
	DB	087H
	DB	029H
	DB	0a7H
	DB	031H
	DB	0c7H
	DB	031H
	DB	0c7H
	DB	031H
	DB	0a7H
	DB	031H
	DB	087H
	DB	029H
	DB	0a7H
	DB	031H
	DB	0c7H
	DB	031H
	DB	0c7H
	DB	031H
	DB	0a7H
	DB	031H
	DB	0a7H
	DB	029H
	DB	087H
	DB	029H
	DB	0c7H
	DB	031H
	DB	0a7H
	DB	031H
	DB	0c7H
	DB	031H
	DB	0a7H
	DB	029H
	DB	086H
	DB	029H
	DB	0c7H
	DB	031H
	DB	0a7H
	DB	031H
	DB	0c7H
	DB	031H
	DB	0a7H
	DB	029H
	DB	086H
	DB	029H
	DB	0a7H
	DB	031H
	DB	0a7H
	DB	029H
	DB	086H
	DB	031H
	DB	0a7H
	DB	031H
	DB	086H
	DB	029H
	DB	086H
	DB	029H
	DB	0a7H
	DB	031H
	DB	0a7H
	DB	031H
	DB	0c7H
	DB	031H
	DB	086H
	DB	029H
	DB	086H
	DB	029H
	DB	087H
	DB	031H
	DB	086H
	DB	029H
	DB	0a7H
	DB	029H
	DB	086H
	DB	029H
	DB	086H
	DB	029H
	DB	087H
	DB	029H
	DB	086H
	DB	029H
	DB	0a7H
	DB	029H
	DB	0a7H
	DB	031H
	DB	086H
	DB	029H
	DB	086H
	DB	029H
	DB	087H
	DB	031H
	DB	0a7H
	DB	031H
	DB	0a7H
	DB	031H
	DB	066H
	DB	029H
	DB	086H
	DB	029H
	DB	0a7H
	DB	031H
	DB	087H
	DB	029H
	DB	086H
	DB	029H
	DB	086H
	DB	029H
	DB	086H
	DB	029H
	DB	086H
	DB	029H
	DB	087H
	DB	029H
	DB	0a7H
	DB	031H
	DB	087H
	DB	029H
	DB	086H
	DB	029H
	DB	086H
	DB	029H
	DB	086H
	DB	029H
	DB	087H
	DB	029H
	DB	0a7H
	DB	031H
	DB	066H
	DB	029H
	DB	066H
	DB	029H
	DB	086H
	DB	029H
	DB	066H
	DB	029H
	DB	065H
	DB	021H
	DB	086H
	DB	029H
	DB	0a7H
	DB	031H
	DB	0a7H
	DB	031H
	DB	0c7H
	DB	031H
	DB	0a7H
	DB	031H
	DB	0a7H
	DB	029H
	DB	0e8H
	DB	039H
	DB	0c8H
	DB	031H
	DB	0c7H
	DB	031H
	DB	0c7H
	DB	031H
	DB	087H
	DB	029H
	DB	0e8H
	DB	031H
	DB	08H
	DB	03aH
	DB	0c7H
	DB	031H
	DB	0c7H
	DB	031H
	DB	0a7H
	DB	029H
	DB	0c7H
	DB	031H
	DB	0e8H
	DB	031H
	DB	0c7H
	DB	031H
	DB	0c8H
	DB	031H
	DB	0a7H
	DB	031H
	DB	0a7H
	DB	031H
	DB	0e8H
	DB	031H
	DB	0c8H
	DB	031H
	DB	0e8H
	DB	039H
	DB	0c7H
	DB	031H
	DB	087H
	DB	029H
	DB	0c7H
	DB	031H
	DB	0c7H
	DB	031H
	DB	0c7H
	DB	031H
	DB	0c7H
	DB	031H
	DB	0a7H
	DB	029H
	DB	0c7H
	DB	031H
	DB	0e8H
	DB	039H
	DB	0c7H
	DB	031H
	DB	0a7H
	DB	031H
	DB	0c7H
	DB	031H
	DB	0a7H
	DB	031H
	DB	0e8H
	DB	039H
	DB	0c7H
	DB	031H
	DB	0c7H
	DB	031H
	DB	0c7H
	DB	031H
	DB	0a7H
	DB	031H
	DB	0e8H
	DB	031H
	DB	0e7H
	DB	031H
	DB	0a7H
	DB	031H
	DB	0c7H
	DB	031H
	DB	087H
	DB	029H
	DB	0c7H
	DB	031H
	DB	0e8H
	DB	039H
	DB	0a7H
	DB	031H
	DB	0c7H
	DB	031H
	DB	0a7H
	DB	029H
	DB	0a7H
	DB	029H
	DB	0c7H
	DB	031H
	DB	0c8H
	DB	031H
	DB	0c7H
	DB	031H
	DB	0a7H
	DB	031H
	DB	0a7H
	DB	029H
	DB	0c7H
	DB	031H
	DB	0c8H
	DB	031H
	DB	0c7H
	DB	031H
	DB	0a7H
	DB	031H
	DB	0a7H
	DB	029H
	DB	0c7H
	DB	031H
	DB	0e8H
	DB	039H
	DB	0a7H
	DB	031H
	DB	0a7H
	DB	031H
	DB	0a7H
	DB	031H
	DB	0a7H
	DB	029H
	DB	0c8H
	DB	031H
	DB	0c7H
	DB	031H
	DB	0c7H
	DB	031H
	DB	0a7H
	DB	031H
	DB	087H
	DB	029H
	DB	0c7H
	DB	031H
	DB	0c7H
	DB	031H
	DB	0a7H
	DB	031H
	DB	0a7H
	DB	031H
	DB	087H
	DB	029H
	DB	0c7H
	DB	031H
	DB	0c8H
	DB	031H
	DB	0a7H
	DB	031H
	DB	0c7H
	DB	031H
	DB	0a7H
	DB	031H
	DB	0a7H
	DB	029H
	DB	0c8H
	DB	031H
	DB	0a7H
	DB	031H
	DB	0a7H
	DB	029H
	DB	087H
	DB	029H
	DB	086H
	DB	029H
	DB	0c7H
	DB	031H
	DB	0c7H
	DB	031H
	DB	0a7H
	DB	031H
	DB	0a7H
	DB	031H
	DB	086H
	DB	029H
	DB	0c7H
	DB	031H
	DB	0c8H
	DB	031H
	DB	0a7H
	DB	029H
	DB	0a7H
	DB	031H
	DB	086H
	DB	029H
	DB	087H
	DB	029H
	DB	0e8H
	DB	031H
	DB	0c7H
	DB	031H
	DB	0a7H
	DB	031H
	DB	0a7H
	DB	029H
	DB	086H
	DB	029H
	DB	0a7H
	DB	031H
	DB	0a7H
	DB	031H
	DB	0a7H
	DB	029H
	DB	0a7H
	DB	029H
	DB	086H
	DB	029H
	DB	0a7H
	DB	029H
	DB	0c7H
	DB	031H
	DB	0a7H
	DB	031H
	DB	0a7H
	DB	031H
	DB	087H
	DB	029H
	DB	086H
	DB	029H
	DB	0a7H
	DB	031H
	DB	0a7H
	DB	031H
	DB	087H
	DB	029H
	DB	0a7H
	DB	029H
	DB	066H
	DB	029H
	DB	0a7H
	DB	029H
	DB	0a7H
	DB	031H
	DB	087H
	DB	031H
	DB	0a6H
	DB	029H
	DB	086H
	DB	029H
	DB	086H
	DB	029H
	DB	0a7H
	DB	031H
	DB	0a7H
	DB	029H
	DB	086H
	DB	029H
	DB	086H
	DB	029H
	DB	086H
	DB	029H
	DB	0a7H
	DB	031H
	DB	087H
	DB	029H
	DB	0a7H
	DB	031H
	DB	087H
	DB	031H
	DB	086H
	DB	029H
	DB	0a7H
	DB	031H
	DB	0a7H
	DB	031H
	DB	0a6H
	DB	029H
	DB	086H
	DB	029H
	DB	066H
	DB	029H
	DB	086H
	DB	029H
	DB	0a7H
	DB	031H
	DB	086H
	DB	029H
	DB	086H
	DB	029H
	DB	066H
	DB	029H
	DB	065H
	DB	029H
	DB	086H
	DB	029H
	DB	045H
	DB	021H
	DB	066H
	DB	029H
	DB	086H
	DB	029H
	DB	0c7H
	DB	031H
	DB	0a7H
	DB	031H
	DB	0a7H
	DB	031H
	DB	0c7H
	DB	031H
	DB	0a7H
	DB	031H
	DB	0e7H
	DB	031H
	DB	0c7H
	DB	031H
	DB	0a7H
	DB	031H
	DB	0c7H
	DB	031H
	DB	0a7H
	DB	031H
	DB	0c7H
	DB	031H
	DB	0e7H
	DB	031H
	DB	0c7H
	DB	031H
	DB	0c8H
	DB	031H
	DB	0c7H
	DB	031H
	DB	0c7H
	DB	031H
	DB	0c8H
	DB	031H
	DB	0c7H
	DB	031H
	DB	0c7H
	DB	031H
	DB	0c7H
	DB	031H
	DB	0a7H
	DB	029H
	DB	0c8H
	DB	031H
	DB	0c7H
	DB	031H
	DB	0c7H
	DB	031H
	DB	0c8H
	DB	031H
	DB	0a7H
	DB	031H
	DB	0c8H
	DB	031H
	DB	0c7H
	DB	031H
	DB	0c7H
	DB	031H
	DB	0c8H
	DB	031H
	DB	0a7H
	DB	031H
	DB	0c7H
	DB	031H
	DB	0c8H
	DB	031H
	DB	0a7H
	DB	029H
	DB	0c7H
	DB	031H
	DB	0c7H
	DB	031H
	DB	0a7H
	DB	029H
	DB	0c7H
	DB	031H
	DB	0c8H
	DB	031H
	DB	0c7H
	DB	031H
	DB	0c7H
	DB	031H
	DB	087H
	DB	031H
	DB	0c7H
	DB	031H
	DB	0c7H
	DB	031H
	DB	0a7H
	DB	031H
	DB	0c8H
	DB	031H
	DB	0c7H
	DB	031H
	DB	0a7H
	DB	031H
	DB	0c8H
	DB	031H
	DB	0c7H
	DB	031H
	DB	0a7H
	DB	031H
	DB	0c7H
	DB	031H
	DB	0a7H
	DB	029H
	DB	0c8H
	DB	031H
	DB	0c8H
	DB	031H
	DB	0c7H
	DB	031H
	DB	0e8H
	DB	031H
	DB	0a7H
	DB	031H
	DB	0a7H
	DB	031H
	DB	0c7H
	DB	031H
	DB	087H
	DB	029H
	DB	0c7H
	DB	031H
	DB	0a7H
	DB	031H
	DB	0a7H
	DB	029H
	DB	0c7H
	DB	031H
	DB	0a7H
	DB	031H
	DB	0c7H
	DB	031H
	DB	0c7H
	DB	031H
	DB	0a7H
	DB	031H
	DB	0c8H
	DB	031H
	DB	0a7H
	DB	031H
	DB	0c7H
	DB	031H
	DB	0c7H
	DB	031H
	DB	087H
	DB	029H
	DB	0a7H
	DB	031H
	DB	0c7H
	DB	031H
	DB	0a7H
	DB	031H
	DB	0c7H
	DB	031H
	DB	0a7H
	DB	031H
	DB	0a7H
	DB	029H
	DB	0c7H
	DB	031H
	DB	0a7H
	DB	031H
	DB	0a7H
	DB	031H
	DB	0a7H
	DB	031H
	DB	0a7H
	DB	029H
	DB	0a7H
	DB	031H
	DB	0a7H
	DB	029H
	DB	0a6H
	DB	029H
	DB	0c7H
	DB	031H
	DB	087H
	DB	029H
	DB	087H
	DB	029H
	DB	0c7H
	DB	031H
	DB	0a7H
	DB	029H
	DB	0c7H
	DB	031H
	DB	0a7H
	DB	031H
	DB	086H
	DB	029H
	DB	0c7H
	DB	031H
	DB	0a7H
	DB	031H
	DB	0a7H
	DB	031H
	DB	0a7H
	DB	031H
	DB	086H
	DB	029H
	DB	0a7H
	DB	031H
	DB	0a7H
	DB	031H
	DB	0a7H
	DB	031H
	DB	0a7H
	DB	029H
	DB	086H
	DB	029H
	DB	0a7H
	DB	031H
	DB	0a7H
	DB	031H
	DB	086H
	DB	029H
	DB	0a7H
	DB	031H
	DB	086H
	DB	029H
	DB	087H
	DB	029H
	DB	0a7H
	DB	031H
	DB	086H
	DB	029H
	DB	0a6H
	DB	029H
	DB	0a7H
	DB	031H
	DB	086H
	DB	029H
	DB	0a7H
	DB	031H
	DB	0a7H
	DB	029H
	DB	0a6H
	DB	031H
	DB	0a7H
	DB	031H
	DB	086H
	DB	029H
	DB	0a7H
	DB	031H
	DB	0a7H
	DB	031H
	DB	086H
	DB	029H
	DB	087H
	DB	029H
	DB	086H
	DB	029H
	DB	086H
	DB	029H
	DB	0a7H
	DB	031H
	DB	087H
	DB	029H
	DB	0a7H
	DB	029H
	DB	086H
	DB	029H
	DB	086H
	DB	029H
	DB	0a7H
	DB	031H
	DB	0a7H
	DB	031H
	DB	0a7H
	DB	029H
	DB	0a7H
	DB	031H
	DB	066H
	DB	029H
	DB	086H
	DB	029H
	DB	0a7H
	DB	029H
	DB	086H
	DB	029H
	DB	086H
	DB	029H
	DB	066H
	DB	029H
	DB	086H
	DB	029H
	DB	0a7H
	DB	029H
	DB	086H
	DB	029H
	DB	086H
	DB	029H
	DB	066H
	DB	029H
	DB	046H
	DB	021H
	DB	066H
	DB	029H
	DB	086H
	DB	029H
	DB	087H
	DB	029H
	DB	086H
	DB	029H
	DB	0c7H
	DB	031H
	DB	0e8H
	DB	031H
	DB	0c7H
	DB	031H
	DB	0c7H
	DB	031H
	DB	0a7H
	DB	031H
	DB	0c8H
	DB	031H
	DB	0e7H
	DB	031H
	DB	0e8H
	DB	031H
	DB	0c7H
	DB	031H
	DB	087H
	DB	029H
	DB	0a7H
	DB	031H
	DB	0e8H
	DB	039H
	DB	0c8H
	DB	031H
	DB	0c8H
	DB	031H
	DB	0c7H
	DB	031H
	DB	0a7H
	DB	031H
	DB	0c7H
	DB	031H
	DB	0c7H
	DB	031H
	DB	0c7H
	DB	031H
	DB	0c7H
	DB	031H
	DB	0a7H
	DB	031H
	DB	0c7H
	DB	031H
	DB	0e8H
	DB	039H
	DB	0c7H
	DB	031H
	DB	0c7H
	DB	031H
	DB	0a7H
	DB	031H
	DB	0a7H
	DB	031H
	DB	0c8H
	DB	031H
	DB	0e8H
	DB	031H
	DB	0c7H
	DB	031H
	DB	0a7H
	DB	031H
	DB	0c7H
	DB	031H
	DB	0e8H
	DB	031H
	DB	0c8H
	DB	031H
	DB	0c8H
	DB	031H
	DB	0a7H
	DB	031H
	DB	0a7H
	DB	031H
	DB	0e8H
	DB	031H
	DB	0e8H
	DB	039H
	DB	0c7H
	DB	031H
	DB	0c7H
	DB	031H
	DB	087H
	DB	029H
	DB	0a7H
	DB	029H
	DB	0c7H
	DB	031H
	DB	0c7H
	DB	031H
	DB	0c8H
	DB	031H
	DB	0a7H
	DB	029H
	DB	0a7H
	DB	029H
	DB	0e8H
	DB	031H
	DB	0c7H
	DB	031H
	DB	0a7H
	DB	031H
	DB	0c7H
	DB	031H
	DB	0a7H
	DB	029H
	DB	0c7H
	DB	031H
	DB	0c7H
	DB	031H
	DB	0c7H
	DB	031H
	DB	0a7H
	DB	031H
	DB	0a7H
	DB	029H
	DB	0c7H
	DB	031H
	DB	0c7H
	DB	031H
	DB	0c7H
	DB	031H
	DB	0c7H
	DB	031H
	DB	0a7H
	DB	029H
	DB	087H
	DB	029H
	DB	0a7H
	DB	031H
	DB	0c7H
	DB	031H
	DB	0a7H
	DB	031H
	DB	0a7H
	DB	029H
	DB	087H
	DB	029H
	DB	0a7H
	DB	031H
	DB	0c7H
	DB	031H
	DB	0c7H
	DB	031H
	DB	0a7H
	DB	031H
	DB	087H
	DB	029H
	DB	087H
	DB	029H
	DB	0c7H
	DB	031H
	DB	0c7H
	DB	031H
	DB	0a7H
	DB	031H
	DB	087H
	DB	029H
	DB	086H
	DB	029H
	DB	0c7H
	DB	031H
	DB	0a7H
	DB	031H
	DB	0a7H
	DB	031H
	DB	0c7H
	DB	031H
	DB	086H
	DB	029H
	DB	086H
	DB	029H
	DB	0a7H
	DB	031H
	DB	0a7H
	DB	031H
	DB	0a7H
	DB	031H
	DB	086H
	DB	029H
	DB	087H
	DB	029H
	DB	0a7H
	DB	031H
	DB	0a7H
	DB	031H
	DB	0a7H
	DB	031H
	DB	086H
	DB	029H
	DB	0a7H
	DB	029H
	DB	0c7H
	DB	031H
	DB	0a7H
	DB	031H
	DB	0a7H
	DB	029H
	DB	0a7H
	DB	029H
	DB	086H
	DB	029H
	DB	0a7H
	DB	031H
	DB	0a7H
	DB	029H
	DB	086H
	DB	029H
	DB	0a7H
	DB	029H
	DB	086H
	DB	029H
	DB	0a7H
	DB	031H
	DB	0a7H
	DB	031H
	DB	0a7H
	DB	031H
	DB	0a7H
	DB	029H
	DB	086H
	DB	029H
	DB	086H
	DB	029H
	DB	0a7H
	DB	031H
	DB	0a7H
	DB	031H
	DB	087H
	DB	029H
	DB	086H
	DB	029H
	DB	086H
	DB	029H
	DB	086H
	DB	029H
	DB	0a7H
	DB	031H
	DB	0a7H
	DB	029H
	DB	0a7H
	DB	031H
	DB	086H
	DB	029H
	DB	086H
	DB	029H
	DB	0a7H
	DB	029H
	DB	087H
	DB	031H
	DB	086H
	DB	029H
	DB	086H
	DB	029H
	DB	087H
	DB	029H
	DB	0a7H
	DB	031H
	DB	086H
	DB	029H
	DB	087H
	DB	031H
	DB	086H
	DB	029H
	DB	086H
	DB	029H
	DB	0a7H
	DB	029H
	DB	086H
	DB	029H
	DB	086H
	DB	029H
	DB	087H
	DB	029H
	DB	086H
	DB	029H
	DB	066H
	DB	029H
	DB	087H
	DB	031H
	DB	0a7H
	DB	029H
	DB	086H
	DB	029H
	DB	086H
	DB	029H
	DB	066H
	DB	029H
	DB	086H
	DB	029H
	DB	087H
	DB	029H
	DB	086H
	DB	029H
	DB	046H
	DB	021H
	DB	045H
	DB	021H
	DB	086H
	DB	029H
	DB	086H
	DB	029H
	DB	087H
	DB	029H
	DB	0c7H
	DB	031H
	DB	0c8H
	DB	031H
	DB	0e8H
	DB	031H
	DB	0c8H
	DB	031H
	DB	0a7H
	DB	031H
	DB	0a7H
	DB	031H
	DB	0e8H
	DB	031H
	DB	0c8H
	DB	031H
	DB	0c7H
	DB	031H
	DB	0c7H
	DB	031H
	DB	087H
	DB	029H
	DB	0c8H
	DB	031H
	DB	0c8H
	DB	031H
	DB	0c7H
	DB	031H
	DB	0c7H
	DB	031H
	DB	0a7H
	DB	029H
	DB	0c8H
	DB	031H
	DB	0c8H
	DB	031H
	DB	0c8H
	DB	031H
	DB	0c7H
	DB	031H
	DB	0c7H
	DB	031H
	DB	0a7H
	DB	031H
	DB	0c8H
	DB	031H
	DB	0c7H
	DB	031H
	DB	0c7H
	DB	031H
	DB	0c7H
	DB	031H
	DB	0a7H
	DB	031H
	DB	0c8H
	DB	031H
	DB	0c7H
	DB	031H
	DB	0c7H
	DB	031H
	DB	0c8H
	DB	031H
	DB	0a7H
	DB	031H
	DB	0a7H
	DB	031H
	DB	0e8H
	DB	031H
	DB	0c7H
	DB	031H
	DB	0c7H
	DB	031H
	DB	0c7H
	DB	031H
	DB	0c7H
	DB	031H
	DB	0c8H
	DB	031H
	DB	0c7H
	DB	031H
	DB	0a7H
	DB	031H
	DB	0a7H
	DB	029H
	DB	0a7H
	DB	031H
	DB	0c8H
	DB	031H
	DB	0c7H
	DB	031H
	DB	0a7H
	DB	031H
	DB	0a7H
	DB	031H
	DB	0a6H
	DB	029H
	DB	0c7H
	DB	031H
	DB	0c7H
	DB	031H
	DB	0a7H
	DB	031H
	DB	0a7H
	DB	031H
	DB	0a7H
	DB	031H
	DB	0a7H
	DB	031H
	DB	0c7H
	DB	031H
	DB	0a7H
	DB	031H
	DB	0c7H
	DB	031H
	DB	0a7H
	DB	029H
	DB	0a7H
	DB	031H
	DB	0c7H
	DB	031H
	DB	0c8H
	DB	031H
	DB	0a7H
	DB	031H
	DB	0a7H
	DB	031H
	DB	086H
	DB	029H
	DB	0a7H
	DB	029H
	DB	0c8H
	DB	031H
	DB	0c7H
	DB	031H
	DB	0c7H
	DB	031H
	DB	0a7H
	DB	031H
	DB	0a7H
	DB	029H
	DB	0c8H
	DB	031H
	DB	0c7H
	DB	031H
	DB	0a7H
	DB	031H
	DB	0a7H
	DB	029H
	DB	0a7H
	DB	029H
	DB	0c7H
	DB	031H
	DB	0a7H
	DB	031H
	DB	0c7H
	DB	031H
	DB	0a7H
	DB	029H
	DB	086H
	DB	029H
	DB	0a7H
	DB	029H
	DB	0c7H
	DB	031H
	DB	0a7H
	DB	031H
	DB	0a7H
	DB	031H
	DB	0a7H
	DB	029H
	DB	086H
	DB	029H
	DB	0a7H
	DB	031H
	DB	0c7H
	DB	031H
	DB	0c7H
	DB	031H
	DB	086H
	DB	029H
	DB	0a7H
	DB	029H
	DB	0a7H
	DB	031H
	DB	0a7H
	DB	031H
	DB	0a7H
	DB	029H
	DB	0a7H
	DB	029H
	DB	086H
	DB	029H
	DB	087H
	DB	029H
	DB	0c7H
	DB	031H
	DB	0a7H
	DB	031H
	DB	0a7H
	DB	029H
	DB	0a7H
	DB	029H
	DB	086H
	DB	029H
	DB	0a7H
	DB	031H
	DB	0c7H
	DB	031H
	DB	0c7H
	DB	031H
	DB	087H
	DB	029H
	DB	086H
	DB	029H
	DB	0a7H
	DB	029H
	DB	0a7H
	DB	031H
	DB	0a7H
	DB	029H
	DB	086H
	DB	029H
	DB	086H
	DB	029H
	DB	0a7H
	DB	029H
	DB	0a7H
	DB	031H
	DB	086H
	DB	029H
	DB	0a7H
	DB	029H
	DB	087H
	DB	029H
	DB	087H
	DB	029H
	DB	0a7H
	DB	031H
	DB	0a6H
	DB	029H
	DB	087H
	DB	029H
	DB	0a7H
	DB	031H
	DB	086H
	DB	029H
	DB	0a7H
	DB	029H
	DB	0a7H
	DB	031H
	DB	0a7H
	DB	031H
	DB	0a7H
	DB	029H
	DB	086H
	DB	029H
	DB	086H
	DB	029H
	DB	0a7H
	DB	031H
	DB	086H
	DB	029H
	DB	087H
	DB	029H
	DB	086H
	DB	029H
	DB	086H
	DB	029H
	DB	087H
	DB	029H
	DB	086H
	DB	029H
	DB	0a7H
	DB	031H
	DB	086H
	DB	029H
	DB	086H
	DB	029H
	DB	0a7H
	DB	031H
	DB	087H
	DB	029H
	DB	086H
	DB	029H
	DB	087H
	DB	031H
	DB	066H
	DB	029H
	DB	066H
	DB	029H
	DB	0a7H
	DB	031H
	DB	086H
	DB	029H
	DB	065H
	DB	029H
	DB	045H
	DB	021H
	DB	087H
	DB	029H
	DB	0a7H
	DB	031H
	DB	0c7H
	DB	031H
	DB	0a7H
	DB	031H
	DB	0a7H
	DB	031H
	DB	0e8H
	DB	031H
	DB	0a7H
	DB	031H
	DB	0c7H
	DB	031H
	DB	0c7H
	DB	031H
	DB	0a7H
	DB	031H
	DB	0c7H
	DB	031H
	DB	0c7H
	DB	031H
	DB	0c7H
	DB	031H
	DB	0c7H
	DB	031H
	DB	0a7H
	DB	031H
	DB	0c7H
	DB	031H
	DB	0c8H
	DB	039H
	DB	0c7H
	DB	031H
	DB	0c7H
	DB	031H
	DB	0a7H
	DB	031H
	DB	0a7H
	DB	031H
	DB	0e8H
	DB	031H
	DB	0c7H
	DB	031H
	DB	0a7H
	DB	031H
	DB	0c7H
	DB	031H
	DB	0a7H
	DB	029H
	DB	0c8H
	DB	031H
	DB	0c7H
	DB	031H
	DB	0a7H
	DB	031H
	DB	0c7H
	DB	031H
	DB	0a7H
	DB	029H
	DB	0c7H
	DB	031H
	DB	0c8H
	DB	031H
	DB	0c7H
	DB	031H
	DB	0c7H
	DB	031H
	DB	0a7H
	DB	031H
	DB	0c7H
	DB	031H
	DB	0c7H
	DB	031H
	DB	0a7H
	DB	029H
	DB	0c7H
	DB	031H
	DB	0a7H
	DB	031H
	DB	0a7H
	DB	029H
	DB	0c7H
	DB	031H
	DB	0c8H
	DB	031H
	DB	0c7H
	DB	031H
	DB	0c7H
	DB	031H
	DB	0a7H
	DB	031H
	DB	0c7H
	DB	031H
	DB	0a7H
	DB	031H
	DB	0a7H
	DB	031H
	DB	0c8H
	DB	031H
	DB	0a7H
	DB	029H
	DB	0a7H
	DB	031H
	DB	0c8H
	DB	031H
	DB	0a7H
	DB	029H
	DB	0c7H
	DB	031H
	DB	0c7H
	DB	031H
	DB	087H
	DB	029H
	DB	0a7H
	DB	031H
	DB	0c7H
	DB	031H
	DB	0c8H
	DB	031H
	DB	0c7H
	DB	031H
	DB	0a7H
	DB	031H
	DB	0c7H
	DB	031H
	DB	0a7H
	DB	031H
	DB	0a7H
	DB	031H
	DB	0e8H
	DB	031H
	DB	0a7H
	DB	029H
	DB	0a7H
	DB	031H
	DB	0c7H
	DB	031H
	DB	087H
	DB	029H
	DB	0c7H
	DB	031H
	DB	0a7H
	DB	031H
	DB	0a7H
	DB	029H
	DB	0a7H
	DB	031H
	DB	0a7H
	DB	029H
	DB	0c7H
	DB	031H
	DB	0c8H
	DB	031H
	DB	0a7H
	DB	029H
	DB	0a7H
	DB	029H
	DB	0a7H
	DB	031H
	DB	0a7H
	DB	029H
	DB	0a7H
	DB	031H
	DB	0a7H
	DB	029H
	DB	087H
	DB	029H
	DB	0c7H
	DB	031H
	DB	0a7H
	DB	029H
	DB	0c7H
	DB	031H
	DB	0a7H
	DB	029H
	DB	087H
	DB	029H
	DB	0a7H
	DB	031H
	DB	0a7H
	DB	029H
	DB	0a7H
	DB	031H
	DB	0a7H
	DB	031H
	DB	0a7H
	DB	029H
	DB	0a7H
	DB	029H
	DB	0c7H
	DB	031H
	DB	0a7H
	DB	031H
	DB	087H
	DB	029H
	DB	086H
	DB	029H
	DB	086H
	DB	029H
	DB	0a7H
	DB	031H
	DB	0a7H
	DB	031H
	DB	0a7H
	DB	031H
	DB	086H
	DB	029H
	DB	086H
	DB	029H
	DB	0c7H
	DB	031H
	DB	087H
	DB	031H
	DB	086H
	DB	029H
	DB	0a7H
	DB	029H
	DB	086H
	DB	029H
	DB	0a7H
	DB	031H
	DB	086H
	DB	029H
	DB	087H
	DB	029H
	DB	0a7H
	DB	031H
	DB	086H
	DB	029H
	DB	0a7H
	DB	029H
	DB	0c7H
	DB	031H
	DB	0a7H
	DB	031H
	DB	0a7H
	DB	031H
	DB	0a7H
	DB	031H
	DB	086H
	DB	029H
	DB	0a7H
	DB	031H
	DB	086H
	DB	029H
	DB	0a7H
	DB	031H
	DB	0a7H
	DB	031H
	DB	066H
	DB	029H
	DB	0a7H
	DB	031H
	DB	0a7H
	DB	031H
	DB	086H
	DB	029H
	DB	0a7H
	DB	031H
	DB	066H
	DB	029H
	DB	086H
	DB	029H
	DB	0a7H
	DB	031H
	DB	086H
	DB	029H
	DB	0a7H
	DB	029H
	DB	086H
	DB	029H
	DB	086H
	DB	029H
	DB	087H
	DB	029H
	DB	086H
	DB	029H
	DB	086H
	DB	029H
	DB	087H
	DB	029H
	DB	066H
	DB	029H
	DB	086H
	DB	029H
	DB	086H
	DB	029H
	DB	086H
	DB	029H
	DB	0a7H
	DB	031H
	DB	066H
	DB	029H
	DB	066H
	DB	029H
	DB	086H
	DB	029H
	DB	066H
	DB	029H
	DB	045H
	DB	021H
	DB	087H
	DB	029H
	DB	0c7H
	DB	031H
	DB	0a7H
	DB	031H
	DB	0c7H
	DB	031H
	DB	0a7H
	DB	031H
	DB	0a7H
	DB	031H
	DB	0e8H
	DB	031H
	DB	0e7H
	DB	031H
	DB	0c7H
	DB	031H
	DB	0a7H
	DB	031H
	DB	0a7H
	DB	031H
	DB	08H
	DB	03aH
	DB	0c8H
	DB	031H
	DB	0a7H
	DB	031H
	DB	0c8H
	DB	031H
	DB	0a7H
	DB	031H
	DB	0c7H
	DB	031H
	DB	0c8H
	DB	031H
	DB	0c7H
	DB	031H
	DB	0c7H
	DB	031H
	DB	0c7H
	DB	031H
	DB	0c7H
	DB	031H
	DB	0c8H
	DB	031H
	DB	0a7H
	DB	031H
	DB	0c7H
	DB	031H
	DB	0c7H
	DB	031H
	DB	0a7H
	DB	029H
	DB	0e8H
	DB	031H
	DB	0c7H
	DB	031H
	DB	0a7H
	DB	031H
	DB	0c7H
	DB	031H
	DB	0a7H
	DB	031H
	DB	0c7H
	DB	031H
	DB	0c7H
	DB	031H
	DB	0c7H
	DB	031H
	DB	0c7H
	DB	031H
	DB	087H
	DB	029H
	DB	087H
	DB	031H
	DB	0c7H
	DB	031H
	DB	0c7H
	DB	031H
	DB	0c7H
	DB	031H
	DB	0a7H
	DB	031H
	DB	0a7H
	DB	029H
	DB	0e8H
	DB	039H
	DB	0c8H
	DB	031H
	DB	0a7H
	DB	031H
	DB	0c7H
	DB	031H
	DB	087H
	DB	029H
	DB	0c7H
	DB	031H
	DB	0e8H
	DB	031H
	DB	0a7H
	DB	031H
	DB	0c7H
	DB	031H
	DB	0a7H
	DB	031H
	DB	0a7H
	DB	029H
	DB	0c7H
	DB	031H
	DB	0c7H
	DB	031H
	DB	0c8H
	DB	031H
	DB	0a7H
	DB	031H
	DB	086H
	DB	029H
	DB	0c7H
	DB	031H
	DB	0c8H
	DB	031H
	DB	0a7H
	DB	031H
	DB	0a7H
	DB	029H
	DB	0a7H
	DB	029H
	DB	0c7H
	DB	031H
	DB	0e8H
	DB	039H
	DB	0c7H
	DB	031H
	DB	0a7H
	DB	031H
	DB	087H
	DB	029H
	DB	0a7H
	DB	029H
	DB	0a7H
	DB	031H
	DB	0a7H
	DB	031H
	DB	0c7H
	DB	031H
	DB	0a7H
	DB	031H
	DB	086H
	DB	029H
	DB	0c7H
	DB	031H
	DB	0a7H
	DB	031H
	DB	0a7H
	DB	031H
	DB	0c7H
	DB	031H
	DB	086H
	DB	029H
	DB	0a7H
	DB	031H
	DB	0c7H
	DB	031H
	DB	0c7H
	DB	031H
	DB	0a7H
	DB	031H
	DB	086H
	DB	029H
	DB	087H
	DB	029H
	DB	0e7H
	DB	031H
	DB	0a7H
	DB	031H
	DB	0a7H
	DB	031H
	DB	0a7H
	DB	029H
	DB	086H
	DB	029H
	DB	0a7H
	DB	031H
	DB	0c7H
	DB	031H
	DB	0a7H
	DB	031H
	DB	0a7H
	DB	031H
	DB	086H
	DB	029H
	DB	0a7H
	DB	031H
	DB	0c7H
	DB	031H
	DB	0a7H
	DB	031H
	DB	0a7H
	DB	031H
	DB	0a7H
	DB	029H
	DB	0a7H
	DB	029H
	DB	0c7H
	DB	031H
	DB	0a7H
	DB	031H
	DB	087H
	DB	031H
	DB	0a7H
	DB	031H
	DB	086H
	DB	029H
	DB	0a7H
	DB	029H
	DB	0a7H
	DB	031H
	DB	0a7H
	DB	031H
	DB	0a7H
	DB	031H
	DB	066H
	DB	029H
	DB	0a7H
	DB	031H
	DB	0c7H
	DB	031H
	DB	087H
	DB	031H
	DB	0a7H
	DB	029H
	DB	086H
	DB	029H
	DB	086H
	DB	029H
	DB	0a7H
	DB	031H
	DB	0a7H
	DB	029H
	DB	0a6H
	DB	029H
	DB	0a7H
	DB	029H
	DB	086H
	DB	029H
	DB	0c7H
	DB	031H
	DB	0a7H
	DB	031H
	DB	0a7H
	DB	029H
	DB	0a6H
	DB	029H
	DB	066H
	DB	029H
	DB	086H
	DB	029H
	DB	0a7H
	DB	029H
	DB	087H
	DB	031H
	DB	0a7H
	DB	031H
	DB	066H
	DB	029H
	DB	086H
	DB	029H
	DB	0c7H
	DB	031H
	DB	0a7H
	DB	029H
	DB	087H
	DB	031H
	DB	086H
	DB	029H
	DB	066H
	DB	029H
	DB	0a7H
	DB	031H
	DB	0a7H
	DB	031H
	DB	087H
	DB	029H
	DB	086H
	DB	029H
	DB	066H
	DB	029H
	DB	086H
	DB	029H
	DB	0a7H
	DB	031H
	DB	0a7H
	DB	031H
	DB	087H
	DB	029H
	DB	066H
	DB	029H
	DB	066H
	DB	029H
	DB	066H
	DB	029H
	DB	045H
	DB	021H
	DB	086H
	DB	029H
	DB	086H
	DB	029H
	DB	0a7H
	DB	031H
	DB	0a7H
	DB	029H
	DB	0a7H
	DB	031H
	DB	0c7H
	DB	031H
	DB	0c7H
	DB	031H
	DB	0c8H
	DB	031H
	DB	0c7H
	DB	031H
	DB	0a7H
	DB	029H
	DB	0c8H
	DB	031H
	DB	0a7H
	DB	031H
	DB	0c8H
	DB	031H
	DB	0c7H
	DB	031H
	DB	0c7H
	DB	031H
	DB	0c8H
	DB	031H
	DB	0c7H
	DB	031H
	DB	0c7H
	DB	031H
	DB	0c8H
	DB	031H
	DB	0a7H
	DB	031H
	DB	0c7H
	DB	031H
	DB	0c7H
	DB	031H
	DB	0a7H
	DB	029H
	DB	0e8H
	DB	039H
	DB	0a7H
	DB	031H
	DB	0a7H
	DB	031H
	DB	0c7H
	DB	031H
	DB	0c7H
	DB	031H
	DB	0c8H
	DB	031H
	DB	0c7H
	DB	031H
	DB	0c7H
	DB	031H
	DB	0c7H
	DB	031H
	DB	0a7H
	DB	031H
	DB	0c8H
	DB	031H
	DB	0c8H
	DB	031H
	DB	0a7H
	DB	031H
	DB	0a7H
	DB	029H
	DB	0a7H
	DB	029H
	DB	0a7H
	DB	031H
	DB	0c8H
	DB	031H
	DB	0c8H
	DB	031H
	DB	0c7H
	DB	031H
	DB	0c7H
	DB	031H
	DB	0a7H
	DB	031H
	DB	0c8H
	DB	031H
	DB	0c7H
	DB	031H
	DB	0a7H
	DB	031H
	DB	0c7H
	DB	031H
	DB	0a7H
	DB	029H
	DB	0a7H
	DB	031H
	DB	0c7H
	DB	031H
	DB	0c7H
	DB	031H
	DB	0a7H
	DB	031H
	DB	0a7H
	DB	029H
	DB	0a7H
	DB	031H
	DB	0c7H
	DB	031H
	DB	0c7H
	DB	031H
	DB	0a7H
	DB	029H
	DB	0a7H
	DB	031H
	DB	0a7H
	DB	029H
	DB	0c7H
	DB	031H
	DB	0a7H
	DB	031H
	DB	0a7H
	DB	031H
	DB	0a7H
	DB	029H
	DB	0a7H
	DB	029H
	DB	0a7H
	DB	031H
	DB	0c7H
	DB	031H
	DB	0a7H
	DB	031H
	DB	0a7H
	DB	029H
	DB	086H
	DB	029H
	DB	0a7H
	DB	031H
	DB	0c7H
	DB	031H
	DB	0c7H
	DB	031H
	DB	0a7H
	DB	031H
	DB	0c7H
	DB	031H
	DB	0a7H
	DB	029H
	DB	0c7H
	DB	031H
	DB	0c7H
	DB	031H
	DB	087H
	DB	029H
	DB	0a7H
	DB	031H
	DB	0a7H
	DB	029H
	DB	0a7H
	DB	031H
	DB	0c7H
	DB	031H
	DB	0a7H
	DB	029H
	DB	0a7H
	DB	031H
	DB	0a7H
	DB	031H
	DB	087H
	DB	029H
	DB	0c7H
	DB	031H
	DB	0a7H
	DB	031H
	DB	0a7H
	DB	029H
	DB	0a7H
	DB	031H
	DB	0a7H
	DB	029H
	DB	0a7H
	DB	031H
	DB	0c7H
	DB	031H
	DB	0a7H
	DB	031H
	DB	0a7H
	DB	031H
	DB	0a6H
	DB	029H
	DB	0a7H
	DB	031H
	DB	0a7H
	DB	031H
	DB	086H
	DB	029H
	DB	0a6H
	DB	029H
	DB	0a7H
	DB	031H
	DB	087H
	DB	029H
	DB	0c7H
	DB	031H
	DB	0a7H
	DB	029H
	DB	086H
	DB	029H
	DB	086H
	DB	029H
	DB	086H
	DB	029H
	DB	0a7H
	DB	031H
	DB	0c7H
	DB	031H
	DB	0a7H
	DB	031H
	DB	086H
	DB	029H
	DB	086H
	DB	029H
	DB	0a7H
	DB	029H
	DB	0a7H
	DB	031H
	DB	086H
	DB	029H
	DB	086H
	DB	029H
	DB	0a7H
	DB	031H
	DB	086H
	DB	029H
	DB	0a7H
	DB	031H
	DB	0a7H
	DB	031H
	DB	087H
	DB	029H
	DB	086H
	DB	029H
	DB	086H
	DB	029H
	DB	0a7H
	DB	031H
	DB	0a7H
	DB	029H
	DB	086H
	DB	029H
	DB	086H
	DB	029H
	DB	066H
	DB	029H
	DB	0a6H
	DB	029H
	DB	0c7H
	DB	031H
	DB	087H
	DB	029H
	DB	086H
	DB	029H
	DB	086H
	DB	029H
	DB	087H
	DB	029H
	DB	0a7H
	DB	031H
	DB	0a7H
	DB	031H
	DB	086H
	DB	029H
	DB	086H
	DB	029H
	DB	086H
	DB	029H
	DB	0a7H
	DB	031H
	DB	0a7H
	DB	031H
	DB	086H
	DB	029H
	DB	066H
	DB	029H
	DB	086H
	DB	029H
	DB	086H
	DB	029H
	DB	0a7H
	DB	031H
	DB	086H
	DB	029H
	DB	086H
	DB	029H
	DB	066H
	DB	029H
	DB	046H
	DB	021H
	DB	066H
	DB	029H
	DB	086H
	DB	029H
	DB	086H
	DB	029H
	DB	0a7H
	DB	029H
	DB	0c7H
	DB	031H
	DB	0c7H
	DB	031H
	DB	0c8H
	DB	031H
	DB	0a7H
	DB	029H
	DB	0a7H
	DB	031H
	DB	0e8H
	DB	039H
	DB	0e8H
	DB	031H
	DB	0c8H
	DB	031H
	DB	0a7H
	DB	031H
	DB	0a7H
	DB	029H
	DB	0c7H
	DB	031H
	DB	0c7H
	DB	031H
	DB	0c8H
	DB	031H
	DB	0c7H
	DB	031H
	DB	0a7H
	DB	031H
	DB	0c7H
	DB	031H
	DB	0c8H
	DB	031H
	DB	0a7H
	DB	031H
	DB	0c7H
	DB	031H
	DB	0a7H
	DB	031H
	DB	0c7H
	DB	031H
	DB	0a7H
	DB	029H
	DB	0c8H
	DB	031H
	DB	0e8H
	DB	031H
	DB	0a7H
	DB	031H
	DB	0a7H
	DB	031H
	DB	0c8H
	DB	031H
	DB	0c7H
	DB	031H
	DB	0a7H
	DB	031H
	DB	0a7H
	DB	031H
	DB	0a7H
	DB	029H
	DB	0a7H
	DB	031H
	DB	0c7H
	DB	031H
	DB	0c7H
	DB	031H
	DB	0c7H
	DB	031H
	DB	087H
	DB	031H
	DB	0a7H
	DB	031H
	DB	0e7H
	DB	031H
	DB	0c7H
	DB	031H
	DB	0c7H
	DB	031H
	DB	0a7H
	DB	029H
	DB	0a7H
	DB	029H
	DB	0c7H
	DB	031H
	DB	0c7H
	DB	031H
	DB	0c7H
	DB	031H
	DB	0c7H
	DB	031H
	DB	0a7H
	DB	031H
	DB	0c7H
	DB	031H
	DB	0c7H
	DB	031H
	DB	0c7H
	DB	031H
	DB	0c7H
	DB	031H
	DB	0a7H
	DB	029H
	DB	0a7H
	DB	031H
	DB	0a7H
	DB	031H
	DB	0c7H
	DB	031H
	DB	0c7H
	DB	031H
	DB	0a7H
	DB	031H
	DB	0a7H
	DB	029H
	DB	0c7H
	DB	031H
	DB	0c7H
	DB	031H
	DB	0c7H
	DB	031H
	DB	0a7H
	DB	031H
	DB	0a7H
	DB	029H
	DB	0a7H
	DB	031H
	DB	0c7H
	DB	031H
	DB	0a7H
	DB	031H
	DB	0c7H
	DB	031H
	DB	0a7H
	DB	029H
	DB	0a7H
	DB	031H
	DB	0a7H
	DB	031H
	DB	0c7H
	DB	031H
	DB	0c7H
	DB	031H
	DB	0a7H
	DB	029H
	DB	0a7H
	DB	031H
	DB	0c7H
	DB	031H
	DB	0c7H
	DB	031H
	DB	0a7H
	DB	031H
	DB	087H
	DB	031H
	DB	0a7H
	DB	029H
	DB	0c7H
	DB	031H
	DB	0c7H
	DB	031H
	DB	0a7H
	DB	031H
	DB	0a7H
	DB	031H
	DB	0a6H
	DB	029H
	DB	087H
	DB	029H
	DB	0a7H
	DB	031H
	DB	0a7H
	DB	031H
	DB	0a7H
	DB	031H
	DB	0a7H
	DB	029H
	DB	087H
	DB	029H
	DB	0c7H
	DB	031H
	DB	0a7H
	DB	031H
	DB	0a7H
	DB	031H
	DB	0a7H
	DB	029H
	DB	086H
	DB	029H
	DB	0a7H
	DB	031H
	DB	0a7H
	DB	031H
	DB	087H
	DB	029H
	DB	0a7H
	DB	031H
	DB	086H
	DB	029H
	DB	0a7H
	DB	029H
	DB	0a7H
	DB	031H
	DB	0a7H
	DB	029H
	DB	087H
	DB	029H
	DB	086H
	DB	029H
	DB	086H
	DB	029H
	DB	0a7H
	DB	031H
	DB	0a7H
	DB	029H
	DB	087H
	DB	029H
	DB	087H
	DB	031H
	DB	086H
	DB	029H
	DB	086H
	DB	029H
	DB	0a7H
	DB	029H
	DB	0a7H
	DB	031H
	DB	0a7H
	DB	031H
	DB	087H
	DB	029H
	DB	086H
	DB	029H
	DB	0a7H
	DB	031H
	DB	0a7H
	DB	031H
	DB	0a7H
	DB	031H
	DB	086H
	DB	029H
	DB	086H
	DB	029H
	DB	087H
	DB	029H
	DB	086H
	DB	029H
	DB	087H
	DB	029H
	DB	0a7H
	DB	031H
	DB	086H
	DB	029H
	DB	0a7H
	DB	029H
	DB	0a7H
	DB	031H
	DB	086H
	DB	029H
	DB	0a7H
	DB	029H
	DB	086H
	DB	029H
	DB	066H
	DB	029H
	DB	0a7H
	DB	029H
	DB	086H
	DB	029H
	DB	0a7H
	DB	031H
	DB	086H
	DB	029H
	DB	066H
	DB	029H
	DB	086H
	DB	029H
	DB	086H
	DB	029H
	DB	087H
	DB	029H
	DB	086H
	DB	029H
	DB	086H
	DB	029H
	DB	087H
	DB	029H
	DB	0a7H
	DB	031H
	DB	086H
	DB	029H
	DB	086H
	DB	029H
	DB	045H
	DB	021H
	DB	045H
	DB	021H
	DB	086H
	DB	029H
	DB	087H
	DB	029H
	DB	086H
	DB	029H
	DB	0c7H
	DB	031H
	DB	0e8H
	DB	039H
	DB	0c7H
	DB	031H
	DB	0c7H
	DB	031H
	DB	0a7H
	DB	029H
	DB	0c7H
	DB	031H
	DB	0e8H
	DB	039H
	DB	0c7H
	DB	031H
	DB	0c7H
	DB	031H
	DB	0c7H
	DB	031H
	DB	0a7H
	DB	031H
	DB	0c7H
	DB	031H
	DB	0c7H
	DB	031H
	DB	0e8H
	DB	031H
	DB	0a7H
	DB	031H
	DB	0a7H
	DB	029H
	DB	0e8H
	DB	031H
	DB	0e8H
	DB	031H
	DB	0a7H
	DB	031H
	DB	0c7H
	DB	031H
	DB	0a7H
	DB	029H
	DB	0a7H
	DB	031H
	DB	0e8H
	DB	031H
	DB	0c7H
	DB	031H
	DB	0a7H
	DB	031H
	DB	0a7H
	DB	029H
	DB	0a7H
	DB	029H
	DB	0c8H
	DB	031H
	DB	0a7H
	DB	031H
	DB	0c7H
	DB	031H
	DB	0c7H
	DB	031H
	DB	0a7H
	DB	029H
	DB	0a7H
	DB	031H
	DB	0e8H
	DB	031H
	DB	0c7H
	DB	031H
	DB	0c7H
	DB	031H
	DB	087H
	DB	029H
	DB	0a7H
	DB	031H
	DB	0c8H
	DB	031H
	DB	0a7H
	DB	031H
	DB	0c7H
	DB	031H
	DB	0a7H
	DB	029H
	DB	0a7H
	DB	031H
	DB	0c8H
	DB	031H
	DB	0c7H
	DB	031H
	DB	0a7H
	DB	031H
	DB	0a7H
	DB	031H
	DB	0a7H
	DB	029H
	DB	0c8H
	DB	031H
	DB	0c8H
	DB	031H
	DB	0a7H
	DB	031H
	DB	0a7H
	DB	031H
	DB	087H
	DB	029H
	DB	087H
	DB	029H
	DB	0c8H
	DB	031H
	DB	0c7H
	DB	031H
	DB	0c7H
	DB	031H
	DB	0a7H
	DB	029H
	DB	0a7H
	DB	031H
	DB	0c8H
	DB	031H
	DB	0c7H
	DB	031H
	DB	0a7H
	DB	031H
	DB	0a7H
	DB	031H
	DB	0a7H
	DB	029H
	DB	0a7H
	DB	031H
	DB	0c7H
	DB	031H
	DB	0a7H
	DB	031H
	DB	0a7H
	DB	031H
	DB	086H
	DB	029H
	DB	087H
	DB	029H
	DB	0c7H
	DB	031H
	DB	0a7H
	DB	029H
	DB	0a7H
	DB	031H
	DB	087H
	DB	029H
	DB	087H
	DB	029H
	DB	0c7H
	DB	031H
	DB	0c7H
	DB	031H
	DB	0a7H
	DB	029H
	DB	087H
	DB	029H
	DB	086H
	DB	029H
	DB	0c7H
	DB	031H
	DB	0c7H
	DB	031H
	DB	0a7H
	DB	031H
	DB	0a7H
	DB	029H
	DB	086H
	DB	029H
	DB	086H
	DB	029H
	DB	0c7H
	DB	031H
	DB	0c7H
	DB	031H
	DB	0a7H
	DB	031H
	DB	086H
	DB	029H
	DB	086H
	DB	029H
	DB	0c7H
	DB	031H
	DB	0a7H
	DB	031H
	DB	087H
	DB	029H
	DB	0a7H
	DB	029H
	DB	086H
	DB	029H
	DB	0a7H
	DB	031H
	DB	0c7H
	DB	031H
	DB	087H
	DB	029H
	DB	0a7H
	DB	031H
	DB	086H
	DB	029H
	DB	0a6H
	DB	029H
	DB	0a7H
	DB	031H
	DB	0a7H
	DB	029H
	DB	0a7H
	DB	031H
	DB	086H
	DB	029H
	DB	086H
	DB	029H
	DB	0a7H
	DB	029H
	DB	0a7H
	DB	031H
	DB	0a7H
	DB	031H
	DB	086H
	DB	029H
	DB	086H
	DB	029H
	DB	0a7H
	DB	031H
	DB	0a7H
	DB	031H
	DB	086H
	DB	029H
	DB	0a7H
	DB	029H
	DB	066H
	DB	029H
	DB	086H
	DB	029H
	DB	0c7H
	DB	031H
	DB	0a7H
	DB	029H
	DB	0a7H
	DB	031H
	DB	086H
	DB	029H
	DB	086H
	DB	029H
	DB	0a7H
	DB	031H
	DB	0a7H
	DB	031H
	DB	0a7H
	DB	031H
	DB	086H
	DB	029H
	DB	066H
	DB	029H
	DB	087H
	DB	029H
	DB	0a7H
	DB	031H
	DB	086H
	DB	029H
	DB	086H
	DB	029H
	DB	086H
	DB	029H
	DB	066H
	DB	029H
	DB	0a7H
	DB	031H
	DB	086H
	DB	029H
	DB	087H
	DB	029H
	DB	066H
	DB	029H
	DB	066H
	DB	029H
	DB	0a7H
	DB	029H
	DB	087H
	DB	029H
	DB	086H
	DB	029H
	DB	086H
	DB	029H
	DB	066H
	DB	029H
	DB	087H
	DB	029H
	DB	086H
	DB	029H
	DB	066H
	DB	029H
	DB	066H
	DB	021H
	DB	045H
	DB	021H
	DB	086H
	DB	029H
	DB	086H
	DB	029H
	DB	0a7H
	DB	031H
	DB	0a7H
	DB	031H
	DB	0a7H
	DB	031H
	DB	0e8H
	DB	031H
	DB	0c7H
	DB	031H
	DB	0c7H
	DB	031H
	DB	0a7H
	DB	031H
	DB	0a7H
	DB	029H
	DB	0c8H
	DB	031H
	DB	0c7H
	DB	031H
	DB	0a7H
	DB	031H
	DB	0c7H
	DB	031H
	DB	0a7H
	DB	031H
	DB	0c8H
	DB	031H
	DB	0e8H
	DB	031H
	DB	0a7H
	DB	031H
	DB	0c7H
	DB	031H
	DB	0a7H
	DB	031H
	DB	0c7H
	DB	031H
	DB	0c8H
	DB	031H
	DB	0a7H
	DB	029H
	DB	0c8H
	DB	031H
	DB	0a7H
	DB	031H
	DB	0a7H
	DB	031H
	DB	0c7H
	DB	031H
	DB	0a7H
	DB	031H
	DB	0a7H
	DB	029H
	DB	0a7H
	DB	031H
	DB	0a7H
	DB	031H
	DB	0e8H
	DB	031H
	DB	0a7H
	DB	031H
	DB	0c7H
	DB	031H
	DB	0c8H
	DB	031H
	DB	0a7H
	DB	029H
	DB	0c7H
	DB	031H
	DB	0c8H
	DB	039H
	DB	0c7H
	DB	031H
	DB	0e8H
	DB	031H
	DB	0a7H
	DB	029H
	DB	0a7H
	DB	031H
	DB	0c8H
	DB	031H
	DB	0c7H
	DB	031H
	DB	0c7H
	DB	031H
	DB	0c7H
	DB	031H
	DB	0a7H
	DB	029H
	DB	0a7H
	DB	031H
	DB	0c7H
	DB	031H
	DB	0a7H
	DB	031H
	DB	0c7H
	DB	031H
	DB	0a7H
	DB	029H
	DB	0c7H
	DB	031H
	DB	0c7H
	DB	031H
	DB	0a7H
	DB	031H
	DB	0c7H
	DB	031H
	DB	0a7H
	DB	031H
	DB	0a7H
	DB	029H
	DB	0c7H
	DB	031H
	DB	0a7H
	DB	031H
	DB	0a7H
	DB	031H
	DB	0a7H
	DB	031H
	DB	087H
	DB	029H
	DB	0a7H
	DB	031H
	DB	0c7H
	DB	031H
	DB	0c7H
	DB	031H
	DB	0c7H
	DB	031H
	DB	0a7H
	DB	029H
	DB	0c7H
	DB	031H
	DB	0a7H
	DB	031H
	DB	0a7H
	DB	029H
	DB	0c7H
	DB	031H
	DB	087H
	DB	029H
	DB	0a7H
	DB	029H
	DB	0c7H
	DB	031H
	DB	0a7H
	DB	031H
	DB	0c7H
	DB	031H
	DB	087H
	DB	029H
	DB	086H
	DB	029H
	DB	0c7H
	DB	031H
	DB	0a7H
	DB	031H
	DB	0a6H
	DB	029H
	DB	087H
	DB	031H
	DB	087H
	DB	029H
	DB	0a7H
	DB	029H
	DB	0c7H
	DB	031H
	DB	0a7H
	DB	031H
	DB	087H
	DB	029H
	DB	0a7H
	DB	029H
	DB	0a7H
	DB	031H
	DB	0a7H
	DB	031H
	DB	0a6H
	DB	029H
	DB	0a7H
	DB	031H
	DB	0a7H
	DB	031H
	DB	087H
	DB	029H
	DB	0a7H
	DB	031H
	DB	0a7H
	DB	031H
	DB	0a7H
	DB	029H
	DB	0a7H
	DB	031H
	DB	087H
	DB	029H
	DB	0a7H
	DB	031H
	DB	0a7H
	DB	031H
	DB	0a7H
	DB	031H
	DB	0c7H
	DB	031H
	DB	086H
	DB	029H
	DB	086H
	DB	029H
	DB	0a7H
	DB	031H
	DB	087H
	DB	029H
	DB	086H
	DB	029H
	DB	086H
	DB	029H
	DB	086H
	DB	029H
	DB	0c7H
	DB	031H
	DB	0a7H
	DB	029H
	DB	066H
	DB	029H
	DB	0a7H
	DB	031H
	DB	087H
	DB	029H
	DB	086H
	DB	029H
	DB	0a7H
	DB	031H
	DB	086H
	DB	029H
	DB	0a7H
	DB	031H
	DB	086H
	DB	029H
	DB	086H
	DB	029H
	DB	0a7H
	DB	031H
	DB	086H
	DB	029H
	DB	0a7H
	DB	031H
	DB	0a7H
	DB	031H
	DB	086H
	DB	029H
	DB	0a7H
	DB	031H
	DB	086H
	DB	029H
	DB	086H
	DB	029H
	DB	087H
	DB	029H
	DB	066H
	DB	029H
	DB	0a6H
	DB	029H
	DB	0a7H
	DB	031H
	DB	087H
	DB	029H
	DB	087H
	DB	031H
	DB	066H
	DB	029H
	DB	086H
	DB	029H
	DB	0a7H
	DB	031H
	DB	086H
	DB	029H
	DB	0a6H
	DB	029H
	DB	066H
	DB	029H
	DB	086H
	DB	029H
	DB	087H
	DB	031H
	DB	086H
	DB	029H
	DB	066H
	DB	029H
	DB	086H
	DB	029H
	DB	066H
	DB	029H
	DB	0a6H
	DB	029H
	DB	086H
	DB	029H
	DB	046H
	DB	029H
	DB	045H
	DB	029H
	DB	086H
	DB	029H
	DB	0a7H
	DB	031H
	DB	0c7H
	DB	031H
	DB	0c7H
	DB	031H
	DB	087H
	DB	029H
	DB	0c7H
	DB	031H
	DB	0c8H
	DB	031H
	DB	0c8H
	DB	031H
	DB	0c7H
	DB	031H
	DB	0c7H
	DB	031H
	DB	0c7H
	DB	031H
	DB	0e8H
	DB	031H
	DB	0c7H
	DB	031H
	DB	0c7H
	DB	031H
	DB	0a7H
	DB	031H
	DB	0a7H
	DB	029H
	DB	0a7H
	DB	031H
	DB	0c7H
	DB	031H
	DB	0c8H
	DB	031H
	DB	0c7H
	DB	031H
	DB	086H
	DB	029H
	DB	0a7H
	DB	031H
	DB	0c7H
	DB	031H
	DB	0c7H
	DB	031H
	DB	0c7H
	DB	031H
	DB	0a7H
	DB	029H
	DB	0a7H
	DB	031H
	DB	0e8H
	DB	031H
	DB	0e7H
	DB	031H
	DB	0a7H
	DB	031H
	DB	0a7H
	DB	031H
	DB	0c7H
	DB	031H
	DB	0c7H
	DB	031H
	DB	0c8H
	DB	031H
	DB	0c7H
	DB	031H
	DB	0c7H
	DB	031H
	DB	0a7H
	DB	029H
	DB	0c7H
	DB	031H
	DB	0c8H
	DB	031H
	DB	0e8H
	DB	031H
	DB	0c7H
	DB	031H
	DB	0a7H
	DB	031H
	DB	0c7H
	DB	031H
	DB	0c8H
	DB	031H
	DB	0c7H
	DB	031H
	DB	0c7H
	DB	031H
	DB	0a7H
	DB	031H
	DB	0a7H
	DB	029H
	DB	0c8H
	DB	031H
	DB	0e8H
	DB	031H
	DB	0a7H
	DB	031H
	DB	0a7H
	DB	031H
	DB	086H
	DB	029H
	DB	0a7H
	DB	031H
	DB	0e8H
	DB	031H
	DB	0e7H
	DB	031H
	DB	0a7H
	DB	031H
	DB	0a7H
	DB	029H
	DB	087H
	DB	029H
	DB	0a7H
	DB	031H
	DB	0a7H
	DB	031H
	DB	0a7H
	DB	029H
	DB	0a7H
	DB	031H
	DB	087H
	DB	029H
	DB	0c7H
	DB	031H
	DB	0c8H
	DB	031H
	DB	0a7H
	DB	031H
	DB	0a7H
	DB	031H
	DB	0a7H
	DB	029H
	DB	0a7H
	DB	031H
	DB	0a7H
	DB	031H
	DB	0c7H
	DB	031H
	DB	0c7H
	DB	031H
	DB	0a7H
	DB	029H
	DB	087H
	DB	029H
	DB	0a7H
	DB	031H
	DB	0c7H
	DB	031H
	DB	0c7H
	DB	031H
	DB	087H
	DB	029H
	DB	086H
	DB	029H
	DB	0c7H
	DB	031H
	DB	0c8H
	DB	031H
	DB	0c7H
	DB	031H
	DB	0a7H
	DB	031H
	DB	086H
	DB	029H
	DB	0a7H
	DB	029H
	DB	0c7H
	DB	031H
	DB	0a7H
	DB	031H
	DB	0a7H
	DB	031H
	DB	086H
	DB	029H
	DB	087H
	DB	029H
	DB	0a7H
	DB	031H
	DB	0c7H
	DB	031H
	DB	0c7H
	DB	031H
	DB	087H
	DB	029H
	DB	0a6H
	DB	029H
	DB	0a7H
	DB	031H
	DB	0c7H
	DB	031H
	DB	0a7H
	DB	031H
	DB	0a7H
	DB	031H
	DB	0a6H
	DB	029H
	DB	0a7H
	DB	029H
	DB	0c7H
	DB	031H
	DB	0c7H
	DB	031H
	DB	0a7H
	DB	031H
	DB	086H
	DB	029H
	DB	086H
	DB	029H
	DB	0a7H
	DB	031H
	DB	0a7H
	DB	031H
	DB	0a7H
	DB	031H
	DB	087H
	DB	029H
	DB	086H
	DB	029H
	DB	0a7H
	DB	031H
	DB	0a7H
	DB	031H
	DB	087H
	DB	029H
	DB	0a6H
	DB	029H
	DB	086H
	DB	029H
	DB	086H
	DB	029H
	DB	0a7H
	DB	031H
	DB	087H
	DB	031H
	DB	0a6H
	DB	029H
	DB	086H
	DB	029H
	DB	086H
	DB	029H
	DB	0a7H
	DB	031H
	DB	0a7H
	DB	029H
	DB	0a7H
	DB	029H
	DB	086H
	DB	029H
	DB	066H
	DB	029H
	DB	0a7H
	DB	029H
	DB	0a7H
	DB	031H
	DB	0a7H
	DB	031H
	DB	086H
	DB	029H
	DB	086H
	DB	029H
	DB	086H
	DB	029H
	DB	0a7H
	DB	031H
	DB	086H
	DB	029H
	DB	0a7H
	DB	029H
	DB	086H
	DB	029H
	DB	086H
	DB	029H
	DB	0a7H
	DB	031H
	DB	0a7H
	DB	031H
	DB	086H
	DB	029H
	DB	086H
	DB	029H
	DB	086H
	DB	029H
	DB	087H
	DB	029H
	DB	0a7H
	DB	029H
	DB	086H
	DB	029H
	DB	086H
	DB	029H
	DB	066H
	DB	029H
	DB	066H
	DB	029H
	DB	086H
	DB	029H
	DB	045H
	DB	021H
	DB	066H
	DB	029H
	DB	0a7H
	DB	031H
	DB	0a7H
	DB	031H
	DB	0a7H
	DB	031H
	DB	0a7H
	DB	031H
	DB	0c7H
	DB	031H
	DB	0c7H
	DB	031H
	DB	0c8H
	DB	031H
	DB	0c7H
	DB	031H
	DB	0c7H
	DB	031H
	DB	0a7H
	DB	029H
	DB	0c7H
	DB	031H
	DB	0c8H
	DB	031H
	DB	0c7H
	DB	031H
	DB	0c7H
	DB	031H
	DB	087H
	DB	029H
	DB	0a7H
	DB	029H
	DB	0c7H
	DB	031H
	DB	0c7H
	DB	031H
	DB	0c7H
	DB	031H
	DB	0a7H
	DB	031H
	DB	0a7H
	DB	029H
	DB	0e8H
	DB	031H
	DB	0c7H
	DB	031H
	DB	0c7H
	DB	031H
	DB	0c7H
	DB	031H
	DB	0a7H
	DB	031H
	DB	0c7H
	DB	031H
	DB	0e8H
	DB	031H
	DB	0c7H
	DB	031H
	DB	0c7H
	DB	031H
	DB	0a7H
	DB	029H
	DB	0a7H
	DB	031H
	DB	0c8H
	DB	031H
	DB	0c7H
	DB	031H
	DB	0c7H
	DB	031H
	DB	0a7H
	DB	031H
	DB	087H
	DB	029H
	DB	0c7H
	DB	031H
	DB	0c7H
	DB	031H
	DB	0a7H
	DB	031H
	DB	0a7H
	DB	031H
	DB	0a7H
	DB	029H
	DB	0c7H
	DB	031H
	DB	0c7H
	DB	031H
	DB	0a7H
	DB	031H
	DB	0c8H
	DB	031H
	DB	0a7H
	DB	031H
	DB	0a7H
	DB	031H
	DB	0c7H
	DB	031H
	DB	0c7H
	DB	031H
	DB	0c7H
	DB	031H
	DB	0a7H
	DB	029H
	DB	0a7H
	DB	029H
	DB	0c7H
	DB	031H
	DB	0c7H
	DB	031H
	DB	0a7H
	DB	031H
	DB	0a7H
	DB	031H
	DB	086H
	DB	029H
	DB	0a7H
	DB	029H
	DB	0c7H
	DB	031H
	DB	0c7H
	DB	031H
	DB	0a7H
	DB	031H
	DB	086H
	DB	029H
	DB	0a7H
	DB	029H
	DB	0c7H
	DB	031H
	DB	0a7H
	DB	031H
	DB	0c7H
	DB	031H
	DB	0a7H
	DB	029H
	DB	086H
	DB	029H
	DB	0a7H
	DB	031H
	DB	0c7H
	DB	031H
	DB	0a7H
	DB	031H
	DB	0a7H
	DB	029H
	DB	087H
	DB	029H
	DB	0a7H
	DB	031H
	DB	0c7H
	DB	031H
	DB	0c7H
	DB	031H
	DB	0a7H
	DB	031H
	DB	087H
	DB	029H
	DB	0a7H
	DB	029H
	DB	0c7H
	DB	031H
	DB	0a7H
	DB	031H
	DB	0a7H
	DB	031H
	DB	0a7H
	DB	031H
	DB	0a7H
	DB	031H
	DB	0a7H
	DB	031H
	DB	0c7H
	DB	031H
	DB	0a7H
	DB	031H
	DB	0a7H
	DB	029H
	DB	086H
	DB	029H
	DB	0a7H
	DB	031H
	DB	0c8H
	DB	031H
	DB	0a7H
	DB	031H
	DB	0a6H
	DB	029H
	DB	0a7H
	DB	029H
	DB	087H
	DB	029H
	DB	0a7H
	DB	031H
	DB	0a7H
	DB	031H
	DB	0a6H
	DB	029H
	DB	086H
	DB	029H
	DB	087H
	DB	029H
	DB	0c7H
	DB	031H
	DB	0a7H
	DB	031H
	DB	087H
	DB	029H
	DB	0a7H
	DB	031H
	DB	086H
	DB	029H
	DB	0a7H
	DB	031H
	DB	0c7H
	DB	031H
	DB	0a7H
	DB	031H
	DB	0a7H
	DB	029H
	DB	086H
	DB	029H
	DB	087H
	DB	029H
	DB	0c7H
	DB	031H
	DB	0a7H
	DB	031H
	DB	087H
	DB	029H
	DB	086H
	DB	029H
	DB	086H
	DB	029H
	DB	0a7H
	DB	031H
	DB	0a7H
	DB	029H
	DB	087H
	DB	029H
	DB	087H
	DB	031H
	DB	086H
	DB	029H
	DB	087H
	DB	031H
	DB	0a7H
	DB	031H
	DB	086H
	DB	029H
	DB	086H
	DB	029H
	DB	086H
	DB	029H
	DB	086H
	DB	029H
	DB	0a7H
	DB	031H
	DB	0a7H
	DB	029H
	DB	086H
	DB	029H
	DB	086H
	DB	029H
	DB	086H
	DB	029H
	DB	087H
	DB	031H
	DB	0a7H
	DB	029H
	DB	087H
	DB	029H
	DB	086H
	DB	031H
	DB	086H
	DB	029H
	DB	0a7H
	DB	029H
	DB	0a7H
	DB	031H
	DB	087H
	DB	029H
	DB	066H
	DB	029H
	DB	066H
	DB	029H
	DB	086H
	DB	029H
	DB	0a7H
	DB	031H
	DB	0a7H
	DB	031H
	DB	086H
	DB	029H
	DB	066H
	DB	029H
	DB	046H
	DB	021H
	DB	066H
	DB	029H
	DB	046H
	DB	029H
	DB	066H
	DB	029H
	DB	086H
	DB	029H
	DB	0a7H
	DB	029H
	DB	0a7H
	DB	029H
	DB	0c8H
	DB	031H
	DB	0e8H
	DB	031H
	DB	0a7H
	DB	031H
	DB	0c7H
	DB	031H
	DB	0e8H
	DB	031H
	DB	0a7H
	DB	031H
	DB	0c7H
	DB	031H
	DB	0a7H
	DB	029H
	DB	0a7H
	DB	031H
	DB	0c7H
	DB	031H
	DB	0a7H
	DB	031H
	DB	0c7H
	DB	031H
	DB	0c7H
	DB	031H
	DB	087H
	DB	029H
	DB	0c7H
	DB	031H
	DB	0c7H
	DB	031H
	DB	0c8H
	DB	031H
	DB	0c7H
	DB	031H
	DB	087H
	DB	029H
	DB	0c8H
	DB	031H
	DB	0c7H
	DB	031H
	DB	0c7H
	DB	031H
	DB	0c8H
	DB	031H
	DB	087H
	DB	029H
	DB	0a7H
	DB	031H
	DB	0c7H
	DB	031H
	DB	0c7H
	DB	031H
	DB	0c8H
	DB	031H
	DB	0a7H
	DB	031H
	DB	0a7H
	DB	029H
	DB	0c7H
	DB	031H
	DB	0a7H
	DB	031H
	DB	0c7H
	DB	031H
	DB	0a7H
	DB	031H
	DB	0a7H
	DB	029H
	DB	0c7H
	DB	031H
	DB	0c7H
	DB	031H
	DB	0a7H
	DB	031H
	DB	0a7H
	DB	031H
	DB	0a7H
	DB	029H
	DB	0c7H
	DB	031H
	DB	0c7H
	DB	031H
	DB	0a7H
	DB	031H
	DB	0c7H
	DB	031H
	DB	0a7H
	DB	031H
	DB	0a7H
	DB	029H
	DB	0c7H
	DB	031H
	DB	0c7H
	DB	031H
	DB	0c7H
	DB	031H
	DB	0a7H
	DB	031H
	DB	0a7H
	DB	029H
	DB	0a7H
	DB	031H
	DB	0c7H
	DB	031H
	DB	0c7H
	DB	031H
	DB	0c7H
	DB	031H
	DB	0a7H
	DB	029H
	DB	0a7H
	DB	031H
	DB	0c7H
	DB	031H
	DB	087H
	DB	029H
	DB	0a7H
	DB	031H
	DB	0a7H
	DB	031H
	DB	0a7H
	DB	029H
	DB	0c7H
	DB	031H
	DB	0a7H
	DB	031H
	DB	0a7H
	DB	031H
	DB	0a7H
	DB	031H
	DB	0a7H
	DB	029H
	DB	0a7H
	DB	031H
	DB	0a7H
	DB	029H
	DB	0a7H
	DB	029H
	DB	0c7H
	DB	031H
	DB	086H
	DB	029H
	DB	087H
	DB	029H
	DB	0a7H
	DB	031H
	DB	0a7H
	DB	031H
	DB	0c7H
	DB	031H
	DB	0a7H
	DB	029H
	DB	086H
	DB	029H
	DB	0a7H
	DB	031H
	DB	0a7H
	DB	031H
	DB	0c7H
	DB	031H
	DB	0c7H
	DB	031H
	DB	087H
	DB	029H
	DB	0a7H
	DB	031H
	DB	0c7H
	DB	031H
	DB	0a7H
	DB	029H
	DB	0a7H
	DB	031H
	DB	086H
	DB	029H
	DB	0a7H
	DB	029H
	DB	0a7H
	DB	031H
	DB	0a7H
	DB	031H
	DB	0a7H
	DB	031H
	DB	0a7H
	DB	029H
	DB	086H
	DB	029H
	DB	0a7H
	DB	031H
	DB	0a7H
	DB	031H
	DB	086H
	DB	029H
	DB	087H
	DB	029H
	DB	086H
	DB	029H
	DB	086H
	DB	029H
	DB	0a7H
	DB	031H
	DB	0a7H
	DB	031H
	DB	0a7H
	DB	031H
	DB	086H
	DB	029H
	DB	087H
	DB	029H
	DB	0a7H
	DB	031H
	DB	0a7H
	DB	031H
	DB	0a7H
	DB	031H
	DB	086H
	DB	029H
	DB	086H
	DB	029H
	DB	0a7H
	DB	031H
	DB	0a6H
	DB	029H
	DB	087H
	DB	029H
	DB	0a7H
	DB	031H
	DB	086H
	DB	029H
	DB	087H
	DB	029H
	DB	0a7H
	DB	031H
	DB	0a6H
	DB	029H
	DB	0a7H
	DB	031H
	DB	066H
	DB	029H
	DB	086H
	DB	029H
	DB	0a7H
	DB	031H
	DB	086H
	DB	029H
	DB	0a7H
	DB	029H
	DB	086H
	DB	029H
	DB	066H
	DB	029H
	DB	086H
	DB	029H
	DB	086H
	DB	029H
	DB	0a7H
	DB	029H
	DB	087H
	DB	029H
	DB	066H
	DB	029H
	DB	0a6H
	DB	029H
	DB	086H
	DB	029H
	DB	087H
	DB	029H
	DB	0a7H
	DB	031H
	DB	066H
	DB	029H
	DB	086H
	DB	029H
	DB	087H
	DB	029H
	DB	086H
	DB	029H
	DB	0a7H
	DB	029H
	DB	066H
	DB	029H
	DB	066H
	DB	029H
	DB	0a6H
	DB	029H
	DB	086H
	DB	029H
	DB	086H
	DB	029H
	DB	066H
	DB	029H
	DB	045H
	DB	021H
	DB	045H
	DB	021H
	DB	086H
	DB	029H
	DB	086H
	DB	029H
	DB	086H
	DB	029H
	DB	0c7H
	DB	031H
	DB	0e8H
	DB	031H
	DB	0a7H
	DB	031H
	DB	0c7H
	DB	031H
	DB	0a7H
	DB	031H
	DB	0a7H
	DB	031H
	DB	0c8H
	DB	031H
	DB	0c7H
	DB	031H
	DB	0c7H
	DB	031H
	DB	087H
	DB	029H
	DB	0a7H
	DB	029H
	DB	0c7H
	DB	031H
	DB	0c7H
	DB	031H
	DB	0c7H
	DB	031H
	DB	0a7H
	DB	031H
	DB	086H
	DB	029H
	DB	0c8H
	DB	031H
	DB	0c8H
	DB	031H
	DB	0c7H
	DB	031H
	DB	0a7H
	DB	031H
	DB	087H
	DB	031H
	DB	0c8H
	DB	031H
	DB	0e8H
	DB	039H
	DB	0c7H
	DB	031H
	DB	0c7H
	DB	031H
	DB	087H
	DB	029H
	DB	0a7H
	DB	029H
	DB	0c7H
	DB	031H
	DB	0e8H
	DB	031H
	DB	0c8H
	DB	031H
	DB	0c7H
	DB	031H
	DB	0a7H
	DB	029H
	DB	0c8H
	DB	031H
	DB	0c7H
	DB	031H
	DB	0a7H
	DB	031H
	DB	0c7H
	DB	031H
	DB	087H
	DB	029H
	DB	0a7H
	DB	031H
	DB	0e8H
	DB	031H
	DB	0c7H
	DB	031H
	DB	0a7H
	DB	031H
	DB	0a7H
	DB	029H
	DB	0c7H
	DB	031H
	DB	0c7H
	DB	031H
	DB	0a7H
	DB	031H
	DB	0c7H
	DB	031H
	DB	0a7H
	DB	031H
	DB	0a7H
	DB	031H
	DB	0c8H
	DB	031H
	DB	0c7H
	DB	031H
	DB	0a7H
	DB	031H
	DB	0c7H
	DB	031H
	DB	0a6H
	DB	029H
	DB	0a7H
	DB	031H
	DB	0e8H
	DB	031H
	DB	0a7H
	DB	031H
	DB	0a7H
	DB	031H
	DB	086H
	DB	029H
	DB	086H
	DB	029H
	DB	0c7H
	DB	031H
	DB	0c7H
	DB	031H
	DB	0c7H
	DB	031H
	DB	087H
	DB	029H
	DB	086H
	DB	029H
	DB	0a7H
	DB	031H
	DB	0a7H
	DB	031H
	DB	0c7H
	DB	029H
	DB	0a7H
	DB	031H
	DB	086H
	DB	029H
	DB	087H
	DB	029H
	DB	0c7H
	DB	031H
	DB	0a7H
	DB	031H
	DB	0a7H
	DB	031H
	DB	0a6H
	DB	029H
	DB	087H
	DB	029H
	DB	0c7H
	DB	031H
	DB	0a7H
	DB	031H
	DB	0a7H
	DB	031H
	DB	0a6H
	DB	029H
	DB	086H
	DB	029H
	DB	0c7H
	DB	031H
	DB	0c7H
	DB	031H
	DB	087H
	DB	029H
	DB	0a7H
	DB	029H
	DB	0a6H
	DB	029H
	DB	0a7H
	DB	031H
	DB	0a7H
	DB	031H
	DB	0a7H
	DB	031H
	DB	0a7H
	DB	029H
	DB	066H
	DB	029H
	DB	0a7H
	DB	029H
	DB	0c7H
	DB	031H
	DB	0a7H
	DB	031H
	DB	0a7H
	DB	031H
	DB	086H
	DB	029H
	DB	086H
	DB	029H
	DB	0c7H
	DB	031H
	DB	0a7H
	DB	031H
	DB	0a7H
	DB	031H
	DB	0a7H
	DB	031H
	DB	086H
	DB	029H
	DB	0a7H
	DB	031H
	DB	0a7H
	DB	031H
	DB	086H
	DB	029H
	DB	0a7H
	DB	029H
	DB	066H
	DB	029H
	DB	086H
	DB	029H
	DB	0c7H
	DB	031H
	DB	0a7H
	DB	031H
	DB	0a7H
	DB	029H
	DB	086H
	DB	029H
	DB	066H
	DB	029H
	DB	086H
	DB	029H
	DB	0a7H
	DB	031H
	DB	087H
	DB	029H
	DB	0a7H
	DB	031H
	DB	066H
	DB	029H
	DB	0a7H
	DB	029H
	DB	0a7H
	DB	029H
	DB	086H
	DB	029H
	DB	0a7H
	DB	029H
	DB	086H
	DB	029H
	DB	087H
	DB	029H
	DB	087H
	DB	031H
	DB	086H
	DB	029H
	DB	0a7H
	DB	029H
	DB	086H
	DB	029H
	DB	086H
	DB	029H
	DB	087H
	DB	031H
	DB	0a7H
	DB	031H
	DB	086H
	DB	029H
	DB	086H
	DB	029H
	DB	066H
	DB	029H
	DB	086H
	DB	029H
	DB	086H
	DB	029H
	DB	086H
	DB	029H
	DB	0a7H
	DB	029H
	DB	066H
	DB	029H
	DB	086H
	DB	029H
	DB	0a7H
	DB	031H
	DB	0a7H
	DB	031H
	DB	086H
	DB	029H
	DB	086H
	DB	029H
	DB	066H
	DB	029H
	DB	086H
	DB	029H
	DB	087H
	DB	029H
	DB	066H
	DB	029H
	DB	066H
	DB	029H
	DB	025H
	DB	021H
	DB	086H
	DB	029H
	DB	086H
	DB	029H
	DB	087H
	DB	029H
	DB	0a7H
	DB	031H
	DB	0c8H
	DB	031H
	DB	0c7H
	DB	031H
	DB	0c7H
	DB	031H
	DB	0a7H
	DB	031H
	DB	0a7H
	DB	029H
	DB	0a7H
	DB	031H
	DB	0c8H
	DB	031H
	DB	0c7H
	DB	031H
	DB	0a7H
	DB	031H
	DB	0a7H
	DB	031H
	DB	0a7H
	DB	031H
	DB	0c8H
	DB	031H
	DB	0a7H
	DB	031H
	DB	0a7H
	DB	029H
	DB	0a7H
	DB	031H
	DB	0a7H
	DB	031H
	DB	0c7H
	DB	031H
	DB	0c7H
	DB	031H
	DB	0a7H
	DB	031H
	DB	0a7H
	DB	029H
	DB	0a7H
	DB	031H
	DB	0c7H
	DB	031H
	DB	0c7H
	DB	031H
	DB	0c7H
	DB	031H
	DB	0a7H
	DB	031H
	DB	087H
	DB	029H
	DB	0c7H
	DB	031H
	DB	0c7H
	DB	031H
	DB	0c7H
	DB	031H
	DB	0c7H
	DB	031H
	DB	0c7H
	DB	031H
	DB	0a7H
	DB	029H
	DB	0c7H
	DB	031H
	DB	0c7H
	DB	031H
	DB	0a7H
	DB	029H
	DB	0a7H
	DB	029H
	DB	087H
	DB	029H
	DB	0c7H
	DB	031H
	DB	0c7H
	DB	031H
	DB	0a7H
	DB	031H
	DB	0a7H
	DB	031H
	DB	0a7H
	DB	029H
	DB	0a7H
	DB	031H
	DB	0c8H
	DB	031H
	DB	0c7H
	DB	031H
	DB	0c7H
	DB	031H
	DB	0a7H
	DB	029H
	DB	0a7H
	DB	031H
	DB	0c8H
	DB	031H
	DB	0c7H
	DB	031H
	DB	0a7H
	DB	031H
	DB	0c8H
	DB	031H
	DB	087H
	DB	029H
	DB	0c7H
	DB	031H
	DB	0a7H
	DB	031H
	DB	0a7H
	DB	029H
	DB	0a7H
	DB	029H
	DB	0a7H
	DB	031H
	DB	0c7H
	DB	031H
	DB	0c7H
	DB	031H
	DB	0a7H
	DB	029H
	DB	0a7H
	DB	029H
	DB	0a7H
	DB	029H
	DB	0a7H
	DB	029H
	DB	0c7H
	DB	031H
	DB	0a7H
	DB	031H
	DB	0a7H
	DB	029H
	DB	0a7H
	DB	031H
	DB	0a7H
	DB	031H
	DB	0a7H
	DB	031H
	DB	0a7H
	DB	031H
	DB	0a7H
	DB	031H
	DB	0a7H
	DB	031H
	DB	0a7H
	DB	029H
	DB	0a7H
	DB	031H
	DB	0c7H
	DB	031H
	DB	0a7H
	DB	031H
	DB	087H
	DB	029H
	DB	0a7H
	DB	029H
	DB	0a7H
	DB	031H
	DB	0a7H
	DB	031H
	DB	0a7H
	DB	031H
	DB	086H
	DB	029H
	DB	0a7H
	DB	031H
	DB	086H
	DB	029H
	DB	0a7H
	DB	031H
	DB	0a7H
	DB	031H
	DB	0a6H
	DB	029H
	DB	0a7H
	DB	029H
	DB	086H
	DB	029H
	DB	0a7H
	DB	031H
	DB	0c7H
	DB	031H
	DB	0a7H
	DB	029H
	DB	0a7H
	DB	031H
	DB	0a7H
	DB	029H
	DB	087H
	DB	029H
	DB	0c7H
	DB	031H
	DB	0a7H
	DB	031H
	DB	086H
	DB	029H
	DB	087H
	DB	029H
	DB	086H
	DB	029H
	DB	0a7H
	DB	029H
	DB	0a7H
	DB	031H
	DB	0a7H
	DB	031H
	DB	086H
	DB	029H
	DB	086H
	DB	029H
	DB	0a7H
	DB	029H
	DB	0a7H
	DB	031H
	DB	086H
	DB	029H
	DB	086H
	DB	029H
	DB	0a6H
	DB	029H
	DB	086H
	DB	029H
	DB	0a7H
	DB	031H
	DB	0a7H
	DB	029H
	DB	086H
	DB	029H
	DB	086H
	DB	029H
	DB	086H
	DB	029H
	DB	086H
	DB	029H
	DB	087H
	DB	031H
	DB	0a7H
	DB	031H
	DB	0a7H
	DB	029H
	DB	086H
	DB	029H
	DB	087H
	DB	029H
	DB	0a7H
	DB	031H
	DB	0a7H
	DB	031H
	DB	087H
	DB	029H
	DB	086H
	DB	029H
	DB	086H
	DB	029H
	DB	0a7H
	DB	029H
	DB	0a7H
	DB	031H
	DB	086H
	DB	029H
	DB	086H
	DB	029H
	DB	066H
	DB	029H
	DB	086H
	DB	029H
	DB	0a7H
	DB	031H
	DB	086H
	DB	029H
	DB	087H
	DB	029H
	DB	086H
	DB	029H
	DB	086H
	DB	029H
	DB	086H
	DB	029H
	DB	066H
	DB	029H
	DB	087H
	DB	029H
	DB	086H
	DB	029H
	DB	066H
	DB	029H
	DB	086H
	DB	029H
	DB	066H
	DB	029H
	DB	045H
	DB	021H
	DB	045H
	DB	021H
	DB	066H
	DB	029H
	DB	0a7H
	DB	031H
	DB	0a7H
	DB	031H
	DB	0a7H
	DB	031H
	DB	0a7H
	DB	031H
	DB	0e7H
	DB	031H
	DB	0c8H
	DB	031H
	DB	0c7H
	DB	031H
	DB	0c7H
	DB	031H
	DB	0a7H
	DB	031H
	DB	0c7H
	DB	031H
	DB	0c7H
	DB	031H
	DB	0c7H
	DB	031H
	DB	0c8H
	DB	031H
	DB	087H
	DB	029H
	DB	0c7H
	DB	031H
	DB	0c7H
	DB	031H
	DB	0a7H
	DB	031H
	DB	0e8H
	DB	031H
	DB	0c7H
	DB	031H
	DB	0a7H
	DB	029H
	DB	0c7H
	DB	031H
	DB	0a7H
	DB	031H
	DB	0c7H
	DB	031H
	DB	0c7H
	DB	031H
	DB	087H
	DB	029H
	DB	0a7H
	DB	031H
	DB	0c8H
	DB	031H
	DB	0c7H
	DB	031H
	DB	0c7H
	DB	031H
	DB	087H
	DB	029H
	DB	0a7H
	DB	031H
	DB	0c7H
	DB	031H
	DB	0c7H
	DB	031H
	DB	0c7H
	DB	031H
	DB	0a7H
	DB	031H
	DB	0a7H
	DB	029H
	DB	0a7H
	DB	031H
	DB	0a7H
	DB	031H
	DB	0c7H
	DB	031H
	DB	0a7H
	DB	031H
	DB	087H
	DB	029H
	DB	0c7H
	DB	031H
	DB	0c8H
	DB	031H
	DB	0a7H
	DB	031H
	DB	0c7H
	DB	031H
	DB	0a7H
	DB	029H
	DB	0a7H
	DB	029H
	DB	0a7H
	DB	031H
	DB	0a7H
	DB	031H
	DB	0c7H
	DB	031H
	DB	0a7H
	DB	029H
	DB	086H
	DB	029H
	DB	0c7H
	DB	031H
	DB	0e8H
	DB	031H
	DB	0c8H
	DB	031H
	DB	0c7H
	DB	031H
	DB	087H
	DB	029H
	DB	0a7H
	DB	031H
	DB	0a7H
	DB	031H
	DB	0a7H
	DB	031H
	DB	0a7H
	DB	031H
	DB	0a7H
	DB	029H
	DB	0a7H
	DB	031H
	DB	0a7H
	DB	031H
	DB	0a7H
	DB	031H
	DB	0c7H
	DB	031H
	DB	0a7H
	DB	031H
	DB	087H
	DB	029H
	DB	0a7H
	DB	031H
	DB	0c7H
	DB	031H
	DB	0c7H
	DB	031H
	DB	0a7H
	DB	031H
	DB	086H
	DB	029H
	DB	0c7H
	DB	031H
	DB	0c7H
	DB	031H
	DB	0a7H
	DB	029H
	DB	0a7H
	DB	031H
	DB	086H
	DB	029H
	DB	087H
	DB	029H
	DB	0c7H
	DB	031H
	DB	0a7H
	DB	031H
	DB	0c7H
	DB	031H
	DB	0a7H
	DB	029H
	DB	086H
	DB	029H
	DB	0a7H
	DB	031H
	DB	0a7H
	DB	029H
	DB	0c7H
	DB	031H
	DB	087H
	DB	029H
	DB	086H
	DB	029H
	DB	0a7H
	DB	031H
	DB	0a7H
	DB	029H
	DB	0a7H
	DB	031H
	DB	0a7H
	DB	031H
	DB	086H
	DB	029H
	DB	0a7H
	DB	029H
	DB	0a7H
	DB	031H
	DB	0a7H
	DB	031H
	DB	0a7H
	DB	031H
	DB	086H
	DB	029H
	DB	086H
	DB	029H
	DB	087H
	DB	029H
	DB	086H
	DB	029H
	DB	0a7H
	DB	031H
	DB	0a7H
	DB	029H
	DB	086H
	DB	029H
	DB	087H
	DB	029H
	DB	0a7H
	DB	031H
	DB	0a7H
	DB	031H
	DB	0a7H
	DB	029H
	DB	066H
	DB	029H
	DB	086H
	DB	029H
	DB	0a7H
	DB	029H
	DB	087H
	DB	029H
	DB	0a7H
	DB	031H
	DB	087H
	DB	029H
	DB	086H
	DB	029H
	DB	087H
	DB	031H
	DB	086H
	DB	029H
	DB	087H
	DB	029H
	DB	0a7H
	DB	031H
	DB	086H
	DB	029H
	DB	086H
	DB	029H
	DB	087H
	DB	031H
	DB	0a7H
	DB	031H
	DB	0a6H
	DB	029H
	DB	086H
	DB	029H
	DB	086H
	DB	029H
	DB	086H
	DB	029H
	DB	087H
	DB	029H
	DB	0a7H
	DB	031H
	DB	086H
	DB	029H
	DB	066H
	DB	029H
	DB	086H
	DB	029H
	DB	086H
	DB	029H
	DB	087H
	DB	031H
	DB	0a7H
	DB	029H
	DB	086H
	DB	029H
	DB	087H
	DB	031H
	DB	086H
	DB	029H
	DB	087H
	DB	029H
	DB	0a7H
	DB	031H
	DB	086H
	DB	029H
	DB	066H
	DB	029H
	DB	0a7H
	DB	029H
	DB	0a7H
	DB	031H
	DB	087H
	DB	029H
	DB	066H
	DB	029H
	DB	066H
	DB	029H
	DB	066H
	DB	029H
	DB	045H
	DB	021H
	DB	045H
	DB	029H
	DB	086H
	DB	029H
	DB	0a7H
	DB	031H
	DB	0a7H
	DB	029H
	DB	0c7H
	DB	031H
	DB	0a7H
	DB	031H
	DB	0a7H
	DB	031H
	DB	0e8H
	DB	039H
	DB	0c7H
	DB	031H
	DB	0a7H
	DB	031H
	DB	0c8H
	DB	031H
	DB	0a7H
	DB	029H
	DB	0a7H
	DB	031H
	DB	0c7H
	DB	031H
	DB	0a7H
	DB	031H
	DB	0c7H
	DB	031H
	DB	0a7H
	DB	029H
	DB	0c7H
	DB	031H
	DB	0e8H
	DB	039H
	DB	0c7H
	DB	031H
	DB	0c7H
	DB	031H
	DB	0a7H
	DB	029H
	DB	0a7H
	DB	031H
	DB	0e8H
	DB	031H
	DB	0c7H
	DB	031H
	DB	0c7H
	DB	031H
	DB	0c7H
	DB	031H
	DB	086H
	DB	029H
	DB	0c8H
	DB	031H
	DB	0c7H
	DB	031H
	DB	0c7H
	DB	031H
	DB	0c7H
	DB	031H
	DB	087H
	DB	029H
	DB	0c7H
	DB	031H
	DB	0c8H
	DB	031H
	DB	0a7H
	DB	031H
	DB	0a7H
	DB	031H
	DB	0a7H
	DB	029H
	DB	0a7H
	DB	031H
	DB	0c7H
	DB	031H
	DB	0c7H
	DB	031H
	DB	0c7H
	DB	031H
	DB	0a7H
	DB	031H
	DB	086H
	DB	029H
	DB	0c8H
	DB	031H
	DB	0c7H
	DB	031H
	DB	0c7H
	DB	031H
	DB	0c7H
	DB	031H
	DB	0a7H
	DB	029H
	DB	0a7H
	DB	029H
	DB	0c7H
	DB	031H
	DB	0c7H
	DB	031H
	DB	0a7H
	DB	031H
	DB	0a7H
	DB	029H
	DB	0a7H
	DB	031H
	DB	0e8H
	DB	039H
	DB	0c7H
	DB	031H
	DB	0c7H
	DB	031H
	DB	0c7H
	DB	031H
	DB	086H
	DB	029H
	DB	0a7H
	DB	031H
	DB	0c7H
	DB	031H
	DB	0a7H
	DB	031H
	DB	0a7H
	DB	031H
	DB	086H
	DB	029H
	DB	0a7H
	DB	031H
	DB	0e8H
	DB	031H
	DB	0a7H
	DB	031H
	DB	0a7H
	DB	031H
	DB	0a7H
	DB	029H
	DB	0a7H
	DB	029H
	DB	0c7H
	DB	031H
	DB	0c7H
	DB	031H
	DB	0a7H
	DB	029H
	DB	0a7H
	DB	031H
	DB	086H
	DB	029H
	DB	0a7H
	DB	029H
	DB	0a7H
	DB	031H
	DB	0a7H
	DB	031H
	DB	0a7H
	DB	031H
	DB	086H
	DB	029H
	DB	0a7H
	DB	031H
	DB	0c7H
	DB	031H
	DB	0a7H
	DB	031H
	DB	0a7H
	DB	031H
	DB	086H
	DB	029H
	DB	086H
	DB	029H
	DB	0c7H
	DB	031H
	DB	0c7H
	DB	031H
	DB	0a7H
	DB	031H
	DB	0a7H
	DB	031H
	DB	086H
	DB	029H
	DB	0a7H
	DB	031H
	DB	0a7H
	DB	031H
	DB	0a6H
	DB	029H
	DB	0a7H
	DB	031H
	DB	066H
	DB	029H
	DB	086H
	DB	029H
	DB	0c7H
	DB	031H
	DB	0a7H
	DB	029H
	DB	0a7H
	DB	031H
	DB	086H
	DB	029H
	DB	086H
	DB	029H
	DB	0c7H
	DB	031H
	DB	0c7H
	DB	031H
	DB	0a7H
	DB	031H
	DB	0a7H
	DB	031H
	DB	066H
	DB	029H
	DB	0a7H
	DB	029H
	DB	0a7H
	DB	031H
	DB	0a6H
	DB	029H
	DB	086H
	DB	029H
	DB	086H
	DB	029H
	DB	0a7H
	DB	031H
	DB	0a7H
	DB	031H
	DB	087H
	DB	031H
	DB	0a7H
	DB	031H
	DB	086H
	DB	029H
	DB	086H
	DB	029H
	DB	0c7H
	DB	031H
	DB	0a7H
	DB	031H
	DB	087H
	DB	029H
	DB	086H
	DB	029H
	DB	066H
	DB	029H
	DB	0a7H
	DB	031H
	DB	0a7H
	DB	031H
	DB	087H
	DB	029H
	DB	087H
	DB	029H
	DB	066H
	DB	029H
	DB	086H
	DB	029H
	DB	0a7H
	DB	031H
	DB	086H
	DB	029H
	DB	0a7H
	DB	031H
	DB	086H
	DB	029H
	DB	066H
	DB	029H
	DB	0a7H
	DB	029H
	DB	086H
	DB	029H
	DB	087H
	DB	031H
	DB	0a6H
	DB	029H
	DB	086H
	DB	029H
	DB	0a7H
	DB	029H
	DB	0a7H
	DB	031H
	DB	086H
	DB	029H
	DB	086H
	DB	029H
	DB	086H
	DB	029H
	DB	086H
	DB	029H
	DB	0a7H
	DB	031H
	DB	086H
	DB	029H
	DB	066H
	DB	029H
	DB	066H
	DB	029H
	DB	065H
	DB	021H
	DB	066H
	DB	029H
	DB	066H
	DB	021H
	DB	066H
	DB	029H
	DB	086H
	DB	029H
	DB	0a7H
	DB	031H
	DB	0a7H
	DB	031H
	DB	0a7H
	DB	031H
	DB	0a7H
	DB	029H
	DB	0a7H
	DB	029H
	DB	0c7H
	DB	031H
	DB	0a7H
	DB	031H
	DB	0c7H
	DB	031H
	DB	0a7H
	DB	031H
	DB	087H
	DB	029H
	DB	0c7H
	DB	031H
	DB	0c8H
	DB	031H
	DB	0a7H
	DB	029H
	DB	0c7H
	DB	031H
	DB	0c7H
	DB	031H
	DB	0a7H
	DB	031H
	DB	0c7H
	DB	031H
	DB	0a7H
	DB	029H
	DB	0a7H
	DB	031H
	DB	0a7H
	DB	031H
	DB	0a7H
	DB	029H
	DB	0c7H
	DB	031H
	DB	0c7H
	DB	031H
	DB	0a7H
	DB	031H
	DB	0c8H
	DB	031H
	DB	0a7H
	DB	029H
	DB	0c7H
	DB	031H
	DB	0c8H
	DB	031H
	DB	0c7H
	DB	031H
	DB	0c7H
	DB	031H
	DB	0a7H
	DB	031H
	DB	0a7H
	DB	031H
	DB	0c7H
	DB	031H
	DB	0a7H
	DB	029H
	DB	0c7H
	DB	031H
	DB	0a7H
	DB	031H
	DB	0a7H
	DB	031H
	DB	0c8H
	DB	031H
	DB	0a7H
	DB	031H
	DB	0a7H
	DB	031H
	DB	0a7H
	DB	031H
	DB	0a6H
	DB	029H
	DB	0a7H
	DB	031H
	DB	0c7H
	DB	031H
	DB	087H
	DB	029H
	DB	0a7H
	DB	031H
	DB	0a7H
	DB	031H
	DB	0a7H
	DB	031H
	DB	0c8H
	DB	031H
	DB	0a7H
	DB	031H
	DB	0c7H
	DB	031H
	DB	0c7H
	DB	031H
	DB	0a7H
	DB	029H
	DB	0c7H
	DB	031H
	DB	0a7H
	DB	031H
	DB	087H
	DB	029H
	DB	0c7H
	DB	031H
	DB	0a7H
	DB	029H
	DB	0a7H
	DB	031H
	DB	0c7H
	DB	031H
	DB	0c7H
	DB	031H
	DB	0a7H
	DB	031H
	DB	087H
	DB	029H
	DB	0c7H
	DB	031H
	DB	0c7H
	DB	031H
	DB	0a7H
	DB	031H
	DB	0a7H
	DB	031H
	DB	0a7H
	DB	029H
	DB	086H
	DB	029H
	DB	0c7H
	DB	031H
	DB	0a7H
	DB	031H
	DB	0a7H
	DB	031H
	DB	0a7H
	DB	029H
	DB	086H
	DB	029H
	DB	0c7H
	DB	031H
	DB	0c7H
	DB	031H
	DB	0a6H
	DB	029H
	DB	0a7H
	DB	029H
	DB	087H
	DB	029H
	DB	0a7H
	DB	029H
	DB	0a7H
	DB	031H
	DB	087H
	DB	029H
	DB	0a7H
	DB	031H
	DB	0c7H
	DB	031H
	DB	086H
	DB	029H
	DB	0a7H
	DB	031H
	DB	0a7H
	DB	031H
	DB	0a7H
	DB	029H
	DB	0a7H
	DB	031H
	DB	086H
	DB	029H
	DB	0a7H
	DB	029H
	DB	0c7H
	DB	031H
	DB	086H
	DB	029H
	DB	087H
	DB	029H
	DB	087H
	DB	029H
	DB	086H
	DB	029H
	DB	0c7H
	DB	031H
	DB	087H
	DB	031H
	DB	0a7H
	DB	031H
	DB	0a7H
	DB	031H
	DB	066H
	DB	029H
	DB	0a7H
	DB	031H
	DB	0a7H
	DB	029H
	DB	0a6H
	DB	029H
	DB	0a7H
	DB	031H
	DB	066H
	DB	029H
	DB	0a7H
	DB	029H
	DB	0a7H
	DB	031H
	DB	066H
	DB	029H
	DB	087H
	DB	029H
	DB	086H
	DB	029H
	DB	086H
	DB	029H
	DB	0a7H
	DB	031H
	DB	0a6H
	DB	029H
	DB	087H
	DB	029H
	DB	086H
	DB	029H
	DB	086H
	DB	029H
	DB	087H
	DB	031H
	DB	086H
	DB	029H
	DB	086H
	DB	029H
	DB	0a7H
	DB	029H
	DB	086H
	DB	029H
	DB	086H
	DB	029H
	DB	087H
	DB	029H
	DB	086H
	DB	029H
	DB	0a7H
	DB	031H
	DB	086H
	DB	029H
	DB	086H
	DB	029H
	DB	0a7H
	DB	031H
	DB	086H
	DB	029H
	DB	0a6H
	DB	029H
	DB	087H
	DB	029H
	DB	066H
	DB	029H
	DB	0a7H
	DB	031H
	DB	086H
	DB	029H
	DB	086H
	DB	029H
	DB	087H
	DB	029H
	DB	066H
	DB	029H
	DB	0a6H
	DB	031H
	DB	086H
	DB	029H
	DB	066H
	DB	029H
	DB	0a7H
	DB	029H
	DB	086H
	DB	029H
	DB	066H
	DB	029H
	DB	0a6H
	DB	031H
	DB	066H
	DB	029H
	DB	066H
	DB	021H
	DB	066H
	DB	029H
	DB	045H
	DB	021H
	DB	045H
	DB	029H
	DB	066H
	DB	029H
	DB	086H
	DB	029H
	DB	086H
	DB	029H
	DB	0a7H
	DB	031H
	DB	0c7H
	DB	031H
	DB	0c7H
	DB	031H
	DB	0a7H
	DB	031H
	DB	0a7H
	DB	029H
	DB	0e8H
	DB	031H
	DB	0c8H
	DB	031H
	DB	0c7H
	DB	031H
	DB	0a7H
	DB	031H
	DB	0a7H
	DB	029H
	DB	0a7H
	DB	031H
	DB	0c7H
	DB	031H
	DB	0c7H
	DB	031H
	DB	0c7H
	DB	031H
	DB	0a7H
	DB	029H
	DB	0a7H
	DB	031H
	DB	0c7H
	DB	031H
	DB	0a7H
	DB	031H
	DB	0c8H
	DB	031H
	DB	0c7H
	DB	031H
	DB	087H
	DB	029H
	DB	0c7H
	DB	031H
	DB	0c7H
	DB	031H
	DB	0c7H
	DB	031H
	DB	0c7H
	DB	031H
	DB	0a6H
	DB	029H
	DB	0a7H
	DB	031H
	DB	0c8H
	DB	031H
	DB	0c7H
	DB	031H
	DB	0c7H
	DB	031H
	DB	0a7H
	DB	029H
	DB	0a7H
	DB	031H
	DB	0c7H
	DB	031H
	DB	0c8H
	DB	031H
	DB	0c7H
	DB	031H
	DB	0a7H
	DB	031H
	DB	086H
	DB	029H
	DB	0a7H
	DB	029H
	DB	0c7H
	DB	031H
	DB	0a7H
	DB	031H
	DB	0a7H
	DB	031H
	DB	0a7H
	DB	029H
	DB	0a7H
	DB	031H
	DB	0c7H
	DB	031H
	DB	0a7H
	DB	031H
	DB	0a7H
	DB	031H
	DB	0a6H
	DB	029H
	DB	0a7H
	DB	031H
	DB	0e8H
	DB	031H
	DB	0a7H
	DB	031H
	DB	0a7H
	DB	031H
	DB	0c7H
	DB	031H
	DB	086H
	DB	029H
	DB	0a7H
	DB	031H
	DB	0c7H
	DB	031H
	DB	0a7H
	DB	031H
	DB	0c7H
	DB	031H
	DB	087H
	DB	029H
	DB	0a7H
	DB	029H
	DB	0a7H
	DB	031H
	DB	0a7H
	DB	031H
	DB	0a7H
	DB	031H
	DB	0a6H
	DB	029H
	DB	0a7H
	DB	029H
	DB	0c7H
	DB	031H
	DB	0c7H
	DB	031H
	DB	0a7H
	DB	031H
	DB	0a7H
	DB	029H
	DB	086H
	DB	029H
	DB	0a7H
	DB	031H
	DB	0c7H
	DB	031H
	DB	0a7H
	DB	031H
	DB	0a7H
	DB	029H
	DB	087H
	DB	029H
	DB	086H
	DB	029H
	DB	0c7H
	DB	031H
	DB	0c7H
	DB	031H
	DB	0a7H
	DB	031H
	DB	086H
	DB	029H
	DB	0a6H
	DB	029H
	DB	0a7H
	DB	031H
	DB	0a7H
	DB	029H
	DB	0a7H
	DB	031H
	DB	0a7H
	DB	029H
	DB	087H
	DB	029H
	DB	0a7H
	DB	029H
	DB	0a7H
	DB	029H
	DB	0a7H
	DB	031H
	DB	0a7H
	DB	031H
	DB	086H
	DB	029H
	DB	0a7H
	DB	031H
	DB	0c7H
	DB	031H
	DB	0a7H
	DB	031H
	DB	0a7H
	DB	029H
	DB	0a6H
	DB	029H
	DB	086H
	DB	029H
	DB	0a7H
	DB	029H
	DB	0a7H
	DB	031H
	DB	087H
	DB	029H
	DB	087H
	DB	029H
	DB	066H
	DB	029H
	DB	086H
	DB	029H
	DB	0a7H
	DB	031H
	DB	0a6H
	DB	029H
	DB	087H
	DB	029H
	DB	086H
	DB	029H
	DB	087H
	DB	029H
	DB	0a7H
	DB	031H
	DB	0a7H
	DB	031H
	DB	0a7H
	DB	031H
	DB	086H
	DB	029H
	DB	086H
	DB	029H
	DB	0a7H
	DB	031H
	DB	087H
	DB	029H
	DB	086H
	DB	029H
	DB	086H
	DB	029H
	DB	086H
	DB	029H
	DB	0a7H
	DB	031H
	DB	0a7H
	DB	031H
	DB	086H
	DB	029H
	DB	0a7H
	DB	029H
	DB	086H
	DB	029H
	DB	066H
	DB	029H
	DB	0a6H
	DB	031H
	DB	0a7H
	DB	029H
	DB	087H
	DB	029H
	DB	066H
	DB	029H
	DB	066H
	DB	029H
	DB	087H
	DB	031H
	DB	0a7H
	DB	031H
	DB	0a6H
	DB	029H
	DB	066H
	DB	029H
	DB	066H
	DB	029H
	DB	087H
	DB	029H
	DB	0a7H
	DB	031H
	DB	086H
	DB	029H
	DB	087H
	DB	029H
	DB	086H
	DB	029H
	DB	066H
	DB	029H
	DB	086H
	DB	029H
	DB	086H
	DB	029H
	DB	086H
	DB	029H
	DB	086H
	DB	029H
	DB	086H
	DB	029H
	DB	0a6H
	DB	029H
	DB	086H
	DB	029H
	DB	066H
	DB	029H
	DB	066H
	DB	029H
	DB	025H
	DB	021H
	DB	066H
	DB	029H
	DB	086H
	DB	029H
	DB	087H
	DB	029H
	DB	0a7H
	DB	031H
	DB	0c8H
	DB	031H
	DB	0c7H
	DB	031H
	DB	0e8H
	DB	031H
	DB	0a7H
	DB	031H
	DB	0a7H
	DB	031H
	DB	0e7H
	DB	031H
	DB	0c7H
	DB	031H
	DB	0a7H
	DB	031H
	DB	0c7H
	DB	031H
	DB	087H
	DB	029H
	DB	0a7H
	DB	031H
	DB	0c8H
	DB	031H
	DB	0a7H
	DB	031H
	DB	0a7H
	DB	029H
	DB	0a7H
	DB	029H
	DB	0c7H
	DB	031H
	DB	0c8H
	DB	031H
	DB	0c7H
	DB	031H
	DB	0c7H
	DB	031H
	DB	0c7H
	DB	031H
	DB	0a7H
	DB	031H
	DB	0c7H
	DB	031H
	DB	0c7H
	DB	031H
	DB	0c8H
	DB	031H
	DB	0a7H
	DB	031H
	DB	0a7H
	DB	029H
	DB	0a7H
	DB	031H
	DB	0c7H
	DB	031H
	DB	0a7H
	DB	031H
	DB	0a7H
	DB	031H
	DB	0c7H
	DB	031H
	DB	0c7H
	DB	031H
	DB	0c7H
	DB	031H
	DB	0a7H
	DB	031H
	DB	0a7H
	DB	031H
	DB	0a7H
	DB	029H
	DB	0a7H
	DB	031H
	DB	0e8H
	DB	031H
	DB	0c7H
	DB	031H
	DB	0a7H
	DB	029H
	DB	0a7H
	DB	031H
	DB	0a7H
	DB	029H
	DB	0c7H
	DB	031H
	DB	0a7H
	DB	031H
	DB	0c7H
	DB	031H
	DB	0a7H
	DB	029H
	DB	086H
	DB	029H
	DB	0a7H
	DB	029H
	DB	0c7H
	DB	031H
	DB	0a7H
	DB	031H
	DB	0c7H
	DB	031H
	DB	0a7H
	DB	029H
	DB	0a7H
	DB	031H
	DB	0c7H
	DB	031H
	DB	0a7H
	DB	031H
	DB	0c7H
	DB	031H
	DB	0a7H
	DB	031H
	DB	086H
	DB	029H
	DB	0a7H
	DB	029H
	DB	0c7H
	DB	031H
	DB	0c7H
	DB	031H
	DB	0a7H
	DB	031H
	DB	0a7H
	DB	029H
	DB	0a7H
	DB	031H
	DB	0c7H
	DB	031H
	DB	0a7H
	DB	031H
	DB	0a7H
	DB	031H
	DB	0a6H
	DB	029H
	DB	087H
	DB	029H
	DB	0c7H
	DB	031H
	DB	0c7H
	DB	031H
	DB	0a7H
	DB	029H
	DB	0a7H
	DB	031H
	DB	087H
	DB	029H
	DB	0c7H
	DB	031H
	DB	0c7H
	DB	031H
	DB	0a7H
	DB	031H
	DB	0a7H
	DB	029H
	DB	086H
	DB	029H
	DB	0a7H
	DB	029H
	DB	0a7H
	DB	031H
	DB	0a7H
	DB	031H
	DB	0a7H
	DB	029H
	DB	066H
	DB	029H
	DB	086H
	DB	029H
	DB	0a7H
	DB	031H
	DB	0a7H
	DB	031H
	DB	0a7H
	DB	031H
	DB	087H
	DB	029H
	DB	087H
	DB	029H
	DB	0a7H
	DB	031H
	DB	0c7H
	DB	031H
	DB	087H
	DB	031H
	DB	0a7H
	DB	031H
	DB	086H
	DB	029H
	DB	086H
	DB	029H
	DB	0a7H
	DB	031H
	DB	0a6H
	DB	029H
	DB	0a7H
	DB	031H
	DB	0a7H
	DB	029H
	DB	086H
	DB	029H
	DB	0a7H
	DB	031H
	DB	0a7H
	DB	031H
	DB	0a6H
	DB	029H
	DB	087H
	DB	029H
	DB	0a7H
	DB	031H
	DB	0a7H
	DB	031H
	DB	0a7H
	DB	029H
	DB	0a7H
	DB	031H
	DB	086H
	DB	029H
	DB	066H
	DB	029H
	DB	086H
	DB	029H
	DB	0a7H
	DB	031H
	DB	087H
	DB	029H
	DB	0a7H
	DB	031H
	DB	086H
	DB	029H
	DB	086H
	DB	029H
	DB	087H
	DB	029H
	DB	087H
	DB	029H
	DB	086H
	DB	029H
	DB	086H
	DB	029H
	DB	066H
	DB	029H
	DB	0a7H
	DB	029H
	DB	087H
	DB	031H
	DB	086H
	DB	029H
	DB	0a6H
	DB	029H
	DB	086H
	DB	029H
	DB	087H
	DB	029H
	DB	0a7H
	DB	031H
	DB	086H
	DB	029H
	DB	086H
	DB	029H
	DB	086H
	DB	029H
	DB	086H
	DB	029H
	DB	086H
	DB	029H
	DB	086H
	DB	029H
	DB	087H
	DB	029H
	DB	086H
	DB	029H
	DB	086H
	DB	029H
	DB	087H
	DB	029H
	DB	087H
	DB	031H
	DB	086H
	DB	029H
	DB	087H
	DB	029H
	DB	086H
	DB	029H
	DB	086H
	DB	029H
	DB	086H
	DB	029H
	DB	066H
	DB	029H
	DB	045H
	DB	021H
	DB	025H
	DB	021H
	DB	086H
	DB	029H
	DB	0a7H
	DB	029H
	DB	0c7H
	DB	031H
	DB	086H
	DB	029H
	DB	0a7H
	DB	029H
	DB	0c8H
	DB	031H
	DB	0a7H
	DB	031H
	DB	0c7H
	DB	031H
	DB	0a7H
	DB	031H
	DB	0a7H
	DB	029H
	DB	0c7H
	DB	031H
	DB	0a7H
	DB	029H
	DB	0c7H
	DB	031H
	DB	0c7H
	DB	031H
	DB	087H
	DB	029H
	DB	0c7H
	DB	031H
	DB	0c8H
	DB	031H
	DB	0a7H
	DB	031H
	DB	0c8H
	DB	031H
	DB	0a7H
	DB	031H
	DB	0a7H
	DB	029H
	DB	0c7H
	DB	031H
	DB	0c7H
	DB	031H
	DB	0c8H
	DB	031H
	DB	0c7H
	DB	031H
	DB	0a7H
	DB	029H
	DB	0c8H
	DB	031H
	DB	0a7H
	DB	031H
	DB	0c7H
	DB	031H
	DB	0c7H
	DB	031H
	DB	087H
	DB	029H
	DB	0c7H
	DB	031H
	DB	0a7H
	DB	031H
	DB	0a7H
	DB	031H
	DB	0c8H
	DB	031H
	DB	0a7H
	DB	029H
	DB	0a7H
	DB	031H
	DB	0c7H
	DB	031H
	DB	0a7H
	DB	029H
	DB	0c7H
	DB	031H
	DB	0c7H
	DB	031H
	DB	0a7H
	DB	029H
	DB	0c7H
	DB	031H
	DB	0a7H
	DB	029H
	DB	0a7H
	DB	031H
	DB	0a7H
	DB	031H
	DB	087H
	DB	029H
	DB	0c7H
	DB	031H
	DB	0c7H
	DB	031H
	DB	0a7H
	DB	031H
	DB	0a7H
	DB	031H
	DB	086H
	DB	029H
	DB	0a7H
	DB	031H
	DB	0c8H
	DB	031H
	DB	0a7H
	DB	031H
	DB	0c8H
	DB	031H
	DB	0a7H
	DB	029H
	DB	087H
	DB	029H
	DB	0c7H
	DB	031H
	DB	0a7H
	DB	031H
	DB	0c7H
	DB	031H
	DB	0c7H
	DB	031H
	DB	087H
	DB	029H
	DB	0a7H
	DB	031H
	DB	0c7H
	DB	031H
	DB	0c8H
	DB	031H
	DB	0e7H
	DB	031H
	DB	086H
	DB	029H
	DB	0a7H
	DB	031H
	DB	0c7H
	DB	031H
	DB	087H
	DB	029H
	DB	0a7H
	DB	031H
	DB	0a7H
	DB	031H
	DB	086H
	DB	029H
	DB	0a7H
	DB	031H
	DB	0a7H
	DB	031H
	DB	0c7H
	DB	031H
	DB	0a7H
	DB	031H
	DB	0a7H
	DB	029H
	DB	0a7H
	DB	029H
	DB	0a7H
	DB	031H
	DB	0a7H
	DB	031H
	DB	0a7H
	DB	031H
	DB	086H
	DB	029H
	DB	0a7H
	DB	029H
	DB	0c7H
	DB	031H
	DB	086H
	DB	029H
	DB	0c7H
	DB	031H
	DB	086H
	DB	029H
	DB	086H
	DB	029H
	DB	0c7H
	DB	031H
	DB	0a7H
	DB	031H
	DB	0c7H
	DB	031H
	DB	0a7H
	DB	031H
	DB	086H
	DB	029H
	DB	0a7H
	DB	029H
	DB	0a7H
	DB	031H
	DB	087H
	DB	029H
	DB	0a7H
	DB	031H
	DB	086H
	DB	029H
	DB	086H
	DB	029H
	DB	0a7H
	DB	031H
	DB	0a7H
	DB	029H
	DB	0a7H
	DB	031H
	DB	086H
	DB	029H
	DB	086H
	DB	029H
	DB	0a7H
	DB	031H
	DB	086H
	DB	029H
	DB	086H
	DB	029H
	DB	0a6H
	DB	029H
	DB	066H
	DB	029H
	DB	086H
	DB	029H
	DB	0a7H
	DB	031H
	DB	0a7H
	DB	029H
	DB	0a7H
	DB	029H
	DB	086H
	DB	029H
	DB	086H
	DB	029H
	DB	0a7H
	DB	031H
	DB	087H
	DB	029H
	DB	086H
	DB	029H
	DB	086H
	DB	029H
	DB	086H
	DB	029H
	DB	0a7H
	DB	029H
	DB	0a7H
	DB	031H
	DB	087H
	DB	031H
	DB	0a6H
	DB	029H
	DB	066H
	DB	029H
	DB	086H
	DB	029H
	DB	0a7H
	DB	031H
	DB	0a7H
	DB	031H
	DB	0a7H
	DB	031H
	DB	086H
	DB	029H
	DB	086H
	DB	029H
	DB	087H
	DB	029H
	DB	086H
	DB	029H
	DB	0a7H
	DB	031H
	DB	066H
	DB	029H
	DB	086H
	DB	029H
	DB	0a7H
	DB	029H
	DB	066H
	DB	029H
	DB	087H
	DB	029H
	DB	0a7H
	DB	031H
	DB	086H
	DB	029H
	DB	086H
	DB	029H
	DB	0a7H
	DB	031H
	DB	086H
	DB	029H
	DB	087H
	DB	029H
	DB	066H
	DB	029H
	DB	066H
	DB	029H
	DB	086H
	DB	029H
	DB	046H
	DB	021H
	DB	065H
	DB	021H
	DB	066H
	DB	029H
	DB	0c7H
	DB	031H
	DB	0a7H
	DB	031H
	DB	0a7H
	DB	031H
	DB	086H
	DB	029H
	DB	0a7H
	DB	029H
	DB	0c8H
	DB	031H
	DB	0c7H
	DB	031H
	DB	0c7H
	DB	031H
	DB	0a7H
	DB	029H
	DB	087H
	DB	031H
	DB	0c8H
	DB	031H
	DB	0c7H
	DB	031H
	DB	0c7H
	DB	031H
	DB	0c7H
	DB	031H
	DB	087H
	DB	029H
	DB	0c7H
	DB	031H
	DB	0c7H
	DB	031H
	DB	0a7H
	DB	031H
	DB	0c7H
	DB	031H
	DB	087H
	DB	029H
	DB	0c7H
	DB	031H
	DB	08H
	DB	03aH
	DB	0a7H
	DB	031H
	DB	0a7H
	DB	031H
	DB	0c7H
	DB	031H
	DB	086H
	DB	029H
	DB	0c7H
	DB	031H
	DB	0c7H
	DB	031H
	DB	0a7H
	DB	031H
	DB	0a7H
	DB	031H
	DB	0a7H
	DB	029H
	DB	0c7H
	DB	031H
	DB	0c8H
	DB	031H
	DB	0c7H
	DB	031H
	DB	0c8H
	DB	031H
	DB	0a7H
	DB	031H
	DB	0a7H
	DB	029H
	DB	0c8H
	DB	031H
	DB	0a7H
	DB	031H
	DB	0c7H
	DB	031H
	DB	0a7H
	DB	031H
	DB	086H
	DB	029H
	DB	0c7H
	DB	031H
	DB	0c7H
	DB	031H
	DB	0a7H
	DB	031H
	DB	0c7H
	DB	031H
	DB	086H
	DB	029H
	DB	0c7H
	DB	031H
	DB	0c8H
	DB	031H
	DB	0a7H
	DB	031H
	DB	0a7H
	DB	031H
	DB	0a7H
	DB	029H
	DB	0a7H
	DB	031H
	DB	0e7H
	DB	031H
	DB	0c7H
	DB	031H
	DB	0a7H
	DB	031H
	DB	0a7H
	DB	031H
	DB	086H
	DB	029H
	DB	0a7H
	DB	031H
	DB	0c7H
	DB	031H
	DB	0c7H
	DB	031H
	DB	0a7H
	DB	031H
	DB	066H
	DB	029H
	DB	0a7H
	DB	029H
	DB	0c8H
	DB	031H
	DB	0c7H
	DB	031H
	DB	0a7H
	DB	031H
	DB	0a7H
	DB	029H
	DB	0a7H
	DB	029H
	DB	0c7H
	DB	031H
	DB	0a7H
	DB	029H
	DB	0a7H
	DB	031H
	DB	087H
	DB	029H
	DB	086H
	DB	029H
	DB	0c7H
	DB	031H
	DB	0c7H
	DB	031H
	DB	0a7H
	DB	029H
	DB	0a6H
	DB	029H
	DB	066H
	DB	029H
	DB	0a7H
	DB	031H
	DB	0c7H
	DB	031H
	DB	0a7H
	DB	029H
	DB	0a7H
	DB	031H
	DB	086H
	DB	029H
	DB	0a7H
	DB	029H
	DB	0c7H
	DB	031H
	DB	0a7H
	DB	031H
	DB	0a7H
	DB	031H
	DB	0a7H
	DB	029H
	DB	086H
	DB	029H
	DB	0c7H
	DB	031H
	DB	0a7H
	DB	031H
	DB	0a7H
	DB	029H
	DB	0a7H
	DB	031H
	DB	086H
	DB	029H
	DB	0a7H
	DB	031H
	DB	0c7H
	DB	031H
	DB	0a7H
	DB	029H
	DB	0a7H
	DB	031H
	DB	066H
	DB	029H
	DB	066H
	DB	029H
	DB	0a7H
	DB	031H
	DB	0a7H
	DB	031H
	DB	087H
	DB	029H
	DB	086H
	DB	029H
	DB	086H
	DB	029H
	DB	0a7H
	DB	031H
	DB	0a7H
	DB	031H
	DB	0a7H
	DB	029H
	DB	087H
	DB	029H
	DB	066H
	DB	029H
	DB	086H
	DB	029H
	DB	0a7H
	DB	031H
	DB	086H
	DB	029H
	DB	086H
	DB	029H
	DB	086H
	DB	029H
	DB	086H
	DB	029H
	DB	0a7H
	DB	031H
	DB	087H
	DB	029H
	DB	086H
	DB	029H
	DB	086H
	DB	029H
	DB	066H
	DB	029H
	DB	0c7H
	DB	031H
	DB	0a7H
	DB	031H
	DB	086H
	DB	029H
	DB	087H
	DB	029H
	DB	066H
	DB	029H
	DB	0a6H
	DB	029H
	DB	0c7H
	DB	031H
	DB	087H
	DB	029H
	DB	086H
	DB	029H
	DB	086H
	DB	029H
	DB	086H
	DB	029H
	DB	0a7H
	DB	031H
	DB	087H
	DB	029H
	DB	086H
	DB	029H
	DB	086H
	DB	029H
	DB	066H
	DB	029H
	DB	0a7H
	DB	031H
	DB	0a7H
	DB	031H
	DB	086H
	DB	029H
	DB	086H
	DB	029H
	DB	066H
	DB	029H
	DB	087H
	DB	029H
	DB	0a7H
	DB	031H
	DB	066H
	DB	029H
	DB	086H
	DB	029H
	DB	066H
	DB	029H
	DB	066H
	DB	021H
	DB	066H
	DB	029H
	DB	045H
	DB	021H
	DB	066H
	DB	029H
	DB	086H
	DB	029H
	DB	0a7H
	DB	031H
	DB	0a7H
	DB	031H
	DB	0c7H
	DB	031H
	DB	0c7H
	DB	031H
	DB	0a7H
	DB	031H
	DB	0c7H
	DB	031H
	DB	0c7H
	DB	031H
	DB	087H
	DB	029H
	DB	0c7H
	DB	031H
	DB	0c7H
	DB	031H
	DB	0c7H
	DB	031H
	DB	0a7H
	DB	031H
	DB	0a7H
	DB	031H
	DB	0c7H
	DB	031H
	DB	0a7H
	DB	031H
	DB	0a7H
	DB	031H
	DB	0c7H
	DB	031H
	DB	0a7H
	DB	029H
	DB	0a7H
	DB	031H
	DB	0a7H
	DB	031H
	DB	0c7H
	DB	031H
	DB	0c7H
	DB	031H
	DB	0a7H
	DB	031H
	DB	0c7H
	DB	031H
	DB	0a7H
	DB	031H
	DB	0a7H
	DB	029H
	DB	0c8H
	DB	031H
	DB	0c7H
	DB	031H
	DB	0c7H
	DB	031H
	DB	0a7H
	DB	031H
	DB	0a7H
	DB	029H
	DB	0a7H
	DB	031H
	DB	0c7H
	DB	031H
	DB	0a7H
	DB	031H
	DB	0a7H
	DB	031H
	DB	0a6H
	DB	029H
	DB	0a7H
	DB	031H
	DB	0c7H
	DB	031H
	DB	0c7H
	DB	031H
	DB	0a7H
	DB	031H
	DB	087H
	DB	029H
	DB	0a7H
	DB	029H
	DB	0c7H
	DB	031H
	DB	0a7H
	DB	031H
	DB	0c7H
	DB	031H
	DB	0a7H
	DB	031H
	DB	0a7H
	DB	029H
	DB	0a7H
	DB	031H
	DB	0c7H
	DB	031H
	DB	0a7H
	DB	031H
	DB	0a7H
	DB	031H
	DB	0a7H
	DB	029H
	DB	0a7H
	DB	029H
	DB	0c7H
	DB	031H
	DB	0a7H
	DB	031H
	DB	0a7H
	DB	029H
	DB	087H
	DB	029H
	DB	0a7H
	DB	029H
	DB	0a7H
	DB	031H
	DB	0c8H
	DB	031H
	DB	0c7H
	DB	031H
	DB	0a7H
	DB	029H
	DB	086H
	DB	029H
	DB	0a7H
	DB	031H
	DB	0c7H
	DB	031H
	DB	087H
	DB	031H
	DB	086H
	DB	029H
	DB	0a7H
	DB	029H
	DB	0a7H
	DB	031H
	DB	0a7H
	DB	031H
	DB	0a7H
	DB	031H
	DB	0c7H
	DB	031H
	DB	0a7H
	DB	029H
	DB	086H
	DB	029H
	DB	0a7H
	DB	031H
	DB	0a7H
	DB	031H
	DB	0a7H
	DB	031H
	DB	0a7H
	DB	031H
	DB	086H
	DB	029H
	DB	0a7H
	DB	029H
	DB	0c7H
	DB	031H
	DB	087H
	DB	029H
	DB	086H
	DB	029H
	DB	087H
	DB	031H
	DB	0a7H
	DB	029H
	DB	0a7H
	DB	031H
	DB	0a7H
	DB	031H
	DB	0a7H
	DB	029H
	DB	087H
	DB	029H
	DB	086H
	DB	029H
	DB	0a7H
	DB	031H
	DB	0a7H
	DB	031H
	DB	0a7H
	DB	031H
	DB	086H
	DB	029H
	DB	086H
	DB	029H
	DB	0a7H
	DB	031H
	DB	0a7H
	DB	031H
	DB	087H
	DB	029H
	DB	0a7H
	DB	029H
	DB	086H
	DB	029H
	DB	086H
	DB	029H
	DB	0a7H
	DB	031H
	DB	0a7H
	DB	029H
	DB	0a7H
	DB	029H
	DB	086H
	DB	029H
	DB	086H
	DB	029H
	DB	0c7H
	DB	031H
	DB	0a7H
	DB	031H
	DB	0a7H
	DB	031H
	DB	0a7H
	DB	031H
	DB	086H
	DB	029H
	DB	086H
	DB	029H
	DB	0a7H
	DB	031H
	DB	087H
	DB	029H
	DB	086H
	DB	029H
	DB	086H
	DB	029H
	DB	086H
	DB	029H
	DB	0c7H
	DB	031H
	DB	086H
	DB	029H
	DB	066H
	DB	029H
	DB	066H
	DB	029H
	DB	066H
	DB	029H
	DB	0a7H
	DB	029H
	DB	0a7H
	DB	031H
	DB	086H
	DB	029H
	DB	086H
	DB	029H
	DB	086H
	DB	029H
	DB	086H
	DB	029H
	DB	0a7H
	DB	031H
	DB	087H
	DB	029H
	DB	066H
	DB	029H
	DB	086H
	DB	029H
	DB	086H
	DB	029H
	DB	0a7H
	DB	031H
	DB	0a7H
	DB	029H
	DB	086H
	DB	029H
	DB	086H
	DB	029H
	DB	066H
	DB	029H
	DB	0a7H
	DB	029H
	DB	086H
	DB	029H
	DB	086H
	DB	029H
	DB	066H
	DB	029H
	DB	066H
	DB	029H
	DB	086H
	DB	029H
	DB	0a7H
	DB	031H
	DB	086H
	DB	029H
	DB	066H
	DB	029H
	DB	045H
	DB	029H
	DB	045H
	DB	021H
	DB	065H
	DB	029H
	DB	066H
	DB	029H
	DB	066H
	DB	029H
	DB	0a7H
	DB	029H
	DB	0c7H
	DB	031H
	DB	0c8H
	DB	031H
	DB	0c7H
	DB	031H
	DB	087H
	DB	029H
	DB	0a7H
	DB	031H
	DB	0c7H
	DB	031H
	DB	0c7H
	DB	031H
	DB	0c7H
	DB	031H
	DB	0a7H
	DB	031H
	DB	087H
	DB	029H
	DB	0c7H
	DB	031H
	DB	0c7H
	DB	031H
	DB	0a7H
	DB	031H
	DB	0a7H
	DB	031H
	DB	0a7H
	DB	029H
	DB	0a7H
	DB	031H
	DB	0a7H
	DB	031H
	DB	0c7H
	DB	031H
	DB	0a7H
	DB	031H
	DB	0a7H
	DB	029H
	DB	0a7H
	DB	029H
	DB	0c7H
	DB	031H
	DB	0c8H
	DB	031H
	DB	0c7H
	DB	031H
	DB	0a7H
	DB	029H
	DB	0a7H
	DB	029H
	DB	0a7H
	DB	031H
	DB	0c8H
	DB	031H
	DB	0c7H
	DB	031H
	DB	0a7H
	DB	031H
	DB	0a7H
	DB	029H
	DB	0a7H
	DB	031H
	DB	0c7H
	DB	031H
	DB	0c7H
	DB	031H
	DB	0a7H
	DB	029H
	DB	0a7H
	DB	031H
	DB	0a7H
	DB	031H
	DB	0c7H
	DB	031H
	DB	0a7H
	DB	031H
	DB	0a7H
	DB	031H
	DB	0a7H
	DB	029H
	DB	087H
	DB	029H
	DB	0c7H
	DB	031H
	DB	0c7H
	DB	031H
	DB	0c8H
	DB	031H
	DB	0a7H
	DB	031H
	DB	087H
	DB	029H
	DB	0a7H
	DB	029H
	DB	0c7H
	DB	031H
	DB	0a7H
	DB	031H
	DB	0a7H
	DB	031H
	DB	0a7H
	DB	029H
	DB	087H
	DB	029H
	DB	0a7H
	DB	031H
	DB	0a7H
	DB	029H
	DB	0a7H
	DB	031H
	DB	087H
	DB	029H
	DB	087H
	DB	029H
	DB	0a7H
	DB	031H
	DB	0a7H
	DB	031H
	DB	0a7H
	DB	031H
	DB	0a7H
	DB	029H
	DB	086H
	DB	029H
	DB	0a7H
	DB	031H
	DB	0c7H
	DB	031H
	DB	0a7H
	DB	031H
	DB	0a7H
	DB	031H
	DB	0a6H
	DB	029H
	DB	0a6H
	DB	029H
	DB	0a7H
	DB	031H
	DB	0a7H
	DB	031H
	DB	0a7H
	DB	031H
	DB	087H
	DB	029H
	DB	086H
	DB	029H
	DB	0a7H
	DB	031H
	DB	0a7H
	DB	031H
	DB	0a7H
	DB	029H
	DB	0a7H
	DB	031H
	DB	086H
	DB	029H
	DB	0a6H
	DB	029H
	DB	087H
	DB	031H
	DB	0a7H
	DB	031H
	DB	0a7H
	DB	031H
	DB	086H
	DB	029H
	DB	0a7H
	DB	029H
	DB	0a7H
	DB	031H
	DB	0a7H
	DB	031H
	DB	0a7H
	DB	031H
	DB	0a7H
	DB	029H
	DB	086H
	DB	029H
	DB	0a7H
	DB	031H
	DB	0a7H
	DB	031H
	DB	0a7H
	DB	029H
	DB	086H
	DB	029H
	DB	066H
	DB	029H
	DB	086H
	DB	029H
	DB	0a7H
	DB	031H
	DB	0a7H
	DB	031H
	DB	0a7H
	DB	031H
	DB	0a6H
	DB	029H
	DB	086H
	DB	029H
	DB	0a7H
	DB	031H
	DB	0c7H
	DB	031H
	DB	087H
	DB	029H
	DB	086H
	DB	029H
	DB	086H
	DB	029H
	DB	087H
	DB	029H
	DB	0a7H
	DB	031H
	DB	0a6H
	DB	031H
	DB	0a7H
	DB	029H
	DB	086H
	DB	029H
	DB	087H
	DB	029H
	DB	0a7H
	DB	031H
	DB	0a7H
	DB	031H
	DB	087H
	DB	029H
	DB	086H
	DB	029H
	DB	0a7H
	DB	031H
	DB	0a7H
	DB	031H
	DB	086H
	DB	029H
	DB	0a7H
	DB	029H
	DB	066H
	DB	029H
	DB	066H
	DB	029H
	DB	0a7H
	DB	031H
	DB	086H
	DB	029H
	DB	087H
	DB	031H
	DB	086H
	DB	029H
	DB	066H
	DB	029H
	DB	086H
	DB	029H
	DB	0a7H
	DB	031H
	DB	087H
	DB	029H
	DB	0a7H
	DB	031H
	DB	086H
	DB	029H
	DB	066H
	DB	029H
	DB	086H
	DB	029H
	DB	0a7H
	DB	031H
	DB	086H
	DB	029H
	DB	086H
	DB	029H
	DB	066H
	DB	029H
	DB	086H
	DB	029H
	DB	0a7H
	DB	029H
	DB	087H
	DB	029H
	DB	086H
	DB	029H
	DB	086H
	DB	029H
	DB	0a7H
	DB	031H
	DB	086H
	DB	029H
	DB	066H
	DB	029H
	DB	066H
	DB	029H
	DB	045H
	DB	021H
	DB	045H
	DB	021H
	DB	086H
	DB	029H
	DB	066H
	DB	029H
	DB	086H
	DB	029H
	DB	0c7H
	DB	031H
	DB	0c7H
	DB	031H
	DB	0a7H
	DB	031H
	DB	0c7H
	DB	031H
	DB	087H
	DB	029H
	DB	0a7H
	DB	029H
	DB	0c8H
	DB	031H
	DB	0c7H
	DB	031H
	DB	0a7H
	DB	031H
	DB	0a7H
	DB	029H
	DB	0a7H
	DB	029H
	DB	0c7H
	DB	031H
	DB	0c7H
	DB	031H
	DB	0c7H
	DB	031H
	DB	0a7H
	DB	029H
	DB	086H
	DB	029H
	DB	0c7H
	DB	031H
	DB	0e8H
	DB	031H
	DB	0a7H
	DB	031H
	DB	0a7H
	DB	031H
	DB	0a7H
	DB	029H
	DB	0c7H
	DB	031H
	DB	0e8H
	DB	031H
	DB	0a7H
	DB	031H
	DB	0a7H
	DB	031H
	DB	0a7H
	DB	029H
	DB	0a7H
	DB	031H
	DB	0c8H
	DB	031H
	DB	0a7H
	DB	031H
	DB	0a7H
	DB	031H
	DB	0a7H
	DB	029H
	DB	086H
	DB	029H
	DB	0c7H
	DB	031H
	DB	0c7H
	DB	031H
	DB	0a7H
	DB	031H
	DB	0a7H
	DB	031H
	DB	0a7H
	DB	029H
	DB	087H
	DB	029H
	DB	0c7H
	DB	031H
	DB	0c7H
	DB	031H
	DB	0c7H
	DB	031H
	DB	086H
	DB	029H
	DB	087H
	DB	029H
	DB	0c7H
	DB	031H
	DB	0c7H
	DB	031H
	DB	0c7H
	DB	031H
	DB	0a7H
	DB	031H
	DB	086H
	DB	029H
	DB	0c7H
	DB	031H
	DB	0c7H
	DB	031H
	DB	087H
	DB	029H
	DB	0a7H
	DB	031H
	DB	0a7H
	DB	029H
	DB	0a7H
	DB	031H
	DB	0c7H
	DB	031H
	DB	0a7H
	DB	031H
	DB	0a7H
	DB	031H
	DB	0a6H
	DB	029H
	DB	0a6H
	DB	029H
	DB	0a7H
	DB	031H
	DB	0a7H
	DB	031H
	DB	0a7H
	DB	031H
	DB	0a7H
	DB	029H
	DB	087H
	DB	029H
	DB	0c7H
	DB	031H
	DB	0c7H
	DB	031H
	DB	0a7H
	DB	029H
	DB	0a7H
	DB	031H
	DB	087H
	DB	029H
	DB	086H
	DB	029H
	DB	0c7H
	DB	031H
	DB	0a7H
	DB	031H
	DB	0a7H
	DB	031H
	DB	0a6H
	DB	029H
	DB	0a7H
	DB	029H
	DB	0c7H
	DB	031H
	DB	0a7H
	DB	031H
	DB	0a7H
	DB	029H
	DB	086H
	DB	029H
	DB	086H
	DB	029H
	DB	0a7H
	DB	031H
	DB	0a7H
	DB	031H
	DB	0a7H
	DB	029H
	DB	0a7H
	DB	031H
	DB	086H
	DB	029H
	DB	086H
	DB	029H
	DB	0a7H
	DB	031H
	DB	0a7H
	DB	031H
	DB	0a7H
	DB	029H
	DB	086H
	DB	029H
	DB	086H
	DB	029H
	DB	0a7H
	DB	031H
	DB	0a7H
	DB	031H
	DB	087H
	DB	029H
	DB	0a7H
	DB	029H
	DB	086H
	DB	029H
	DB	0a6H
	DB	029H
	DB	0a7H
	DB	031H
	DB	0a7H
	DB	029H
	DB	0a6H
	DB	029H
	DB	066H
	DB	029H
	DB	087H
	DB	031H
	DB	0c7H
	DB	031H
	DB	087H
	DB	031H
	DB	087H
	DB	031H
	DB	066H
	DB	029H
	DB	066H
	DB	029H
	DB	0a7H
	DB	031H
	DB	0a7H
	DB	029H
	DB	086H
	DB	029H
	DB	086H
	DB	029H
	DB	066H
	DB	029H
	DB	086H
	DB	029H
	DB	0a7H
	DB	031H
	DB	086H
	DB	029H
	DB	0a7H
	DB	031H
	DB	066H
	DB	029H
	DB	086H
	DB	029H
	DB	087H
	DB	031H
	DB	0a7H
	DB	029H
	DB	0a6H
	DB	029H
	DB	086H
	DB	029H
	DB	086H
	DB	029H
	DB	0a7H
	DB	031H
	DB	0a7H
	DB	029H
	DB	066H
	DB	029H
	DB	066H
	DB	029H
	DB	066H
	DB	029H
	DB	086H
	DB	029H
	DB	0a7H
	DB	029H
	DB	087H
	DB	029H
	DB	0a7H
	DB	031H
	DB	066H
	DB	029H
	DB	066H
	DB	029H
	DB	0a7H
	DB	029H
	DB	086H
	DB	029H
	DB	086H
	DB	029H
	DB	066H
	DB	029H
	DB	066H
	DB	029H
	DB	0a7H
	DB	031H
	DB	0a7H
	DB	031H
	DB	086H
	DB	029H
	DB	086H
	DB	029H
	DB	066H
	DB	029H
	DB	086H
	DB	029H
	DB	086H
	DB	029H
	DB	066H
	DB	029H
	DB	066H
	DB	029H
	DB	045H
	DB	021H
	DB	086H
	DB	029H
	DB	086H
	DB	029H
	DB	0a7H
	DB	029H
	DB	087H
	DB	029H
	DB	0a7H
	DB	031H
	DB	0c7H
	DB	031H
	DB	0c7H
	DB	031H
	DB	0a7H
	DB	031H
	DB	0a7H
	DB	029H
	DB	0a7H
	DB	031H
	DB	0c7H
	DB	031H
	DB	0a7H
	DB	029H
	DB	0a7H
	DB	031H
	DB	0a7H
	DB	031H
	DB	0a7H
	DB	031H
	DB	0c8H
	DB	031H
	DB	0c7H
	DB	031H
	DB	0a7H
	DB	031H
	DB	0a7H
	DB	031H
	DB	0a7H
	DB	031H
	DB	0c7H
	DB	031H
	DB	0c8H
	DB	031H
	DB	0a7H
	DB	031H
	DB	0c7H
	DB	031H
	DB	0a7H
	DB	031H
	DB	0a7H
	DB	031H
	DB	0a7H
	DB	031H
	DB	087H
	DB	029H
	DB	0c7H
	DB	031H
	DB	0a7H
	DB	031H
	DB	0a6H
	DB	029H
	DB	0c7H
	DB	031H
	DB	0e7H
	DB	031H
	DB	0a7H
	DB	031H
	DB	0a7H
	DB	031H
	DB	087H
	DB	029H
	DB	0a7H
	DB	031H
	DB	0c7H
	DB	031H
	DB	0a7H
	DB	029H
	DB	0a7H
	DB	031H
	DB	0a7H
	DB	031H
	DB	0a7H
	DB	031H
	DB	0c7H
	DB	031H
	DB	087H
	DB	029H
	DB	0a7H
	DB	031H
	DB	0a7H
	DB	029H
	DB	087H
	DB	029H
	DB	0a7H
	DB	031H
	DB	0c7H
	DB	031H
	DB	0a7H
	DB	031H
	DB	0a7H
	DB	031H
	DB	0a7H
	DB	029H
	DB	0a7H
	DB	031H
	DB	0c7H
	DB	031H
	DB	0a7H
	DB	031H
	DB	0c7H
	DB	031H
	DB	0a6H
	DB	029H
	DB	087H
	DB	029H
	DB	0c7H
	DB	031H
	DB	0a7H
	DB	031H
	DB	0c7H
	DB	031H
	DB	0c7H
	DB	031H
	DB	087H
	DB	029H
	DB	0a7H
	DB	029H
	DB	0a7H
	DB	031H
	DB	0c7H
	DB	031H
	DB	0c7H
	DB	031H
	DB	087H
	DB	029H
	DB	0a7H
	DB	029H
	DB	0a7H
	DB	031H
	DB	0a7H
	DB	031H
	DB	0a7H
	DB	029H
	DB	0a6H
	DB	029H
	DB	0a7H
	DB	029H
	DB	0c7H
	DB	031H
	DB	0a7H
	DB	031H
	DB	0a7H
	DB	029H
	DB	0a7H
	DB	029H
	DB	0a7H
	DB	029H
	DB	0a7H
	DB	031H
	DB	0a7H
	DB	029H
	DB	086H
	DB	029H
	DB	0a7H
	DB	031H
	DB	0a7H
	DB	029H
	DB	0a7H
	DB	031H
	DB	0a7H
	DB	031H
	DB	087H
	DB	029H
	DB	0a7H
	DB	031H
	DB	086H
	DB	029H
	DB	0a7H
	DB	029H
	DB	0a7H
	DB	031H
	DB	086H
	DB	029H
	DB	0a7H
	DB	031H
	DB	0a7H
	DB	029H
	DB	086H
	DB	029H
	DB	0a7H
	DB	031H
	DB	0a7H
	DB	031H
	DB	0a7H
	DB	031H
	DB	0a7H
	DB	029H
	DB	066H
	DB	029H
	DB	087H
	DB	029H
	DB	0a7H
	DB	031H
	DB	086H
	DB	029H
	DB	086H
	DB	029H
	DB	087H
	DB	029H
	DB	086H
	DB	029H
	DB	0a7H
	DB	031H
	DB	086H
	DB	029H
	DB	0a7H
	DB	029H
	DB	0a7H
	DB	029H
	DB	086H
	DB	029H
	DB	0a7H
	DB	031H
	DB	086H
	DB	029H
	DB	086H
	DB	029H
	DB	087H
	DB	031H
	DB	086H
	DB	029H
	DB	086H
	DB	029H
	DB	0a7H
	DB	029H
	DB	087H
	DB	029H
	DB	086H
	DB	029H
	DB	066H
	DB	029H
	DB	086H
	DB	029H
	DB	0a7H
	DB	031H
	DB	086H
	DB	029H
	DB	086H
	DB	029H
	DB	087H
	DB	029H
	DB	086H
	DB	029H
	DB	0a7H
	DB	029H
	DB	086H
	DB	029H
	DB	086H
	DB	029H
	DB	087H
	DB	029H
	DB	066H
	DB	029H
	DB	086H
	DB	029H
	DB	0a6H
	DB	029H
	DB	066H
	DB	029H
	DB	0a7H
	DB	029H
	DB	066H
	DB	029H
	DB	066H
	DB	029H
	DB	0a7H
	DB	029H
	DB	086H
	DB	029H
	DB	086H
	DB	029H
	DB	086H
	DB	029H
	DB	066H
	DB	029H
	DB	086H
	DB	029H
	DB	086H
	DB	029H
	DB	066H
	DB	029H
	DB	066H
	DB	029H
	DB	066H
	DB	029H
	DB	066H
	DB	029H
	DB	086H
	DB	029H
	DB	046H
	DB	021H
	DB	045H
	DB	021H
	DB	066H
	DB	029H
	DB	0a7H
	DB	029H
	DB	0a7H
	DB	031H
	DB	086H
	DB	029H
	DB	087H
	DB	029H
	DB	0c7H
	DB	031H
	DB	0c7H
	DB	031H
	DB	0a7H
	DB	031H
	DB	0a7H
	DB	031H
	DB	0a7H
	DB	029H
	DB	0a7H
	DB	029H
	DB	0c7H
	DB	031H
	DB	0c7H
	DB	031H
	DB	0c7H
	DB	031H
	DB	0a7H
	DB	031H
	DB	087H
	DB	029H
	DB	0c7H
	DB	031H
	DB	0c7H
	DB	031H
	DB	0a7H
	DB	031H
	DB	0a7H
	DB	031H
	DB	0a7H
	DB	029H
	DB	0a7H
	DB	031H
	DB	0c7H
	DB	031H
	DB	0a7H
	DB	031H
	DB	0a7H
	DB	031H
	DB	0a7H
	DB	029H
	DB	0a7H
	DB	031H
	DB	0e7H
	DB	031H
	DB	0c7H
	DB	031H
	DB	0a7H
	DB	031H
	DB	0a7H
	DB	031H
	DB	0a7H
	DB	029H
	DB	0c7H
	DB	031H
	DB	0c8H
	DB	031H
	DB	0c7H
	DB	031H
	DB	0a7H
	DB	031H
	DB	0a7H
	DB	029H
	DB	0c7H
	DB	031H
	DB	0c8H
	DB	031H
	DB	0a7H
	DB	031H
	DB	0c7H
	DB	031H
	DB	087H
	DB	029H
	DB	0a7H
	DB	029H
	DB	0c7H
	DB	031H
	DB	0a7H
	DB	031H
	DB	0c7H
	DB	031H
	DB	0a7H
	DB	029H
	DB	086H
	DB	029H
	DB	0a7H
	DB	031H
	DB	0c7H
	DB	031H
	DB	0c7H
	DB	031H
	DB	0a7H
	DB	029H
	DB	087H
	DB	029H
	DB	0a7H
	DB	031H
	DB	0e7H
	DB	031H
	DB	0a7H
	DB	031H
	DB	0a7H
	DB	031H
	DB	0a7H
	DB	029H
	DB	0a7H
	DB	031H
	DB	0c7H
	DB	031H
	DB	0c7H
	DB	031H
	DB	0a7H
	DB	031H
	DB	0a7H
	DB	029H
	DB	086H
	DB	029H
	DB	0c7H
	DB	031H
	DB	0c8H
	DB	031H
	DB	0c7H
	DB	031H
	DB	086H
	DB	029H
	DB	0a6H
	DB	029H
	DB	0a7H
	DB	031H
	DB	0c7H
	DB	031H
	DB	0a6H
	DB	029H
	DB	0a7H
	DB	029H
	DB	0a7H
	DB	029H
	DB	0a7H
	DB	029H
	DB	0a7H
	DB	031H
	DB	0a7H
	DB	031H
	DB	0a7H
	DB	031H
	DB	0a6H
	DB	029H
	DB	066H
	DB	029H
	DB	0a7H
	DB	031H
	DB	0a7H
	DB	031H
	DB	0a7H
	DB	031H
	DB	0a7H
	DB	029H
	DB	086H
	DB	029H
	DB	0a7H
	DB	029H
	DB	0a7H
	DB	031H
	DB	0a7H
	DB	031H
	DB	0a7H
	DB	029H
	DB	086H
	DB	029H
	DB	0a7H
	DB	031H
	DB	0a7H
	DB	031H
	DB	0a7H
	DB	031H
	DB	0a7H
	DB	031H
	DB	086H
	DB	029H
	DB	086H
	DB	029H
	DB	0a7H
	DB	029H
	DB	0a6H
	DB	031H
	DB	0a7H
	DB	031H
	DB	0a7H
	DB	031H
	DB	066H
	DB	029H
	DB	086H
	DB	029H
	DB	0c7H
	DB	031H
	DB	087H
	DB	029H
	DB	0a6H
	DB	029H
	DB	086H
	DB	029H
	DB	086H
	DB	029H
	DB	0a7H
	DB	031H
	DB	0c7H
	DB	031H
	DB	0a7H
	DB	031H
	DB	086H
	DB	029H
	DB	086H
	DB	029H
	DB	087H
	DB	029H
	DB	0a7H
	DB	031H
	DB	0a7H
	DB	029H
	DB	086H
	DB	029H
	DB	066H
	DB	029H
	DB	086H
	DB	029H
	DB	0a7H
	DB	031H
	DB	086H
	DB	029H
	DB	0a7H
	DB	029H
	DB	066H
	DB	029H
	DB	066H
	DB	029H
	DB	086H
	DB	029H
	DB	087H
	DB	029H
	DB	087H
	DB	031H
	DB	086H
	DB	029H
	DB	066H
	DB	029H
	DB	087H
	DB	029H
	DB	0a7H
	DB	029H
	DB	0a7H
	DB	031H
	DB	0a7H
	DB	031H
	DB	066H
	DB	029H
	DB	066H
	DB	029H
	DB	0a7H
	DB	031H
	DB	086H
	DB	029H
	DB	086H
	DB	029H
	DB	066H
	DB	029H
	DB	066H
	DB	029H
	DB	0a7H
	DB	031H
	DB	086H
	DB	029H
	DB	066H
	DB	029H
	DB	086H
	DB	029H
	DB	066H
	DB	029H
	DB	086H
	DB	029H
	DB	086H
	DB	029H
	DB	086H
	DB	029H
	DB	066H
	DB	029H
	DB	066H
	DB	021H
	DB	066H
	DB	029H
	DB	066H
	DB	029H
	DB	045H
	DB	021H
	DB	066H
	DB	029H
	DB	086H
	DB	029H
	DB	0a7H
	DB	031H
	DB	0a7H
	DB	031H
	DB	0a7H
	DB	029H
	DB	087H
	DB	029H
	DB	0a7H
	DB	031H
	DB	0c7H
	DB	031H
	DB	0c7H
	DB	031H
	DB	0a7H
	DB	029H
	DB	086H
	DB	029H
	DB	0a7H
	DB	031H
	DB	0c8H
	DB	031H
	DB	0a7H
	DB	031H
	DB	0a7H
	DB	029H
	DB	0a7H
	DB	031H
	DB	0a7H
	DB	029H
	DB	0c7H
	DB	031H
	DB	0c8H
	DB	031H
	DB	0c7H
	DB	031H
	DB	0a7H
	DB	031H
	DB	0a7H
	DB	031H
	DB	0a7H
	DB	029H
	DB	0c8H
	DB	031H
	DB	0c7H
	DB	031H
	DB	0c7H
	DB	031H
	DB	0c7H
	DB	031H
	DB	0c7H
	DB	031H
	DB	0c7H
	DB	031H
	DB	0a7H
	DB	031H
	DB	0a7H
	DB	031H
	DB	0a7H
	DB	031H
	DB	087H
	DB	029H
	DB	0c7H
	DB	031H
	DB	0a7H
	DB	031H
	DB	0a7H
	DB	031H
	DB	0a7H
	DB	031H
	DB	0a7H
	DB	029H
	DB	0c7H
	DB	031H
	DB	0c7H
	DB	031H
	DB	0a7H
	DB	029H
	DB	0a7H
	DB	029H
	DB	0a7H
	DB	029H
	DB	0a7H
	DB	031H
	DB	0c7H
	DB	031H
	DB	0c7H
	DB	031H
	DB	0a7H
	DB	031H
	DB	0a7H
	DB	029H
	DB	087H
	DB	029H
	DB	0c7H
	DB	031H
	DB	0a7H
	DB	031H
	DB	0a7H
	DB	031H
	DB	0a7H
	DB	031H
	DB	0a6H
	DB	029H
	DB	0a7H
	DB	031H
	DB	0c7H
	DB	031H
	DB	0a7H
	DB	031H
	DB	0a7H
	DB	031H
	DB	086H
	DB	029H
	DB	0a7H
	DB	029H
	DB	0a7H
	DB	031H
	DB	0a7H
	DB	031H
	DB	0a7H
	DB	029H
	DB	087H
	DB	029H
	DB	0a7H
	DB	029H
	DB	0c7H
	DB	031H
	DB	0a7H
	DB	031H
	DB	0a7H
	DB	031H
	DB	0a7H
	DB	029H
	DB	086H
	DB	029H
	DB	0a7H
	DB	031H
	DB	0a7H
	DB	031H
	DB	087H
	DB	031H
	DB	086H
	DB	029H
	DB	086H
	DB	029H
	DB	0a7H
	DB	031H
	DB	0a7H
	DB	031H
	DB	0a7H
	DB	031H
	DB	0a7H
	DB	031H
	DB	0a6H
	DB	029H
	DB	086H
	DB	029H
	DB	0a7H
	DB	031H
	DB	0a7H
	DB	029H
	DB	0a7H
	DB	031H
	DB	087H
	DB	031H
	DB	086H
	DB	029H
	DB	0a7H
	DB	029H
	DB	0c7H
	DB	031H
	DB	087H
	DB	031H
	DB	0a7H
	DB	031H
	DB	086H
	DB	029H
	DB	086H
	DB	029H
	DB	0a7H
	DB	031H
	DB	0a7H
	DB	031H
	DB	086H
	DB	029H
	DB	087H
	DB	029H
	DB	086H
	DB	029H
	DB	0a7H
	DB	031H
	DB	0a7H
	DB	029H
	DB	086H
	DB	029H
	DB	086H
	DB	029H
	DB	086H
	DB	029H
	DB	0a7H
	DB	031H
	DB	087H
	DB	031H
	DB	087H
	DB	029H
	DB	0a7H
	DB	029H
	DB	086H
	DB	029H
	DB	0a7H
	DB	031H
	DB	0a7H
	DB	029H
	DB	086H
	DB	029H
	DB	0a7H
	DB	031H
	DB	086H
	DB	029H
	DB	086H
	DB	029H
	DB	0a7H
	DB	031H
	DB	0a7H
	DB	029H
	DB	086H
	DB	029H
	DB	086H
	DB	029H
	DB	086H
	DB	029H
	DB	087H
	DB	031H
	DB	0a7H
	DB	029H
	DB	0a7H
	DB	029H
	DB	087H
	DB	031H
	DB	066H
	DB	029H
	DB	086H
	DB	029H
	DB	087H
	DB	031H
	DB	086H
	DB	029H
	DB	086H
	DB	029H
	DB	086H
	DB	029H
	DB	086H
	DB	029H
	DB	086H
	DB	029H
	DB	087H
	DB	031H
	DB	0a6H
	DB	029H
	DB	086H
	DB	029H
	DB	066H
	DB	029H
	DB	0a7H
	DB	029H
	DB	086H
	DB	029H
	DB	086H
	DB	029H
	DB	086H
	DB	029H
	DB	066H
	DB	029H
	DB	086H
	DB	029H
	DB	087H
	DB	029H
	DB	086H
	DB	029H
	DB	086H
	DB	029H
	DB	086H
	DB	029H
	DB	067H
	DB	029H
	DB	087H
	DB	029H
	DB	086H
	DB	029H
	DB	066H
	DB	029H
	DB	066H
	DB	029H
	DB	065H
	DB	021H
	DB	046H
	DB	021H
	DB	065H
	DB	029H
	DB	066H
	DB	029H
	DB	086H
	DB	029H
	DB	0a7H
	DB	031H
	DB	0a7H
	DB	031H
	DB	0a7H
	DB	031H
	DB	0a7H
	DB	031H
	DB	0a7H
	DB	029H
	DB	0c7H
	DB	031H
	DB	0a7H
	DB	031H
	DB	0a7H
	DB	031H
	DB	0a7H
	DB	031H
	DB	0a7H
	DB	029H
	DB	0a7H
	DB	031H
	DB	0c7H
	DB	031H
	DB	0a7H
	DB	029H
	DB	0a7H
	DB	031H
	DB	0a7H
	DB	031H
	DB	0a7H
	DB	029H
	DB	0c7H
	DB	031H
	DB	0a7H
	DB	031H
	DB	0c7H
	DB	031H
	DB	0c7H
	DB	031H
	DB	0a7H
	DB	029H
	DB	0c7H
	DB	031H
	DB	0c7H
	DB	031H
	DB	0c7H
	DB	031H
	DB	0a7H
	DB	031H
	DB	087H
	DB	029H
	DB	087H
	DB	029H
	DB	0c7H
	DB	031H
	DB	0a7H
	DB	031H
	DB	0c7H
	DB	031H
	DB	0c7H
	DB	031H
	DB	087H
	DB	029H
	DB	0c7H
	DB	031H
	DB	0a7H
	DB	031H
	DB	0a7H
	DB	031H
	DB	0a7H
	DB	029H
	DB	086H
	DB	029H
	DB	0a7H
	DB	031H
	DB	0a7H
	DB	031H
	DB	0a7H
	DB	031H
	DB	0c7H
	DB	031H
	DB	086H
	DB	029H
	DB	0a7H
	DB	031H
	DB	0c7H
	DB	031H
	DB	0a7H
	DB	031H
	DB	0c7H
	DB	031H
	DB	0a7H
	DB	029H
	DB	087H
	DB	029H
	DB	0c7H
	DB	031H
	DB	0c7H
	DB	031H
	DB	0c7H
	DB	031H
	DB	0a7H
	DB	031H
	DB	0a7H
	DB	029H
	DB	0c7H
	DB	031H
	DB	0a7H
	DB	029H
	DB	0a7H
	DB	031H
	DB	0c7H
	DB	031H
	DB	087H
	DB	029H
	DB	087H
	DB	029H
	DB	0c7H
	DB	031H
	DB	0a7H
	DB	029H
	DB	0a7H
	DB	031H
	DB	0a7H
	DB	029H
	DB	086H
	DB	029H
	DB	0a7H
	DB	031H
	DB	0a7H
	DB	031H
	DB	0a7H
	DB	029H
	DB	087H
	DB	029H
	DB	086H
	DB	029H
	DB	0a7H
	DB	031H
	DB	0a7H
	DB	031H
	DB	086H
	DB	029H
	DB	0a7H
	DB	031H
	DB	0a6H
	DB	029H
	DB	0a6H
	DB	029H
	DB	087H
	DB	029H
	DB	0a7H
	DB	031H
	DB	0c7H
	DB	031H
	DB	0a7H
	DB	029H
	DB	086H
	DB	029H
	DB	0a7H
	DB	031H
	DB	0a6H
	DB	029H
	DB	087H
	DB	029H
	DB	0a6H
	DB	031H
	DB	086H
	DB	029H
	DB	0a7H
	DB	031H
	DB	0a7H
	DB	029H
	DB	0a7H
	DB	031H
	DB	0a7H
	DB	031H
	DB	086H
	DB	029H
	DB	086H
	DB	029H
	DB	0a7H
	DB	029H
	DB	086H
	DB	029H
	DB	0a7H
	DB	031H
	DB	0a7H
	DB	029H
	DB	086H
	DB	029H
	DB	087H
	DB	031H
	DB	0a7H
	DB	031H
	DB	0a7H
	DB	029H
	DB	087H
	DB	029H
	DB	066H
	DB	029H
	DB	0a6H
	DB	029H
	DB	0a7H
	DB	031H
	DB	086H
	DB	029H
	DB	087H
	DB	031H
	DB	086H
	DB	029H
	DB	086H
	DB	029H
	DB	086H
	DB	029H
	DB	087H
	DB	029H
	DB	0a7H
	DB	031H
	DB	086H
	DB	029H
	DB	086H
	DB	029H
	DB	0a7H
	DB	031H
	DB	087H
	DB	031H
	DB	087H
	DB	029H
	DB	086H
	DB	029H
	DB	066H
	DB	029H
	DB	086H
	DB	029H
	DB	086H
	DB	029H
	DB	0a7H
	DB	031H
	DB	0a7H
	DB	031H
	DB	066H
	DB	029H
	DB	086H
	DB	029H
	DB	0a7H
	DB	029H
	DB	086H
	DB	029H
	DB	0a7H
	DB	031H
	DB	0a7H
	DB	029H
	DB	066H
	DB	029H
	DB	086H
	DB	029H
	DB	086H
	DB	029H
	DB	087H
	DB	029H
	DB	0a7H
	DB	031H
	DB	066H
	DB	029H
	DB	086H
	DB	029H
	DB	086H
	DB	029H
	DB	086H
	DB	029H
	DB	087H
	DB	029H
	DB	066H
	DB	029H
	DB	086H
	DB	029H
	DB	0a7H
	DB	031H
	DB	066H
	DB	029H
	DB	087H
	DB	029H
	DB	086H
	DB	029H
	DB	066H
	DB	029H
	DB	0a6H
	DB	029H
	DB	086H
	DB	029H
	DB	066H
	DB	029H
	DB	066H
	DB	029H
	DB	045H
	DB	021H
	DB	045H
	DB	021H
	DB	086H
	DB	029H
	DB	086H
	DB	029H
	DB	0a6H
	DB	029H
	DB	0c7H
	DB	031H
	DB	0c7H
	DB	031H
	DB	0a7H
	DB	031H
	DB	0a7H
	DB	031H
	DB	086H
	DB	029H
	DB	0a7H
	DB	029H
	DB	0e8H
	DB	031H
	DB	0c7H
	DB	031H
	DB	0c7H
	DB	031H
	DB	086H
	DB	029H
	DB	0a7H
	DB	029H
	DB	0c7H
	DB	031H
	DB	0a7H
	DB	031H
	DB	0a7H
	DB	031H
	DB	0a7H
	DB	029H
	DB	086H
	DB	029H
	DB	0a7H
	DB	031H
	DB	0c7H
	DB	031H
	DB	0a7H
	DB	031H
	DB	0a7H
	DB	031H
	DB	0a7H
	DB	029H
	DB	0a7H
	DB	031H
	DB	0c8H
	DB	031H
	DB	0c7H
	DB	031H
	DB	0c7H
	DB	031H
	DB	087H
	DB	029H
	DB	0a7H
	DB	031H
	DB	0c7H
	DB	031H
	DB	0a7H
	DB	031H
	DB	0c7H
	DB	031H
	DB	0a7H
	DB	029H
	DB	087H
	DB	029H
	DB	0e7H
	DB	031H
	DB	0c7H
	DB	031H
	DB	0a7H
	DB	031H
	DB	0a7H
	DB	029H
	DB	086H
	DB	029H
	DB	0a7H
	DB	031H
	DB	0a7H
	DB	031H
	DB	0c7H
	DB	031H
	DB	0a7H
	DB	029H
	DB	086H
	DB	029H
	DB	0a7H
	DB	031H
	DB	0c7H
	DB	031H
	DB	0a7H
	DB	031H
	DB	0a7H
	DB	031H
	DB	087H
	DB	029H
	DB	0a7H
	DB	029H
	DB	0c7H
	DB	031H
	DB	0c7H
	DB	031H
	DB	0a7H
	DB	029H
	DB	0a7H
	DB	031H
	DB	086H
	DB	029H
	DB	0a7H
	DB	029H
	DB	0c7H
	DB	031H
	DB	0c7H
	DB	031H
	DB	0a7H
	DB	031H
	DB	086H
	DB	029H
	DB	0a7H
	DB	031H
	DB	0c7H
	DB	031H
	DB	0a7H
	DB	031H
	DB	0c7H
	DB	031H
	DB	0a7H
	DB	031H
	DB	086H
	DB	029H
	DB	0a7H
	DB	031H
	DB	0a7H
	DB	031H
	DB	0a7H
	DB	031H
	DB	0a7H
	DB	031H
	DB	086H
	DB	029H
	DB	0a7H
	DB	031H
	DB	0c7H
	DB	031H
	DB	0a7H
	DB	031H
	DB	0a7H
	DB	029H
	DB	086H
	DB	029H
	DB	086H
	DB	029H
	DB	0c7H
	DB	031H
	DB	0a7H
	DB	031H
	DB	0a7H
	DB	031H
	DB	086H
	DB	029H
	DB	086H
	DB	029H
	DB	086H
	DB	029H
	DB	0a7H
	DB	031H
	DB	0a7H
	DB	031H
	DB	0a7H
	DB	029H
	DB	086H
	DB	029H
	DB	086H
	DB	029H
	DB	0a7H
	DB	031H
	DB	086H
	DB	029H
	DB	0a7H
	DB	031H
	DB	086H
	DB	029H
	DB	086H
	DB	029H
	DB	0a7H
	DB	031H
	DB	087H
	DB	029H
	DB	0a6H
	DB	029H
	DB	086H
	DB	029H
	DB	066H
	DB	029H
	DB	0c7H
	DB	031H
	DB	0c7H
	DB	031H
	DB	087H
	DB	029H
	DB	0a7H
	DB	029H
	DB	066H
	DB	029H
	DB	086H
	DB	029H
	DB	0a7H
	DB	031H
	DB	087H
	DB	029H
	DB	087H
	DB	031H
	DB	086H
	DB	029H
	DB	086H
	DB	029H
	DB	087H
	DB	029H
	DB	0a7H
	DB	029H
	DB	087H
	DB	031H
	DB	066H
	DB	029H
	DB	086H
	DB	029H
	DB	0a7H
	DB	029H
	DB	086H
	DB	029H
	DB	086H
	DB	029H
	DB	086H
	DB	029H
	DB	066H
	DB	029H
	DB	086H
	DB	029H
	DB	0a7H
	DB	029H
	DB	086H
	DB	029H
	DB	087H
	DB	029H
	DB	066H
	DB	029H
	DB	086H
	DB	029H
	DB	0a7H
	DB	031H
	DB	087H
	DB	031H
	DB	0a7H
	DB	029H
	DB	086H
	DB	029H
	DB	046H
	DB	029H
	DB	086H
	DB	029H
	DB	0a7H
	DB	031H
	DB	086H
	DB	029H
	DB	086H
	DB	029H
	DB	066H
	DB	029H
	DB	087H
	DB	031H
	DB	087H
	DB	029H
	DB	086H
	DB	029H
	DB	086H
	DB	029H
	DB	066H
	DB	029H
	DB	086H
	DB	029H
	DB	0a7H
	DB	031H
	DB	086H
	DB	029H
	DB	086H
	DB	029H
	DB	086H
	DB	029H
	DB	046H
	DB	029H
	DB	086H
	DB	029H
	DB	0a7H
	DB	029H
	DB	066H
	DB	029H
	DB	046H
	DB	029H
	DB	025H
	DB	021H
	DB	066H
	DB	029H
	DB	086H
	DB	029H
	DB	0a7H
	DB	029H
	DB	0a7H
	DB	031H
	DB	0a7H
	DB	031H
	DB	0c7H
	DB	031H
	DB	0a7H
	DB	031H
	DB	0a7H
	DB	029H
	DB	0a7H
	DB	029H
	DB	0a7H
	DB	031H
	DB	0c7H
	DB	031H
	DB	0a7H
	DB	031H
	DB	0a7H
	DB	031H
	DB	087H
	DB	029H
	DB	0a7H
	DB	031H
	DB	0c7H
	DB	031H
	DB	0c7H
	DB	031H
	DB	0a7H
	DB	031H
	DB	0a7H
	DB	029H
	DB	0a7H
	DB	031H
	DB	0c7H
	DB	031H
	DB	0a7H
	DB	029H
	DB	0a7H
	DB	029H
	DB	0c7H
	DB	031H
	DB	087H
	DB	029H
	DB	0a7H
	DB	031H
	DB	0c8H
	DB	031H
	DB	0c7H
	DB	031H
	DB	0a7H
	DB	031H
	DB	0a7H
	DB	029H
	DB	0a7H
	DB	029H
	DB	0a7H
	DB	031H
	DB	0c7H
	DB	031H
	DB	0a7H
	DB	029H
	DB	0a7H
	DB	031H
	DB	0a7H
	DB	031H
	DB	0c7H
	DB	031H
	DB	0a7H
	DB	031H
	DB	0a7H
	DB	029H
	DB	0a7H
	DB	031H
	DB	087H
	DB	029H
	DB	0c7H
	DB	031H
	DB	0c7H
	DB	031H
	DB	0a7H
	DB	031H
	DB	0a7H
	DB	031H
	DB	0a7H
	DB	029H
	DB	0a7H
	DB	029H
	DB	0a7H
	DB	031H
	DB	0a7H
	DB	031H
	DB	0a7H
	DB	029H
	DB	086H
	DB	029H
	DB	0a7H
	DB	031H
	DB	0a7H
	DB	031H
	DB	0c7H
	DB	031H
	DB	087H
	DB	029H
	DB	0a7H
	DB	029H
	DB	086H
	DB	029H
	DB	0a7H
	DB	031H
	DB	0a7H
	DB	031H
	DB	0a7H
	DB	031H
	DB	0a7H
	DB	031H
	DB	0a7H
	DB	029H
	DB	0a7H
	DB	029H
	DB	0a7H
	DB	031H
	DB	0a7H
	DB	031H
	DB	0a7H
	DB	029H
	DB	0a7H
	DB	029H
	DB	0a7H
	DB	029H
	DB	0a7H
	DB	031H
	DB	0c7H
	DB	031H
	DB	0a7H
	DB	029H
	DB	0a7H
	DB	031H
	DB	087H
	DB	029H
	DB	0c7H
	DB	031H
	DB	0a7H
	DB	031H
	DB	0a7H
	DB	029H
	DB	0a7H
	DB	031H
	DB	0a7H
	DB	031H
	DB	087H
	DB	029H
	DB	0a7H
	DB	031H
	DB	0a7H
	DB	029H
	DB	087H
	DB	029H
	DB	086H
	DB	029H
	DB	087H
	DB	029H
	DB	0c7H
	DB	031H
	DB	0a7H
	DB	031H
	DB	086H
	DB	029H
	DB	086H
	DB	029H
	DB	066H
	DB	029H
	DB	0a7H
	DB	029H
	DB	0a7H
	DB	031H
	DB	086H
	DB	029H
	DB	0a7H
	DB	029H
	DB	086H
	DB	029H
	DB	087H
	DB	029H
	DB	0a7H
	DB	031H
	DB	086H
	DB	029H
	DB	087H
	DB	031H
	DB	0a6H
	DB	029H
	DB	066H
	DB	029H
	DB	0a7H
	DB	031H
	DB	0a7H
	DB	031H
	DB	086H
	DB	029H
	DB	086H
	DB	029H
	DB	086H
	DB	029H
	DB	0a7H
	DB	031H
	DB	0a7H
	DB	029H
	DB	086H
	DB	029H
	DB	086H
	DB	029H
	DB	086H
	DB	029H
	DB	086H
	DB	029H
	DB	0a7H
	DB	031H
	DB	0a6H
	DB	029H
	DB	086H
	DB	029H
	DB	086H
	DB	029H
	DB	086H
	DB	029H
	DB	087H
	DB	031H
	DB	0a6H
	DB	029H
	DB	066H
	DB	029H
	DB	066H
	DB	029H
	DB	066H
	DB	029H
	DB	0a6H
	DB	029H
	DB	087H
	DB	029H
	DB	086H
	DB	029H
	DB	086H
	DB	029H
	DB	066H
	DB	029H
	DB	066H
	DB	029H
	DB	0a7H
	DB	031H
	DB	087H
	DB	031H
	DB	086H
	DB	029H
	DB	066H
	DB	029H
	DB	066H
	DB	029H
	DB	086H
	DB	029H
	DB	086H
	DB	029H
	DB	086H
	DB	029H
	DB	086H
	DB	029H
	DB	086H
	DB	029H
	DB	086H
	DB	029H
	DB	086H
	DB	029H
	DB	086H
	DB	029H
	DB	086H
	DB	029H
	DB	066H
	DB	029H
	DB	086H
	DB	029H
	DB	086H
	DB	029H
	DB	066H
	DB	029H
	DB	086H
	DB	029H
	DB	066H
	DB	029H
	DB	066H
	DB	029H
	DB	086H
	DB	029H
	DB	066H
	DB	029H
	DB	045H
	DB	021H
	DB	025H
	DB	021H
	DB	066H
	DB	029H
	DB	087H
	DB	029H
	DB	0a7H
	DB	031H
	DB	086H
	DB	029H
	DB	087H
	DB	029H
	DB	0c7H
	DB	031H
	DB	0c7H
	DB	031H
	DB	0c7H
	DB	031H
	DB	0c7H
	DB	031H
	DB	087H
	DB	029H
	DB	0a7H
	DB	031H
	DB	0c7H
	DB	031H
	DB	0c7H
	DB	031H
	DB	0c7H
	DB	031H
	DB	0a7H
	DB	031H
	DB	0a7H
	DB	029H
	DB	0c7H
	DB	031H
	DB	0c7H
	DB	031H
	DB	0c7H
	DB	031H
	DB	0a7H
	DB	029H
	DB	0a7H
	DB	031H
	DB	0c7H
	DB	031H
	DB	0a7H
	DB	031H
	DB	0a7H
	DB	031H
	DB	0c7H
	DB	031H
	DB	0a7H
	DB	029H
	DB	0a7H
	DB	031H
	DB	0a7H
	DB	031H
	DB	0a7H
	DB	031H
	DB	0c7H
	DB	031H
	DB	0a7H
	DB	029H
	DB	0a7H
	DB	029H
	DB	0a7H
	DB	031H
	DB	0a7H
	DB	031H
	DB	0c7H
	DB	031H
	DB	086H
	DB	029H
	DB	086H
	DB	029H
	DB	0a7H
	DB	031H
	DB	0a7H
	DB	031H
	DB	0c7H
	DB	031H
	DB	0a7H
	DB	031H
	DB	086H
	DB	029H
	DB	0a7H
	DB	031H
	DB	0c7H
	DB	031H
	DB	0c7H
	DB	031H
	DB	0a7H
	DB	031H
	DB	0a7H
	DB	029H
	DB	0a7H
	DB	029H
	DB	0a7H
	DB	031H
	DB	0a7H
	DB	031H
	DB	0a7H
	DB	031H
	DB	086H
	DB	029H
	DB	0a7H
	DB	029H
	DB	0a7H
	DB	031H
	DB	0a7H
	DB	029H
	DB	0a7H
	DB	031H
	DB	0a7H
	DB	029H
	DB	086H
	DB	029H
	DB	0a7H
	DB	031H
	DB	0c7H
	DB	031H
	DB	0c7H
	DB	031H
	DB	0a7H
	DB	031H
	DB	086H
	DB	029H
	DB	0a7H
	DB	029H
	DB	0a6H
	DB	031H
	DB	0a7H
	DB	029H
	DB	0a7H
	DB	031H
	DB	086H
	DB	029H
	DB	0a7H
	DB	029H
	DB	0a7H
	DB	031H
	DB	0a6H
	DB	029H
	DB	0a7H
	DB	031H
	DB	0a7H
	DB	029H
	DB	086H
	DB	029H
	DB	0a7H
	DB	029H
	DB	0a7H
	DB	031H
	DB	087H
	DB	029H
	DB	0a7H
	DB	031H
	DB	086H
	DB	029H
	DB	086H
	DB	029H
	DB	0a7H
	DB	031H
	DB	0c7H
	DB	031H
	DB	0a7H
	DB	031H
	DB	0a7H
	DB	031H
	DB	086H
	DB	029H
	DB	0a7H
	DB	029H
	DB	086H
	DB	029H
	DB	0a7H
	DB	029H
	DB	0a7H
	DB	029H
	DB	066H
	DB	029H
	DB	0a7H
	DB	029H
	DB	0a7H
	DB	031H
	DB	0a7H
	DB	029H
	DB	087H
	DB	029H
	DB	066H
	DB	029H
	DB	086H
	DB	029H
	DB	0a7H
	DB	031H
	DB	0a7H
	DB	031H
	DB	0c7H
	DB	031H
	DB	087H
	DB	029H
	DB	086H
	DB	029H
	DB	087H
	DB	029H
	DB	086H
	DB	029H
	DB	0a7H
	DB	031H
	DB	086H
	DB	029H
	DB	066H
	DB	029H
	DB	086H
	DB	029H
	DB	0a7H
	DB	031H
	DB	087H
	DB	029H
	DB	0a7H
	DB	031H
	DB	066H
	DB	029H
	DB	066H
	DB	029H
	DB	0a7H
	DB	031H
	DB	087H
	DB	029H
	DB	087H
	DB	029H
	DB	086H
	DB	029H
	DB	086H
	DB	029H
	DB	0a7H
	DB	031H
	DB	066H
	DB	029H
	DB	0a7H
	DB	029H
	DB	0a7H
	DB	031H
	DB	066H
	DB	029H
	DB	086H
	DB	029H
	DB	086H
	DB	029H
	DB	0a7H
	DB	029H
	DB	0a7H
	DB	031H
	DB	086H
	DB	029H
	DB	086H
	DB	029H
	DB	086H
	DB	029H
	DB	066H
	DB	029H
	DB	086H
	DB	029H
	DB	086H
	DB	029H
	DB	066H
	DB	029H
	DB	086H
	DB	029H
	DB	087H
	DB	029H
	DB	0a7H
	DB	031H
	DB	086H
	DB	029H
	DB	066H
	DB	029H
	DB	086H
	DB	029H
	DB	087H
	DB	029H
	DB	087H
	DB	029H
	DB	087H
	DB	029H
	DB	066H
	DB	029H
	DB	066H
	DB	029H
	DB	087H
	DB	029H
	DB	086H
	DB	029H
	DB	086H
	DB	029H
	DB	066H
	DB	029H
	DB	066H
	DB	029H
	DB	066H
	DB	029H
	DB	045H
	DB	021H
	DB	045H
	DB	029H
	DB	086H
	DB	029H
	DB	0a7H
	DB	031H
	DB	0a7H
	DB	029H
	DB	0a7H
	DB	031H
	DB	086H
	DB	029H
	DB	087H
	DB	029H
	DB	0c7H
	DB	031H
	DB	0c7H
	DB	031H
	DB	0c7H
	DB	031H
	DB	0a7H
	DB	031H
	DB	0a7H
	DB	029H
	DB	0c8H
	DB	031H
	DB	0c7H
	DB	031H
	DB	0a7H
	DB	029H
	DB	0a7H
	DB	031H
	DB	086H
	DB	029H
	DB	0c7H
	DB	031H
	DB	0c8H
	DB	031H
	DB	0a7H
	DB	031H
	DB	0a7H
	DB	031H
	DB	0a7H
	DB	031H
	DB	0a7H
	DB	029H
	DB	0c7H
	DB	031H
	DB	0a7H
	DB	031H
	DB	0c7H
	DB	031H
	DB	0a7H
	DB	031H
	DB	086H
	DB	029H
	DB	0c7H
	DB	031H
	DB	0c7H
	DB	031H
	DB	0a7H
	DB	031H
	DB	0a7H
	DB	031H
	DB	086H
	DB	029H
	DB	0c7H
	DB	031H
	DB	0e8H
	DB	031H
	DB	0a7H
	DB	031H
	DB	0a7H
	DB	031H
	DB	087H
	DB	029H
	DB	086H
	DB	029H
	DB	0e8H
	DB	031H
	DB	0c7H
	DB	031H
	DB	0c7H
	DB	031H
	DB	087H
	DB	029H
	DB	086H
	DB	029H
	DB	0c7H
	DB	031H
	DB	0a7H
	DB	031H
	DB	087H
	DB	029H
	DB	0a7H
	DB	031H
	DB	0a6H
	DB	029H
	DB	087H
	DB	029H
	DB	0c7H
	DB	031H
	DB	0c7H
	DB	031H
	DB	0a7H
	DB	031H
	DB	086H
	DB	029H
	DB	0a7H
	DB	029H
	DB	0a7H
	DB	031H
	DB	0a7H
	DB	031H
	DB	0a7H
	DB	031H
	DB	0a7H
	DB	031H
	DB	086H
	DB	029H
	DB	0c7H
	DB	031H
	DB	0c7H
	DB	031H
	DB	0a7H
	DB	031H
	DB	0a7H
	DB	031H
	DB	086H
	DB	029H
	DB	087H
	DB	029H
	DB	0a7H
	DB	031H
	DB	0a6H
	DB	031H
	DB	0a7H
	DB	031H
	DB	087H
	DB	029H
	DB	0a6H
	DB	029H
	DB	0c7H
	DB	031H
	DB	0a7H
	DB	031H
	DB	0a7H
	DB	031H
	DB	0a7H
	DB	029H
	DB	086H
	DB	029H
	DB	0a7H
	DB	031H
	DB	0c7H
	DB	031H
	DB	0a7H
	DB	029H
	DB	0a7H
	DB	029H
	DB	066H
	DB	029H
	DB	0a7H
	DB	031H
	DB	0c7H
	DB	031H
	DB	0a7H
	DB	029H
	DB	086H
	DB	029H
	DB	086H
	DB	029H
	DB	086H
	DB	029H
	DB	0c7H
	DB	031H
	DB	0a7H
	DB	031H
	DB	0a7H
	DB	031H
	DB	086H
	DB	029H
	DB	066H
	DB	029H
	DB	0a7H
	DB	031H
	DB	0a7H
	DB	031H
	DB	086H
	DB	029H
	DB	0a7H
	DB	031H
	DB	086H
	DB	029H
	DB	0a6H
	DB	029H
	DB	0c7H
	DB	031H
	DB	0a7H
	DB	031H
	DB	0a7H
	DB	029H
	DB	066H
	DB	029H
	DB	086H
	DB	029H
	DB	0c7H
	DB	031H
	DB	0a7H
	DB	031H
	DB	087H
	DB	029H
	DB	086H
	DB	029H
	DB	066H
	DB	029H
	DB	086H
	DB	029H
	DB	0a7H
	DB	029H
	DB	0a6H
	DB	029H
	DB	087H
	DB	029H
	DB	066H
	DB	029H
	DB	086H
	DB	029H
	DB	0a7H
	DB	031H
	DB	0a6H
	DB	029H
	DB	087H
	DB	031H
	DB	086H
	DB	029H
	DB	066H
	DB	029H
	DB	0a7H
	DB	029H
	DB	0a7H
	DB	031H
	DB	0a7H
	DB	029H
	DB	086H
	DB	029H
	DB	066H
	DB	029H
	DB	0a7H
	DB	031H
	DB	0a7H
	DB	029H
	DB	086H
	DB	029H
	DB	086H
	DB	029H
	DB	066H
	DB	029H
	DB	086H
	DB	029H
	DB	0a7H
	DB	029H
	DB	086H
	DB	029H
	DB	086H
	DB	029H
	DB	066H
	DB	029H
	DB	066H
	DB	029H
	DB	087H
	DB	029H
	DB	086H
	DB	029H
	DB	086H
	DB	029H
	DB	086H
	DB	029H
	DB	066H
	DB	029H
	DB	087H
	DB	029H
	DB	0a7H
	DB	031H
	DB	086H
	DB	029H
	DB	086H
	DB	029H
	DB	066H
	DB	029H
	DB	086H
	DB	029H
	DB	086H
	DB	029H
	DB	086H
	DB	029H
	DB	086H
	DB	029H
	DB	066H
	DB	029H
	DB	045H
	DB	021H
	DB	066H
	DB	029H
	DB	045H
	DB	021H
	DB	066H
	DB	029H
	DB	086H
	DB	029H
	DB	0c7H
	DB	031H
	DB	0a7H
	DB	031H
	DB	0a7H
	DB	031H
	DB	0a7H
	DB	029H
	DB	087H
	DB	029H
	DB	0c7H
	DB	031H
	DB	0a7H
	DB	031H
	DB	0a7H
	DB	031H
	DB	0e7H
	DB	031H
	DB	0a7H
	DB	031H
	DB	0a7H
	DB	031H
	DB	0a7H
	DB	031H
	DB	0c7H
	DB	031H
	DB	0c8H
	DB	031H
	DB	087H
	DB	029H
	DB	0a7H
	DB	029H
	DB	0c7H
	DB	031H
	DB	0a7H
	DB	031H
	DB	0c7H
	DB	031H
	DB	0c7H
	DB	031H
	DB	0a7H
	DB	029H
	DB	0a7H
	DB	031H
	DB	0a7H
	DB	029H
	DB	0a7H
	DB	029H
	DB	0a7H
	DB	031H
	DB	0a7H
	DB	029H
	DB	0c7H
	DB	031H
	DB	0a7H
	DB	031H
	DB	0a7H
	DB	029H
	DB	0c7H
	DB	031H
	DB	0a7H
	DB	031H
	DB	0a7H
	DB	031H
	DB	0c7H
	DB	031H
	DB	0a7H
	DB	031H
	DB	0c7H
	DB	031H
	DB	0a7H
	DB	031H
	DB	086H
	DB	029H
	DB	0c7H
	DB	031H
	DB	0a7H
	DB	031H
	DB	0a7H
	DB	029H
	DB	0a7H
	DB	031H
	DB	0a7H
	DB	029H
	DB	0a7H
	DB	029H
	DB	0c7H
	DB	031H
	DB	087H
	DB	029H
	DB	086H
	DB	029H
	DB	086H
	DB	029H
	DB	0a7H
	DB	029H
	DB	0c7H
	DB	031H
	DB	0a7H
	DB	031H
	DB	0a7H
	DB	029H
	DB	0a7H
	DB	031H
	DB	087H
	DB	029H
	DB	0c7H
	DB	031H
	DB	0a7H
	DB	031H
	DB	0a7H
	DB	029H
	DB	0a7H
	DB	031H
	DB	087H
	DB	029H
	DB	0a7H
	DB	029H
	DB	0a7H
	DB	031H
	DB	0a7H
	DB	031H
	DB	0a7H
	DB	029H
	DB	086H
	DB	029H
	DB	0a6H
	DB	029H
	DB	0a7H
	DB	031H
	DB	087H
	DB	029H
	DB	0a6H
	DB	029H
	DB	0a7H
	DB	031H
	DB	087H
	DB	029H
	DB	0c7H
	DB	031H
	DB	087H
	DB	029H
	DB	086H
	DB	029H
	DB	087H
	DB	031H
	DB	086H
	DB	029H
	DB	0a7H
	DB	031H
	DB	0a7H
	DB	031H
	DB	086H
	DB	029H
	DB	087H
	DB	031H
	DB	0a7H
	DB	031H
	DB	0a7H
	DB	029H
	DB	0a7H
	DB	031H
	DB	087H
	DB	029H
	DB	086H
	DB	029H
	DB	0a7H
	DB	029H
	DB	086H
	DB	029H
	DB	0c7H
	DB	031H
	DB	0a7H
	DB	031H
	DB	0a6H
	DB	029H
	DB	0a7H
	DB	029H
	DB	086H
	DB	029H
	DB	087H
	DB	031H
	DB	0a7H
	DB	029H
	DB	086H
	DB	029H
	DB	087H
	DB	029H
	DB	086H
	DB	029H
	DB	086H
	DB	029H
	DB	0a7H
	DB	029H
	DB	087H
	DB	029H
	DB	0a7H
	DB	031H
	DB	086H
	DB	029H
	DB	086H
	DB	029H
	DB	0a7H
	DB	031H
	DB	0a7H
	DB	029H
	DB	0a7H
	DB	031H
	DB	0a7H
	DB	031H
	DB	066H
	DB	029H
	DB	086H
	DB	029H
	DB	0a7H
	DB	031H
	DB	0a6H
	DB	029H
	DB	0a6H
	DB	029H
	DB	086H
	DB	029H
	DB	0a6H
	DB	029H
	DB	0a7H
	DB	031H
	DB	086H
	DB	029H
	DB	086H
	DB	029H
	DB	087H
	DB	029H
	DB	066H
	DB	029H
	DB	0a7H
	DB	031H
	DB	086H
	DB	029H
	DB	066H
	DB	029H
	DB	087H
	DB	029H
	DB	066H
	DB	029H
	DB	086H
	DB	029H
	DB	086H
	DB	029H
	DB	066H
	DB	029H
	DB	087H
	DB	029H
	DB	066H
	DB	029H
	DB	066H
	DB	029H
	DB	0a7H
	DB	031H
	DB	066H
	DB	029H
	DB	066H
	DB	029H
	DB	086H
	DB	029H
	DB	086H
	DB	029H
	DB	087H
	DB	029H
	DB	086H
	DB	029H
	DB	087H
	DB	029H
	DB	0a7H
	DB	029H
	DB	066H
	DB	029H
	DB	086H
	DB	029H
	DB	0a7H
	DB	031H
	DB	066H
	DB	029H
	DB	086H
	DB	029H
	DB	086H
	DB	029H
	DB	066H
	DB	029H
	DB	087H
	DB	031H
	DB	066H
	DB	029H
	DB	066H
	DB	029H
	DB	066H
	DB	029H
	DB	045H
	DB	021H
	DB	045H
	DB	021H
	DB	066H
	DB	029H
	DB	086H
	DB	029H
	DB	086H
	DB	029H
	DB	0a7H
	DB	029H
	DB	0a7H
	DB	031H
	DB	0c7H
	DB	031H
	DB	0a7H
	DB	029H
	DB	086H
	DB	029H
	DB	0a7H
	DB	029H
	DB	0c7H
	DB	031H
	DB	0a7H
	DB	031H
	DB	0c7H
	DB	031H
	DB	086H
	DB	029H
	DB	0a7H
	DB	029H
	DB	0c7H
	DB	031H
	DB	0a7H
	DB	031H
	DB	0c7H
	DB	031H
	DB	0a7H
	DB	031H
	DB	0a7H
	DB	029H
	DB	0c7H
	DB	031H
	DB	0c7H
	DB	031H
	DB	0a7H
	DB	031H
	DB	0a7H
	DB	029H
	DB	086H
	DB	029H
	DB	0a7H
	DB	029H
	DB	0a7H
	DB	031H
	DB	0a7H
	DB	029H
	DB	0c7H
	DB	031H
	DB	087H
	DB	029H
	DB	086H
	DB	029H
	DB	0c7H
	DB	031H
	DB	0a7H
	DB	031H
	DB	0a7H
	DB	031H
	DB	086H
	DB	029H
	DB	087H
	DB	029H
	DB	0c7H
	DB	031H
	DB	0a7H
	DB	031H
	DB	0a7H
	DB	029H
	DB	087H
	DB	029H
	DB	087H
	DB	029H
	DB	0c7H
	DB	031H
	DB	0c7H
	DB	031H
	DB	0a7H
	DB	031H
	DB	0c7H
	DB	031H
	DB	0a6H
	DB	029H
	DB	0a7H
	DB	031H
	DB	0c7H
	DB	031H
	DB	0a7H
	DB	031H
	DB	0a7H
	DB	031H
	DB	0a7H
	DB	029H
	DB	0a7H
	DB	031H
	DB	0c7H
	DB	031H
	DB	0c7H
	DB	031H
	DB	0a7H
	DB	031H
	DB	0a7H
	DB	029H
	DB	086H
	DB	029H
	DB	0c7H
	DB	031H
	DB	0a7H
	DB	029H
	DB	0a7H
	DB	031H
	DB	0a7H
	DB	031H
	DB	086H
	DB	029H
	DB	086H
	DB	029H
	DB	0c7H
	DB	031H
	DB	0a7H
	DB	031H
	DB	0a7H
	DB	031H
	DB	0a6H
	DB	029H
	DB	087H
	DB	029H
	DB	0c7H
	DB	031H
	DB	0c7H
	DB	031H
	DB	0a7H
	DB	031H
	DB	0a7H
	DB	029H
	DB	086H
	DB	029H
	DB	087H
	DB	029H
	DB	0a7H
	DB	031H
	DB	0a7H
	DB	031H
	DB	086H
	DB	029H
	DB	086H
	DB	029H
	DB	086H
	DB	029H
	DB	087H
	DB	029H
	DB	0a7H
	DB	029H
	DB	0a7H
	DB	031H
	DB	086H
	DB	029H
	DB	086H
	DB	029H
	DB	0a7H
	DB	031H
	DB	0a7H
	DB	031H
	DB	0a7H
	DB	031H
	DB	086H
	DB	029H
	DB	086H
	DB	029H
	DB	0a7H
	DB	031H
	DB	087H
	DB	029H
	DB	0a6H
	DB	029H
	DB	0a7H
	DB	031H
	DB	066H
	DB	029H
	DB	086H
	DB	029H
	DB	0c7H
	DB	031H
	DB	0a7H
	DB	031H
	DB	087H
	DB	031H
	DB	086H
	DB	029H
	DB	086H
	DB	029H
	DB	0a7H
	DB	031H
	DB	0a7H
	DB	031H
	DB	0a7H
	DB	029H
	DB	086H
	DB	029H
	DB	086H
	DB	029H
	DB	087H
	DB	029H
	DB	086H
	DB	029H
	DB	0a7H
	DB	029H
	DB	086H
	DB	029H
	DB	066H
	DB	029H
	DB	086H
	DB	029H
	DB	087H
	DB	031H
	DB	0a7H
	DB	031H
	DB	086H
	DB	029H
	DB	066H
	DB	029H
	DB	086H
	DB	029H
	DB	0a7H
	DB	031H
	DB	0a7H
	DB	029H
	DB	087H
	DB	031H
	DB	086H
	DB	029H
	DB	066H
	DB	029H
	DB	086H
	DB	029H
	DB	086H
	DB	029H
	DB	086H
	DB	029H
	DB	087H
	DB	029H
	DB	066H
	DB	029H
	DB	086H
	DB	029H
	DB	0a7H
	DB	029H
	DB	0a6H
	DB	029H
	DB	087H
	DB	029H
	DB	086H
	DB	029H
	DB	066H
	DB	029H
	DB	0a7H
	DB	029H
	DB	087H
	DB	029H
	DB	086H
	DB	029H
	DB	086H
	DB	029H
	DB	066H
	DB	029H
	DB	066H
	DB	029H
	DB	066H
	DB	029H
	DB	086H
	DB	031H
	DB	086H
	DB	029H
	DB	066H
	DB	029H
	DB	066H
	DB	029H
	DB	086H
	DB	029H
	DB	086H
	DB	029H
	DB	087H
	DB	029H
	DB	066H
	DB	029H
	DB	066H
	DB	021H
	DB	066H
	DB	029H
	DB	086H
	DB	029H
	DB	066H
	DB	029H
	DB	045H
	DB	021H
	DB	025H
	DB	021H
	DB	066H
	DB	029H
	DB	086H
	DB	029H
	DB	086H
	DB	029H
	DB	086H
	DB	029H
	DB	0a7H
	DB	031H
	DB	0a7H
	DB	031H
	DB	0a7H
	DB	031H
	DB	087H
	DB	029H
	DB	0c7H
	DB	031H
	DB	0a7H
	DB	031H
	DB	0a7H
	DB	031H
	DB	0c7H
	DB	031H
	DB	0a7H
	DB	029H
	DB	087H
	DB	029H
	DB	0c7H
	DB	031H
	DB	0c7H
	DB	031H
	DB	0c7H
	DB	031H
	DB	0a7H
	DB	031H
	DB	086H
	DB	029H
	DB	0a7H
	DB	031H
	DB	0c8H
	DB	031H
	DB	0c7H
	DB	031H
	DB	0a7H
	DB	029H
	DB	0a7H
	DB	029H
	DB	0a7H
	DB	031H
	DB	0c7H
	DB	031H
	DB	0a7H
	DB	031H
	DB	0a7H
	DB	029H
	DB	0a7H
	DB	031H
	DB	0a7H
	DB	029H
	DB	0c7H
	DB	031H
	DB	0a7H
	DB	031H
	DB	0c7H
	DB	031H
	DB	0a7H
	DB	029H
	DB	086H
	DB	029H
	DB	0a7H
	DB	031H
	DB	0c7H
	DB	031H
	DB	0a7H
	DB	029H
	DB	0a7H
	DB	031H
	DB	0a7H
	DB	029H
	DB	0a7H
	DB	029H
	DB	0c7H
	DB	031H
	DB	0a7H
	DB	031H
	DB	0c7H
	DB	031H
	DB	0a7H
	DB	029H
	DB	0a7H
	DB	031H
	DB	0c7H
	DB	031H
	DB	0c7H
	DB	031H
	DB	0a7H
	DB	031H
	DB	0a7H
	DB	031H
	DB	086H
	DB	029H
	DB	087H
	DB	029H
	DB	0c7H
	DB	031H
	DB	0a7H
	DB	031H
	DB	0a7H
	DB	029H
	DB	086H
	DB	029H
	DB	0a6H
	DB	029H
	DB	0c7H
	DB	031H
	DB	0a7H
	DB	031H
	DB	0a7H
	DB	031H
	DB	086H
	DB	029H
	DB	086H
	DB	029H
	DB	0a7H
	DB	031H
	DB	0c7H
	DB	031H
	DB	0a7H
	DB	029H
	DB	087H
	DB	029H
	DB	0a6H
	DB	029H
	DB	0a7H
	DB	031H
	DB	0a7H
	DB	031H
	DB	0a7H
	DB	031H
	DB	0a7H
	DB	029H
	DB	086H
	DB	029H
	DB	086H
	DB	029H
	DB	0c7H
	DB	031H
	DB	0c7H
	DB	031H
	DB	0a7H
	DB	029H
	DB	086H
	DB	029H
	DB	086H
	DB	029H
	DB	0a7H
	DB	031H
	DB	0a7H
	DB	031H
	DB	0a6H
	DB	031H
	DB	086H
	DB	029H
	DB	066H
	DB	029H
	DB	0a7H
	DB	029H
	DB	0c7H
	DB	031H
	DB	0a7H
	DB	031H
	DB	087H
	DB	029H
	DB	066H
	DB	029H
	DB	066H
	DB	029H
	DB	0a7H
	DB	031H
	DB	087H
	DB	031H
	DB	086H
	DB	029H
	DB	086H
	DB	029H
	DB	086H
	DB	029H
	DB	0a7H
	DB	031H
	DB	0a7H
	DB	031H
	DB	0a7H
	DB	029H
	DB	0a7H
	DB	031H
	DB	0a7H
	DB	029H
	DB	0a7H
	DB	031H
	DB	0a7H
	DB	031H
	DB	086H
	DB	029H
	DB	087H
	DB	031H
	DB	066H
	DB	029H
	DB	086H
	DB	029H
	DB	087H
	DB	031H
	DB	0a6H
	DB	029H
	DB	086H
	DB	029H
	DB	086H
	DB	029H
	DB	086H
	DB	029H
	DB	0a7H
	DB	029H
	DB	087H
	DB	029H
	DB	086H
	DB	029H
	DB	086H
	DB	029H
	DB	086H
	DB	029H
	DB	087H
	DB	029H
	DB	0a7H
	DB	031H
	DB	086H
	DB	029H
	DB	086H
	DB	029H
	DB	086H
	DB	029H
	DB	086H
	DB	029H
	DB	0a7H
	DB	031H
	DB	086H
	DB	029H
	DB	086H
	DB	029H
	DB	086H
	DB	029H
	DB	066H
	DB	029H
	DB	087H
	DB	029H
	DB	0a7H
	DB	031H
	DB	0a6H
	DB	029H
	DB	066H
	DB	029H
	DB	066H
	DB	029H
	DB	086H
	DB	029H
	DB	087H
	DB	029H
	DB	086H
	DB	029H
	DB	086H
	DB	029H
	DB	086H
	DB	029H
	DB	066H
	DB	029H
	DB	086H
	DB	029H
	DB	086H
	DB	029H
	DB	086H
	DB	029H
	DB	066H
	DB	029H
	DB	046H
	DB	021H
	DB	086H
	DB	029H
	DB	086H
	DB	029H
	DB	086H
	DB	029H
	DB	087H
	DB	031H
	DB	066H
	DB	029H
	DB	066H
	DB	029H
	DB	086H
	DB	029H
	DB	066H
	DB	029H
	DB	066H
	DB	029H
	DB	025H
	DB	021H
	DB	086H
	DB	029H
	DB	066H
	DB	029H
	DB	0a7H
	DB	029H
	DB	087H
	DB	029H
	DB	086H
	DB	029H
	DB	0c7H
	DB	031H
	DB	0a7H
	DB	031H
	DB	0c7H
	DB	031H
	DB	0a7H
	DB	031H
	DB	086H
	DB	029H
	DB	0c7H
	DB	031H
	DB	0a7H
	DB	031H
	DB	0c7H
	DB	031H
	DB	0c7H
	DB	031H
	DB	087H
	DB	029H
	DB	0c7H
	DB	031H
	DB	0a7H
	DB	031H
	DB	086H
	DB	029H
	DB	0a7H
	DB	031H
	DB	0a7H
	DB	029H
	DB	0a7H
	DB	029H
	DB	0c7H
	DB	031H
	DB	0a7H
	DB	031H
	DB	0a7H
	DB	031H
	DB	0a7H
	DB	031H
	DB	0a6H
	DB	029H
	DB	0a7H
	DB	031H
	DB	0c7H
	DB	031H
	DB	0c7H
	DB	031H
	DB	0c7H
	DB	031H
	DB	086H
	DB	029H
	DB	0a7H
	DB	031H
	DB	0a7H
	DB	031H
	DB	0a7H
	DB	029H
	DB	0a7H
	DB	031H
	DB	0a7H
	DB	029H
	DB	0a7H
	DB	029H
	DB	0c7H
	DB	031H
	DB	0a7H
	DB	031H
	DB	0a7H
	DB	031H
	DB	086H
	DB	029H
	DB	086H
	DB	029H
	DB	0a7H
	DB	031H
	DB	0a7H
	DB	031H
	DB	0a7H
	DB	031H
	DB	0a7H
	DB	031H
	DB	087H
	DB	029H
	DB	0c7H
	DB	031H
	DB	0a7H
	DB	031H
	DB	087H
	DB	029H
	DB	0a7H
	DB	029H
	DB	0a6H
	DB	029H
	DB	0a7H
	DB	029H
	DB	0a7H
	DB	031H
	DB	086H
	DB	029H
	DB	087H
	DB	029H
	DB	087H
	DB	029H
	DB	086H
	DB	029H
	DB	0a7H
	DB	031H
	DB	0a7H
	DB	029H
	DB	0c7H
	DB	031H
	DB	0a7H
	DB	031H
	DB	087H
	DB	029H
	DB	087H
	DB	029H
	DB	0a7H
	DB	031H
	DB	0a7H
	DB	031H
	DB	0a7H
	DB	031H
	DB	086H
	DB	029H
	DB	0a7H
	DB	029H
	DB	0a7H
	DB	031H
	DB	086H
	DB	029H
	DB	0a7H
	DB	031H
	DB	086H
	DB	029H
	DB	087H
	DB	029H
	DB	0c7H
	DB	031H
	DB	0a7H
	DB	031H
	DB	0a7H
	DB	031H
	DB	0a7H
	DB	031H
	DB	086H
	DB	029H
	DB	0a7H
	DB	029H
	DB	0a7H
	DB	031H
	DB	086H
	DB	029H
	DB	087H
	DB	029H
	DB	086H
	DB	029H
	DB	086H
	DB	029H
	DB	0a7H
	DB	031H
	DB	086H
	DB	029H
	DB	0a7H
	DB	029H
	DB	086H
	DB	029H
	DB	086H
	DB	029H
	DB	0a7H
	DB	031H
	DB	086H
	DB	029H
	DB	0a7H
	DB	029H
	DB	087H
	DB	029H
	DB	066H
	DB	029H
	DB	086H
	DB	029H
	DB	0a7H
	DB	031H
	DB	0a7H
	DB	031H
	DB	0a7H
	DB	031H
	DB	086H
	DB	029H
	DB	086H
	DB	029H
	DB	0a7H
	DB	031H
	DB	0a7H
	DB	029H
	DB	086H
	DB	029H
	DB	086H
	DB	029H
	DB	086H
	DB	029H
	DB	087H
	DB	029H
	DB	087H
	DB	031H
	DB	0a7H
	DB	031H
	DB	087H
	DB	029H
	DB	066H
	DB	029H
	DB	086H
	DB	029H
	DB	0a7H
	DB	031H
	DB	087H
	DB	029H
	DB	086H
	DB	029H
	DB	086H
	DB	029H
	DB	066H
	DB	029H
	DB	086H
	DB	029H
	DB	086H
	DB	029H
	DB	0a7H
	DB	031H
	DB	087H
	DB	029H
	DB	086H
	DB	029H
	DB	0a7H
	DB	029H
	DB	086H
	DB	029H
	DB	0a7H
	DB	031H
	DB	0a7H
	DB	029H
	DB	066H
	DB	029H
	DB	086H
	DB	029H
	DB	0a7H
	DB	031H
	DB	066H
	DB	029H
	DB	086H
	DB	029H
	DB	086H
	DB	029H
	DB	066H
	DB	029H
	DB	086H
	DB	029H
	DB	086H
	DB	029H
	DB	086H
	DB	029H
	DB	067H
	DB	029H
	DB	086H
	DB	029H
	DB	0a7H
	DB	031H
	DB	086H
	DB	029H
	DB	066H
	DB	029H
	DB	086H
	DB	029H
	DB	066H
	DB	029H
	DB	086H
	DB	029H
	DB	086H
	DB	029H
	DB	086H
	DB	029H
	DB	0a6H
	DB	029H
	DB	066H
	DB	021H
	DB	066H
	DB	029H
	DB	066H
	DB	029H
	DB	045H
	DB	021H
	DB	066H
	DB	029H
	DB	066H
	DB	029H
	DB	0a7H
	DB	031H
	DB	086H
	DB	029H
	DB	0a7H
	DB	031H
	DB	087H
	DB	029H
	DB	087H
	DB	029H
	DB	0e8H
	DB	031H
	DB	0c7H
	DB	031H
	DB	0a7H
	DB	031H
	DB	0a7H
	DB	029H
	DB	086H
	DB	029H
	DB	0c8H
	DB	031H
	DB	0c7H
	DB	031H
	DB	0a7H
	DB	031H
	DB	0a7H
	DB	029H
	DB	0a7H
	DB	029H
	DB	0a7H
	DB	031H
	DB	0a7H
	DB	031H
	DB	0a7H
	DB	031H
	DB	0c7H
	DB	031H
	DB	087H
	DB	029H
	DB	0a7H
	DB	031H
	DB	0e8H
	DB	031H
	DB	0a7H
	DB	031H
	DB	0c7H
	DB	031H
	DB	087H
	DB	029H
	DB	086H
	DB	029H
	DB	0c7H
	DB	031H
	DB	0a7H
	DB	031H
	DB	0a7H
	DB	031H
	DB	0a7H
	DB	031H
	DB	087H
	DB	029H
	DB	0a7H
	DB	031H
	DB	0e7H
	DB	031H
	DB	0a7H
	DB	031H
	DB	0a7H
	DB	031H
	DB	087H
	DB	029H
	DB	087H
	DB	029H
	DB	0e7H
	DB	031H
	DB	0a7H
	DB	029H
	DB	0a7H
	DB	031H
	DB	0a7H
	DB	029H
	DB	086H
	DB	029H
	DB	0a7H
	DB	031H
	DB	0c7H
	DB	031H
	DB	0a7H
	DB	029H
	DB	0a7H
	DB	031H
	DB	086H
	DB	029H
	DB	0a7H
	DB	031H
	DB	0c7H
	DB	031H
	DB	0a7H
	DB	029H
	DB	0a7H
	DB	031H
	DB	086H
	DB	029H
	DB	0a7H
	DB	029H
	DB	0c7H
	DB	031H
	DB	0a7H
	DB	031H
	DB	0a7H
	DB	031H
	DB	0a7H
	DB	029H
	DB	086H
	DB	029H
	DB	0a7H
	DB	031H
	DB	0a7H
	DB	031H
	DB	0a7H
	DB	031H
	DB	0a7H
	DB	029H
	DB	086H
	DB	029H
	DB	086H
	DB	029H
	DB	0c7H
	DB	031H
	DB	0c7H
	DB	031H
	DB	0a7H
	DB	031H
	DB	086H
	DB	029H
	DB	086H
	DB	029H
	DB	0c7H
	DB	031H
	DB	0a7H
	DB	031H
	DB	0a7H
	DB	031H
	DB	086H
	DB	029H
	DB	086H
	DB	029H
	DB	0c7H
	DB	031H
	DB	0a7H
	DB	031H
	DB	0a7H
	DB	029H
	DB	086H
	DB	029H
	DB	066H
	DB	029H
	DB	0a7H
	DB	029H
	DB	0a7H
	DB	031H
	DB	0a7H
	DB	029H
	DB	0a6H
	DB	029H
	DB	066H
	DB	029H
	DB	0a7H
	DB	029H
	DB	0c7H
	DB	031H
	DB	0a7H
	DB	031H
	DB	0a7H
	DB	029H
	DB	086H
	DB	029H
	DB	086H
	DB	029H
	DB	0c7H
	DB	031H
	DB	0a7H
	DB	031H
	DB	086H
	DB	029H
	DB	0a7H
	DB	031H
	DB	086H
	DB	029H
	DB	087H
	DB	029H
	DB	0c7H
	DB	031H
	DB	086H
	DB	029H
	DB	086H
	DB	029H
	DB	066H
	DB	029H
	DB	066H
	DB	029H
	DB	0a7H
	DB	029H
	DB	0a7H
	DB	031H
	DB	086H
	DB	029H
	DB	066H
	DB	029H
	DB	086H
	DB	029H
	DB	0c7H
	DB	031H
	DB	0a7H
	DB	031H
	DB	086H
	DB	029H
	DB	0a6H
	DB	029H
	DB	066H
	DB	029H
	DB	086H
	DB	029H
	DB	0a7H
	DB	031H
	DB	066H
	DB	029H
	DB	086H
	DB	029H
	DB	086H
	DB	029H
	DB	066H
	DB	029H
	DB	0a7H
	DB	029H
	DB	087H
	DB	029H
	DB	086H
	DB	029H
	DB	066H
	DB	029H
	DB	066H
	DB	029H
	DB	0a7H
	DB	031H
	DB	087H
	DB	029H
	DB	086H
	DB	029H
	DB	086H
	DB	029H
	DB	066H
	DB	029H
	DB	086H
	DB	029H
	DB	0a7H
	DB	031H
	DB	086H
	DB	029H
	DB	087H
	DB	029H
	DB	066H
	DB	029H
	DB	086H
	DB	029H
	DB	0a7H
	DB	031H
	DB	087H
	DB	029H
	DB	086H
	DB	029H
	DB	066H
	DB	029H
	DB	066H
	DB	029H
	DB	087H
	DB	029H
	DB	087H
	DB	029H
	DB	086H
	DB	029H
	DB	066H
	DB	029H
	DB	046H
	DB	029H
	DB	087H
	DB	029H
	DB	0a7H
	DB	031H
	DB	066H
	DB	029H
	DB	066H
	DB	029H
	DB	066H
	DB	021H
	DB	045H
	DB	021H
	DB	066H
	DB	029H
	DB	045H
	DB	021H
	DB	066H
	DB	029H
	DB	0a7H
	DB	029H
	DB	0a7H
	DB	031H
	DB	0a6H
	DB	029H
	DB	0a7H
	DB	031H
	DB	087H
	DB	029H
	DB	0a7H
	DB	031H
	DB	0a7H
	DB	031H
	DB	0c7H
	DB	031H
	DB	0c7H
	DB	031H
	DB	0a7H
	DB	031H
	DB	0a7H
	DB	029H
	DB	0c7H
	DB	031H
	DB	0a7H
	DB	031H
	DB	0a7H
	DB	029H
	DB	0c7H
	DB	031H
	DB	0a7H
	DB	029H
	DB	0a7H
	DB	029H
	DB	0c7H
	DB	031H
	DB	0a7H
	DB	031H
	DB	0a7H
	DB	029H
	DB	087H
	DB	029H
	DB	0a6H
	DB	029H
	DB	0c7H
	DB	031H
	DB	0a7H
	DB	031H
	DB	0a7H
	DB	031H
	DB	0a7H
	DB	029H
	DB	0a7H
	DB	029H
	DB	0c7H
	DB	031H
	DB	0a7H
	DB	031H
	DB	0a7H
	DB	029H
	DB	0a7H
	DB	029H
	DB	0a7H
	DB	029H
	DB	0c7H
	DB	031H
	DB	0c7H
	DB	031H
	DB	0a7H
	DB	031H
	DB	0a7H
	DB	031H
	DB	0a7H
	DB	031H
	DB	0a7H
	DB	029H
	DB	0a7H
	DB	031H
	DB	0a7H
	DB	031H
	DB	0a7H
	DB	031H
	DB	0a7H
	DB	029H
	DB	0a7H
	DB	029H
	DB	0c7H
	DB	031H
	DB	0a7H
	DB	031H
	DB	0a7H
	DB	029H
	DB	0a7H
	DB	031H
	DB	0a6H
	DB	029H
	DB	0c7H
	DB	031H
	DB	0a7H
	DB	031H
	DB	0a7H
	DB	029H
	DB	0a7H
	DB	031H
	DB	0a7H
	DB	031H
	DB	0a7H
	DB	031H
	DB	0c7H
	DB	031H
	DB	0a7H
	DB	031H
	DB	0a7H
	DB	031H
	DB	086H
	DB	029H
	DB	086H
	DB	029H
	DB	0a7H
	DB	031H
	DB	0a7H
	DB	031H
	DB	0a7H
	DB	029H
	DB	0a7H
	DB	029H
	DB	086H
	DB	029H
	DB	087H
	DB	031H
	DB	0c7H
	DB	031H
	DB	0a7H
	DB	029H
	DB	0a7H
	DB	031H
	DB	0a7H
	DB	031H
	DB	087H
	DB	029H
	DB	0a7H
	DB	031H
	DB	0a7H
	DB	031H
	DB	086H
	DB	029H
	DB	086H
	DB	029H
	DB	086H
	DB	029H
	DB	0a7H
	DB	031H
	DB	0a7H
	DB	029H
	DB	0a7H
	DB	029H
	DB	086H
	DB	029H
	DB	066H
	DB	029H
	DB	0a7H
	DB	031H
	DB	0a7H
	DB	031H
	DB	0a7H
	DB	031H
	DB	086H
	DB	029H
	DB	086H
	DB	029H
	DB	086H
	DB	029H
	DB	0a7H
	DB	031H
	DB	087H
	DB	031H
	DB	086H
	DB	029H
	DB	087H
	DB	029H
	DB	086H
	DB	029H
	DB	087H
	DB	031H
	DB	0a7H
	DB	031H
	DB	086H
	DB	029H
	DB	086H
	DB	029H
	DB	086H
	DB	029H
	DB	087H
	DB	029H
	DB	0a7H
	DB	031H
	DB	086H
	DB	029H
	DB	087H
	DB	029H
	DB	086H
	DB	029H
	DB	086H
	DB	029H
	DB	0a7H
	DB	031H
	DB	086H
	DB	029H
	DB	086H
	DB	029H
	DB	087H
	DB	029H
	DB	086H
	DB	029H
	DB	0a7H
	DB	031H
	DB	0a6H
	DB	029H
	DB	087H
	DB	029H
	DB	087H
	DB	031H
	DB	086H
	DB	029H
	DB	086H
	DB	029H
	DB	087H
	DB	031H
	DB	086H
	DB	029H
	DB	087H
	DB	029H
	DB	086H
	DB	029H
	DB	086H
	DB	029H
	DB	0a7H
	DB	031H
	DB	086H
	DB	029H
	DB	0a7H
	DB	029H
	DB	086H
	DB	029H
	DB	066H
	DB	029H
	DB	086H
	DB	029H
	DB	086H
	DB	031H
	DB	086H
	DB	029H
	DB	086H
	DB	029H
	DB	066H
	DB	029H
	DB	086H
	DB	029H
	DB	087H
	DB	029H
	DB	086H
	DB	029H
	DB	086H
	DB	029H
	DB	086H
	DB	029H
	DB	066H
	DB	029H
	DB	087H
	DB	029H
	DB	0a7H
	DB	029H
	DB	086H
	DB	029H
	DB	086H
	DB	029H
	DB	086H
	DB	029H
	DB	086H
	DB	029H
	DB	086H
	DB	029H
	DB	066H
	DB	029H
	DB	066H
	DB	029H
	DB	066H
	DB	029H
	DB	086H
	DB	029H
	DB	086H
	DB	029H
	DB	086H
	DB	029H
	DB	086H
	DB	029H
	DB	066H
	DB	029H
	DB	046H
	DB	029H
	DB	065H
	DB	021H
	DB	066H
	DB	029H
	DB	066H
	DB	029H
	DB	086H
	DB	029H
	DB	0a6H
	DB	029H
	DB	0a7H
	DB	031H
	DB	0c7H
	DB	031H
	DB	0a7H
	DB	029H
	DB	087H
	DB	029H
	DB	0a7H
	DB	029H
	DB	0c7H
	DB	031H
	DB	0c7H
	DB	031H
	DB	087H
	DB	029H
	DB	086H
	DB	029H
	DB	0a7H
	DB	029H
	DB	0a7H
	DB	031H
	DB	0c7H
	DB	031H
	DB	087H
	DB	031H
	DB	087H
	DB	029H
	DB	0c7H
	DB	031H
	DB	0a7H
	DB	029H
	DB	087H
	DB	031H
	DB	0c7H
	DB	031H
	DB	086H
	DB	029H
	DB	0a7H
	DB	029H
	DB	0a7H
	DB	031H
	DB	0a7H
	DB	031H
	DB	0c7H
	DB	031H
	DB	0a7H
	DB	031H
	DB	087H
	DB	029H
	DB	0c7H
	DB	031H
	DB	0a7H
	DB	031H
	DB	0a7H
	DB	031H
	DB	0a7H
	DB	031H
	DB	086H
	DB	029H
	DB	0a7H
	DB	031H
	DB	0c7H
	DB	031H
	DB	0a7H
	DB	029H
	DB	0a7H
	DB	031H
	DB	0a6H
	DB	029H
	DB	087H
	DB	029H
	DB	0a7H
	DB	031H
	DB	0c7H
	DB	031H
	DB	0a7H
	DB	031H
	DB	087H
	DB	029H
	DB	0a7H
	DB	029H
	DB	0a7H
	DB	031H
	DB	0a7H
	DB	031H
	DB	0a7H
	DB	031H
	DB	0a7H
	DB	029H
	DB	086H
	DB	029H
	DB	0a7H
	DB	031H
	DB	0a7H
	DB	031H
	DB	0c7H
	DB	031H
	DB	0a7H
	DB	031H
	DB	086H
	DB	029H
	DB	0a7H
	DB	031H
	DB	0c7H
	DB	031H
	DB	087H
	DB	029H
	DB	087H
	DB	029H
	DB	0a7H
	DB	029H
	DB	086H
	DB	029H
	DB	0a7H
	DB	031H
	DB	0a7H
	DB	031H
	DB	0a7H
	DB	031H
	DB	0a7H
	DB	029H
	DB	086H
	DB	029H
	DB	0a7H
	DB	031H
	DB	0a7H
	DB	031H
	DB	087H
	DB	029H
	DB	0a7H
	DB	031H
	DB	086H
	DB	029H
	DB	0a6H
	DB	029H
	DB	0c7H
	DB	031H
	DB	0a7H
	DB	031H
	DB	087H
	DB	029H
	DB	087H
	DB	029H
	DB	066H
	DB	029H
	DB	0a7H
	DB	031H
	DB	0a7H
	DB	031H
	DB	0a7H
	DB	031H
	DB	086H
	DB	029H
	DB	086H
	DB	029H
	DB	0a7H
	DB	031H
	DB	0a7H
	DB	031H
	DB	087H
	DB	029H
	DB	087H
	DB	031H
	DB	086H
	DB	029H
	DB	086H
	DB	029H
	DB	0a7H
	DB	031H
	DB	0a6H
	DB	029H
	DB	0a7H
	DB	031H
	DB	086H
	DB	029H
	DB	086H
	DB	029H
	DB	087H
	DB	029H
	DB	087H
	DB	029H
	DB	086H
	DB	029H
	DB	086H
	DB	029H
	DB	086H
	DB	029H
	DB	086H
	DB	029H
	DB	086H
	DB	029H
	DB	0a7H
	DB	031H
	DB	0a7H
	DB	031H
	DB	066H
	DB	029H
	DB	087H
	DB	029H
	DB	0a7H
	DB	031H
	DB	086H
	DB	029H
	DB	0a7H
	DB	029H
	DB	086H
	DB	029H
	DB	086H
	DB	029H
	DB	087H
	DB	029H
	DB	0a7H
	DB	031H
	DB	0a7H
	DB	031H
	DB	086H
	DB	029H
	DB	066H
	DB	029H
	DB	086H
	DB	029H
	DB	087H
	DB	029H
	DB	0a7H
	DB	031H
	DB	0a7H
	DB	031H
	DB	086H
	DB	029H
	DB	086H
	DB	029H
	DB	087H
	DB	029H
	DB	086H
	DB	029H
	DB	0a6H
	DB	029H
	DB	086H
	DB	029H
	DB	086H
	DB	029H
	DB	086H
	DB	029H
	DB	086H
	DB	029H
	DB	086H
	DB	029H
	DB	086H
	DB	029H
	DB	066H
	DB	029H
	DB	086H
	DB	029H
	DB	086H
	DB	029H
	DB	0a7H
	DB	029H
	DB	087H
	DB	029H
	DB	066H
	DB	029H
	DB	066H
	DB	029H
	DB	086H
	DB	031H
	DB	086H
	DB	029H
	DB	0a7H
	DB	031H
	DB	086H
	DB	029H
	DB	066H
	DB	029H
	DB	066H
	DB	029H
	DB	086H
	DB	029H
	DB	086H
	DB	029H
	DB	066H
	DB	029H
	DB	066H
	DB	029H
	DB	086H
	DB	029H
	DB	086H
	DB	031H
	DB	086H
	DB	029H
	DB	066H
	DB	029H
	DB	045H
	DB	021H
	DB	045H
	DB	021H
	DB	066H
	DB	029H
	DB	086H
	DB	029H
	DB	066H
	DB	029H
	DB	0a7H
	DB	031H
	DB	0a7H
	DB	031H
	DB	0a7H
	DB	031H
	DB	0c7H
	DB	031H
	DB	066H
	DB	029H
	DB	0a7H
	DB	029H
	DB	0c7H
	DB	031H
	DB	0a7H
	DB	031H
	DB	0a7H
	DB	029H
	DB	0a7H
	DB	029H
	DB	087H
	DB	029H
	DB	0c7H
	DB	031H
	DB	0a7H
	DB	031H
	DB	0a7H
	DB	029H
	DB	0a7H
	DB	031H
	DB	086H
	DB	029H
	DB	086H
	DB	029H
	DB	0c7H
	DB	031H
	DB	0a7H
	DB	031H
	DB	0c7H
	DB	031H
	DB	087H
	DB	029H
	DB	0a7H
	DB	029H
	DB	0c7H
	DB	031H
	DB	0a7H
	DB	031H
	DB	0a7H
	DB	031H
	DB	086H
	DB	029H
	DB	0a7H
	DB	029H
	DB	0e7H
	DB	031H
	DB	0c7H
	DB	031H
	DB	0a7H
	DB	031H
	DB	087H
	DB	029H
	DB	086H
	DB	029H
	DB	0a7H
	DB	029H
	DB	0c7H
	DB	031H
	DB	0a7H
	DB	031H
	DB	0a7H
	DB	031H
	DB	086H
	DB	029H
	DB	0a7H
	DB	031H
	DB	0c7H
	DB	031H
	DB	0a7H
	DB	031H
	DB	0a6H
	DB	029H
	DB	066H
	DB	029H
	DB	0a7H
	DB	031H
	DB	0e8H
	DB	031H
	DB	0a7H
	DB	031H
	DB	0a7H
	DB	029H
	DB	086H
	DB	029H
	DB	086H
	DB	029H
	DB	0a7H
	DB	031H
	DB	0c7H
	DB	031H
	DB	0a7H
	DB	029H
	DB	087H
	DB	029H
	DB	086H
	DB	029H
	DB	0c7H
	DB	031H
	DB	0c7H
	DB	031H
	DB	087H
	DB	029H
	DB	0a7H
	DB	031H
	DB	086H
	DB	029H
	DB	0a7H
	DB	029H
	DB	0e7H
	DB	031H
	DB	0a7H
	DB	031H
	DB	0a7H
	DB	031H
	DB	086H
	DB	029H
	DB	066H
	DB	029H
	DB	0a7H
	DB	031H
	DB	0a7H
	DB	029H
	DB	0a7H
	DB	029H
	DB	0a7H
	DB	031H
	DB	066H
	DB	029H
	DB	086H
	DB	029H
	DB	0c8H
	DB	031H
	DB	0a7H
	DB	031H
	DB	086H
	DB	029H
	DB	0a6H
	DB	029H
	DB	086H
	DB	029H
	DB	0a7H
	DB	031H
	DB	0a7H
	DB	031H
	DB	0a7H
	DB	029H
	DB	086H
	DB	029H
	DB	066H
	DB	029H
	DB	086H
	DB	029H
	DB	0a7H
	DB	031H
	DB	0a7H
	DB	031H
	DB	0a7H
	DB	029H
	DB	066H
	DB	029H
	DB	087H
	DB	029H
	DB	0c7H
	DB	031H
	DB	0a7H
	DB	029H
	DB	087H
	DB	031H
	DB	086H
	DB	029H
	DB	066H
	DB	029H
	DB	0a7H
	DB	031H
	DB	0a7H
	DB	031H
	DB	087H
	DB	031H
	DB	086H
	DB	029H
	DB	066H
	DB	029H
	DB	087H
	DB	029H
	DB	0a7H
	DB	031H
	DB	0a7H
	DB	029H
	DB	0a6H
	DB	029H
	DB	066H
	DB	029H
	DB	0a7H
	DB	029H
	DB	0a7H
	DB	031H
	DB	087H
	DB	031H
	DB	086H
	DB	029H
	DB	066H
	DB	029H
	DB	086H
	DB	029H
	DB	0c7H
	DB	031H
	DB	086H
	DB	029H
	DB	086H
	DB	029H
	DB	086H
	DB	029H
	DB	066H
	DB	029H
	DB	086H
	DB	029H
	DB	0a7H
	DB	029H
	DB	086H
	DB	029H
	DB	086H
	DB	029H
	DB	066H
	DB	029H
	DB	087H
	DB	031H
	DB	087H
	DB	031H
	DB	086H
	DB	029H
	DB	086H
	DB	029H
	DB	066H
	DB	029H
	DB	066H
	DB	029H
	DB	086H
	DB	029H
	DB	087H
	DB	029H
	DB	087H
	DB	029H
	DB	086H
	DB	029H
	DB	066H
	DB	029H
	DB	066H
	DB	029H
	DB	0a7H
	DB	031H
	DB	086H
	DB	029H
	DB	086H
	DB	029H
	DB	066H
	DB	029H
	DB	086H
	DB	029H
	DB	0a7H
	DB	029H
	DB	066H
	DB	029H
	DB	086H
	DB	029H
	DB	066H
	DB	029H
	DB	066H
	DB	029H
	DB	086H
	DB	029H
	DB	086H
	DB	029H
	DB	086H
	DB	029H
	DB	086H
	DB	029H
	DB	066H
	DB	029H
	DB	066H
	DB	029H
	DB	086H
	DB	029H
	DB	066H
	DB	029H
	DB	046H
	DB	029H
	DB	025H
	DB	021H
	DB	066H
	DB	029H
	DB	086H
	DB	029H
	DB	0a7H
	DB	029H
	DB	087H
	DB	029H
	DB	0a7H
	DB	031H
	DB	0c7H
	DB	031H
	DB	0a7H
	DB	031H
	DB	0c7H
	DB	031H
	DB	087H
	DB	029H
	DB	0a7H
	DB	029H
	DB	0a7H
	DB	031H
	DB	0a7H
	DB	031H
	DB	0c7H
	DB	031H
	DB	0c7H
	DB	031H
	DB	0a7H
	DB	029H
	DB	0a7H
	DB	031H
	DB	0a7H
	DB	031H
	DB	0a7H
	DB	029H
	DB	0a7H
	DB	031H
	DB	086H
	DB	029H
	DB	0a7H
	DB	031H
	DB	0c7H
	DB	031H
	DB	0a7H
	DB	031H
	DB	0a7H
	DB	031H
	DB	086H
	DB	029H
	DB	087H
	DB	029H
	DB	0a7H
	DB	031H
	DB	0c7H
	DB	031H
	DB	0a7H
	DB	029H
	DB	087H
	DB	029H
	DB	0a7H
	DB	029H
	DB	0c7H
	DB	031H
	DB	0a7H
	DB	029H
	DB	0a7H
	DB	029H
	DB	0a7H
	DB	031H
	DB	086H
	DB	029H
	DB	0a7H
	DB	031H
	DB	0c7H
	DB	031H
	DB	0a7H
	DB	029H
	DB	0a7H
	DB	031H
	DB	0a6H
	DB	029H
	DB	0a7H
	DB	029H
	DB	0a7H
	DB	031H
	DB	0a7H
	DB	031H
	DB	086H
	DB	029H
	DB	0a7H
	DB	029H
	DB	0a7H
	DB	031H
	DB	0c7H
	DB	031H
	DB	0a7H
	DB	031H
	DB	0a7H
	DB	029H
	DB	0a7H
	DB	029H
	DB	086H
	DB	029H
	DB	0a7H
	DB	031H
	DB	0a7H
	DB	031H
	DB	086H
	DB	029H
	DB	086H
	DB	029H
	DB	087H
	DB	031H
	DB	0a7H
	DB	031H
	DB	0c7H
	DB	031H
	DB	0a7H
	DB	031H
	DB	0a7H
	DB	031H
	DB	0a7H
	DB	031H
	DB	086H
	DB	029H
	DB	0a7H
	DB	031H
	DB	086H
	DB	029H
	DB	086H
	DB	029H
	DB	0a7H
	DB	031H
	DB	086H
	DB	029H
	DB	0a7H
	DB	029H
	DB	0a7H
	DB	031H
	DB	086H
	DB	029H
	DB	0a7H
	DB	031H
	DB	086H
	DB	029H
	DB	087H
	DB	029H
	DB	0a7H
	DB	031H
	DB	0a7H
	DB	029H
	DB	0a7H
	DB	031H
	DB	086H
	DB	029H
	DB	086H
	DB	029H
	DB	0a7H
	DB	031H
	DB	0a7H
	DB	029H
	DB	0a7H
	DB	031H
	DB	0a7H
	DB	031H
	DB	086H
	DB	029H
	DB	0a7H
	DB	029H
	DB	0a7H
	DB	029H
	DB	086H
	DB	029H
	DB	0a7H
	DB	031H
	DB	0a7H
	DB	029H
	DB	086H
	DB	029H
	DB	0a7H
	DB	031H
	DB	087H
	DB	029H
	DB	086H
	DB	029H
	DB	086H
	DB	029H
	DB	086H
	DB	029H
	DB	0a7H
	DB	031H
	DB	0a7H
	DB	031H
	DB	087H
	DB	029H
	DB	0a7H
	DB	029H
	DB	086H
	DB	029H
	DB	086H
	DB	029H
	DB	086H
	DB	029H
	DB	086H
	DB	029H
	DB	0a7H
	DB	031H
	DB	086H
	DB	029H
	DB	086H
	DB	029H
	DB	0a7H
	DB	031H
	DB	086H
	DB	029H
	DB	086H
	DB	029H
	DB	0a7H
	DB	031H
	DB	066H
	DB	029H
	DB	087H
	DB	029H
	DB	0a7H
	DB	029H
	DB	087H
	DB	029H
	DB	0a7H
	DB	029H
	DB	086H
	DB	029H
	DB	086H
	DB	029H
	DB	087H
	DB	029H
	DB	066H
	DB	029H
	DB	086H
	DB	029H
	DB	086H
	DB	029H
	DB	086H
	DB	029H
	DB	087H
	DB	029H
	DB	086H
	DB	029H
	DB	086H
	DB	029H
	DB	066H
	DB	029H
	DB	066H
	DB	029H
	DB	0a7H
	DB	031H
	DB	086H
	DB	029H
	DB	086H
	DB	029H
	DB	086H
	DB	029H
	DB	066H
	DB	029H
	DB	066H
	DB	029H
	DB	086H
	DB	029H
	DB	086H
	DB	029H
	DB	087H
	DB	029H
	DB	086H
	DB	029H
	DB	066H
	DB	029H
	DB	086H
	DB	029H
	DB	066H
	DB	029H
	DB	086H
	DB	029H
	DB	066H
	DB	029H
	DB	066H
	DB	021H
	DB	086H
	DB	029H
	DB	066H
	DB	029H
	DB	066H
	DB	029H
	DB	086H
	DB	029H
	DB	066H
	DB	021H
	DB	066H
	DB	029H
	DB	086H
	DB	029H
	DB	046H
	DB	021H
	DB	025H
	DB	021H
	DB	066H
	DB	029H
	DB	0a7H
	DB	031H
	DB	0a7H
	DB	029H
	DB	086H
	DB	029H
	DB	086H
	DB	029H
	DB	0a7H
	DB	031H
	DB	0e8H
	DB	031H
	DB	0a7H
	DB	031H
	DB	0a7H
	DB	029H
	DB	086H
	DB	029H
	DB	0a6H
	DB	029H
	DB	0c8H
	DB	031H
	DB	0c7H
	DB	031H
	DB	0a7H
	DB	031H
	DB	0a7H
	DB	031H
	DB	086H
	DB	029H
	DB	0c7H
	DB	031H
	DB	0e7H
	DB	031H
	DB	0a7H
	DB	031H
	DB	0a7H
	DB	029H
	DB	087H
	DB	029H
	DB	0a7H
	DB	029H
	DB	0c7H
	DB	031H
	DB	0a7H
	DB	031H
	DB	0a7H
	DB	029H
	DB	086H
	DB	029H
	DB	0a7H
	DB	029H
	DB	0c7H
	DB	031H
	DB	0a7H
	DB	031H
	DB	0a7H
	DB	031H
	DB	086H
	DB	029H
	DB	086H
	DB	029H
	DB	0a7H
	DB	031H
	DB	0c7H
	DB	031H
	DB	0c7H
	DB	031H
	DB	0a7H
	DB	029H
	DB	086H
	DB	029H
	DB	0a7H
	DB	031H
	DB	0c7H
	DB	031H
	DB	0a7H
	DB	031H
	DB	0a7H
	DB	029H
	DB	086H
	DB	029H
	DB	086H
	DB	029H
	DB	0e8H
	DB	031H
	DB	0c7H
	DB	031H
	DB	0a7H
	DB	029H
	DB	086H
	DB	029H
	DB	086H
	DB	029H
	DB	0a7H
	DB	031H
	DB	0c7H
	DB	031H
	DB	0c7H
	DB	031H
	DB	0a7H
	DB	031H
	DB	086H
	DB	029H
	DB	087H
	DB	029H
	DB	0a7H
	DB	031H
	DB	0a7H
	DB	029H
	DB	0a7H
	DB	029H
	DB	086H
	DB	029H
	DB	0a7H
	DB	029H
	DB	0a7H
	DB	031H
	DB	0a7H
	DB	031H
	DB	0a7H
	DB	029H
	DB	086H
	DB	029H
	DB	086H
	DB	029H
	DB	0a7H
	DB	031H
	DB	0a7H
	DB	031H
	DB	0a7H
	DB	031H
	DB	0a7H
	DB	029H
	DB	066H
	DB	029H
	DB	086H
	DB	029H
	DB	0a7H
	DB	031H
	DB	0a7H
	DB	031H
	DB	0a7H
	DB	029H
	DB	066H
	DB	029H
	DB	086H
	DB	029H
	DB	0a7H
	DB	031H
	DB	0a7H
	DB	029H
	DB	0a7H
	DB	031H
	DB	0a7H
	DB	029H
	DB	066H
	DB	029H
	DB	0a7H
	DB	031H
	DB	0c7H
	DB	031H
	DB	0a7H
	DB	031H
	DB	086H
	DB	029H
	DB	066H
	DB	029H
	DB	086H
	DB	029H
	DB	0a7H
	DB	031H
	DB	0c7H
	DB	031H
	DB	086H
	DB	029H
	DB	086H
	DB	029H
	DB	086H
	DB	029H
	DB	0c7H
	DB	031H
	DB	087H
	DB	029H
	DB	086H
	DB	029H
	DB	086H
	DB	029H
	DB	066H
	DB	021H
	DB	087H
	DB	029H
	DB	0a7H
	DB	031H
	DB	0a6H
	DB	029H
	DB	086H
	DB	029H
	DB	066H
	DB	029H
	DB	086H
	DB	029H
	DB	087H
	DB	031H
	DB	0a7H
	DB	029H
	DB	087H
	DB	029H
	DB	066H
	DB	029H
	DB	066H
	DB	029H
	DB	0a7H
	DB	031H
	DB	0a7H
	DB	031H
	DB	086H
	DB	029H
	DB	086H
	DB	029H
	DB	066H
	DB	029H
	DB	086H
	DB	029H
	DB	0a7H
	DB	031H
	DB	086H
	DB	029H
	DB	086H
	DB	029H
	DB	066H
	DB	029H
	DB	086H
	DB	029H
	DB	0a7H
	DB	031H
	DB	0a7H
	DB	029H
	DB	086H
	DB	029H
	DB	066H
	DB	029H
	DB	066H
	DB	029H
	DB	087H
	DB	029H
	DB	0a7H
	DB	029H
	DB	086H
	DB	029H
	DB	086H
	DB	029H
	DB	066H
	DB	029H
	DB	066H
	DB	029H
	DB	086H
	DB	029H
	DB	087H
	DB	029H
	DB	086H
	DB	029H
	DB	066H
	DB	029H
	DB	086H
	DB	029H
	DB	0a7H
	DB	031H
	DB	086H
	DB	029H
	DB	066H
	DB	029H
	DB	066H
	DB	029H
	DB	066H
	DB	029H
	DB	086H
	DB	029H
	DB	087H
	DB	029H
	DB	086H
	DB	029H
	DB	066H
	DB	029H
	DB	066H
	DB	029H
	DB	086H
	DB	029H
	DB	087H
	DB	029H
	DB	086H
	DB	029H
	DB	066H
	DB	029H
	DB	046H
	DB	029H
	DB	066H
	DB	029H
	DB	045H
	DB	029H
	DB	045H
	DB	021H
	DB	066H
	DB	029H
	DB	086H
	DB	029H
	DB	0a7H
	DB	029H
	DB	0a7H
	DB	031H
	DB	086H
	DB	029H
	DB	087H
	DB	029H
	DB	0a7H
	DB	031H
	DB	0a7H
	DB	031H
	DB	0a7H
	DB	029H
	DB	0a6H
	DB	029H
	DB	0a7H
	DB	031H
	DB	0c7H
	DB	031H
	DB	0c7H
	DB	031H
	DB	0a7H
	DB	031H
	DB	0c7H
	DB	031H
	DB	087H
	DB	029H
	DB	087H
	DB	029H
	DB	0c7H
	DB	031H
	DB	0a7H
	DB	031H
	DB	0a7H
	DB	031H
	DB	0a7H
	DB	031H
	DB	086H
	DB	029H
	DB	0a7H
	DB	029H
	DB	0c7H
	DB	031H
	DB	0a7H
	DB	029H
	DB	087H
	DB	029H
	DB	086H
	DB	029H
	DB	0a7H
	DB	031H
	DB	0a7H
	DB	031H
	DB	0a7H
	DB	031H
	DB	0a7H
	DB	031H
	DB	0a7H
	DB	029H
	DB	0a7H
	DB	031H
	DB	0c7H
	DB	031H
	DB	0a7H
	DB	031H
	DB	0a7H
	DB	031H
	DB	0a7H
	DB	029H
	DB	086H
	DB	029H
	DB	0a7H
	DB	031H
	DB	0a7H
	DB	031H
	DB	0a7H
	DB	031H
	DB	0a7H
	DB	031H
	DB	0a7H
	DB	029H
	DB	0a7H
	DB	031H
	DB	0c7H
	DB	031H
	DB	0a7H
	DB	031H
	DB	0a7H
	DB	029H
	DB	087H
	DB	029H
	DB	0a7H
	DB	031H
	DB	0c7H
	DB	031H
	DB	0a7H
	DB	031H
	DB	087H
	DB	031H
	DB	0a6H
	DB	029H
	DB	086H
	DB	029H
	DB	0a7H
	DB	031H
	DB	0a7H
	DB	031H
	DB	0a7H
	DB	031H
	DB	0a7H
	DB	031H
	DB	0a6H
	DB	029H
	DB	0a7H
	DB	029H
	DB	0a7H
	DB	031H
	DB	0a7H
	DB	031H
	DB	0c7H
	DB	031H
	DB	087H
	DB	029H
	DB	0a7H
	DB	029H
	DB	0c7H
	DB	031H
	DB	0a7H
	DB	029H
	DB	0a7H
	DB	029H
	DB	086H
	DB	029H
	DB	086H
	DB	029H
	DB	0a7H
	DB	031H
	DB	0a7H
	DB	031H
	DB	0a7H
	DB	029H
	DB	086H
	DB	029H
	DB	086H
	DB	029H
	DB	086H
	DB	029H
	DB	0a7H
	DB	031H
	DB	0a7H
	DB	031H
	DB	086H
	DB	029H
	DB	086H
	DB	029H
	DB	087H
	DB	029H
	DB	0c7H
	DB	031H
	DB	0a7H
	DB	029H
	DB	087H
	DB	029H
	DB	086H
	DB	029H
	DB	086H
	DB	029H
	DB	0a7H
	DB	031H
	DB	0a7H
	DB	031H
	DB	086H
	DB	029H
	DB	087H
	DB	029H
	DB	086H
	DB	029H
	DB	0a7H
	DB	031H
	DB	0a7H
	DB	031H
	DB	086H
	DB	029H
	DB	0a7H
	DB	029H
	DB	066H
	DB	029H
	DB	086H
	DB	029H
	DB	0a7H
	DB	031H
	DB	086H
	DB	029H
	DB	086H
	DB	029H
	DB	087H
	DB	029H
	DB	086H
	DB	029H
	DB	0a7H
	DB	031H
	DB	0a7H
	DB	031H
	DB	086H
	DB	029H
	DB	086H
	DB	029H
	DB	066H
	DB	029H
	DB	087H
	DB	029H
	DB	0a7H
	DB	029H
	DB	086H
	DB	029H
	DB	086H
	DB	029H
	DB	086H
	DB	029H
	DB	066H
	DB	029H
	DB	0a6H
	DB	029H
	DB	086H
	DB	029H
	DB	086H
	DB	029H
	DB	086H
	DB	029H
	DB	066H
	DB	029H
	DB	0a7H
	DB	031H
	DB	0a7H
	DB	029H
	DB	086H
	DB	029H
	DB	086H
	DB	029H
	DB	066H
	DB	029H
	DB	086H
	DB	029H
	DB	087H
	DB	031H
	DB	086H
	DB	029H
	DB	086H
	DB	029H
	DB	066H
	DB	029H
	DB	066H
	DB	029H
	DB	086H
	DB	029H
	DB	087H
	DB	029H
	DB	087H
	DB	029H
	DB	086H
	DB	029H
	DB	066H
	DB	029H
	DB	086H
	DB	029H
	DB	086H
	DB	029H
	DB	086H
	DB	029H
	DB	086H
	DB	029H
	DB	066H
	DB	029H
	DB	086H
	DB	029H
	DB	086H
	DB	029H
	DB	086H
	DB	029H
	DB	087H
	DB	029H
	DB	066H
	DB	029H
	DB	066H
	DB	029H
	DB	087H
	DB	029H
	DB	086H
	DB	029H
	DB	066H
	DB	029H
	DB	066H
	DB	029H
	DB	045H
	DB	021H
	DB	045H
	DB	021H
	DB	045H
	DB	021H
	DB	066H
	DB	029H
	DB	066H
	DB	029H
	DB	0a6H
	DB	029H
	DB	0a7H
	DB	031H
	DB	0a7H
	DB	031H
	DB	0a7H
	DB	031H
	DB	0a6H
	DB	029H
	DB	0a7H
	DB	031H
	DB	0a7H
	DB	031H
	DB	0a7H
	DB	031H
	DB	0c7H
	DB	031H
	DB	087H
	DB	029H
	DB	0a7H
	DB	031H
	DB	0c7H
	DB	031H
	DB	0a7H
	DB	031H
	DB	0c7H
	DB	031H
	DB	0a7H
	DB	029H
	DB	086H
	DB	029H
	DB	0a7H
	DB	031H
	DB	0c7H
	DB	031H
	DB	0a7H
	DB	031H
	DB	0a7H
	DB	031H
	DB	086H
	DB	029H
	DB	0a7H
	DB	029H
	DB	0a7H
	DB	031H
	DB	0a7H
	DB	031H
	DB	0a7H
	DB	031H
	DB	0a7H
	DB	029H
	DB	0a7H
	DB	031H
	DB	0c7H
	DB	031H
	DB	0c7H
	DB	031H
	DB	0c7H
	DB	031H
	DB	0a7H
	DB	029H
	DB	086H
	DB	029H
	DB	0a7H
	DB	031H
	DB	0a7H
	DB	031H
	DB	0a7H
	DB	031H
	DB	0a7H
	DB	029H
	DB	066H
	DB	029H
	DB	0a7H
	DB	029H
	DB	0a7H
	DB	031H
	DB	0c7H
	DB	031H
	DB	0c7H
	DB	031H
	DB	086H
	DB	029H
	DB	086H
	DB	029H
	DB	0a7H
	DB	031H
	DB	0c7H
	DB	031H
	DB	0c7H
	DB	031H
	DB	0a7H
	DB	031H
	DB	087H
	DB	029H
	DB	0c7H
	DB	031H
	DB	0a7H
	DB	031H
	DB	0a7H
	DB	029H
	DB	0a7H
	DB	029H
	DB	086H
	DB	029H
	DB	0a7H
	DB	029H
	DB	0a7H
	DB	031H
	DB	0a7H
	DB	029H
	DB	0a7H
	DB	031H
	DB	0a6H
	DB	029H
	DB	086H
	DB	029H
	DB	0a7H
	DB	031H
	DB	086H
	DB	029H
	DB	0a7H
	DB	031H
	DB	086H
	DB	029H
	DB	086H
	DB	029H
	DB	0a7H
	DB	031H
	DB	087H
	DB	029H
	DB	0a6H
	DB	029H
	DB	0a7H
	DB	031H
	DB	086H
	DB	029H
	DB	0a7H
	DB	029H
	DB	086H
	DB	029H
	DB	0a7H
	DB	029H
	DB	0a7H
	DB	031H
	DB	066H
	DB	029H
	DB	0a7H
	DB	029H
	DB	0a7H
	DB	031H
	DB	086H
	DB	029H
	DB	0a7H
	DB	029H
	DB	087H
	DB	029H
	DB	086H
	DB	029H
	DB	0c7H
	DB	031H
	DB	0a7H
	DB	031H
	DB	0a7H
	DB	031H
	DB	087H
	DB	029H
	DB	066H
	DB	029H
	DB	086H
	DB	029H
	DB	0a7H
	DB	031H
	DB	087H
	DB	031H
	DB	087H
	DB	029H
	DB	086H
	DB	029H
	DB	086H
	DB	029H
	DB	0a7H
	DB	031H
	DB	0a7H
	DB	029H
	DB	0a7H
	DB	031H
	DB	086H
	DB	029H
	DB	086H
	DB	029H
	DB	087H
	DB	031H
	DB	087H
	DB	029H
	DB	086H
	DB	029H
	DB	086H
	DB	029H
	DB	086H
	DB	029H
	DB	087H
	DB	029H
	DB	0a6H
	DB	029H
	DB	086H
	DB	029H
	DB	0a7H
	DB	031H
	DB	066H
	DB	029H
	DB	086H
	DB	029H
	DB	086H
	DB	029H
	DB	066H
	DB	029H
	DB	0a7H
	DB	029H
	DB	087H
	DB	029H
	DB	066H
	DB	029H
	DB	087H
	DB	029H
	DB	087H
	DB	029H
	DB	086H
	DB	029H
	DB	086H
	DB	029H
	DB	066H
	DB	029H
	DB	086H
	DB	029H
	DB	066H
	DB	029H
	DB	066H
	DB	029H
	DB	0a7H
	DB	031H
	DB	066H
	DB	029H
	DB	086H
	DB	029H
	DB	087H
	DB	029H
	DB	087H
	DB	029H
	DB	0a7H
	DB	031H
	DB	086H
	DB	029H
	DB	066H
	DB	029H
	DB	086H
	DB	029H
	DB	086H
	DB	029H
	DB	086H
	DB	029H
	DB	086H
	DB	029H
	DB	066H
	DB	029H
	DB	066H
	DB	029H
	DB	086H
	DB	029H
	DB	087H
	DB	029H
	DB	086H
	DB	029H
	DB	066H
	DB	029H
	DB	066H
	DB	029H
	DB	086H
	DB	029H
	DB	086H
	DB	029H
	DB	086H
	DB	029H
	DB	066H
	DB	029H
	DB	065H
	DB	029H
	DB	086H
	DB	029H
	DB	066H
	DB	029H
	DB	086H
	DB	029H
	DB	066H
	DB	029H
	DB	045H
	DB	021H
	DB	046H
	DB	021H
	DB	066H
	DB	029H
	DB	066H
	DB	029H
	DB	086H
	DB	029H
	DB	0a7H
	DB	031H
	DB	0a7H
	DB	031H
	DB	0c7H
	DB	029H
	DB	0a7H
	DB	031H
	DB	086H
	DB	029H
	DB	0a7H
	DB	031H
	DB	0c7H
	DB	031H
	DB	0c7H
	DB	031H
	DB	0a7H
	DB	031H
	DB	086H
	DB	029H
	DB	0a7H
	DB	031H
	DB	0c7H
	DB	031H
	DB	0a7H
	DB	031H
	DB	0c7H
	DB	031H
	DB	087H
	DB	029H
	DB	0a6H
	DB	029H
	DB	0c7H
	DB	031H
	DB	0c7H
	DB	031H
	DB	0a7H
	DB	031H
	DB	0a7H
	DB	031H
	DB	086H
	DB	029H
	DB	0a7H
	DB	031H
	DB	0c7H
	DB	031H
	DB	0a7H
	DB	031H
	DB	0a7H
	DB	029H
	DB	086H
	DB	029H
	DB	0a7H
	DB	031H
	DB	0a7H
	DB	031H
	DB	0a7H
	DB	029H
	DB	0a7H
	DB	031H
	DB	086H
	DB	029H
	DB	086H
	DB	029H
	DB	0a7H
	DB	031H
	DB	0c7H
	DB	031H
	DB	086H
	DB	029H
	DB	0a7H
	DB	029H
	DB	086H
	DB	029H
	DB	0a7H
	DB	031H
	DB	0c7H
	DB	031H
	DB	0a7H
	DB	031H
	DB	0a7H
	DB	031H
	DB	086H
	DB	029H
	DB	087H
	DB	029H
	DB	0a7H
	DB	031H
	DB	0a7H
	DB	031H
	DB	0a7H
	DB	029H
	DB	086H
	DB	029H
	DB	087H
	DB	029H
	DB	0e7H
	DB	031H
	DB	0a7H
	DB	031H
	DB	0a7H
	DB	031H
	DB	0a7H
	DB	031H
	DB	086H
	DB	029H
	DB	086H
	DB	029H
	DB	0a7H
	DB	031H
	DB	087H
	DB	031H
	DB	0a7H
	DB	031H
	DB	086H
	DB	029H
	DB	086H
	DB	029H
	DB	0a7H
	DB	029H
	DB	0a7H
	DB	031H
	DB	0a7H
	DB	031H
	DB	086H
	DB	029H
	DB	066H
	DB	029H
	DB	087H
	DB	031H
	DB	0a7H
	DB	031H
	DB	0a7H
	DB	031H
	DB	086H
	DB	029H
	DB	066H
	DB	029H
	DB	086H
	DB	029H
	DB	0c7H
	DB	031H
	DB	087H
	DB	029H
	DB	087H
	DB	029H
	DB	066H
	DB	029H
	DB	0a6H
	DB	029H
	DB	0a7H
	DB	031H
	DB	0a7H
	DB	029H
	DB	0a7H
	DB	031H
	DB	086H
	DB	029H
	DB	066H
	DB	029H
	DB	0c7H
	DB	031H
	DB	0a7H
	DB	029H
	DB	086H
	DB	029H
	DB	087H
	DB	029H
	DB	086H
	DB	029H
	DB	0a7H
	DB	029H
	DB	0a7H
	DB	031H
	DB	0a6H
	DB	029H
	DB	086H
	DB	029H
	DB	066H
	DB	029H
	DB	086H
	DB	029H
	DB	086H
	DB	029H
	DB	087H
	DB	029H
	DB	0a7H
	DB	029H
	DB	066H
	DB	029H
	DB	086H
	DB	029H
	DB	0c7H
	DB	031H
	DB	087H
	DB	031H
	DB	086H
	DB	029H
	DB	086H
	DB	029H
	DB	066H
	DB	029H
	DB	0a7H
	DB	031H
	DB	0a7H
	DB	031H
	DB	086H
	DB	029H
	DB	0a6H
	DB	029H
	DB	066H
	DB	029H
	DB	066H
	DB	029H
	DB	0a7H
	DB	029H
	DB	087H
	DB	031H
	DB	086H
	DB	029H
	DB	086H
	DB	029H
	DB	086H
	DB	029H
	DB	087H
	DB	031H
	DB	0a6H
	DB	029H
	DB	086H
	DB	029H
	DB	087H
	DB	029H
	DB	066H
	DB	029H
	DB	066H
	DB	029H
	DB	086H
	DB	029H
	DB	086H
	DB	029H
	DB	086H
	DB	029H
	DB	066H
	DB	029H
	DB	066H
	DB	029H
	DB	086H
	DB	029H
	DB	087H
	DB	029H
	DB	086H
	DB	029H
	DB	066H
	DB	029H
	DB	065H
	DB	021H
	DB	086H
	DB	029H
	DB	087H
	DB	031H
	DB	066H
	DB	029H
	DB	086H
	DB	029H
	DB	066H
	DB	029H
	DB	066H
	DB	029H
	DB	087H
	DB	031H
	DB	086H
	DB	029H
	DB	086H
	DB	029H
	DB	066H
	DB	029H
	DB	046H
	DB	021H
	DB	086H
	DB	029H
	DB	086H
	DB	029H
	DB	086H
	DB	029H
	DB	066H
	DB	029H
	DB	046H
	DB	021H
	DB	086H
	DB	029H
	DB	086H
	DB	029H
	DB	066H
	DB	029H
	DB	045H
	DB	021H
	DB	025H
	DB	021H
	DB	066H
	DB	021H
	DB	066H
	DB	029H
	DB	086H
	DB	029H
	DB	086H
	DB	029H
	DB	0a7H
	DB	029H
	DB	0a7H
	DB	031H
	DB	0a7H
	DB	031H
	DB	0a7H
	DB	029H
	DB	0a7H
	DB	029H
	DB	0a7H
	DB	029H
	DB	0a7H
	DB	031H
	DB	0a7H
	DB	029H
	DB	0a7H
	DB	029H
	DB	0a7H
	DB	029H
	DB	0a7H
	DB	031H
	DB	0a7H
	DB	031H
	DB	0a7H
	DB	031H
	DB	0a7H
	DB	029H
	DB	086H
	DB	029H
	DB	0a7H
	DB	029H
	DB	0c7H
	DB	031H
	DB	0a7H
	DB	031H
	DB	0a7H
	DB	029H
	DB	0a7H
	DB	029H
	DB	086H
	DB	029H
	DB	0a7H
	DB	029H
	DB	0a7H
	DB	031H
	DB	0a6H
	DB	029H
	DB	0a7H
	DB	031H
	DB	086H
	DB	029H
	DB	086H
	DB	029H
	DB	0a7H
	DB	031H
	DB	0a7H
	DB	031H
	DB	0a6H
	DB	029H
	DB	086H
	DB	029H
	DB	0a7H
	DB	029H
	DB	0a7H
	DB	031H
	DB	0a7H
	DB	031H
	DB	0a7H
	DB	029H
	DB	0a7H
	DB	031H
	DB	087H
	DB	029H
	DB	0a7H
	DB	031H
	DB	0c7H
	DB	031H
	DB	087H
	DB	029H
	DB	087H
	DB	029H
	DB	086H
	DB	029H
	DB	086H
	DB	029H
	DB	0a7H
	DB	031H
	DB	0a7H
	DB	031H
	DB	086H
	DB	029H
	DB	0a7H
	DB	031H
	DB	0a7H
	DB	031H
	DB	0a7H
	DB	031H
	DB	0a7H
	DB	029H
	DB	086H
	DB	029H
	DB	0a7H
	DB	031H
	DB	0a6H
	DB	029H
	DB	0a7H
	DB	031H
	DB	0a7H
	DB	029H
	DB	0a7H
	DB	029H
	DB	086H
	DB	029H
	DB	087H
	DB	029H
	DB	0a7H
	DB	031H
	DB	0a7H
	DB	031H
	DB	087H
	DB	029H
	DB	0a7H
	DB	029H
	DB	0a7H
	DB	031H
	DB	0a6H
	DB	029H
	DB	0a7H
	DB	031H
	DB	0a7H
	DB	031H
	DB	087H
	DB	029H
	DB	0a6H
	DB	029H
	DB	086H
	DB	029H
	DB	0a7H
	DB	031H
	DB	0a7H
	DB	031H
	DB	0a6H
	DB	029H
	DB	086H
	DB	029H
	DB	086H
	DB	029H
	DB	0a7H
	DB	031H
	DB	0a7H
	DB	031H
	DB	087H
	DB	031H
	DB	086H
	DB	029H
	DB	086H
	DB	029H
	DB	087H
	DB	029H
	DB	0a7H
	DB	031H
	DB	086H
	DB	029H
	DB	086H
	DB	029H
	DB	0a7H
	DB	029H
	DB	086H
	DB	029H
	DB	087H
	DB	029H
	DB	0a6H
	DB	029H
	DB	086H
	DB	029H
	DB	087H
	DB	029H
	DB	086H
	DB	029H
	DB	086H
	DB	029H
	DB	087H
	DB	031H
	DB	086H
	DB	029H
	DB	086H
	DB	029H
	DB	086H
	DB	029H
	DB	086H
	DB	029H
	DB	0a7H
	DB	031H
	DB	087H
	DB	031H
	DB	086H
	DB	029H
	DB	086H
	DB	029H
	DB	086H
	DB	029H
	DB	087H
	DB	029H
	DB	087H
	DB	029H
	DB	086H
	DB	029H
	DB	0a7H
	DB	029H
	DB	066H
	DB	029H
	DB	086H
	DB	029H
	DB	0a7H
	DB	031H
	DB	086H
	DB	029H
	DB	086H
	DB	029H
	DB	086H
	DB	029H
	DB	086H
	DB	029H
	DB	086H
	DB	029H
	DB	086H
	DB	029H
	DB	086H
	DB	029H
	DB	087H
	DB	031H
	DB	066H
	DB	029H
	DB	0a7H
	DB	029H
	DB	086H
	DB	029H
	DB	086H
	DB	029H
	DB	086H
	DB	029H
	DB	066H
	DB	029H
	DB	086H
	DB	029H
	DB	086H
	DB	029H
	DB	086H
	DB	029H
	DB	066H
	DB	029H
	DB	066H
	DB	029H
	DB	086H
	DB	029H
	DB	086H
	DB	029H
	DB	087H
	DB	029H
	DB	066H
	DB	029H
	DB	086H
	DB	029H
	DB	066H
	DB	029H
	DB	086H
	DB	029H
	DB	086H
	DB	029H
	DB	086H
	DB	029H
	DB	066H
	DB	029H
	DB	066H
	DB	029H
	DB	066H
	DB	029H
	DB	087H
	DB	029H
	DB	086H
	DB	029H
	DB	066H
	DB	029H
	DB	066H
	DB	029H
	DB	066H
	DB	029H
	DB	086H
	DB	029H
	DB	066H
	DB	029H
	DB	045H
	DB	021H
	DB	045H
	DB	021H
	DB	066H
	DB	029H
	DB	086H
	DB	029H
	DB	0a7H
	DB	029H
	DB	086H
	DB	029H
	DB	087H
	DB	029H
	DB	0c7H
	DB	031H
	DB	0c7H
	DB	031H
	DB	0c7H
	DB	031H
	DB	087H
	DB	029H
	DB	086H
	DB	029H
	DB	0a7H
	DB	031H
	DB	0a7H
	DB	029H
	DB	0a7H
	DB	029H
	DB	0a7H
	DB	031H
	DB	086H
	DB	029H
	DB	0a7H
	DB	029H
	DB	0a7H
	DB	031H
	DB	0a7H
	DB	029H
	DB	0a7H
	DB	031H
	DB	0a7H
	DB	029H
	DB	086H
	DB	029H
	DB	0a7H
	DB	031H
	DB	0a7H
	DB	031H
	DB	0c7H
	DB	031H
	DB	0a7H
	DB	031H
	DB	086H
	DB	029H
	DB	0a7H
	DB	029H
	DB	0a7H
	DB	031H
	DB	0a7H
	DB	031H
	DB	0a7H
	DB	031H
	DB	0a7H
	DB	029H
	DB	0a7H
	DB	029H
	DB	0a7H
	DB	031H
	DB	0a7H
	DB	029H
	DB	0a7H
	DB	029H
	DB	086H
	DB	029H
	DB	087H
	DB	029H
	DB	0a7H
	DB	031H
	DB	0a7H
	DB	031H
	DB	0a7H
	DB	031H
	DB	0a7H
	DB	031H
	DB	0a6H
	DB	029H
	DB	0a7H
	DB	031H
	DB	087H
	DB	029H
	DB	0a7H
	DB	031H
	DB	0a7H
	DB	031H
	DB	086H
	DB	029H
	DB	087H
	DB	029H
	DB	0a7H
	DB	031H
	DB	0c7H
	DB	031H
	DB	0c7H
	DB	031H
	DB	086H
	DB	029H
	DB	086H
	DB	029H
	DB	0a7H
	DB	029H
	DB	086H
	DB	029H
	DB	0c7H
	DB	031H
	DB	087H
	DB	029H
	DB	086H
	DB	029H
	DB	0a7H
	DB	031H
	DB	0a7H
	DB	031H
	DB	0a7H
	DB	031H
	DB	0a7H
	DB	031H
	DB	086H
	DB	029H
	DB	086H
	DB	029H
	DB	0a7H
	DB	031H
	DB	0a6H
	DB	029H
	DB	0a7H
	DB	031H
	DB	086H
	DB	029H
	DB	086H
	DB	029H
	DB	0a7H
	DB	031H
	DB	0c7H
	DB	031H
	DB	0a7H
	DB	031H
	DB	0a7H
	DB	029H
	DB	066H
	DB	029H
	DB	087H
	DB	031H
	DB	0a7H
	DB	029H
	DB	086H
	DB	029H
	DB	0a7H
	DB	031H
	DB	086H
	DB	029H
	DB	086H
	DB	029H
	DB	0a7H
	DB	031H
	DB	0a7H
	DB	029H
	DB	0a7H
	DB	031H
	DB	086H
	DB	029H
	DB	086H
	DB	029H
	DB	086H
	DB	029H
	DB	086H
	DB	029H
	DB	0a7H
	DB	031H
	DB	086H
	DB	029H
	DB	066H
	DB	029H
	DB	086H
	DB	029H
	DB	0a7H
	DB	031H
	DB	087H
	DB	029H
	DB	0a6H
	DB	029H
	DB	066H
	DB	029H
	DB	086H
	DB	029H
	DB	086H
	DB	029H
	DB	087H
	DB	029H
	DB	0a7H
	DB	029H
	DB	066H
	DB	029H
	DB	066H
	DB	029H
	DB	0a7H
	DB	029H
	DB	0a7H
	DB	031H
	DB	0a7H
	DB	031H
	DB	087H
	DB	029H
	DB	066H
	DB	029H
	DB	086H
	DB	029H
	DB	086H
	DB	029H
	DB	086H
	DB	029H
	DB	087H
	DB	029H
	DB	066H
	DB	029H
	DB	086H
	DB	029H
	DB	086H
	DB	029H
	DB	087H
	DB	031H
	DB	0a7H
	DB	031H
	DB	086H
	DB	029H
	DB	066H
	DB	029H
	DB	086H
	DB	029H
	DB	086H
	DB	029H
	DB	0a7H
	DB	031H
	DB	086H
	DB	029H
	DB	066H
	DB	029H
	DB	086H
	DB	029H
	DB	087H
	DB	029H
	DB	087H
	DB	029H
	DB	0a6H
	DB	029H
	DB	086H
	DB	029H
	DB	086H
	DB	029H
	DB	086H
	DB	029H
	DB	086H
	DB	029H
	DB	086H
	DB	029H
	DB	066H
	DB	029H
	DB	066H
	DB	029H
	DB	086H
	DB	029H
	DB	086H
	DB	029H
	DB	086H
	DB	029H
	DB	066H
	DB	029H
	DB	066H
	DB	021H
	DB	086H
	DB	029H
	DB	087H
	DB	029H
	DB	087H
	DB	031H
	DB	086H
	DB	029H
	DB	066H
	DB	029H
	DB	066H
	DB	029H
	DB	086H
	DB	029H
	DB	086H
	DB	029H
	DB	086H
	DB	029H
	DB	066H
	DB	029H
	DB	045H
	DB	021H
	DB	066H
	DB	029H
	DB	046H
	DB	029H
	DB	045H
	DB	021H
	DB	066H
	DB	029H
	DB	087H
	DB	031H
	DB	0a7H
	DB	029H
	DB	0a6H
	DB	031H
	DB	087H
	DB	029H
	DB	0a7H
	DB	029H
	DB	0a7H
	DB	031H
	DB	0a7H
	DB	031H
	DB	0a7H
	DB	029H
	DB	0a7H
	DB	029H
	DB	086H
	DB	029H
	DB	0a7H
	DB	031H
	DB	0a7H
	DB	031H
	DB	0a7H
	DB	031H
	DB	0a7H
	DB	031H
	DB	066H
	DB	029H
	DB	0a6H
	DB	029H
	DB	0c7H
	DB	031H
	DB	0a7H
	DB	031H
	DB	0a7H
	DB	031H
	DB	086H
	DB	029H
	DB	086H
	DB	029H
	DB	0c7H
	DB	031H
	DB	0c7H
	DB	031H
	DB	0a7H
	DB	031H
	DB	0a7H
	DB	031H
	DB	066H
	DB	029H
	DB	0c7H
	DB	031H
	DB	0a7H
	DB	031H
	DB	0a7H
	DB	029H
	DB	0a7H
	DB	031H
	DB	086H
	DB	029H
	DB	087H
	DB	029H
	DB	0c7H
	DB	031H
	DB	0a7H
	DB	031H
	DB	087H
	DB	029H
	DB	086H
	DB	029H
	DB	086H
	DB	029H
	DB	0c7H
	DB	031H
	DB	0a7H
	DB	029H
	DB	0a7H
	DB	029H
	DB	0a6H
	DB	029H
	DB	066H
	DB	029H
	DB	0c7H
	DB	031H
	DB	0c7H
	DB	031H
	DB	0a7H
	DB	031H
	DB	087H
	DB	029H
	DB	086H
	DB	029H
	DB	0a7H
	DB	031H
	DB	0c7H
	DB	031H
	DB	0a7H
	DB	029H
	DB	0a7H
	DB	031H
	DB	086H
	DB	029H
	DB	086H
	DB	029H
	DB	0c7H
	DB	031H
	DB	0a7H
	DB	031H
	DB	0a7H
	DB	031H
	DB	087H
	DB	029H
	DB	086H
	DB	029H
	DB	0a7H
	DB	031H
	DB	0a7H
	DB	031H
	DB	086H
	DB	029H
	DB	0a7H
	DB	029H
	DB	086H
	DB	029H
	DB	0a7H
	DB	031H
	DB	0c7H
	DB	031H
	DB	086H
	DB	029H
	DB	087H
	DB	029H
	DB	066H
	DB	029H
	DB	086H
	DB	029H
	DB	0c7H
	DB	031H
	DB	087H
	DB	029H
	DB	0a7H
	DB	029H
	DB	086H
	DB	029H
	DB	066H
	DB	029H
	DB	0c7H
	DB	031H
	DB	0a7H
	DB	031H
	DB	087H
	DB	029H
	DB	086H
	DB	029H
	DB	086H
	DB	029H
	DB	086H
	DB	029H
	DB	0a7H
	DB	031H
	DB	087H
	DB	029H
	DB	086H
	DB	029H
	DB	086H
	DB	029H
	DB	086H
	DB	029H
	DB	0a7H
	DB	031H
	DB	0a7H
	DB	031H
	DB	086H
	DB	029H
	DB	086H
	DB	029H
	DB	066H
	DB	029H
	DB	0a7H
	DB	031H
	DB	0a7H
	DB	031H
	DB	086H
	DB	029H
	DB	0a6H
	DB	029H
	DB	066H
	DB	029H
	DB	086H
	DB	029H
	DB	0a7H
	DB	031H
	DB	086H
	DB	029H
	DB	0a7H
	DB	029H
	DB	066H
	DB	029H
	DB	086H
	DB	029H
	DB	0a7H
	DB	031H
	DB	086H
	DB	029H
	DB	086H
	DB	029H
	DB	086H
	DB	029H
	DB	066H
	DB	029H
	DB	0a7H
	DB	031H
	DB	087H
	DB	029H
	DB	086H
	DB	029H
	DB	087H
	DB	029H
	DB	066H
	DB	029H
	DB	086H
	DB	029H
	DB	0a7H
	DB	031H
	DB	086H
	DB	029H
	DB	086H
	DB	029H
	DB	086H
	DB	029H
	DB	066H
	DB	029H
	DB	0a7H
	DB	031H
	DB	0a6H
	DB	029H
	DB	087H
	DB	029H
	DB	086H
	DB	029H
	DB	066H
	DB	029H
	DB	086H
	DB	029H
	DB	0a7H
	DB	031H
	DB	066H
	DB	029H
	DB	086H
	DB	029H
	DB	066H
	DB	029H
	DB	086H
	DB	029H
	DB	0a7H
	DB	031H
	DB	086H
	DB	029H
	DB	086H
	DB	029H
	DB	066H
	DB	029H
	DB	066H
	DB	029H
	DB	086H
	DB	029H
	DB	086H
	DB	029H
	DB	066H
	DB	029H
	DB	066H
	DB	029H
	DB	046H
	DB	029H
	DB	086H
	DB	029H
	DB	086H
	DB	029H
	DB	086H
	DB	029H
	DB	066H
	DB	029H
	DB	066H
	DB	029H
	DB	086H
	DB	029H
	DB	087H
	DB	029H
	DB	086H
	DB	029H
	DB	066H
	DB	029H
	DB	066H
	DB	029H
	DB	045H
	DB	021H
	DB	066H
	DB	029H
	DB	045H
	DB	021H
	DB	065H
	DB	021H
	DB	066H
	DB	029H
	DB	0a7H
	DB	031H
	DB	0a6H
	DB	029H
	DB	087H
	DB	029H
	DB	0a7H
	DB	031H
	DB	086H
	DB	029H
	DB	0a7H
	DB	031H
	DB	0a7H
	DB	031H
	DB	0a7H
	DB	031H
	DB	0a7H
	DB	029H
	DB	086H
	DB	029H
	DB	0a7H
	DB	031H
	DB	0a7H
	DB	031H
	DB	0a7H
	DB	029H
	DB	0a6H
	DB	029H
	DB	087H
	DB	029H
	DB	0a7H
	DB	031H
	DB	0a7H
	DB	031H
	DB	0a7H
	DB	031H
	DB	0a7H
	DB	031H
	DB	0a7H
	DB	029H
	DB	087H
	DB	029H
	DB	0c7H
	DB	031H
	DB	0a7H
	DB	031H
	DB	086H
	DB	029H
	DB	0c7H
	DB	031H
	DB	087H
	DB	029H
	DB	0a7H
	DB	029H
	DB	0a7H
	DB	031H
	DB	0a6H
	DB	029H
	DB	087H
	DB	029H
	DB	086H
	DB	029H
	DB	0a7H
	DB	031H
	DB	0c7H
	DB	031H
	DB	0a7H
	DB	031H
	DB	0a7H
	DB	031H
	DB	0a7H
	DB	031H
	DB	086H
	DB	029H
	DB	0a7H
	DB	031H
	DB	0a7H
	DB	031H
	DB	0a7H
	DB	031H
	DB	0c7H
	DB	031H
	DB	086H
	DB	029H
	DB	0a7H
	DB	029H
	DB	0a7H
	DB	031H
	DB	086H
	DB	029H
	DB	0c7H
	DB	031H
	DB	0a7H
	DB	031H
	DB	086H
	DB	029H
	DB	0a7H
	DB	031H
	DB	0a7H
	DB	031H
	DB	0a7H
	DB	031H
	DB	0a7H
	DB	031H
	DB	086H
	DB	029H
	DB	0a7H
	DB	031H
	DB	0a7H
	DB	029H
	DB	0a7H
	DB	029H
	DB	0a6H
	DB	029H
	DB	066H
	DB	029H
	DB	0a7H
	DB	029H
	DB	0a7H
	DB	031H
	DB	0a7H
	DB	031H
	DB	0a7H
	DB	031H
	DB	086H
	DB	029H
	DB	087H
	DB	029H
	DB	0a7H
	DB	031H
	DB	0a7H
	DB	029H
	DB	0a7H
	DB	029H
	DB	086H
	DB	029H
	DB	086H
	DB	029H
	DB	0a7H
	DB	031H
	DB	087H
	DB	029H
	DB	0a6H
	DB	029H
	DB	0a7H
	DB	029H
	DB	086H
	DB	029H
	DB	086H
	DB	029H
	DB	0a7H
	DB	031H
	DB	0a7H
	DB	029H
	DB	0a7H
	DB	031H
	DB	086H
	DB	029H
	DB	086H
	DB	029H
	DB	0a7H
	DB	031H
	DB	086H
	DB	029H
	DB	0a7H
	DB	031H
	DB	0a7H
	DB	029H
	DB	066H
	DB	029H
	DB	0a7H
	DB	031H
	DB	0a7H
	DB	029H
	DB	066H
	DB	029H
	DB	0a7H
	DB	029H
	DB	066H
	DB	029H
	DB	0a7H
	DB	029H
	DB	0a7H
	DB	031H
	DB	086H
	DB	029H
	DB	087H
	DB	029H
	DB	086H
	DB	029H
	DB	086H
	DB	029H
	DB	0a7H
	DB	031H
	DB	087H
	DB	029H
	DB	086H
	DB	029H
	DB	086H
	DB	029H
	DB	066H
	DB	029H
	DB	0a7H
	DB	029H
	DB	086H
	DB	029H
	DB	087H
	DB	029H
	DB	087H
	DB	031H
	DB	086H
	DB	029H
	DB	086H
	DB	029H
	DB	086H
	DB	029H
	DB	066H
	DB	029H
	DB	0a7H
	DB	029H
	DB	086H
	DB	029H
	DB	086H
	DB	029H
	DB	087H
	DB	029H
	DB	086H
	DB	029H
	DB	087H
	DB	029H
	DB	086H
	DB	029H
	DB	066H
	DB	029H
	DB	086H
	DB	029H
	DB	086H
	DB	029H
	DB	087H
	DB	029H
	DB	086H
	DB	029H
	DB	066H
	DB	029H
	DB	086H
	DB	029H
	DB	086H
	DB	029H
	DB	066H
	DB	029H
	DB	086H
	DB	029H
	DB	066H
	DB	029H
	DB	066H
	DB	029H
	DB	0a7H
	DB	029H
	DB	066H
	DB	029H
	DB	066H
	DB	029H
	DB	087H
	DB	029H
	DB	066H
	DB	029H
	DB	086H
	DB	029H
	DB	086H
	DB	029H
	DB	066H
	DB	029H
	DB	086H
	DB	029H
	DB	066H
	DB	029H
	DB	066H
	DB	029H
	DB	0a7H
	DB	029H
	DB	066H
	DB	029H
	DB	086H
	DB	029H
	DB	066H
	DB	029H
	DB	066H
	DB	029H
	DB	086H
	DB	029H
	DB	066H
	DB	029H
	DB	086H
	DB	029H
	DB	066H
	DB	029H
	DB	045H
	DB	021H
	DB	045H
	DB	021H
	DB	066H
	DB	029H
	DB	066H
	DB	029H
	DB	086H
	DB	029H
	DB	0a6H
	DB	029H
	DB	0a7H
	DB	031H
	DB	0a7H
	DB	031H
	DB	0a7H
	DB	029H
	DB	086H
	DB	029H
	DB	086H
	DB	029H
	DB	0a7H
	DB	031H
	DB	0a7H
	DB	031H
	DB	086H
	DB	029H
	DB	086H
	DB	029H
	DB	0a7H
	DB	029H
	DB	0a7H
	DB	031H
	DB	0a7H
	DB	031H
	DB	0a7H
	DB	031H
	DB	086H
	DB	029H
	DB	086H
	DB	029H
	DB	0c7H
	DB	031H
	DB	0c7H
	DB	031H
	DB	0a7H
	DB	031H
	DB	0a7H
	DB	029H
	DB	086H
	DB	029H
	DB	0a7H
	DB	031H
	DB	0a7H
	DB	029H
	DB	0a7H
	DB	029H
	DB	0a7H
	DB	031H
	DB	086H
	DB	029H
	DB	086H
	DB	029H
	DB	0a7H
	DB	031H
	DB	0a7H
	DB	031H
	DB	0a7H
	DB	031H
	DB	086H
	DB	029H
	DB	087H
	DB	029H
	DB	0a7H
	DB	031H
	DB	0a7H
	DB	029H
	DB	0a7H
	DB	029H
	DB	0a6H
	DB	029H
	DB	086H
	DB	029H
	DB	0a7H
	DB	031H
	DB	0a7H
	DB	031H
	DB	0a7H
	DB	031H
	DB	087H
	DB	029H
	DB	066H
	DB	029H
	DB	0a7H
	DB	031H
	DB	0a7H
	DB	031H
	DB	0a7H
	DB	031H
	DB	0a7H
	DB	029H
	DB	086H
	DB	029H
	DB	086H
	DB	029H
	DB	0a7H
	DB	031H
	DB	0a7H
	DB	029H
	DB	0a7H
	DB	029H
	DB	086H
	DB	029H
	DB	066H
	DB	029H
	DB	0a7H
	DB	031H
	DB	0a7H
	DB	031H
	DB	0a6H
	DB	029H
	DB	087H
	DB	029H
	DB	086H
	DB	029H
	DB	0a7H
	DB	031H
	DB	0a7H
	DB	031H
	DB	0a7H
	DB	029H
	DB	0a7H
	DB	029H
	DB	086H
	DB	029H
	DB	086H
	DB	029H
	DB	0c7H
	DB	031H
	DB	0a7H
	DB	031H
	DB	087H
	DB	029H
	DB	0a6H
	DB	029H
	DB	066H
	DB	029H
	DB	0a7H
	DB	031H
	DB	087H
	DB	031H
	DB	087H
	DB	031H
	DB	0a7H
	DB	029H
	DB	086H
	DB	029H
	DB	0a6H
	DB	029H
	DB	0a7H
	DB	031H
	DB	0a7H
	DB	031H
	DB	0a7H
	DB	031H
	DB	086H
	DB	029H
	DB	086H
	DB	029H
	DB	0a7H
	DB	031H
	DB	0a7H
	DB	029H
	DB	0a7H
	DB	031H
	DB	086H
	DB	029H
	DB	066H
	DB	029H
	DB	086H
	DB	029H
	DB	086H
	DB	029H
	DB	0a6H
	DB	029H
	DB	086H
	DB	029H
	DB	066H
	DB	029H
	DB	086H
	DB	029H
	DB	087H
	DB	031H
	DB	087H
	DB	031H
	DB	086H
	DB	029H
	DB	066H
	DB	029H
	DB	086H
	DB	029H
	DB	0a7H
	DB	031H
	DB	086H
	DB	029H
	DB	0a7H
	DB	029H
	DB	086H
	DB	029H
	DB	066H
	DB	029H
	DB	086H
	DB	029H
	DB	086H
	DB	029H
	DB	086H
	DB	029H
	DB	086H
	DB	029H
	DB	066H
	DB	029H
	DB	066H
	DB	029H
	DB	086H
	DB	029H
	DB	0a7H
	DB	031H
	DB	087H
	DB	029H
	DB	066H
	DB	029H
	DB	086H
	DB	029H
	DB	087H
	DB	029H
	DB	086H
	DB	029H
	DB	087H
	DB	029H
	DB	086H
	DB	029H
	DB	066H
	DB	029H
	DB	086H
	DB	029H
	DB	087H
	DB	029H
	DB	086H
	DB	029H
	DB	086H
	DB	029H
	DB	066H
	DB	029H
	DB	087H
	DB	029H
	DB	0a7H
	DB	029H
	DB	086H
	DB	029H
	DB	086H
	DB	029H
	DB	066H
	DB	029H
	DB	066H
	DB	029H
	DB	086H
	DB	029H
	DB	086H
	DB	029H
	DB	086H
	DB	029H
	DB	066H
	DB	029H
	DB	066H
	DB	029H
	DB	066H
	DB	029H
	DB	086H
	DB	029H
	DB	086H
	DB	029H
	DB	066H
	DB	029H
	DB	046H
	DB	021H
	DB	066H
	DB	029H
	DB	086H
	DB	029H
	DB	086H
	DB	029H
	DB	066H
	DB	029H
	DB	066H
	DB	029H
	DB	066H
	DB	029H
	DB	086H
	DB	029H
	DB	086H
	DB	029H
	DB	066H
	DB	029H
	DB	045H
	DB	021H
	DB	025H
	DB	021H
	DB	066H
	DB	029H
	DB	066H
	DB	029H
	DB	086H
	DB	029H
	DB	086H
	DB	029H
	DB	0a7H
	DB	031H
	DB	0a7H
	DB	031H
	DB	0a7H
	DB	031H
	DB	0a7H
	DB	031H
	DB	0a6H
	DB	029H
	DB	0a7H
	DB	031H
	DB	0a7H
	DB	031H
	DB	0a7H
	DB	031H
	DB	087H
	DB	029H
	DB	086H
	DB	029H
	DB	0a7H
	DB	031H
	DB	0c7H
	DB	031H
	DB	0a7H
	DB	031H
	DB	0a7H
	DB	029H
	DB	066H
	DB	029H
	DB	0a7H
	DB	031H
	DB	0c7H
	DB	031H
	DB	0a7H
	DB	029H
	DB	0a7H
	DB	031H
	DB	087H
	DB	029H
	DB	0a7H
	DB	031H
	DB	0a7H
	DB	031H
	DB	0a7H
	DB	031H
	DB	0c7H
	DB	031H
	DB	086H
	DB	029H
	DB	086H
	DB	029H
	DB	0a7H
	DB	031H
	DB	0c7H
	DB	031H
	DB	0a7H
	DB	029H
	DB	086H
	DB	029H
	DB	086H
	DB	029H
	DB	086H
	DB	029H
	DB	0a7H
	DB	031H
	DB	0a7H
	DB	029H
	DB	0a7H
	DB	031H
	DB	0a7H
	DB	031H
	DB	086H
	DB	029H
	DB	0a7H
	DB	031H
	DB	0a7H
	DB	029H
	DB	086H
	DB	029H
	DB	086H
	DB	029H
	DB	086H
	DB	029H
	DB	0a7H
	DB	031H
	DB	0a7H
	DB	029H
	DB	086H
	DB	029H
	DB	0a7H
	DB	029H
	DB	087H
	DB	029H
	DB	086H
	DB	029H
	DB	0a7H
	DB	031H
	DB	0a7H
	DB	031H
	DB	087H
	DB	029H
	DB	086H
	DB	029H
	DB	086H
	DB	029H
	DB	0a7H
	DB	031H
	DB	0a7H
	DB	031H
	DB	0a7H
	DB	031H
	DB	086H
	DB	029H
	DB	086H
	DB	029H
	DB	087H
	DB	029H
	DB	0a7H
	DB	031H
	DB	0a7H
	DB	031H
	DB	0a7H
	DB	031H
	DB	086H
	DB	029H
	DB	086H
	DB	029H
	DB	0a7H
	DB	031H
	DB	0a6H
	DB	029H
	DB	087H
	DB	029H
	DB	086H
	DB	029H
	DB	086H
	DB	029H
	DB	0c7H
	DB	031H
	DB	086H
	DB	029H
	DB	0a7H
	DB	031H
	DB	086H
	DB	029H
	DB	066H
	DB	029H
	DB	0a7H
	DB	031H
	DB	0a7H
	DB	031H
	DB	086H
	DB	029H
	DB	0a7H
	DB	029H
	DB	086H
	DB	029H
	DB	086H
	DB	029H
	DB	0a7H
	DB	031H
	DB	087H
	DB	029H
	DB	0a6H
	DB	029H
	DB	0a7H
	DB	031H
	DB	086H
	DB	029H
	DB	0a7H
	DB	031H
	DB	087H
	DB	031H
	DB	0a7H
	DB	031H
	DB	086H
	DB	029H
	DB	086H
	DB	029H
	DB	0a7H
	DB	031H
	DB	0c7H
	DB	031H
	DB	087H
	DB	029H
	DB	086H
	DB	029H
	DB	086H
	DB	029H
	DB	066H
	DB	029H
	DB	0a7H
	DB	031H
	DB	087H
	DB	029H
	DB	087H
	DB	029H
	DB	086H
	DB	029H
	DB	086H
	DB	029H
	DB	087H
	DB	029H
	DB	0a7H
	DB	029H
	DB	0a6H
	DB	029H
	DB	086H
	DB	029H
	DB	066H
	DB	029H
	DB	0a7H
	DB	031H
	DB	0a7H
	DB	031H
	DB	086H
	DB	029H
	DB	066H
	DB	029H
	DB	066H
	DB	029H
	DB	086H
	DB	029H
	DB	0a7H
	DB	031H
	DB	086H
	DB	029H
	DB	086H
	DB	029H
	DB	066H
	DB	029H
	DB	066H
	DB	029H
	DB	0a7H
	DB	031H
	DB	086H
	DB	029H
	DB	086H
	DB	029H
	DB	066H
	DB	029H
	DB	066H
	DB	029H
	DB	086H
	DB	029H
	DB	086H
	DB	029H
	DB	086H
	DB	029H
	DB	086H
	DB	029H
	DB	066H
	DB	029H
	DB	066H
	DB	029H
	DB	087H
	DB	029H
	DB	086H
	DB	029H
	DB	086H
	DB	029H
	DB	066H
	DB	021H
	DB	046H
	DB	021H
	DB	086H
	DB	029H
	DB	086H
	DB	029H
	DB	066H
	DB	029H
	DB	066H
	DB	029H
	DB	045H
	DB	021H
	DB	086H
	DB	029H
	DB	086H
	DB	029H
	DB	086H
	DB	029H
	DB	086H
	DB	029H
	DB	046H
	DB	021H
	DB	066H
	DB	029H
	DB	086H
	DB	029H
	DB	066H
	DB	029H
	DB	045H
	DB	021H
	DB	025H
	DB	021H
	DB	066H
	DB	029H
	DB	086H
	DB	029H
	DB	087H
	DB	029H
	DB	086H
	DB	029H
	DB	086H
	DB	029H
	DB	0a7H
	DB	031H
	DB	086H
	DB	029H
	DB	0a7H
	DB	031H
	DB	0a7H
	DB	031H
	DB	086H
	DB	029H
	DB	0c7H
	DB	031H
	DB	087H
	DB	029H
	DB	0a6H
	DB	029H
	DB	087H
	DB	029H
	DB	086H
	DB	029H
	DB	0a7H
	DB	031H
	DB	0a7H
	DB	031H
	DB	0a7H
	DB	029H
	DB	0a7H
	DB	031H
	DB	086H
	DB	029H
	DB	087H
	DB	029H
	DB	0a7H
	DB	031H
	DB	0a6H
	DB	029H
	DB	0c7H
	DB	031H
	DB	0a7H
	DB	029H
	DB	086H
	DB	029H
	DB	0c7H
	DB	031H
	DB	087H
	DB	031H
	DB	0a7H
	DB	029H
	DB	087H
	DB	029H
	DB	086H
	DB	029H
	DB	0a7H
	DB	031H
	DB	0a7H
	DB	031H
	DB	0a7H
	DB	031H
	DB	0a7H
	DB	031H
	DB	087H
	DB	029H
	DB	0a7H
	DB	031H
	DB	0c7H
	DB	031H
	DB	086H
	DB	029H
	DB	0a7H
	DB	031H
	DB	087H
	DB	029H
	DB	086H
	DB	029H
	DB	0a7H
	DB	031H
	DB	0a7H
	DB	031H
	DB	0a7H
	DB	031H
	DB	0a7H
	DB	029H
	DB	086H
	DB	029H
	DB	0a7H
	DB	031H
	DB	0a7H
	DB	031H
	DB	087H
	DB	029H
	DB	0a7H
	DB	029H
	DB	0a6H
	DB	029H
	DB	087H
	DB	029H
	DB	0a7H
	DB	031H
	DB	086H
	DB	029H
	DB	0a7H
	DB	031H
	DB	0a7H
	DB	029H
	DB	086H
	DB	029H
	DB	0a7H
	DB	031H
	DB	0a7H
	DB	029H
	DB	0a7H
	DB	031H
	DB	086H
	DB	029H
	DB	086H
	DB	029H
	DB	0a7H
	DB	029H
	DB	086H
	DB	029H
	DB	086H
	DB	029H
	DB	0a7H
	DB	029H
	DB	066H
	DB	029H
	DB	087H
	DB	029H
	DB	0a7H
	DB	031H
	DB	086H
	DB	029H
	DB	087H
	DB	031H
	DB	086H
	DB	029H
	DB	086H
	DB	029H
	DB	0c7H
	DB	031H
	DB	087H
	DB	029H
	DB	087H
	DB	031H
	DB	0a7H
	DB	031H
	DB	086H
	DB	029H
	DB	086H
	DB	029H
	DB	087H
	DB	029H
	DB	086H
	DB	029H
	DB	087H
	DB	029H
	DB	086H
	DB	029H
	DB	086H
	DB	029H
	DB	087H
	DB	031H
	DB	066H
	DB	029H
	DB	0a7H
	DB	029H
	DB	0a7H
	DB	029H
	DB	066H
	DB	029H
	DB	0a7H
	DB	031H
	DB	086H
	DB	029H
	DB	086H
	DB	029H
	DB	087H
	DB	029H
	DB	086H
	DB	029H
	DB	0a6H
	DB	029H
	DB	086H
	DB	029H
	DB	086H
	DB	029H
	DB	0a7H
	DB	031H
	DB	066H
	DB	029H
	DB	086H
	DB	029H
	DB	0a6H
	DB	029H
	DB	086H
	DB	029H
	DB	087H
	DB	031H
	DB	087H
	DB	029H
	DB	086H
	DB	029H
	DB	086H
	DB	031H
	DB	086H
	DB	029H
	DB	087H
	DB	029H
	DB	086H
	DB	029H
	DB	066H
	DB	029H
	DB	086H
	DB	029H
	DB	086H
	DB	029H
	DB	086H
	DB	029H
	DB	086H
	DB	029H
	DB	066H
	DB	029H
	DB	086H
	DB	029H
	DB	086H
	DB	029H
	DB	066H
	DB	029H
	DB	086H
	DB	029H
	DB	086H
	DB	029H
	DB	066H
	DB	029H
	DB	0a7H
	DB	029H
	DB	086H
	DB	029H
	DB	066H
	DB	029H
	DB	086H
	DB	029H
	DB	066H
	DB	029H
	DB	066H
	DB	029H
	DB	087H
	DB	029H
	DB	087H
	DB	029H
	DB	086H
	DB	029H
	DB	066H
	DB	029H
	DB	066H
	DB	029H
	DB	086H
	DB	029H
	DB	086H
	DB	029H
	DB	087H
	DB	029H
	DB	066H
	DB	029H
	DB	066H
	DB	029H
	DB	0a7H
	DB	029H
	DB	086H
	DB	029H
	DB	086H
	DB	029H
	DB	086H
	DB	029H
	DB	046H
	DB	029H
	DB	066H
	DB	029H
	DB	086H
	DB	029H
	DB	086H
	DB	029H
	DB	066H
	DB	029H
	DB	066H
	DB	029H
	DB	066H
	DB	029H
	DB	066H
	DB	029H
	DB	066H
	DB	029H
	DB	045H
	DB	021H
	DB	066H
	DB	029H
	DB	086H
	DB	029H
	DB	086H
	DB	029H
	DB	0a7H
	DB	031H
	DB	086H
	DB	029H
	DB	0a7H
	DB	029H
	DB	0c7H
	DB	031H
	DB	0a7H
	DB	029H
	DB	0a7H
	DB	031H
	DB	087H
	DB	029H
	DB	066H
	DB	029H
	DB	0a7H
	DB	031H
	DB	0a7H
	DB	031H
	DB	0a7H
	DB	031H
	DB	0a6H
	DB	029H
	DB	086H
	DB	029H
	DB	086H
	DB	029H
	DB	0c7H
	DB	031H
	DB	0a7H
	DB	031H
	DB	0a7H
	DB	029H
	DB	086H
	DB	029H
	DB	086H
	DB	029H
	DB	0a7H
	DB	031H
	DB	0a7H
	DB	031H
	DB	087H
	DB	031H
	DB	0a6H
	DB	029H
	DB	086H
	DB	029H
	DB	0a7H
	DB	031H
	DB	0a7H
	DB	031H
	DB	0a7H
	DB	031H
	DB	0a7H
	DB	029H
	DB	066H
	DB	029H
	DB	0c7H
	DB	031H
	DB	0e7H
	DB	031H
	DB	087H
	DB	029H
	DB	0a7H
	DB	031H
	DB	086H
	DB	029H
	DB	086H
	DB	029H
	DB	0c7H
	DB	031H
	DB	087H
	DB	029H
	DB	0a7H
	DB	029H
	DB	087H
	DB	029H
	DB	066H
	DB	029H
	DB	0c7H
	DB	031H
	DB	0a7H
	DB	031H
	DB	0a7H
	DB	029H
	DB	0a7H
	DB	029H
	DB	066H
	DB	029H
	DB	0a7H
	DB	031H
	DB	0c7H
	DB	031H
	DB	086H
	DB	029H
	DB	0a7H
	DB	031H
	DB	086H
	DB	029H
	DB	086H
	DB	029H
	DB	0c7H
	DB	031H
	DB	087H
	DB	029H
	DB	0a7H
	DB	029H
	DB	086H
	DB	029H
	DB	086H
	DB	029H
	DB	0c7H
	DB	031H
	DB	0a7H
	DB	031H
	DB	087H
	DB	029H
	DB	0a6H
	DB	029H
	DB	066H
	DB	029H
	DB	0a7H
	DB	031H
	DB	0c7H
	DB	031H
	DB	0a6H
	DB	029H
	DB	0a7H
	DB	031H
	DB	086H
	DB	029H
	DB	086H
	DB	029H
	DB	0a7H
	DB	031H
	DB	0a7H
	DB	031H
	DB	086H
	DB	029H
	DB	086H
	DB	029H
	DB	087H
	DB	029H
	DB	0c7H
	DB	031H
	DB	0a7H
	DB	031H
	DB	086H
	DB	029H
	DB	0a7H
	DB	029H
	DB	066H
	DB	029H
	DB	066H
	DB	029H
	DB	0a7H
	DB	031H
	DB	086H
	DB	029H
	DB	086H
	DB	029H
	DB	086H
	DB	029H
	DB	0a7H
	DB	029H
	DB	0a7H
	DB	031H
	DB	086H
	DB	029H
	DB	086H
	DB	029H
	DB	086H
	DB	029H
	DB	066H
	DB	029H
	DB	0a7H
	DB	029H
	DB	087H
	DB	029H
	DB	086H
	DB	029H
	DB	087H
	DB	031H
	DB	066H
	DB	029H
	DB	066H
	DB	029H
	DB	0a7H
	DB	031H
	DB	0a7H
	DB	029H
	DB	087H
	DB	029H
	DB	066H
	DB	029H
	DB	066H
	DB	029H
	DB	0a7H
	DB	031H
	DB	087H
	DB	031H
	DB	086H
	DB	029H
	DB	066H
	DB	029H
	DB	066H
	DB	029H
	DB	087H
	DB	031H
	DB	0a7H
	DB	029H
	DB	086H
	DB	029H
	DB	086H
	DB	029H
	DB	066H
	DB	029H
	DB	086H
	DB	029H
	DB	087H
	DB	031H
	DB	086H
	DB	029H
	DB	086H
	DB	029H
	DB	086H
	DB	029H
	DB	066H
	DB	029H
	DB	087H
	DB	029H
	DB	086H
	DB	029H
	DB	066H
	DB	029H
	DB	066H
	DB	029H
	DB	066H
	DB	021H
	DB	086H
	DB	029H
	DB	086H
	DB	029H
	DB	066H
	DB	029H
	DB	086H
	DB	029H
	DB	066H
	DB	021H
	DB	086H
	DB	029H
	DB	0a7H
	DB	031H
	DB	086H
	DB	029H
	DB	086H
	DB	029H
	DB	066H
	DB	029H
	DB	066H
	DB	029H
	DB	0a7H
	DB	029H
	DB	086H
	DB	029H
	DB	086H
	DB	029H
	DB	086H
	DB	029H
	DB	046H
	DB	029H
	DB	086H
	DB	029H
	DB	086H
	DB	029H
	DB	087H
	DB	029H
	DB	086H
	DB	029H
	DB	045H
	DB	021H
	DB	066H
	DB	029H
	DB	0a7H
	DB	031H
	DB	086H
	DB	029H
	DB	066H
	DB	029H
	DB	045H
	DB	021H
	DB	045H
	DB	021H
	DB	066H
	DB	029H
	DB	045H
	DB	021H
	DB	066H
	DB	021H
	DB	066H
	DB	029H
	DB	087H
	DB	029H
	DB	0a7H
	DB	031H
	DB	087H
	DB	029H
	DB	086H
	DB	029H
	DB	0a7H
	DB	029H
	DB	0a7H
	DB	031H
	DB	0a7H
	DB	029H
	DB	0a7H
	DB	031H
	DB	086H
	DB	029H
	DB	086H
	DB	029H
	DB	0a7H
	DB	031H
	DB	0a7H
	DB	031H
	DB	0a6H
	DB	029H
	DB	087H
	DB	029H
	DB	087H
	DB	029H
	DB	0a7H
	DB	031H
	DB	0c7H
	DB	031H
	DB	087H
	DB	029H
	DB	0a7H
	DB	031H
	DB	0a7H
	DB	031H
	DB	0a7H
	DB	029H
	DB	0a7H
	DB	031H
	DB	087H
	DB	029H
	DB	0a7H
	DB	029H
	DB	086H
	DB	029H
	DB	086H
	DB	029H
	DB	0c7H
	DB	031H
	DB	0a7H
	DB	031H
	DB	086H
	DB	029H
	DB	086H
	DB	029H
	DB	086H
	DB	029H
	DB	0a7H
	DB	031H
	DB	0c7H
	DB	031H
	DB	0a7H
	DB	031H
	DB	0a7H
	DB	031H
	DB	086H
	DB	029H
	DB	087H
	DB	029H
	DB	0c7H
	DB	031H
	DB	0a7H
	DB	031H
	DB	087H
	DB	031H
	DB	086H
	DB	029H
	DB	086H
	DB	029H
	DB	0a7H
	DB	031H
	DB	0a7H
	DB	031H
	DB	086H
	DB	029H
	DB	086H
	DB	029H
	DB	086H
	DB	029H
	DB	0a7H
	DB	031H
	DB	0a7H
	DB	031H
	DB	086H
	DB	029H
	DB	086H
	DB	029H
	DB	0a7H
	DB	029H
	DB	0a7H
	DB	031H
	DB	0a7H
	DB	031H
	DB	086H
	DB	029H
	DB	086H
	DB	029H
	DB	087H
	DB	029H
	DB	086H
	DB	029H
	DB	0a7H
	DB	031H
	DB	0a7H
	DB	031H
	DB	086H
	DB	029H
	DB	086H
	DB	029H
	DB	086H
	DB	029H
	DB	0a7H
	DB	031H
	DB	0a7H
	DB	031H
	DB	087H
	DB	029H
	DB	086H
	DB	029H
	DB	086H
	DB	029H
	DB	087H
	DB	029H
	DB	0a7H
	DB	031H
	DB	086H
	DB	029H
	DB	086H
	DB	029H
	DB	087H
	DB	029H
	DB	086H
	DB	029H
	DB	0a7H
	DB	031H
	DB	086H
	DB	029H
	DB	086H
	DB	029H
	DB	0a7H
	DB	031H
	DB	086H
	DB	029H
	DB	0a7H
	DB	029H
	DB	0a7H
	DB	031H
	DB	066H
	DB	029H
	DB	086H
	DB	029H
	DB	0a7H
	DB	031H
	DB	086H
	DB	029H
	DB	0a7H
	DB	031H
	DB	0a6H
	DB	029H
	DB	066H
	DB	029H
	DB	066H
	DB	029H
	DB	086H
	DB	029H
	DB	0a7H
	DB	029H
	DB	086H
	DB	029H
	DB	086H
	DB	029H
	DB	086H
	DB	029H
	DB	086H
	DB	029H
	DB	0a7H
	DB	029H
	DB	0a7H
	DB	029H
	DB	066H
	DB	029H
	DB	086H
	DB	029H
	DB	086H
	DB	029H
	DB	066H
	DB	029H
	DB	0a7H
	DB	029H
	DB	086H
	DB	029H
	DB	086H
	DB	029H
	DB	086H
	DB	029H
	DB	066H
	DB	029H
	DB	087H
	DB	029H
	DB	0a7H
	DB	031H
	DB	086H
	DB	029H
	DB	086H
	DB	029H
	DB	066H
	DB	029H
	DB	086H
	DB	029H
	DB	087H
	DB	029H
	DB	086H
	DB	029H
	DB	066H
	DB	029H
	DB	066H
	DB	029H
	DB	066H
	DB	029H
	DB	086H
	DB	029H
	DB	086H
	DB	029H
	DB	086H
	DB	029H
	DB	066H
	DB	029H
	DB	066H
	DB	029H
	DB	086H
	DB	029H
	DB	086H
	DB	029H
	DB	086H
	DB	029H
	DB	066H
	DB	029H
	DB	066H
	DB	029H
	DB	086H
	DB	029H
	DB	087H
	DB	029H
	DB	086H
	DB	029H
	DB	086H
	DB	029H
	DB	066H
	DB	029H
	DB	066H
	DB	029H
	DB	086H
	DB	029H
	DB	086H
	DB	029H
	DB	066H
	DB	029H
	DB	066H
	DB	029H
	DB	066H
	DB	029H
	DB	086H
	DB	029H
	DB	086H
	DB	029H
	DB	086H
	DB	029H
	DB	086H
	DB	029H
	DB	066H
	DB	029H
	DB	066H
	DB	029H
	DB	086H
	DB	029H
	DB	066H
	DB	029H
	DB	066H
	DB	021H
	DB	045H
	DB	021H
	DB	045H
	DB	021H
	DB	045H
	DB	021H
	DB	066H
	DB	029H
	DB	045H
	DB	021H
	DB	086H
	DB	029H
	DB	0a7H
	DB	031H
	DB	0a7H
	DB	031H
	DB	0a7H
	DB	031H
	DB	086H
	DB	029H
	DB	086H
	DB	029H
	DB	0a7H
	DB	031H
	DB	0a7H
	DB	031H
	DB	0a7H
	DB	031H
	DB	0a6H
	DB	029H
	DB	086H
	DB	029H
	DB	0a7H
	DB	031H
	DB	0c7H
	DB	031H
	DB	0a7H
	DB	031H
	DB	0a7H
	DB	029H
	DB	086H
	DB	029H
	DB	0a7H
	DB	029H
	DB	0c7H
	DB	031H
	DB	0a7H
	DB	031H
	DB	0a7H
	DB	031H
	DB	086H
	DB	029H
	DB	0a6H
	DB	029H
	DB	0c7H
	DB	031H
	DB	087H
	DB	029H
	DB	0a7H
	DB	031H
	DB	0a7H
	DB	029H
	DB	086H
	DB	029H
	DB	0a6H
	DB	029H
	DB	086H
	DB	029H
	DB	0a7H
	DB	031H
	DB	0a7H
	DB	031H
	DB	066H
	DB	029H
	DB	087H
	DB	029H
	DB	0c7H
	DB	031H
	DB	0a7H
	DB	031H
	DB	087H
	DB	029H
	DB	086H
	DB	029H
	DB	086H
	DB	029H
	DB	0a7H
	DB	031H
	DB	0a7H
	DB	031H
	DB	0a7H
	DB	029H
	DB	0a6H
	DB	029H
	DB	086H
	DB	029H
	DB	087H
	DB	029H
	DB	087H
	DB	029H
	DB	0a7H
	DB	031H
	DB	0a7H
	DB	029H
	DB	086H
	DB	029H
	DB	0a7H
	DB	031H
	DB	0a7H
	DB	031H
	DB	0a7H
	DB	031H
	DB	0a7H
	DB	031H
	DB	086H
	DB	029H
	DB	0a6H
	DB	029H
	DB	0a7H
	DB	031H
	DB	0c7H
	DB	031H
	DB	087H
	DB	029H
	DB	086H
	DB	029H
	DB	086H
	DB	029H
	DB	0a7H
	DB	031H
	DB	087H
	DB	029H
	DB	0a7H
	DB	031H
	DB	087H
	DB	029H
	DB	066H
	DB	029H
	DB	087H
	DB	031H
	DB	0a7H
	DB	031H
	DB	086H
	DB	029H
	DB	086H
	DB	029H
	DB	086H
	DB	029H
	DB	0a7H
	DB	031H
	DB	0a7H
	DB	031H
	DB	086H
	DB	029H
	DB	087H
	DB	029H
	DB	086H
	DB	029H
	DB	066H
	DB	029H
	DB	086H
	DB	029H
	DB	0a7H
	DB	031H
	DB	0a7H
	DB	031H
	DB	087H
	DB	029H
	DB	086H
	DB	029H
	DB	0a6H
	DB	029H
	DB	086H
	DB	029H
	DB	066H
	DB	029H
	DB	087H
	DB	029H
	DB	086H
	DB	029H
	DB	066H
	DB	029H
	DB	0a7H
	DB	031H
	DB	0a7H
	DB	031H
	DB	087H
	DB	029H
	DB	066H
	DB	029H
	DB	086H
	DB	029H
	DB	087H
	DB	031H
	DB	0a7H
	DB	029H
	DB	0a7H
	DB	029H
	DB	087H
	DB	029H
	DB	086H
	DB	029H
	DB	066H
	DB	029H
	DB	086H
	DB	029H
	DB	086H
	DB	029H
	DB	0a7H
	DB	029H
	DB	066H
	DB	029H
	DB	066H
	DB	029H
	DB	086H
	DB	029H
	DB	086H
	DB	029H
	DB	086H
	DB	029H
	DB	066H
	DB	029H
	DB	066H
	DB	029H
	DB	086H
	DB	029H
	DB	087H
	DB	031H
	DB	0a7H
	DB	029H
	DB	086H
	DB	029H
	DB	066H
	DB	029H
	DB	086H
	DB	029H
	DB	087H
	DB	029H
	DB	086H
	DB	029H
	DB	086H
	DB	029H
	DB	086H
	DB	029H
	DB	086H
	DB	029H
	DB	0a7H
	DB	029H
	DB	086H
	DB	031H
	DB	086H
	DB	029H
	DB	086H
	DB	029H
	DB	066H
	DB	029H
	DB	086H
	DB	029H
	DB	087H
	DB	031H
	DB	087H
	DB	029H
	DB	066H
	DB	029H
	DB	066H
	DB	029H
	DB	086H
	DB	029H
	DB	0a7H
	DB	031H
	DB	087H
	DB	029H
	DB	086H
	DB	029H
	DB	046H
	DB	029H
	DB	066H
	DB	029H
	DB	066H
	DB	029H
	DB	066H
	DB	029H
	DB	086H
	DB	029H
	DB	066H
	DB	029H
	DB	066H
	DB	029H
	DB	086H
	DB	029H
	DB	086H
	DB	029H
	DB	087H
	DB	029H
	DB	066H
	DB	029H
	DB	066H
	DB	021H
	DB	066H
	DB	029H
	DB	086H
	DB	029H
	DB	086H
	DB	029H
	DB	066H
	DB	029H
	DB	025H
	DB	021H
	DB	025H
	DB	021H
	DB	066H
	DB	029H
	DB	066H
	DB	029H
	DB	066H
	DB	029H
	DB	0a6H
	DB	029H
	DB	0a7H
	DB	031H
	DB	0a7H
	DB	029H
	DB	087H
	DB	029H
	DB	086H
	DB	029H
	DB	0a7H
	DB	031H
	DB	0c7H
	DB	031H
	DB	0a7H
	DB	031H
	DB	0a7H
	DB	029H
	DB	086H
	DB	029H
	DB	087H
	DB	029H
	DB	0c7H
	DB	031H
	DB	0a7H
	DB	031H
	DB	0a7H
	DB	031H
	DB	087H
	DB	029H
	DB	086H
	DB	029H
	DB	0a7H
	DB	031H
	DB	0a7H
	DB	031H
	DB	0a7H
	DB	029H
	DB	0c7H
	DB	031H
	DB	086H
	DB	029H
	DB	0a7H
	DB	031H
	DB	0c7H
	DB	031H
	DB	0c7H
	DB	031H
	DB	0a7H
	DB	031H
	DB	087H
	DB	029H
	DB	086H
	DB	029H
	DB	0c7H
	DB	031H
	DB	0a7H
	DB	031H
	DB	0a7H
	DB	029H
	DB	086H
	DB	029H
	DB	086H
	DB	029H
	DB	0a7H
	DB	031H
	DB	0a7H
	DB	031H
	DB	086H
	DB	029H
	DB	0a7H
	DB	031H
	DB	086H
	DB	029H
	DB	0a7H
	DB	029H
	DB	0a7H
	DB	031H
	DB	0a7H
	DB	029H
	DB	0a7H
	DB	031H
	DB	0a7H
	DB	029H
	DB	086H
	DB	029H
	DB	0a7H
	DB	031H
	DB	0a7H
	DB	031H
	DB	0a7H
	DB	031H
	DB	0a7H
	DB	031H
	DB	0a6H
	DB	029H
	DB	0a7H
	DB	031H
	DB	0a7H
	DB	031H
	DB	0a6H
	DB	029H
	DB	086H
	DB	029H
	DB	086H
	DB	029H
	DB	087H
	DB	029H
	DB	0c7H
	DB	031H
	DB	0a7H
	DB	031H
	DB	0a7H
	DB	031H
	DB	086H
	DB	029H
	DB	086H
	DB	029H
	DB	0a7H
	DB	031H
	DB	0c7H
	DB	031H
	DB	0a7H
	DB	029H
	DB	066H
	DB	029H
	DB	066H
	DB	021H
	DB	0a7H
	DB	031H
	DB	0a7H
	DB	031H
	DB	087H
	DB	029H
	DB	0a7H
	DB	031H
	DB	086H
	DB	029H
	DB	087H
	DB	029H
	DB	0a7H
	DB	031H
	DB	0a7H
	DB	031H
	DB	0a7H
	DB	031H
	DB	086H
	DB	029H
	DB	086H
	DB	029H
	DB	0a7H
	DB	031H
	DB	0a7H
	DB	029H
	DB	0a7H
	DB	029H
	DB	086H
	DB	029H
	DB	046H
	DB	029H
	DB	0a7H
	DB	031H
	DB	0a7H
	DB	031H
	DB	086H
	DB	029H
	DB	086H
	DB	029H
	DB	066H
	DB	029H
	DB	086H
	DB	029H
	DB	0c7H
	DB	031H
	DB	087H
	DB	029H
	DB	0a6H
	DB	029H
	DB	066H
	DB	029H
	DB	086H
	DB	029H
	DB	0a7H
	DB	031H
	DB	087H
	DB	031H
	DB	086H
	DB	029H
	DB	066H
	DB	029H
	DB	066H
	DB	029H
	DB	0a7H
	DB	031H
	DB	0a7H
	DB	031H
	DB	086H
	DB	029H
	DB	086H
	DB	029H
	DB	066H
	DB	029H
	DB	066H
	DB	029H
	DB	0a7H
	DB	031H
	DB	086H
	DB	029H
	DB	087H
	DB	029H
	DB	086H
	DB	029H
	DB	086H
	DB	029H
	DB	087H
	DB	031H
	DB	0a6H
	DB	029H
	DB	086H
	DB	029H
	DB	066H
	DB	029H
	DB	066H
	DB	029H
	DB	0a7H
	DB	031H
	DB	087H
	DB	029H
	DB	086H
	DB	029H
	DB	086H
	DB	029H
	DB	046H
	DB	029H
	DB	066H
	DB	029H
	DB	0a7H
	DB	029H
	DB	066H
	DB	029H
	DB	086H
	DB	029H
	DB	066H
	DB	029H
	DB	046H
	DB	021H
	DB	086H
	DB	029H
	DB	086H
	DB	029H
	DB	086H
	DB	029H
	DB	086H
	DB	029H
	DB	066H
	DB	029H
	DB	086H
	DB	029H
	DB	0a6H
	DB	029H
	DB	066H
	DB	029H
	DB	086H
	DB	029H
	DB	066H
	DB	029H
	DB	066H
	DB	029H
	DB	086H
	DB	029H
	DB	066H
	DB	029H
	DB	086H
	DB	029H
	DB	066H
	DB	029H
	DB	066H
	DB	029H
	DB	087H
	DB	029H
	DB	086H
	DB	029H
	DB	066H
	DB	029H
	DB	046H
	DB	029H
	DB	045H
	DB	021H
	DB	066H
	DB	029H
	DB	086H
	DB	029H
	DB	045H
	DB	029H
	DB	045H
	DB	021H
	DB	025H
	DB	021H
	DB	066H
	DB	029H
	DB	086H
	DB	029H
	DB	086H
	DB	029H
	DB	066H
	DB	029H
	DB	086H
	DB	029H
	DB	0a7H
	DB	031H
	DB	0a7H
	DB	031H
	DB	0a7H
	DB	031H
	DB	0a7H
	DB	031H
	DB	0a7H
	DB	029H
	DB	0a7H
	DB	031H
	DB	087H
	DB	029H
	DB	0a7H
	DB	031H
	DB	0a7H
	DB	029H
	DB	086H
	DB	029H
	DB	0a7H
	DB	031H
	DB	0c7H
	DB	031H
	DB	0a7H
	DB	031H
	DB	0a7H
	DB	031H
	DB	086H
	DB	029H
	DB	0a7H
	DB	029H
	DB	0c7H
	DB	031H
	DB	0a7H
	DB	031H
	DB	087H
	DB	029H
	DB	086H
	DB	029H
	DB	0a7H
	DB	031H
	DB	0c7H
	DB	031H
	DB	0a7H
	DB	031H
	DB	0a7H
	DB	031H
	DB	0a7H
	DB	031H
	DB	0a7H
	DB	031H
	DB	0a7H
	DB	031H
	DB	087H
	DB	029H
	DB	0a7H
	DB	029H
	DB	0a7H
	DB	031H
	DB	086H
	DB	029H
	DB	0a7H
	DB	029H
	DB	0a7H
	DB	031H
	DB	0a7H
	DB	031H
	DB	0a7H
	DB	031H
	DB	086H
	DB	029H
	DB	086H
	DB	029H
	DB	0a7H
	DB	031H
	DB	086H
	DB	029H
	DB	086H
	DB	029H
	DB	086H
	DB	029H
	DB	086H
	DB	029H
	DB	0a7H
	DB	031H
	DB	086H
	DB	029H
	DB	0a7H
	DB	029H
	DB	0c7H
	DB	031H
	DB	086H
	DB	029H
	DB	087H
	DB	029H
	DB	0a7H
	DB	029H
	DB	087H
	DB	029H
	DB	0a7H
	DB	031H
	DB	0a7H
	DB	029H
	DB	086H
	DB	029H
	DB	0a7H
	DB	031H
	DB	0a7H
	DB	029H
	DB	087H
	DB	029H
	DB	086H
	DB	029H
	DB	086H
	DB	029H
	DB	0a7H
	DB	031H
	DB	0c7H
	DB	031H
	DB	086H
	DB	029H
	DB	086H
	DB	029H
	DB	086H
	DB	029H
	DB	086H
	DB	029H
	DB	0a7H
	DB	031H
	DB	086H
	DB	029H
	DB	0a7H
	DB	029H
	DB	066H
	DB	029H
	DB	086H
	DB	029H
	DB	0c7H
	DB	031H
	DB	086H
	DB	029H
	DB	0a7H
	DB	029H
	DB	0a7H
	DB	029H
	DB	066H
	DB	029H
	DB	086H
	DB	029H
	DB	0a7H
	DB	031H
	DB	086H
	DB	029H
	DB	086H
	DB	029H
	DB	086H
	DB	029H
	DB	087H
	DB	029H
	DB	0a7H
	DB	029H
	DB	086H
	DB	029H
	DB	0a7H
	DB	031H
	DB	086H
	DB	029H
	DB	086H
	DB	029H
	DB	0a7H
	DB	031H
	DB	086H
	DB	029H
	DB	087H
	DB	029H
	DB	086H
	DB	029H
	DB	086H
	DB	029H
	DB	0a6H
	DB	029H
	DB	086H
	DB	029H
	DB	086H
	DB	029H
	DB	0a7H
	DB	029H
	DB	086H
	DB	029H
	DB	086H
	DB	029H
	DB	086H
	DB	029H
	DB	066H
	DB	029H
	DB	086H
	DB	029H
	DB	086H
	DB	029H
	DB	086H
	DB	029H
	DB	087H
	DB	029H
	DB	086H
	DB	029H
	DB	0a7H
	DB	031H
	DB	086H
	DB	029H
	DB	066H
	DB	029H
	DB	086H
	DB	029H
	DB	086H
	DB	029H
	DB	066H
	DB	029H
	DB	066H
	DB	029H
	DB	086H
	DB	029H
	DB	086H
	DB	029H
	DB	086H
	DB	029H
	DB	066H
	DB	029H
	DB	066H
	DB	029H
	DB	086H
	DB	029H
	DB	066H
	DB	029H
	DB	086H
	DB	029H
	DB	066H
	DB	029H
	DB	086H
	DB	029H
	DB	086H
	DB	029H
	DB	066H
	DB	029H
	DB	066H
	DB	029H
	DB	086H
	DB	029H
	DB	086H
	DB	029H
	DB	066H
	DB	029H
	DB	066H
	DB	029H
	DB	066H
	DB	029H
	DB	086H
	DB	029H
	DB	066H
	DB	029H
	DB	086H
	DB	029H
	DB	066H
	DB	029H
	DB	066H
	DB	029H
	DB	086H
	DB	029H
	DB	066H
	DB	029H
	DB	086H
	DB	029H
	DB	066H
	DB	029H
	DB	066H
	DB	029H
	DB	086H
	DB	029H
	DB	086H
	DB	029H
	DB	086H
	DB	029H
	DB	086H
	DB	029H
	DB	066H
	DB	021H
	DB	066H
	DB	029H
	DB	066H
	DB	029H
	DB	045H
	DB	021H
	DB	045H
	DB	021H
	DB	066H
	DB	029H
	DB	086H
	DB	029H
	DB	0a7H
	DB	029H
	DB	086H
	DB	029H
	DB	086H
	DB	029H
	DB	0a7H
	DB	031H
	DB	0c7H
	DB	031H
	DB	086H
	DB	029H
	DB	0a7H
	DB	029H
	DB	086H
	DB	029H
	DB	086H
	DB	029H
	DB	0a7H
	DB	031H
	DB	0c7H
	DB	031H
	DB	0a7H
	DB	031H
	DB	087H
	DB	029H
	DB	086H
	DB	029H
	DB	0a7H
	DB	031H
	DB	0a7H
	DB	029H
	DB	0a7H
	DB	031H
	DB	0a7H
	DB	031H
	DB	086H
	DB	029H
	DB	087H
	DB	029H
	DB	0c7H
	DB	031H
	DB	0a7H
	DB	031H
	DB	0a7H
	DB	031H
	DB	086H
	DB	029H
	DB	086H
	DB	029H
	DB	0c7H
	DB	031H
	DB	0c7H
	DB	031H
	DB	0a7H
	DB	031H
	DB	086H
	DB	029H
	DB	086H
	DB	029H
	DB	0a7H
	DB	029H
	DB	0c7H
	DB	031H
	DB	0a7H
	DB	031H
	DB	0a7H
	DB	029H
	DB	086H
	DB	029H
	DB	0a7H
	DB	029H
	DB	0c7H
	DB	031H
	DB	0a7H
	DB	031H
	DB	086H
	DB	029H
	DB	086H
	DB	029H
	DB	0a7H
	DB	029H
	DB	0a7H
	DB	031H
	DB	087H
	DB	031H
	DB	0a7H
	DB	029H
	DB	086H
	DB	029H
	DB	086H
	DB	029H
	DB	087H
	DB	029H
	DB	0a7H
	DB	031H
	DB	0a7H
	DB	031H
	DB	086H
	DB	029H
	DB	086H
	DB	029H
	DB	087H
	DB	031H
	DB	0c7H
	DB	031H
	DB	0a7H
	DB	031H
	DB	087H
	DB	031H
	DB	086H
	DB	029H
	DB	086H
	DB	029H
	DB	0a7H
	DB	031H
	DB	0a7H
	DB	031H
	DB	087H
	DB	029H
	DB	086H
	DB	029H
	DB	086H
	DB	029H
	DB	0a7H
	DB	031H
	DB	0a7H
	DB	031H
	DB	086H
	DB	029H
	DB	086H
	DB	029H
	DB	086H
	DB	029H
	DB	087H
	DB	029H
	DB	087H
	DB	031H
	DB	0a6H
	DB	029H
	DB	086H
	DB	029H
	DB	066H
	DB	029H
	DB	086H
	DB	029H
	DB	0a7H
	DB	029H
	DB	0a7H
	DB	031H
	DB	087H
	DB	031H
	DB	086H
	DB	029H
	DB	066H
	DB	029H
	DB	086H
	DB	029H
	DB	0a7H
	DB	031H
	DB	0a7H
	DB	031H
	DB	086H
	DB	029H
	DB	066H
	DB	029H
	DB	086H
	DB	029H
	DB	0a7H
	DB	031H
	DB	0a7H
	DB	029H
	DB	0a7H
	DB	029H
	DB	066H
	DB	029H
	DB	087H
	DB	029H
	DB	0a7H
	DB	031H
	DB	0a7H
	DB	029H
	DB	086H
	DB	031H
	DB	086H
	DB	029H
	DB	066H
	DB	029H
	DB	086H
	DB	029H
	DB	0c7H
	DB	031H
	DB	087H
	DB	031H
	DB	066H
	DB	029H
	DB	066H
	DB	029H
	DB	086H
	DB	029H
	DB	0a7H
	DB	029H
	DB	087H
	DB	029H
	DB	086H
	DB	029H
	DB	066H
	DB	029H
	DB	066H
	DB	029H
	DB	086H
	DB	029H
	DB	086H
	DB	029H
	DB	087H
	DB	029H
	DB	086H
	DB	029H
	DB	066H
	DB	029H
	DB	087H
	DB	029H
	DB	086H
	DB	029H
	DB	086H
	DB	029H
	DB	066H
	DB	029H
	DB	066H
	DB	029H
	DB	066H
	DB	029H
	DB	0a7H
	DB	031H
	DB	0a7H
	DB	029H
	DB	086H
	DB	029H
	DB	066H
	DB	029H
	DB	066H
	DB	029H
	DB	087H
	DB	029H
	DB	0a7H
	DB	031H
	DB	0a7H
	DB	031H
	DB	066H
	DB	029H
	DB	066H
	DB	029H
	DB	086H
	DB	029H
	DB	086H
	DB	029H
	DB	066H
	DB	029H
	DB	086H
	DB	029H
	DB	066H
	DB	029H
	DB	066H
	DB	029H
	DB	086H
	DB	029H
	DB	066H
	DB	029H
	DB	086H
	DB	021H
	DB	066H
	DB	021H
	DB	046H
	DB	021H
	DB	066H
	DB	029H
	DB	086H
	DB	029H
	DB	086H
	DB	029H
	DB	066H
	DB	029H
	DB	045H
	DB	021H
	DB	066H
	DB	029H
	DB	087H
	DB	031H
	DB	086H
	DB	029H
	DB	066H
	DB	029H
	DB	045H
	DB	021H
	DB	045H
	DB	029H
	DB	046H
	DB	029H
	DB	045H
	DB	021H
	DB	045H
	DB	021H
	DB	086H
	DB	029H
	DB	0a7H
	DB	031H
	DB	0a7H
	DB	031H
	DB	086H
	DB	029H
	DB	086H
	DB	029H
	DB	0a7H
	DB	031H
	DB	0a7H
	DB	031H
	DB	0a7H
	DB	029H
	DB	086H
	DB	029H
	DB	086H
	DB	029H
	DB	086H
	DB	029H
	DB	0a7H
	DB	031H
	DB	0a7H
	DB	031H
	DB	0a7H
	DB	031H
	DB	086H
	DB	029H
	DB	086H
	DB	029H
	DB	0a7H
	DB	031H
	DB	0a7H
	DB	029H
	DB	086H
	DB	029H
	DB	086H
	DB	029H
	DB	086H
	DB	029H
	DB	0a7H
	DB	031H
	DB	0c7H
	DB	031H
	DB	0a7H
	DB	029H
	DB	087H
	DB	029H
	DB	087H
	DB	029H
	DB	0a7H
	DB	029H
	DB	0a7H
	DB	031H
	DB	0a7H
	DB	029H
	DB	087H
	DB	029H
	DB	066H
	DB	029H
	DB	086H
	DB	029H
	DB	0a7H
	DB	031H
	DB	0a7H
	DB	031H
	DB	0a7H
	DB	031H
	DB	086H
