; Listing generated by Microsoft (R) Optimizing Compiler Version 19.00.24210.0 

	TITLE	C:\MyFiles\SoftwareTeam\Technologies_Boards\Graphic\TouchGFX\Scope\Project\Oscilloscope\Graphic\generated\texts\src\LanguageGb.cpp
	.686P
	.XMM
	include listing.inc
	.model	flat

INCLUDELIB MSVCRTD
INCLUDELIB OLDNAMES

PUBLIC	?textsGb@@3QBQBGB				; textsGb
CONST	SEGMENT
?T_chn1_Gb@@3QBGB DW 043H				; T_chn1_Gb
	DW	068H
	DW	061H
	DW	06eH
	DW	06eH
	DW	065H
	DW	06cH
	DW	020H
	DW	031H
	DW	00H
?T_chn2_Gb@@3QBGB DW 043H				; T_chn2_Gb
	DW	068H
	DW	061H
	DW	06eH
	DW	06eH
	DW	065H
	DW	06cH
	DW	020H
	DW	032H
	DW	00H
?T_trgTextLabel_Gb@@3QBGB DW 054H			; T_trgTextLabel_Gb
	DW	072H
	DW	069H
	DW	067H
	DW	067H
	DW	065H
	DW	072H
	DW	020H
	DW	04dH
	DW	065H
	DW	06eH
	DW	075H
	DW	00H
	ORG $+2
?T_trgText_Gb@@3QBGB DW 054H				; T_trgText_Gb
	DW	072H
	DW	069H
	DW	067H
	DW	067H
	DW	065H
	DW	072H
	DW	00H
?T_fallText_Gb@@3QBGB DW 045H				; T_fallText_Gb
	DW	064H
	DW	067H
	DW	065H
	DW	00H
	ORG $+2
?T_horizontalTxt_Gb@@3QBGB DW 048H			; T_horizontalTxt_Gb
	DW	06fH
	DW	072H
	DW	069H
	DW	07aH
	DW	06fH
	DW	06eH
	DW	074H
	DW	061H
	DW	06cH
	DW	00H
	ORG $+2
?T_verticalTxT_Gb@@3QBGB DW 056H			; T_verticalTxT_Gb
	DW	065H
	DW	072H
	DW	074H
	DW	069H
	DW	076H
	DW	061H
	DW	06cH
	DW	00H
	ORG $+2
?T_100us_Gb@@3QBGB DW 031H				; T_100us_Gb
	DW	030H
	DW	030H
	DW	020H
	DW	075H
	DW	073H
	DW	00H
	ORG $+2
?T_200us_Gb@@3QBGB DW 032H				; T_200us_Gb
	DW	030H
	DW	030H
	DW	020H
	DW	075H
	DW	073H
	DW	00H
	ORG $+2
?T_500us_Gb@@3QBGB DW 035H				; T_500us_Gb
	DW	030H
	DW	030H
	DW	020H
	DW	075H
	DW	073H
	DW	00H
	ORG $+2
?T_1ms_Gb@@3QBGB DW 031H				; T_1ms_Gb
	DW	020H
	DW	06dH
	DW	073H
	DW	00H
	ORG $+2
?T_2ms_Gb@@3QBGB DW 032H				; T_2ms_Gb
	DW	020H
	DW	06dH
	DW	073H
	DW	00H
	ORG $+2
?T_5ms_Gb@@3QBGB DW 035H				; T_5ms_Gb
	DW	020H
	DW	06dH
	DW	073H
	DW	00H
	ORG $+2
?T_10ms_Gb@@3QBGB DW 031H				; T_10ms_Gb
	DW	030H
	DW	020H
	DW	06dH
	DW	073H
	DW	00H
?T_20ms_Gb@@3QBGB DW 032H				; T_20ms_Gb
	DW	030H
	DW	020H
	DW	06dH
	DW	073H
	DW	00H
?T_50ms_Gb@@3QBGB DW 035H				; T_50ms_Gb
	DW	030H
	DW	020H
	DW	06dH
	DW	073H
	DW	00H
?T_100ms_Gb@@3QBGB DW 031H				; T_100ms_Gb
	DW	030H
	DW	030H
	DW	020H
	DW	06dH
	DW	073H
	DW	00H
	ORG $+2
?T_200ms_Gb@@3QBGB DW 032H				; T_200ms_Gb
	DW	030H
	DW	030H
	DW	020H
	DW	06dH
	DW	073H
	DW	00H
	ORG $+2
?T_500ms_Gb@@3QBGB DW 035H				; T_500ms_Gb
	DW	030H
	DW	030H
	DW	020H
	DW	06dH
	DW	073H
	DW	00H
	ORG $+2
?T_50us_Gb@@3QBGB DW 035H				; T_50us_Gb
	DW	030H
	DW	020H
	DW	075H
	DW	053H
	DW	00H
?T_10mv_Gb@@3QBGB DW 031H				; T_10mv_Gb
	DW	030H
	DW	020H
	DW	06dH
	DW	056H
	DW	00H
?T_20mv_Gb@@3QBGB DW 032H				; T_20mv_Gb
	DW	030H
	DW	020H
	DW	06dH
	DW	056H
	DW	00H
?T_50mv_Gb@@3QBGB DW 035H				; T_50mv_Gb
	DW	030H
	DW	020H
	DW	06dH
	DW	056H
	DW	00H
?T_100mv_Gb@@3QBGB DW 031H				; T_100mv_Gb
	DW	030H
	DW	030H
	DW	020H
	DW	06dH
	DW	056H
	DW	00H
	ORG $+2
?T_200mv_Gb@@3QBGB DW 032H				; T_200mv_Gb
	DW	030H
	DW	030H
	DW	020H
	DW	06dH
	DW	056H
	DW	00H
	ORG $+2
?T_500mv_Gb@@3QBGB DW 035H				; T_500mv_Gb
	DW	030H
	DW	030H
	DW	020H
	DW	06dH
	DW	056H
	DW	00H
	ORG $+2
?T_1V_Gb@@3QBGB DW 031H					; T_1V_Gb
	DW	020H
	DW	056H
	DW	00H
?T_2V_Gb@@3QBGB DW 032H					; T_2V_Gb
	DW	020H
	DW	056H
	DW	00H
?T_markerTxTLabel_Gb@@3QBGB DW 04dH			; T_markerTxTLabel_Gb
	DW	061H
	DW	072H
	DW	06bH
	DW	065H
	DW	072H
	DW	00H
	ORG $+2
?T_markerA_Gb@@3QBGB DW 04dH				; T_markerA_Gb
	DW	061H
	DW	072H
	DW	06bH
	DW	065H
	DW	072H
	DW	020H
	DW	041H
	DW	00H
	ORG $+2
?T_markerB_Gb@@3QBGB DW 04dH				; T_markerB_Gb
	DW	061H
	DW	072H
	DW	06bH
	DW	065H
	DW	072H
	DW	020H
	DW	042H
	DW	00H
	ORG $+2
?T_position_Gb@@3QBGB DW 050H				; T_position_Gb
	DW	06fH
	DW	073H
	DW	069H
	DW	074H
	DW	069H
	DW	06fH
	DW	06eH
	DW	00H
	ORG $+2
?T_Cursor_Gb@@3QBGB DW 043H				; T_Cursor_Gb
	DW	075H
	DW	072H
	DW	073H
	DW	06fH
	DW	072H
	DW	03aH
	DW	00H
?T_Trig1_level_Gb@@3QBGB DW 054H			; T_Trig1_level_Gb
	DW	072H
	DW	069H
	DW	067H
	DW	020H
	DW	031H
	DW	03aH
	DW	00H
?T_Trig2_level_Gb@@3QBGB DW 054H			; T_Trig2_level_Gb
	DW	072H
	DW	069H
	DW	067H
	DW	020H
	DW	032H
	DW	03aH
	DW	00H
?T_number_small_Gb@@3QBGB DW 031H			; T_number_small_Gb
	DW	032H
	DW	033H
	DW	034H
	DW	035H
	DW	036H
	DW	037H
	DW	038H
	DW	039H
	DW	030H
	DW	02eH
	DW	020H
	DW	03aH
	DW	020H
	DW	02dH
	DW	020H
	DW	02cH
	DW	020H
	DW	00H
	ORG $+2
?T_Trigg2_value_Gb@@3QBGB DW 02H			; T_Trigg2_value_Gb
	DW	00H
?T_chn1_ctrl_menu_Gb@@3QBGB DW 063H			; T_chn1_ctrl_menu_Gb
	DW	068H
	DW	06eH
	DW	031H
	DW	03aH
	DW	00H
?T_chn2_ctrl_menu_Gb@@3QBGB DW 063H			; T_chn2_ctrl_menu_Gb
	DW	068H
	DW	06eH
	DW	032H
	DW	03aH
	DW	020H
	DW	00H
	ORG $+2
?T_stop_ctrl_menu_Gb@@3QBGB DW 073H			; T_stop_ctrl_menu_Gb
	DW	074H
	DW	06fH
	DW	070H
	DW	02fH
	DW	072H
	DW	075H
	DW	06eH
	DW	03aH
	DW	020H
	DW	00H
	ORG $+2
?T_sign_Gb@@3QBGB DW 02eH				; T_sign_Gb
	DW	02cH
	DW	03aH
	DW	03bH
	DW	02dH
	DW	05fH
	DW	00H
	ORG $+2
?textsGb@@3QBQBGB DD FLAT:?T_chn1_Gb@@3QBGB		; textsGb
	DD	FLAT:?T_chn2_Gb@@3QBGB
	DD	FLAT:?T_trgTextLabel_Gb@@3QBGB
	DD	FLAT:?T_markerTxTLabel_Gb@@3QBGB
	DD	FLAT:?T_trgText_Gb@@3QBGB
	DD	FLAT:?T_fallText_Gb@@3QBGB
	DD	FLAT:?T_horizontalTxt_Gb@@3QBGB
	DD	FLAT:?T_verticalTxT_Gb@@3QBGB
	DD	FLAT:?T_100us_Gb@@3QBGB
	DD	FLAT:?T_200us_Gb@@3QBGB
	DD	FLAT:?T_500us_Gb@@3QBGB
	DD	FLAT:?T_1ms_Gb@@3QBGB
	DD	FLAT:?T_2ms_Gb@@3QBGB
	DD	FLAT:?T_5ms_Gb@@3QBGB
	DD	FLAT:?T_10ms_Gb@@3QBGB
	DD	FLAT:?T_20ms_Gb@@3QBGB
	DD	FLAT:?T_50ms_Gb@@3QBGB
	DD	FLAT:?T_100ms_Gb@@3QBGB
	DD	FLAT:?T_200ms_Gb@@3QBGB
	DD	FLAT:?T_500ms_Gb@@3QBGB
	DD	FLAT:?T_50us_Gb@@3QBGB
	DD	FLAT:?T_10mv_Gb@@3QBGB
	DD	FLAT:?T_20mv_Gb@@3QBGB
	DD	FLAT:?T_50mv_Gb@@3QBGB
	DD	FLAT:?T_100mv_Gb@@3QBGB
	DD	FLAT:?T_200mv_Gb@@3QBGB
	DD	FLAT:?T_500mv_Gb@@3QBGB
	DD	FLAT:?T_1V_Gb@@3QBGB
	DD	FLAT:?T_2V_Gb@@3QBGB
	DD	FLAT:?T_markerTxTLabel_Gb@@3QBGB
	DD	FLAT:?T_markerA_Gb@@3QBGB
	DD	FLAT:?T_markerB_Gb@@3QBGB
	DD	FLAT:?T_position_Gb@@3QBGB
	DD	FLAT:?T_trgTextLabel_Gb@@3QBGB+16
	DD	FLAT:?T_Cursor_Gb@@3QBGB
	DD	FLAT:?T_Trig1_level_Gb@@3QBGB
	DD	FLAT:?T_Trig2_level_Gb@@3QBGB
	DD	FLAT:?T_number_small_Gb@@3QBGB
	DD	FLAT:?T_Trigg2_value_Gb@@3QBGB
	DD	FLAT:?T_Trigg2_value_Gb@@3QBGB
	DD	FLAT:?T_Trigg2_value_Gb@@3QBGB
	DD	FLAT:?T_chn1_ctrl_menu_Gb@@3QBGB
	DD	FLAT:?T_chn2_ctrl_menu_Gb@@3QBGB
	DD	FLAT:?T_stop_ctrl_menu_Gb@@3QBGB
	DD	FLAT:?T_sign_Gb@@3QBGB
CONST	ENDS
END
