; Listing generated by Microsoft (R) Optimizing Compiler Version 19.00.24210.0 

	TITLE	C:\MyFiles\SoftwareTeam\Technologies_Boards\Graphic\TouchGFX\Scope\Project\Oscilloscope\Graphic\generated\images\src\left_unpress_1.cpp
	.686P
	.XMM
	include listing.inc
	.model	flat

INCLUDELIB MSVCRTD
INCLUDELIB OLDNAMES

PUBLIC	?_left_unpress_1@@3QBEB				; _left_unpress_1
PUBLIC	?_left_unpress_1_alpha_channel@@3QBEB		; _left_unpress_1_alpha_channel
CONST	SEGMENT
?_left_unpress_1@@3QBEB DB 00H				; _left_unpress_1
	DB	00H
	DB	0dfH
	DB	0ffH
	DB	0dfH
	DB	0ffH
	DB	0dfH
	DB	0ffH
	DB	0ffH
	DB	0ffH
	DB	0ffH
	DB	0ffH
	DB	0ffH
	DB	0ffH
	DB	0ffH
	DB	0ffH
	DB	0ffH
	DB	0ffH
	DB	0ffH
	DB	0ffH
	DB	0ffH
	DB	0ffH
	DB	0ffH
	DB	0ffH
	DB	0ffH
	DB	0ffH
	DB	0ffH
	DB	0ffH
	DB	0ffH
	DB	0ffH
	DB	0ffH
	DB	0ffH
	DB	0ffH
	DB	0ffH
	DB	0ffH
	DB	0ffH
	DB	0ffH
	DB	0ffH
	DB	0ffH
	DB	0ffH
	DB	0ffH
	DB	0ffH
	DB	0ffH
	DB	0ffH
	DB	0ffH
	DB	0ffH
	DB	0ffH
	DB	0ffH
	DB	0ffH
	DB	0ffH
	DB	0ffH
	DB	0ffH
	DB	0ffH
	DB	0ffH
	DB	0ffH
	DB	0ffH
	DB	0ffH
	DB	0ffH
	DB	00H
	DB	00H
	DB	09eH
	DB	0ffH
	DB	0ffH
	DB	0ffH
	DB	0ffH
	DB	0ffH
	DB	0ffH
	DB	0ffH
	DB	0ffH
	DB	0ffH
	DB	0ffH
	DB	0ffH
	DB	0ffH
	DB	0ffH
	DB	0ffH
	DB	0ffH
	DB	0ffH
	DB	0ffH
	DB	0ffH
	DB	0ffH
	DB	0ffH
	DB	0ffH
	DB	0ffH
	DB	0ffH
	DB	0ffH
	DB	0ffH
	DB	0ffH
	DB	0ffH
	DB	0ffH
	DB	0ffH
	DB	0ffH
	DB	0ffH
	DB	0ffH
	DB	0ffH
	DB	0ffH
	DB	0ffH
	DB	0ffH
	DB	0ffH
	DB	0ffH
	DB	0ffH
	DB	0ffH
	DB	0ffH
	DB	0ffH
	DB	0ffH
	DB	0ffH
	DB	0ffH
	DB	0ffH
	DB	0ffH
	DB	0ffH
	DB	0ffH
	DB	0ffH
	DB	0ffH
	DB	0ffH
	DB	0ffH
	DB	0ffH
	DB	0ffH
	DB	0ffH
	DB	0ffH
	DB	0ffH
	DB	0ffH
	DB	0ffH
	DB	0ffH
	DB	0ffH
	DB	0ffH
	DB	0ffH
	DB	0ffH
	DB	0ffH
	DB	0ffH
	DB	03cH
	DB	0f7H
	DB	0d4H
	DB	0e5H
	DB	02cH
	DB	0c4H
	DB	0caH
	DB	0bbH
	DB	0aaH
	DB	0bbH
	DB	068H
	DB	0c3H
	DB	05H
	DB	0c3H
	DB	05H
	DB	0c3H
	DB	05H
	DB	0c3H
	DB	05H
	DB	0c3H
	DB	05H
	DB	0c3H
	DB	05H
	DB	0c3H
	DB	05H
	DB	0bbH
	DB	026H
	DB	0c3H
	DB	0efH
	DB	0dcH
	DB	0f4H
	DB	0e5H
	DB	04cH
	DB	0d4H
	DB	0e5H
	DB	0baH
	DB	05H
	DB	0c3H
	DB	067H
	DB	0c3H
	DB	0b4H
	DB	0e5H
	DB	05cH
	DB	0ffH
	DB	0ffH
	DB	0ffH
	DB	0ffH
	DB	0ffH
	DB	0ffH
	DB	0ffH
	DB	0ffH
	DB	0ffH
	DB	0ffH
	DB	0ffH
	DB	0ffH
	DB	0ffH
	DB	0ffH
	DB	0ffH
	DB	05cH
	DB	0ffH
	DB	010H
	DB	0d5H
	DB	0a5H
	DB	0aaH
	DB	047H
	DB	0b3H
	DB	048H
	DB	0b3H
	DB	048H
	DB	0b3H
	DB	068H
	DB	0b3H
	DB	048H
	DB	0b3H
	DB	06H
	DB	0b3H
	DB	020H
	DB	0b2H
	DB	00H
	DB	0b2H
	DB	020H
	DB	0b2H
	DB	00H
	DB	0b2H
	DB	041H
	DB	0b2H
	DB	0a8H
	DB	0cbH
	DB	05cH
	DB	0ffH
	DB	0ffH
	DB	0ffH
	DB	036H
	DB	0eeH
	DB	067H
	DB	0c3H
	DB	0e0H
	DB	0b1H
	DB	00H
	DB	0b2H
	DB	0e0H
	DB	0b1H
	DB	0ceH
	DB	0d4H
	DB	05cH
	DB	0ffH
	DB	0ffH
	DB	0ffH
	DB	0ffH
	DB	0ffH
	DB	0ffH
	DB	0ffH
	DB	0ffH
	DB	0ffH
	DB	0ffH
	DB	0ffH
	DB	0ffH
	DB	0ffH
	DB	05cH
	DB	0ffH
	DB	0f0H
	DB	0d4H
	DB	083H
	DB	0aaH
	DB	047H
	DB	0b3H
	DB	048H
	DB	0b3H
	DB	047H
	DB	0b3H
	DB	048H
	DB	0b3H
	DB	048H
	DB	0b3H
	DB	047H
	DB	0b3H
	DB	0a3H
	DB	0b2H
	DB	021H
	DB	0b2H
	DB	00H
	DB	0b2H
	DB	00H
	DB	0b2H
	DB	088H
	DB	0cbH
	DB	0beH
	DB	0ffH
	DB	0ffH
	DB	0ffH
	DB	0ffH
	DB	0ffH
	DB	0beH
	DB	0ffH
	DB	0efH
	DB	0dcH
	DB	0c0H
	DB	0b1H
	DB	020H
	DB	0b2H
	DB	0e0H
	DB	0b1H
	DB	08eH
	DB	0d4H
	DB	03bH
	DB	0f7H
	DB	0ffH
	DB	0ffH
	DB	0ffH
	DB	0ffH
	DB	0ffH
	DB	0ffH
	DB	0ffH
	DB	0ffH
	DB	0ffH
	DB	0ffH
	DB	0ffH
	DB	0ffH
	DB	05cH
	DB	0ffH
	DB	0f0H
	DB	0d4H
	DB	083H
	DB	0aaH
	DB	027H
	DB	0b3H
	DB	048H
	DB	0b3H
	DB	048H
	DB	0b3H
	DB	047H
	DB	0b3H
	DB	048H
	DB	0b3H
	DB	048H
	DB	0b3H
	DB	026H
	DB	0b3H
	DB	041H
	DB	0b2H
	DB	0c0H
	DB	0b1H
	DB	02bH
	DB	0ccH
	DB	07dH
	DB	0ffH
	DB	0ffH
	DB	0ffH
	DB	0ffH
	DB	0ffH
	DB	0ffH
	DB	0ffH
	DB	0f5H
	DB	0e5H
	DB	026H
	DB	0c3H
	DB	0e0H
	DB	0b1H
	DB	00H
	DB	0b2H
	DB	0e0H
	DB	0b1H
	DB	0aeH
	DB	0d4H
	DB	03bH
	DB	0ffH
	DB	0ffH
	DB	0ffH
	DB	0ffH
	DB	0ffH
	DB	0ffH
	DB	0ffH
	DB	0ffH
	DB	0ffH
	DB	0ffH
	DB	0ffH
	DB	0ffH
	DB	0ffH
	DB	05cH
	DB	0ffH
	DB	010H
	DB	0d5H
	DB	083H
	DB	0aaH
	DB	027H
	DB	0b3H
	DB	048H
	DB	0bbH
	DB	048H
	DB	0b3H
	DB	047H
	DB	0b3H
	DB	048H
	DB	0b3H
	DB	048H
	DB	0b3H
	DB	048H
	DB	0b3H
	DB	00H
	DB	0b2H
	DB	0c9H
	DB	0cbH
	DB	0b9H
	DB	0f6H
	DB	0ffH
	DB	0ffH
	DB	0ffH
	DB	0ffH
	DB	0ffH
	DB	0ffH
	DB	0daH
	DB	0f6H
	DB	0a8H
	DB	0cbH
	DB	0e0H
	DB	0b1H
	DB	00H
	DB	0b2H
	DB	020H
	DB	0b2H
	DB	0e0H
	DB	0b1H
	DB	0aeH
	DB	0d4H
	DB	03bH
	DB	0f7H
	DB	0ffH
	DB	0ffH
	DB	0ffH
	DB	0ffH
	DB	0ffH
	DB	0ffH
	DB	0ffH
	DB	0ffH
	DB	0ffH
	DB	0ffH
	DB	0ffH
	DB	0ffH
	DB	05cH
	DB	0f7H
	DB	0f0H
	DB	0d4H
	DB	083H
	DB	0aaH
	DB	047H
	DB	0b3H
	DB	048H
	DB	0b3H
	DB	048H
	DB	0b3H
	DB	047H
	DB	0b3H
	DB	047H
	DB	0b3H
	DB	048H
	DB	0b3H
	DB	027H
	DB	0b3H
	DB	0cfH
	DB	0ccH
	DB	03cH
	DB	0f7H
	DB	0ffH
	DB	0ffH
	DB	0ffH
	DB	0ffH
	DB	0ffH
	DB	0ffH
	DB	03bH
	DB	0f7H
	DB	067H
	DB	0c3H
	DB	00H
	DB	0b2H
	DB	00H
	DB	0b2H
	DB	020H
	DB	0b2H
	DB	020H
	DB	0b2H
	DB	0e0H
	DB	0b1H
	DB	0aeH
	DB	0d4H
	DB	03cH
	DB	0ffH
	DB	0ffH
	DB	0ffH
	DB	0ffH
	DB	0ffH
	DB	0ffH
	DB	0ffH
	DB	0ffH
	DB	0ffH
	DB	0ffH
	DB	0ffH
	DB	0ffH
	DB	0ffH
	DB	05cH
	DB	0ffH
	DB	0f0H
	DB	0d4H
	DB	083H
	DB	0aaH
	DB	048H
	DB	0b3H
	DB	048H
	DB	0b3H
	DB	048H
	DB	0b3H
	DB	048H
	DB	0bbH
	DB	047H
	DB	0b3H
	DB	048H
	DB	0b3H
	DB	0bH
	DB	0c4H
	DB	03bH
	DB	0f7H
	DB	0ffH
	DB	0ffH
	DB	0ffH
	DB	0ffH
	DB	0ffH
	DB	0ffH
	DB	09dH
	DB	0ffH
	DB	047H
	DB	0c3H
	DB	021H
	DB	0b2H
	DB	00H
	DB	0b2H
	DB	00H
	DB	0b2H
	DB	020H
	DB	0b2H
	DB	00H
	DB	0b2H
	DB	0e0H
	DB	0b1H
	DB	0aeH
	DB	0d4H
	DB	03bH
	DB	0f7H
	DB	0ffH
	DB	0ffH
	DB	0ffH
	DB	0ffH
	DB	0ffH
	DB	0ffH
	DB	0ffH
	DB	0ffH
	DB	0ffH
	DB	0ffH
	DB	0ffH
	DB	0ffH
	DB	05cH
	DB	0ffH
	DB	0f0H
	DB	0d4H
	DB	083H
	DB	0b2H
	DB	027H
	DB	0b3H
	DB	048H
	DB	0b3H
	DB	047H
	DB	0b3H
	DB	047H
	DB	0b3H
	DB	048H
	DB	0b3H
	DB	0bH
	DB	0c4H
	DB	05dH
	DB	0ffH
	DB	0ffH
	DB	0ffH
	DB	0ffH
	DB	0ffH
	DB	0ffH
	DB	0ffH
	DB	03cH
	DB	0ffH
	DB	0c9H
	DB	0cbH
	DB	020H
	DB	0b2H
	DB	00H
	DB	0b2H
	DB	020H
	DB	0b2H
	DB	00H
	DB	0b2H
	DB	020H
	DB	0b2H
	DB	00H
	DB	0b2H
	DB	0e0H
	DB	0b1H
	DB	0aeH
	DB	0d4H
	DB	03bH
	DB	0ffH
	DB	0ffH
	DB	0ffH
	DB	0ffH
	DB	0ffH
	DB	0ffH
	DB	0ffH
	DB	0ffH
	DB	0ffH
	DB	0ffH
	DB	0ffH
	DB	0ffH
	DB	0ffH
	DB	05cH
	DB	0ffH
	DB	010H
	DB	0d5H
	DB	083H
	DB	0aaH
	DB	047H
	DB	0b3H
	DB	048H
	DB	0b3H
	DB	048H
	DB	0bbH
	DB	027H
	DB	0b3H
	DB	02cH
	DB	0c4H
	DB	03cH
	DB	0f7H
	DB	0ffH
	DB	0ffH
	DB	0ffH
	DB	0ffH
	DB	0ffH
	DB	0ffH
	DB	0faH
	DB	0f6H
	DB	0bH
	DB	0ccH
	DB	0e0H
	DB	0b1H
	DB	020H
	DB	0b2H
	DB	020H
	DB	0b2H
	DB	00H
	DB	0b2H
	DB	020H
	DB	0b2H
	DB	020H
	DB	0b2H
	DB	00H
	DB	0b2H
	DB	0e0H
	DB	0b1H
	DB	0aeH
	DB	0d4H
	DB	03bH
	DB	0ffH
	DB	0ffH
	DB	0ffH
	DB	0ffH
	DB	0ffH
	DB	0ffH
	DB	0ffH
	DB	0ffH
	DB	0ffH
	DB	0ffH
	DB	0ffH
	DB	0ffH
	DB	0ffH
	DB	05cH
	DB	0ffH
	DB	0f0H
	DB	0d4H
	DB	083H
	DB	0aaH
	DB	027H
	DB	0b3H
	DB	048H
	DB	0b3H
	DB	027H
	DB	0b3H
	DB	02cH
	DB	0c4H
	DB	078H
	DB	0eeH
	DB	0ffH
	DB	0ffH
	DB	0ffH
	DB	0ffH
	DB	0ffH
	DB	0ffH
	DB	05cH
	DB	0ffH
	DB	08dH
	DB	0d4H
	DB	0e0H
	DB	0b1H
	DB	020H
	DB	0b2H
	DB	00H
	DB	0b2H
	DB	00H
	DB	0b2H
	DB	020H
	DB	0b2H
	DB	00H
	DB	0b2H
	DB	00H
	DB	0b2H
	DB	020H
	DB	0b2H
	DB	0e0H
	DB	0b1H
	DB	0aeH
	DB	0d4H
	DB	03bH
	DB	0f7H
	DB	0ffH
	DB	0ffH
	DB	0ffH
	DB	0ffH
	DB	0ffH
	DB	0ffH
	DB	0ffH
	DB	0ffH
	DB	0ffH
	DB	0ffH
	DB	0ffH
	DB	0ffH
	DB	05cH
	DB	0f7H
	DB	0f0H
	DB	0d4H
	DB	083H
	DB	0aaH
	DB	048H
	DB	0b3H
	DB	027H
	DB	0b3H
	DB	04dH
	DB	0c4H
	DB	098H
	DB	0eeH
	DB	0ffH
	DB	0ffH
	DB	0ffH
	DB	0ffH
	DB	0ffH
	DB	0ffH
	DB	07dH
	DB	0ffH
	DB	02bH
	DB	0ccH
	DB	00H
	DB	0b2H
	DB	00H
	DB	0b2H
	DB	020H
	DB	0b2H
	DB	00H
	DB	0b2H
	DB	020H
	DB	0b2H
	DB	020H
	DB	0b2H
	DB	00H
	DB	0b2H
	DB	020H
	DB	0b2H
	DB	020H
	DB	0b2H
	DB	0e0H
	DB	0b1H
	DB	0aeH
	DB	0d4H
	DB	03cH
	DB	0ffH
	DB	0ffH
	DB	0ffH
	DB	0ffH
	DB	0ffH
	DB	0ffH
	DB	0ffH
	DB	0ffH
	DB	0ffH
	DB	0ffH
	DB	0ffH
	DB	0ffH
	DB	0ffH
	DB	05cH
	DB	0ffH
	DB	010H
	DB	0d5H
	DB	083H
	DB	0aaH
	DB	027H
	DB	0b3H
	DB	0a9H
	DB	0bbH
	DB	057H
	DB	0e6H
	DB	0ffH
	DB	0ffH
	DB	0ffH
	DB	0ffH
	DB	0ffH
	DB	0ffH
	DB	0ffH
	DB	0ffH
	DB	02bH
	DB	0ccH
	DB	041H
	DB	0b2H
	DB	00H
	DB	0b2H
	DB	00H
	DB	0b2H
	DB	00H
	DB	0b2H
	DB	020H
	DB	0b2H
	DB	00H
	DB	0b2H
	DB	00H
	DB	0b2H
	DB	020H
	DB	0baH
	DB	00H
	DB	0b2H
	DB	00H
	DB	0b2H
	DB	0e0H
	DB	0b1H
	DB	0aeH
	DB	0d4H
	DB	03bH
	DB	0ffH
	DB	0ffH
	DB	0ffH
	DB	0ffH
	DB	0ffH
	DB	0ffH
	DB	0ffH
	DB	0ffH
	DB	0ffH
	DB	0ffH
	DB	0ffH
	DB	0ffH
	DB	0ffH
	DB	05cH
	DB	0ffH
	DB	0f0H
	DB	0d4H
	DB	063H
	DB	0aaH
	DB	027H
	DB	0b3H
	DB	0d4H
	DB	0ddH
	DB	09eH
	DB	0ffH
	DB	0ffH
	DB	0ffH
	DB	0ffH
	DB	0ffH
	DB	0ffH
	DB	0ffH
	DB	011H
	DB	0d5H
	DB	082H
	DB	0baH
	DB	0e0H
	DB	0b1H
	DB	00H
	DB	0b2H
	DB	020H
	DB	0b2H
	DB	020H
	DB	0b2H
	DB	00H
	DB	0b2H
	DB	020H
	DB	0b2H
	DB	020H
	DB	0b2H
	DB	00H
	DB	0b2H
	DB	020H
	DB	0b2H
	DB	020H
	DB	0b2H
	DB	0e0H
	DB	0b1H
	DB	0aeH
	DB	0d4H
	DB	03bH
	DB	0f7H
	DB	0ffH
	DB	0ffH
	DB	0ffH
	DB	0ffH
	DB	0ffH
	DB	0ffH
	DB	0ffH
	DB	0ffH
	DB	0ffH
	DB	0ffH
	DB	0ffH
	DB	0ffH
	DB	05cH
	DB	0ffH
	DB	010H
	DB	0d5H
	DB	063H
	DB	0aaH
	DB	027H
	DB	0b3H
	DB	0b4H
	DB	0ddH
	DB	09eH
	DB	0ffH
	DB	0ffH
	DB	0ffH
	DB	0ffH
	DB	0ffH
	DB	0dfH
	DB	0ffH
	DB	032H
	DB	0d5H
	DB	0a3H
	DB	0baH
	DB	0e0H
	DB	0b1H
	DB	00H
	DB	0b2H
	DB	020H
	DB	0b2H
	DB	00H
	DB	0b2H
	DB	00H
	DB	0b2H
	DB	020H
	DB	0baH
	DB	00H
	DB	0b2H
	DB	00H
	DB	0b2H
	DB	020H
	DB	0b2H
	DB	020H
	DB	0b2H
	DB	0e0H
	DB	0b1H
	DB	0aeH
	DB	0d4H
	DB	03bH
	DB	0ffH
	DB	0ffH
	DB	0ffH
	DB	0ffH
	DB	0ffH
	DB	0ffH
	DB	0ffH
	DB	0ffH
	DB	0ffH
	DB	0ffH
	DB	0ffH
	DB	0ffH
	DB	0ffH
	DB	05cH
	DB	0ffH
	DB	010H
	DB	0d5H
	DB	083H
	DB	0aaH
	DB	027H
	DB	0b3H
	DB	089H
	DB	0bbH
	DB	057H
	DB	0e6H
	DB	0ffH
	DB	0ffH
	DB	0ffH
	DB	0ffH
	DB	0ffH
	DB	0ffH
	DB	0ffH
	DB	0ffH
	DB	04cH
	DB	0d4H
	DB	061H
	DB	0b2H
	DB	00H
	DB	0b2H
	DB	00H
	DB	0b2H
	DB	020H
	DB	0b2H
	DB	020H
	DB	0b2H
	DB	00H
	DB	0b2H
	DB	020H
	DB	0b2H
	DB	00H
	DB	0b2H
	DB	00H
	DB	0b2H
	DB	020H
	DB	0b2H
	DB	0e0H
	DB	0b1H
	DB	0aeH
	DB	0d4H
	DB	03bH
	DB	0ffH
	DB	0ffH
	DB	0ffH
	DB	0ffH
	DB	0ffH
	DB	0ffH
	DB	0ffH
	DB	0ffH
	DB	0ffH
	DB	0ffH
	DB	0ffH
	DB	0ffH
	DB	0ffH
	DB	05cH
	DB	0f7H
	DB	0f0H
	DB	0d4H
	DB	083H
	DB	0aaH
	DB	047H
	DB	0b3H
	DB	027H
	DB	0b3H
	DB	02cH
	DB	0c4H
	DB	098H
	DB	0eeH
	DB	0ffH
	DB	0ffH
	DB	0ffH
	DB	0ffH
	DB	0ffH
	DB	0ffH
	DB	09dH
	DB	0ffH
	DB	06cH
	DB	0d4H
	DB	00H
	DB	0b2H
	DB	00H
	DB	0b2H
	DB	020H
	DB	0b2H
	DB	00H
	DB	0b2H
	DB	020H
	DB	0b2H
	DB	020H
	DB	0b2H
	DB	00H
	DB	0baH
	DB	020H
	DB	0b2H
	DB	00H
	DB	0b2H
	DB	0e0H
	DB	0b1H
	DB	0aeH
	DB	0d4H
	DB	03cH
	DB	0ffH
	DB	0ffH
	DB	0ffH
	DB	0ffH
	DB	0ffH
	DB	0ffH
	DB	0ffH
	DB	0ffH
	DB	0ffH
	DB	0ffH
	DB	0ffH
	DB	0ffH
	DB	0ffH
	DB	05cH
	DB	0ffH
	DB	0f0H
	DB	0d4H
	DB	083H
	DB	0aaH
	DB	048H
	DB	0b3H
	DB	048H
	DB	0b3H
	DB	07H
	DB	0b3H
	DB	02cH
	DB	0c4H
	DB	057H
	DB	0e6H
	DB	0ffH
	DB	0ffH
	DB	0ffH
	DB	0ffH
	DB	0ffH
	DB	0ffH
	DB	07cH
	DB	0ffH
	DB	0aeH
	DB	0d4H
	DB	0e0H
	DB	0b1H
	DB	00H
	DB	0b2H
	DB	00H
	DB	0baH
	DB	020H
	DB	0b2H
	DB	00H
	DB	0b2H
	DB	020H
	DB	0b2H
	DB	020H
	DB	0b2H
	DB	00H
	DB	0b2H
	DB	0e0H
	DB	0b1H
	DB	0aeH
	DB	0d4H
	DB	03bH
	DB	0f7H
	DB	0ffH
	DB	0ffH
	DB	0ffH
	DB	0ffH
	DB	0ffH
	DB	0ffH
	DB	0ffH
	DB	0ffH
	DB	0ffH
	DB	0ffH
	DB	0ffH
	DB	0ffH
	DB	05cH
	DB	0ffH
	DB	0f0H
	DB	0d4H
	DB	083H
	DB	0aaH
	DB	027H
	DB	0b3H
	DB	048H
	DB	0b3H
	DB	048H
	DB	0b3H
	DB	027H
	DB	0b3H
	DB	02cH
	DB	0c4H
	DB	01bH
	DB	0f7H
	DB	0ffH
	DB	0ffH
	DB	0ffH
	DB	0ffH
	DB	0ffH
	DB	0ffH
	DB	01bH
	DB	0f7H
	DB	06cH
	DB	0d4H
	DB	0e0H
	DB	0b1H
	DB	020H
	DB	0b2H
	DB	00H
	DB	0b2H
	DB	00H
	DB	0b2H
	DB	020H
	DB	0b2H
	DB	00H
	DB	0b2H
	DB	020H
	DB	0b2H
	DB	0e0H
	DB	0b1H
	DB	0aeH
	DB	0d4H
	DB	03bH
	DB	0ffH
	DB	0ffH
	DB	0ffH
	DB	0ffH
	DB	0ffH
	DB	0ffH
	DB	0ffH
	DB	0ffH
	DB	0ffH
	DB	0ffH
	DB	0ffH
	DB	0ffH
	DB	0ffH
	DB	05cH
	DB	0ffH
	DB	010H
	DB	0d5H
	DB	083H
	DB	0aaH
	DB	027H
	DB	0b3H
	DB	048H
	DB	0b3H
	DB	048H
	DB	0b3H
	DB	047H
	DB	0b3H
	DB	048H
	DB	0b3H
	DB	0ebH
	DB	0bbH
	DB	05cH
	DB	0f7H
	DB	0ffH
	DB	0ffH
	DB	0ffH
	DB	0ffH
	DB	0ffH
	DB	0ffH
	DB	05cH
	DB	0ffH
	DB	0aH
	DB	0ccH
	DB	021H
	DB	0b2H
	DB	00H
	DB	0b2H
	DB	020H
	DB	0b2H
	DB	00H
	DB	0baH
	DB	020H
	DB	0b2H
	DB	00H
	DB	0b2H
	DB	0e0H
	DB	0b1H
	DB	0aeH
	DB	0d4H
	DB	03bH
	DB	0ffH
	DB	0ffH
	DB	0ffH
	DB	0ffH
	DB	0ffH
	DB	0ffH
	DB	0ffH
	DB	0ffH
	DB	0ffH
	DB	0ffH
	DB	0ffH
	DB	0ffH
	DB	0ffH
	DB	05cH
	DB	0ffH
	DB	0f0H
	DB	0d4H
	DB	083H
	DB	0aaH
	DB	047H
	DB	0b3H
	DB	048H
	DB	0b3H
	DB	048H
	DB	0b3H
	DB	047H
	DB	0b3H
	DB	047H
	DB	0b3H
	DB	048H
	DB	0b3H
	DB	0ebH
	DB	0c3H
	DB	03cH
	DB	0f7H
	DB	0ffH
	DB	0ffH
	DB	0ffH
	DB	0ffH
	DB	0ffH
	DB	0ffH
	DB	09eH
	DB	0ffH
	DB	0a8H
	DB	0cbH
	DB	041H
	DB	0baH
	DB	00H
	DB	0b2H
	DB	00H
	DB	0b2H
	DB	020H
	DB	0b2H
	DB	020H
	DB	0b2H
	DB	0e0H
	DB	0b1H
	DB	0aeH
	DB	0d4H
	DB	03bH
	DB	0ffH
	DB	0ffH
	DB	0ffH
	DB	0ffH
	DB	0ffH
	DB	0ffH
	DB	0ffH
	DB	0ffH
	DB	0ffH
	DB	0ffH
	DB	0ffH
	DB	0ffH
	DB	0ffH
	DB	05cH
	DB	0ffH
	DB	0f0H
	DB	0d4H
	DB	083H
	DB	0aaH
	DB	047H
	DB	0b3H
	DB	048H
	DB	0bbH
	DB	048H
	DB	0b3H
	DB	048H
	DB	0b3H
	DB	048H
	DB	0b3H
	DB	048H
	DB	0b3H
	DB	027H
	DB	0b3H
	DB	0aeH
	DB	0ccH
	DB	01bH
	DB	0f7H
	DB	0ffH
	DB	0ffH
	DB	0ffH
	DB	0ffH
	DB	0ffH
	DB	0ffH
	DB	07cH
	DB	0ffH
	DB	088H
	DB	0c3H
	DB	00H
	DB	0b2H
	DB	00H
	DB	0b2H
	DB	020H
	DB	0b2H
	DB	00H
	DB	0b2H
	DB	0e0H
	DB	0b1H
	DB	0aeH
	DB	0d4H
	DB	03cH
	DB	0f7H
	DB	0ffH
	DB	0ffH
	DB	0ffH
	DB	0ffH
	DB	0ffH
	DB	0ffH
	DB	0ffH
	DB	0ffH
	DB	0ffH
	DB	0ffH
	DB	0ffH
	DB	0ffH
	DB	05cH
	DB	0f7H
	DB	010H
	DB	0d5H
	DB	083H
	DB	0aaH
	DB	028H
	DB	0b3H
	DB	048H
	DB	0b3H
	DB	047H
	DB	0b3H
	DB	047H
	DB	0b3H
	DB	048H
	DB	0b3H
	DB	048H
	DB	0b3H
	DB	047H
	DB	0b3H
	DB	07H
	DB	0b3H
	DB	04cH
	DB	0ccH
	DB	098H
	DB	0f6H
	DB	0ffH
	DB	0ffH
	DB	0ffH
	DB	0ffH
	DB	0ffH
	DB	0ffH
	DB	0faH
	DB	0f6H
	DB	0c9H
	DB	0cbH
	DB	0e0H
	DB	0b1H
	DB	00H
	DB	0b2H
	DB	020H
	DB	0b2H
	DB	0e0H
	DB	0b1H
	DB	0aeH
	DB	0d4H
	DB	03bH
	DB	0ffH
	DB	0ffH
	DB	0ffH
	DB	0ffH
	DB	0ffH
	DB	0ffH
	DB	0ffH
	DB	0ffH
	DB	0ffH
	DB	0ffH
	DB	0ffH
	DB	0ffH
	DB	0ffH
	DB	05cH
	DB	0ffH
	DB	0f0H
	DB	0d4H
	DB	083H
	DB	0b2H
	DB	027H
	DB	0b3H
	DB	048H
	DB	0b3H
	DB	048H
	DB	0b3H
	DB	047H
	DB	0bbH
	DB	048H
	DB	0b3H
	DB	047H
	DB	0b3H
	DB	048H
	DB	0b3H
	DB	041H
	DB	0b2H
	DB	0c0H
	DB	0b1H
	DB	0aH
	DB	0ccH
	DB	05cH
	DB	0f7H
	DB	0ffH
	DB	0ffH
	DB	0ffH
	DB	0ffH
	DB	0ffH
	DB	0ffH
	DB	036H
	DB	0eeH
	DB	047H
	DB	0c3H
	DB	0e0H
	DB	0b1H
	DB	020H
	DB	0b2H
	DB	0e0H
	DB	0b1H
	DB	0aeH
	DB	0d4H
	DB	03bH
	DB	0ffH
	DB	0ffH
	DB	0ffH
	DB	0ffH
	DB	0ffH
	DB	0ffH
	DB	0ffH
	DB	0ffH
	DB	0ffH
	DB	0ffH
	DB	0ffH
	DB	0ffH
	DB	0ffH
	DB	05cH
	DB	0ffH
	DB	0f0H
	DB	0d4H
	DB	083H
	DB	0aaH
	DB	047H
	DB	0b3H
	DB	048H
	DB	0b3H
	DB	048H
	DB	0b3H
	DB	048H
	DB	0b3H
	DB	048H
	DB	0b3H
	DB	047H
	DB	0b3H
	DB	0e5H
	DB	0b2H
	DB	041H
	DB	0b2H
	DB	00H
	DB	0b2H
	DB	00H
	DB	0b2H
	DB	068H
	DB	0c3H
	DB	09eH
	DB	0ffH
	DB	0ffH
	DB	0ffH
	DB	0ffH
	DB	0ffH
	DB	0beH
	DB	0ffH
	DB	0efH
	DB	0dcH
	DB	0c0H
	DB	0b1H
	DB	00H
	DB	0b2H
	DB	0e0H
	DB	0b1H
	DB	0adH
	DB	0d4H
	DB	03bH
	DB	0ffH
	DB	0ffH
	DB	0ffH
	DB	0ffH
	DB	0ffH
	DB	0ffH
	DB	0ffH
	DB	0ffH
	DB	0ffH
	DB	0ffH
	DB	0ffH
	DB	0ffH
	DB	0ffH
	DB	05cH
	DB	0ffH
	DB	011H
	DB	0d5H
	DB	0c5H
	DB	0aaH
	DB	048H
	DB	0b3H
	DB	048H
	DB	0b3H
	DB	048H
	DB	0bbH
	DB	068H
	DB	0b3H
	DB	047H
	DB	0b3H
	DB	083H
	DB	0baH
	DB	020H
	DB	0b2H
	DB	00H
	DB	0b2H
	DB	00H
	DB	0b2H
	DB	00H
	DB	0b2H
	DB	041H
	DB	0baH
	DB	088H
	DB	0cbH
	DB	01bH
	DB	0f7H
	DB	0ffH
	DB	0ffH
	DB	0f5H
	DB	0edH
	DB	046H
	DB	0c3H
	DB	0e0H
	DB	0b1H
	DB	00H
	DB	0b2H
	DB	0c0H
	DB	0b1H
	DB	0ceH
	DB	0dcH
	DB	05cH
	DB	0f7H
	DB	0ffH
	DB	0ffH
	DB	0ffH
	DB	0ffH
	DB	0ffH
	DB	0ffH
	DB	0ffH
	DB	0ffH
	DB	0ffH
	DB	0ffH
	DB	0ffH
	DB	0ffH
	DB	0dfH
	DB	0ffH
	DB	01bH
	DB	0f7H
	DB	093H
	DB	0e5H
	DB	0bH
	DB	0c4H
	DB	0a9H
	DB	0c3H
	DB	0a9H
	DB	0c3H
	DB	067H
	DB	0c3H
	DB	05H
	DB	0c3H
	DB	05H
	DB	0c3H
	DB	05H
	DB	0c3H
	DB	06H
	DB	0c3H
	DB	025H
	DB	0c3H
	DB	025H
	DB	0c3H
	DB	05H
	DB	0c3H
	DB	025H
	DB	0c3H
	DB	08dH
	DB	0d4H
	DB	093H
	DB	0e5H
	DB	02bH
	DB	0ccH
	DB	0e4H
	DB	0baH
	DB	05H
	DB	0c3H
	DB	047H
	DB	0c3H
	DB	092H
	DB	0e5H
	DB	03cH
	DB	0f7H
	DB	0ffH
	DB	0ffH
	DB	0ffH
	DB	0ffH
	DB	0ffH
	DB	0ffH
	DB	0ffH
	DB	0ffH
	DB	0bfH
	DB	0ffH
	DB	0ffH
	DB	0ffH
	DB	0ffH
	DB	0ffH
	DB	0ffH
	DB	0ffH
	DB	0ffH
	DB	0ffH
	DB	0ffH
	DB	0ffH
	DB	0ffH
	DB	0ffH
	DB	0ffH
	DB	0ffH
	DB	0ffH
	DB	0ffH
	DB	0ffH
	DB	0ffH
	DB	0ffH
	DB	0ffH
	DB	0ffH
	DB	0ffH
	DB	0ffH
	DB	0ffH
	DB	0ffH
	DB	0ffH
	DB	0ffH
	DB	0ffH
	DB	0ffH
	DB	0ffH
	DB	0ffH
	DB	0ffH
	DB	0ffH
	DB	0ffH
	DB	0ffH
	DB	0ffH
	DB	0ffH
	DB	0ffH
	DB	0ffH
	DB	0ffH
	DB	0ffH
	DB	0ffH
	DB	0ffH
	DB	0ffH
	DB	0ffH
	DB	0ffH
	DB	0ffH
	DB	0ffH
	DB	0ffH
	DB	0ffH
	DB	0ffH
	DB	0ffH
	DB	0ffH
	DB	0ffH
	DB	0ffH
	DB	0ffH
	DB	0ffH
	DB	0ffH
	DB	00H
	DB	00H
	DB	0dfH
	DB	0ffH
	DB	0dfH
	DB	0ffH
	DB	0ffH
	DB	0ffH
	DB	0ffH
	DB	0ffH
	DB	0ffH
	DB	0ffH
	DB	0ffH
	DB	0ffH
	DB	0ffH
	DB	0ffH
	DB	0ffH
	DB	0ffH
	DB	0ffH
	DB	0ffH
	DB	0ffH
	DB	0ffH
	DB	0ffH
	DB	0ffH
	DB	0ffH
	DB	0ffH
	DB	0ffH
	DB	0ffH
	DB	0ffH
	DB	0ffH
	DB	0ffH
	DB	0ffH
	DB	0ffH
	DB	0ffH
	DB	0ffH
	DB	0ffH
	DB	0ffH
	DB	0ffH
	DB	0ffH
	DB	0ffH
	DB	0ffH
	DB	0ffH
	DB	0ffH
	DB	0ffH
	DB	0ffH
	DB	0ffH
	DB	0ffH
	DB	0ffH
	DB	0ffH
	DB	0ffH
	DB	0ffH
	DB	0ffH
	DB	0ffH
	DB	0ffH
	DB	0ffH
	DB	0ffH
	DB	0ffH
	DB	0ffH
	DB	00H
	DB	00H
?_left_unpress_1_alpha_channel@@3QBEB DB 00H		; _left_unpress_1_alpha_channel
	DB	08H
	DB	024H
	DB	059H
	DB	09aH
	DB	0cfH
	DB	0ebH
	DB	0fbH
	DB	0ffH
	DB	0ffH
	DB	0ffH
	DB	0ffH
	DB	0ffH
	DB	0ffH
	DB	0ffH
	DB	0ffH
	DB	0ffH
	DB	0ffH
	DB	0ffH
	DB	0ffH
	DB	0ffH
	DB	0ffH
	DB	0fbH
	DB	0e3H
	DB	0cbH
	DB	092H
	DB	051H
	DB	01cH
	DB	04H
	DB	00H
	DB	0cH
	DB	082H
	DB	0dfH
	DB	0ffH
	DB	0ffH
	DB	0ffH
	DB	0ffH
	DB	0ffH
	DB	0ffH
	DB	0ffH
	DB	0ffH
	DB	0ffH
	DB	0ffH
	DB	0ffH
	DB	0ffH
	DB	0ffH
	DB	0ffH
	DB	0ffH
	DB	0ffH
	DB	0ffH
	DB	0ffH
	DB	0ffH
	DB	0ffH
	DB	0ffH
	DB	0ffH
	DB	0ffH
	DB	0ffH
	DB	0d7H
	DB	071H
	DB	00H
	DB	0a6H
	DB	0e3H
	DB	0fbH
	DB	0ffH
	DB	0ffH
	DB	0ffH
	DB	0ffH
	DB	0ffH
	DB	0ffH
	DB	0ffH
	DB	0ffH
	DB	0ffH
	DB	0ffH
	DB	0ffH
	DB	0ffH
	DB	0ffH
	DB	0ffH
	DB	0ffH
	DB	0ffH
	DB	0ffH
	DB	0ffH
	DB	0ffH
	DB	0ffH
	DB	0ffH
	DB	0ffH
	DB	0ffH
	DB	0ffH
	DB	0fbH
	DB	0dbH
	DB	08eH
	DB	0efH
	DB	0fbH
	DB	0ffH
	DB	0ffH
	DB	0ffH
	DB	0ffH
	DB	0ffH
	DB	0ffH
	DB	0ffH
	DB	0ffH
	DB	0ffH
	DB	0ffH
	DB	0ffH
	DB	0ffH
	DB	0ffH
	DB	0ffH
	DB	0ffH
	DB	0ffH
	DB	0ffH
	DB	0ffH
	DB	0ffH
	DB	0ffH
	DB	0ffH
	DB	0ffH
	DB	0ffH
	DB	0ffH
	DB	0ffH
	DB	0ffH
	DB	0f7H
	DB	0ebH
	DB	0ffH
	DB	0ffH
	DB	0ffH
	DB	0ffH
	DB	0ffH
	DB	0ffH
	DB	0ffH
	DB	0ffH
	DB	0ffH
	DB	0ffH
	DB	0ffH
	DB	0ffH
	DB	0ffH
	DB	0ffH
	DB	0ffH
	DB	0ffH
	DB	0ffH
	DB	0ffH
	DB	0ffH
	DB	0ffH
	DB	0ffH
	DB	0ffH
	DB	0ffH
	DB	0ffH
	DB	0ffH
	DB	0ffH
	DB	0ffH
	DB	0ffH
	DB	0ffH
	DB	0ffH
	DB	0ffH
	DB	0ffH
	DB	0ffH
	DB	0ffH
	DB	0ffH
	DB	0ffH
	DB	0ffH
	DB	0ffH
	DB	0ffH
	DB	0ffH
	DB	0ffH
	DB	0ffH
	DB	0ffH
	DB	0ffH
	DB	0ffH
	DB	0ffH
	DB	0ffH
	DB	0ffH
	DB	0ffH
	DB	0ffH
	DB	0ffH
	DB	0ffH
	DB	0ffH
	DB	0ffH
	DB	0ffH
	DB	0ffH
	DB	0ffH
	DB	0ffH
	DB	0ffH
	DB	0ffH
	DB	0ffH
	DB	0ffH
	DB	0ffH
	DB	0ffH
	DB	0ffH
	DB	0ffH
	DB	0ffH
	DB	0ffH
	DB	0ffH
	DB	0ffH
	DB	0ffH
	DB	0ffH
	DB	0ffH
	DB	0ffH
	DB	0ffH
	DB	0ffH
	DB	0ffH
	DB	0ffH
	DB	0ffH
	DB	0ffH
	DB	0ffH
	DB	0ffH
	DB	0ffH
	DB	0ffH
	DB	0ffH
	DB	0ffH
	DB	0ffH
	DB	0ffH
	DB	0ffH
	DB	0ffH
	DB	0ffH
	DB	0ffH
	DB	0ffH
	DB	0ffH
	DB	0ffH
	DB	0ffH
	DB	0ffH
	DB	0ffH
	DB	0ffH
	DB	0ffH
	DB	0ffH
	DB	0ffH
	DB	0ffH
	DB	0ffH
	DB	0ffH
	DB	0ffH
	DB	0ffH
	DB	0ffH
	DB	0ffH
	DB	0ffH
	DB	0ffH
	DB	0ffH
	DB	0ffH
	DB	0ffH
	DB	0ffH
	DB	0ffH
	DB	0ffH
	DB	0ffH
	DB	0ffH
	DB	0ffH
	DB	0ffH
	DB	0ffH
	DB	0ffH
	DB	0ffH
	DB	0ffH
	DB	0ffH
	DB	0ffH
	DB	0ffH
	DB	0ffH
	DB	0ffH
	DB	0ffH
	DB	0ffH
	DB	0ffH
	DB	0ffH
	DB	0ffH
	DB	0ffH
	DB	0ffH
	DB	0ffH
	DB	0ffH
	DB	0ffH
	DB	0ffH
	DB	0ffH
	DB	0ffH
	DB	0ffH
	DB	0ffH
	DB	0ffH
	DB	0ffH
	DB	0ffH
	DB	0ffH
	DB	0ffH
	DB	0ffH
	DB	0ffH
	DB	0ffH
	DB	0ffH
	DB	0ffH
	DB	0ffH
	DB	0ffH
	DB	0ffH
	DB	0ffH
	DB	0ffH
	DB	0ffH
	DB	0ffH
	DB	0ffH
	DB	0ffH
	DB	0ffH
	DB	0ffH
	DB	0ffH
	DB	0ffH
	DB	0ffH
	DB	0ffH
	DB	0ffH
	DB	0ffH
	DB	0ffH
	DB	0ffH
	DB	0ffH
	DB	0ffH
	DB	0ffH
	DB	0ffH
	DB	0ffH
	DB	0ffH
	DB	0ffH
	DB	0ffH
	DB	0ffH
	DB	0ffH
	DB	0ffH
	DB	0ffH
	DB	0ffH
	DB	0ffH
	DB	0ffH
	DB	0ffH
	DB	0ffH
	DB	0ffH
	DB	0ffH
	DB	0ffH
	DB	0ffH
	DB	0ffH
	DB	0ffH
	DB	0ffH
	DB	0ffH
	DB	0ffH
	DB	0ffH
	DB	0ffH
	DB	0ffH
	DB	0ffH
	DB	0ffH
	DB	0ffH
	DB	0ffH
	DB	0ffH
	DB	0ffH
	DB	0ffH
	DB	0ffH
	DB	0ffH
	DB	0ffH
	DB	0ffH
	DB	0ffH
	DB	0ffH
	DB	0ffH
	DB	0ffH
	DB	0ffH
	DB	0ffH
	DB	0ffH
	DB	0ffH
	DB	0ffH
	DB	0ffH
	DB	0ffH
	DB	0ffH
	DB	0ffH
	DB	0ffH
	DB	0ffH
	DB	0ffH
	DB	0ffH
	DB	0ffH
	DB	0ffH
	DB	0ffH
	DB	0ffH
	DB	0ffH
	DB	0ffH
	DB	0ffH
	DB	0ffH
	DB	0ffH
	DB	0ffH
	DB	0ffH
	DB	0ffH
	DB	0ffH
	DB	0ffH
	DB	0ffH
	DB	0ffH
	DB	0ffH
	DB	0ffH
	DB	0ffH
	DB	0ffH
	DB	0ffH
	DB	0ffH
	DB	0ffH
	DB	0ffH
	DB	0ffH
	DB	0ffH
	DB	0ffH
	DB	0ffH
	DB	0ffH
	DB	0ffH
	DB	0ffH
	DB	0ffH
	DB	0ffH
	DB	0ffH
	DB	0ffH
	DB	0ffH
	DB	0ffH
	DB	0ffH
	DB	0ffH
	DB	0ffH
	DB	0ffH
	DB	0ffH
	DB	0ffH
	DB	0ffH
	DB	0ffH
	DB	0ffH
	DB	0ffH
	DB	0ffH
	DB	0ffH
	DB	0ffH
	DB	0ffH
	DB	0ffH
	DB	0ffH
	DB	0ffH
	DB	0ffH
	DB	0ffH
	DB	0ffH
	DB	0ffH
	DB	0ffH
	DB	0ffH
	DB	0ffH
	DB	0ffH
	DB	0ffH
	DB	0ffH
	DB	0ffH
	DB	0ffH
	DB	0ffH
	DB	0ffH
	DB	0ffH
	DB	0ffH
	DB	0ffH
	DB	0ffH
	DB	0ffH
	DB	0ffH
	DB	0ffH
	DB	0ffH
	DB	0ffH
	DB	0ffH
	DB	0ffH
	DB	0ffH
	DB	0ffH
	DB	0ffH
	DB	0ffH
	DB	0ffH
	DB	0ffH
	DB	0ffH
	DB	0ffH
	DB	0ffH
	DB	0ffH
	DB	0ffH
	DB	0ffH
	DB	0ffH
	DB	0ffH
	DB	0ffH
	DB	0ffH
	DB	0ffH
	DB	0ffH
	DB	0ffH
	DB	0ffH
	DB	0ffH
	DB	0ffH
	DB	0ffH
	DB	0ffH
	DB	0ffH
	DB	0ffH
	DB	0ffH
	DB	0ffH
	DB	0ffH
	DB	0ffH
	DB	0ffH
	DB	0ffH
	DB	0ffH
	DB	0ffH
	DB	0ffH
	DB	0ffH
	DB	0ffH
	DB	0ffH
	DB	0ffH
	DB	0ffH
	DB	0ffH
	DB	0ffH
	DB	0ffH
	DB	0ffH
	DB	0ffH
	DB	0ffH
	DB	0ffH
	DB	0ffH
	DB	0ffH
	DB	0ffH
	DB	0ffH
	DB	0ffH
	DB	0ffH
	DB	0ffH
	DB	0ffH
	DB	0ffH
	DB	0ffH
	DB	0ffH
	DB	0ffH
	DB	0ffH
	DB	0ffH
	DB	0ffH
	DB	0ffH
	DB	0ffH
	DB	0ffH
	DB	0ffH
	DB	0ffH
	DB	0ffH
	DB	0ffH
	DB	0ffH
	DB	0ffH
	DB	0ffH
	DB	0ffH
	DB	0ffH
	DB	0ffH
	DB	0ffH
	DB	0ffH
	DB	0ffH
	DB	0ffH
	DB	0ffH
	DB	0ffH
	DB	0ffH
	DB	0ffH
	DB	0ffH
	DB	0ffH
	DB	0ffH
	DB	0ffH
	DB	0ffH
	DB	0ffH
	DB	0ffH
	DB	0ffH
	DB	0ffH
	DB	0ffH
	DB	0ffH
	DB	0ffH
	DB	0ffH
	DB	0ffH
	DB	0ffH
	DB	0ffH
	DB	0ffH
	DB	0ffH
	DB	0ffH
	DB	0ffH
	DB	0ffH
	DB	0ffH
	DB	0ffH
	DB	0ffH
	DB	0ffH
	DB	0ffH
	DB	0ffH
	DB	0ffH
	DB	0ffH
	DB	0ffH
	DB	0ffH
	DB	0ffH
	DB	0ffH
	DB	0ffH
	DB	0ffH
	DB	0ffH
	DB	0ffH
	DB	0ffH
	DB	0ffH
	DB	0ffH
	DB	0ffH
	DB	0ffH
	DB	0ffH
	DB	0ffH
	DB	0ffH
	DB	0ffH
	DB	0ffH
	DB	0ffH
	DB	0ffH
	DB	0ffH
	DB	0ffH
	DB	0ffH
	DB	0ffH
	DB	0ffH
	DB	0ffH
	DB	0ffH
	DB	0ffH
	DB	0ffH
	DB	0ffH
	DB	0ffH
	DB	0ffH
	DB	0ffH
	DB	0ffH
	DB	0ffH
	DB	0ffH
	DB	0ffH
	DB	0ffH
	DB	0ffH
	DB	0ffH
	DB	0ffH
	DB	0ffH
	DB	0ffH
	DB	0ffH
	DB	0ffH
	DB	0ffH
	DB	0ffH
	DB	0ffH
	DB	0ffH
	DB	0ffH
	DB	0ffH
	DB	0ffH
	DB	0ffH
	DB	0ffH
	DB	0ffH
	DB	0ffH
	DB	0ffH
	DB	0ffH
	DB	0ffH
	DB	0ffH
	DB	0ffH
	DB	0ffH
	DB	0ffH
	DB	0ffH
	DB	0ffH
	DB	0ffH
	DB	0ffH
	DB	0ffH
	DB	0ffH
	DB	0ffH
	DB	0ffH
	DB	0ffH
	DB	0ffH
	DB	0ffH
	DB	0ffH
	DB	0ffH
	DB	0ffH
	DB	0ffH
	DB	0ffH
	DB	0ffH
	DB	0ffH
	DB	0ffH
	DB	0ffH
	DB	0ffH
	DB	0ffH
	DB	0ffH
	DB	0ffH
	DB	0ffH
	DB	0ffH
	DB	0ffH
	DB	0ffH
	DB	0ffH
	DB	0ffH
	DB	0ffH
	DB	0ffH
	DB	0ffH
	DB	0ffH
	DB	0ffH
	DB	0ffH
	DB	0ffH
	DB	0ffH
	DB	0f7H
	DB	0fbH
	DB	0ffH
	DB	0ffH
	DB	0ffH
	DB	0ffH
	DB	0ffH
	DB	0ffH
	DB	0ffH
	DB	0ffH
	DB	0ffH
	DB	0ffH
	DB	0ffH
	DB	0ffH
	DB	0ffH
	DB	0ffH
	DB	0ffH
	DB	0ffH
	DB	0ffH
	DB	0ffH
	DB	0ffH
	DB	0ffH
	DB	0ffH
	DB	0ffH
	DB	0ffH
	DB	0ffH
	DB	0ffH
	DB	0ffH
	DB	0ffH
	DB	0ffH
	DB	0ffH
	DB	0ffH
	DB	0ffH
	DB	0ffH
	DB	0ffH
	DB	0ffH
	DB	0ffH
	DB	0ffH
	DB	0ffH
	DB	0ffH
	DB	0ffH
	DB	0ffH
	DB	0ffH
	DB	0ffH
	DB	0ffH
	DB	0ffH
	DB	0ffH
	DB	0ffH
	DB	0ffH
	DB	0ffH
	DB	0ffH
	DB	0ffH
	DB	0ffH
	DB	0ffH
	DB	0ffH
	DB	0ffH
	DB	0ffH
	DB	0ffH
	DB	0ffH
	DB	0ffH
	DB	0ffH
	DB	0ffH
	DB	0ffH
	DB	0ffH
	DB	0ffH
	DB	0ffH
	DB	0ffH
	DB	0ffH
	DB	0ffH
	DB	0ffH
	DB	0ffH
	DB	0ffH
	DB	0ffH
	DB	0ffH
	DB	0ffH
	DB	0ffH
	DB	0ffH
	DB	0ffH
	DB	0ffH
	DB	0ffH
	DB	0ffH
	DB	0ffH
	DB	0ffH
	DB	0ffH
	DB	0ffH
	DB	0ffH
	DB	0ffH
	DB	0ffH
	DB	0ffH
	DB	0ffH
	DB	0ffH
	DB	0ffH
	DB	0ffH
	DB	0ffH
	DB	0ffH
	DB	0ffH
	DB	0ffH
	DB	0ffH
	DB	0ffH
	DB	0ffH
	DB	0ffH
	DB	0ffH
	DB	0ffH
	DB	0ffH
	DB	0ffH
	DB	0ffH
	DB	0ffH
	DB	0ffH
	DB	0ffH
	DB	0ffH
	DB	0ffH
	DB	0ffH
	DB	0ffH
	DB	0ffH
	DB	0ffH
	DB	0ffH
	DB	0ffH
	DB	0ffH
	DB	0ffH
	DB	0ffH
	DB	0ffH
	DB	0ffH
	DB	0ffH
	DB	0ffH
	DB	0ffH
	DB	0ffH
	DB	0ffH
	DB	0ffH
	DB	0ffH
	DB	0ffH
	DB	0ffH
	DB	0ffH
	DB	0ffH
	DB	0ffH
	DB	0ffH
	DB	0ffH
	DB	0ffH
	DB	0efH
	DB	0fbH
	DB	0ffH
	DB	0ffH
	DB	0ffH
	DB	0ffH
	DB	0ffH
	DB	0ffH
	DB	0ffH
	DB	0ffH
	DB	0ffH
	DB	0ffH
	DB	0ffH
	DB	0ffH
	DB	0ffH
	DB	0ffH
	DB	0ffH
	DB	0ffH
	DB	0ffH
	DB	0ffH
	DB	0ffH
	DB	0ffH
	DB	0ffH
	DB	0ffH
	DB	0ffH
	DB	0ffH
	DB	0ffH
	DB	0ffH
	DB	0f7H
	DB	0ebH
	DB	0a6H
	DB	0e3H
	DB	0ffH
	DB	0ffH
	DB	0ffH
	DB	0ffH
	DB	0ffH
	DB	0ffH
	DB	0ffH
	DB	0ffH
	DB	0ffH
	DB	0ffH
	DB	0ffH
	DB	0ffH
	DB	0ffH
	DB	0ffH
	DB	0ffH
	DB	0ffH
	DB	0ffH
	DB	0ffH
	DB	0ffH
	DB	0ffH
	DB	0ffH
	DB	0ffH
	DB	0ffH
	DB	0ffH
	DB	0ffH
	DB	0fbH
	DB	0dbH
	DB	092H
	DB	014H
	DB	08aH
	DB	0e3H
	DB	0ffH
	DB	0ffH
	DB	0ffH
	DB	0ffH
	DB	0ffH
	DB	0ffH
	DB	0ffH
	DB	0ffH
	DB	0ffH
	DB	0ffH
	DB	0ffH
	DB	0ffH
	DB	0ffH
	DB	0ffH
	DB	0ffH
	DB	0ffH
	DB	0ffH
	DB	0ffH
	DB	0ffH
	DB	0ffH
	DB	0ffH
	DB	0ffH
	DB	0ffH
	DB	0ffH
	DB	0dbH
	DB	07dH
	DB	0cH
	DB	00H
	DB	08H
	DB	02cH
	DB	069H
	DB	0aaH
	DB	0d7H
	DB	0efH
	DB	0fbH
	DB	0ffH
	DB	0ffH
	DB	0ffH
	DB	0ffH
	DB	0ffH
	DB	0ffH
	DB	0ffH
	DB	0ffH
	DB	0ffH
	DB	0ffH
	DB	0ffH
	DB	0ffH
	DB	0ffH
	DB	0ffH
	DB	0fbH
	DB	0efH
	DB	0d7H
	DB	0a2H
	DB	05dH
	DB	024H
	DB	08H
	DB	00H
CONST	ENDS
END
