; Listing generated by Microsoft (R) Optimizing Compiler Version 19.00.24210.0 

	TITLE	C:\MyFiles\SoftwareTeam\Technologies_Boards\Graphic\TouchGFX\Scope\Project\Oscilloscope\Graphic\generated\images\src\text_background.cpp
	.686P
	.XMM
	include listing.inc
	.model	flat

INCLUDELIB MSVCRTD
INCLUDELIB OLDNAMES

PUBLIC	?_text_background@@3QBEB			; _text_background
PUBLIC	?_text_background_alpha_channel@@3QBEB		; _text_background_alpha_channel
CONST	SEGMENT
?_text_background@@3QBEB DB 00H				; _text_background
	DB	00H
	DB	00H
	DB	00H
	DB	0bfH
	DB	0ffH
	DB	039H
	DB	0ceH
	DB	096H
	DB	0b5H
	DB	014H
	DB	0a5H
	DB	0d3H
	DB	09cH
	DB	0d3H
	DB	09cH
	DB	0d3H
	DB	09cH
	DB	0d3H
	DB	09cH
	DB	0d3H
	DB	09cH
	DB	0d3H
	DB	09cH
	DB	0d3H
	DB	09cH
	DB	0d3H
	DB	09cH
	DB	0d3H
	DB	09cH
	DB	0d3H
	DB	09cH
	DB	0d3H
	DB	09cH
	DB	0d3H
	DB	09cH
	DB	0d3H
	DB	09cH
	DB	0d3H
	DB	09cH
	DB	0d3H
	DB	09cH
	DB	0d3H
	DB	09cH
	DB	0d3H
	DB	09cH
	DB	0d3H
	DB	09cH
	DB	0d3H
	DB	09cH
	DB	0d3H
	DB	09cH
	DB	0d3H
	DB	09cH
	DB	0d3H
	DB	09cH
	DB	0d3H
	DB	09cH
	DB	0d3H
	DB	09cH
	DB	0d3H
	DB	09cH
	DB	0d3H
	DB	09cH
	DB	0d3H
	DB	09cH
	DB	0d3H
	DB	09cH
	DB	0d3H
	DB	09cH
	DB	0d3H
	DB	09cH
	DB	0d3H
	DB	09cH
	DB	0d3H
	DB	09cH
	DB	0d3H
	DB	09cH
	DB	0d3H
	DB	09cH
	DB	0d3H
	DB	09cH
	DB	0d3H
	DB	09cH
	DB	0d3H
	DB	09cH
	DB	0d3H
	DB	09cH
	DB	014H
	DB	0a5H
	DB	096H
	DB	0b5H
	DB	039H
	DB	0ceH
	DB	0ffH
	DB	0ffH
	DB	00H
	DB	00H
	DB	00H
	DB	00H
	DB	00H
	DB	00H
	DB	0bbH
	DB	0deH
	DB	0f3H
	DB	09cH
	DB	0aeH
	DB	073H
	DB	0cbH
	DB	05aH
	DB	049H
	DB	04aH
	DB	049H
	DB	04aH
	DB	049H
	DB	04aH
	DB	049H
	DB	04aH
	DB	049H
	DB	04aH
	DB	049H
	DB	04aH
	DB	049H
	DB	04aH
	DB	049H
	DB	04aH
	DB	049H
	DB	04aH
	DB	049H
	DB	04aH
	DB	049H
	DB	04aH
	DB	049H
	DB	04aH
	DB	049H
	DB	04aH
	DB	049H
	DB	04aH
	DB	049H
	DB	04aH
	DB	049H
	DB	04aH
	DB	049H
	DB	04aH
	DB	049H
	DB	04aH
	DB	049H
	DB	04aH
	DB	049H
	DB	04aH
	DB	049H
	DB	04aH
	DB	049H
	DB	04aH
	DB	049H
	DB	04aH
	DB	049H
	DB	04aH
	DB	049H
	DB	04aH
	DB	049H
	DB	04aH
	DB	049H
	DB	04aH
	DB	049H
	DB	04aH
	DB	049H
	DB	04aH
	DB	049H
	DB	04aH
	DB	049H
	DB	04aH
	DB	049H
	DB	04aH
	DB	049H
	DB	04aH
	DB	049H
	DB	04aH
	DB	049H
	DB	04aH
	DB	049H
	DB	04aH
	DB	049H
	DB	04aH
	DB	049H
	DB	04aH
	DB	049H
	DB	04aH
	DB	049H
	DB	04aH
	DB	0cbH
	DB	05aH
	DB	0cfH
	DB	07bH
	DB	014H
	DB	0a5H
	DB	01cH
	DB	0e7H
	DB	00H
	DB	00H
	DB	07eH
	DB	0f7H
	DB	0b2H
	DB	094H
	DB	0cH
	DB	063H
	DB	049H
	DB	04aH
	DB	029H
	DB	04aH
	DB	049H
	DB	04aH
	DB	049H
	DB	04aH
	DB	049H
	DB	04aH
	DB	049H
	DB	04aH
	DB	049H
	DB	04aH
	DB	049H
	DB	04aH
	DB	049H
	DB	04aH
	DB	049H
	DB	04aH
	DB	049H
	DB	04aH
	DB	049H
	DB	04aH
	DB	049H
	DB	04aH
	DB	049H
	DB	04aH
	DB	049H
	DB	04aH
	DB	049H
	DB	04aH
	DB	049H
	DB	04aH
	DB	049H
	DB	04aH
	DB	049H
	DB	04aH
	DB	049H
	DB	04aH
	DB	049H
	DB	04aH
	DB	049H
	DB	04aH
	DB	049H
	DB	04aH
	DB	049H
	DB	04aH
	DB	049H
	DB	04aH
	DB	049H
	DB	04aH
	DB	049H
	DB	04aH
	DB	049H
	DB	04aH
	DB	049H
	DB	04aH
	DB	049H
	DB	04aH
	DB	049H
	DB	04aH
	DB	049H
	DB	04aH
	DB	049H
	DB	04aH
	DB	049H
	DB	04aH
	DB	049H
	DB	04aH
	DB	049H
	DB	04aH
	DB	049H
	DB	04aH
	DB	049H
	DB	04aH
	DB	049H
	DB	04aH
	DB	049H
	DB	04aH
	DB	049H
	DB	04aH
	DB	049H
	DB	04aH
	DB	029H
	DB	04aH
	DB	049H
	DB	04aH
	DB	0cH
	DB	063H
	DB	0d3H
	DB	09cH
	DB	0ffH
	DB	0ffH
	DB	0f7H
	DB	0bdH
	DB	04dH
	DB	06bH
	DB	06aH
	DB	052H
	DB	049H
	DB	04aH
	DB	049H
	DB	04aH
	DB	049H
	DB	04aH
	DB	049H
	DB	04aH
	DB	029H
	DB	04aH
	DB	049H
	DB	04aH
	DB	049H
	DB	04aH
	DB	029H
	DB	04aH
	DB	029H
	DB	04aH
	DB	049H
	DB	04aH
	DB	029H
	DB	04aH
	DB	049H
	DB	04aH
	DB	029H
	DB	04aH
	DB	049H
	DB	04aH
	DB	029H
	DB	04aH
	DB	049H
	DB	04aH
	DB	029H
	DB	04aH
	DB	029H
	DB	04aH
	DB	049H
	DB	04aH
	DB	029H
	DB	04aH
	DB	049H
	DB	04aH
	DB	029H
	DB	04aH
	DB	049H
	DB	04aH
	DB	029H
	DB	04aH
	DB	029H
	DB	04aH
	DB	049H
	DB	04aH
	DB	029H
	DB	04aH
	DB	049H
	DB	04aH
	DB	029H
	DB	04aH
	DB	049H
	DB	04aH
	DB	029H
	DB	04aH
	DB	029H
	DB	04aH
	DB	049H
	DB	04aH
	DB	029H
	DB	04aH
	DB	049H
	DB	04aH
	DB	029H
	DB	04aH
	DB	049H
	DB	04aH
	DB	029H
	DB	04aH
	DB	049H
	DB	04aH
	DB	029H
	DB	04aH
	DB	049H
	DB	04aH
	DB	049H
	DB	04aH
	DB	029H
	DB	04aH
	DB	049H
	DB	04aH
	DB	08aH
	DB	052H
	DB	08eH
	DB	073H
	DB	018H
	DB	0c6H
	DB	034H
	DB	0a5H
	DB	0cbH
	DB	05aH
	DB	049H
	DB	04aH
	DB	049H
	DB	04aH
	DB	049H
	DB	04aH
	DB	049H
	DB	04aH
	DB	029H
	DB	04aH
	DB	049H
	DB	04aH
	DB	049H
	DB	04aH
	DB	049H
	DB	04aH
	DB	049H
	DB	04aH
	DB	049H
	DB	04aH
	DB	049H
	DB	04aH
	DB	049H
	DB	04aH
	DB	049H
	DB	04aH
	DB	049H
	DB	04aH
	DB	029H
	DB	04aH
	DB	049H
	DB	04aH
	DB	049H
	DB	04aH
	DB	049H
	DB	04aH
	DB	049H
	DB	04aH
	DB	049H
	DB	04aH
	DB	049H
	DB	04aH
	DB	049H
	DB	04aH
	DB	049H
	DB	04aH
	DB	049H
	DB	04aH
	DB	049H
	DB	04aH
	DB	049H
	DB	04aH
	DB	049H
	DB	04aH
	DB	049H
	DB	04aH
	DB	049H
	DB	04aH
	DB	049H
	DB	04aH
	DB	049H
	DB	04aH
	DB	049H
	DB	04aH
	DB	049H
	DB	04aH
	DB	049H
	DB	04aH
	DB	049H
	DB	04aH
	DB	049H
	DB	04aH
	DB	049H
	DB	04aH
	DB	029H
	DB	04aH
	DB	049H
	DB	04aH
	DB	049H
	DB	04aH
	DB	049H
	DB	04aH
	DB	049H
	DB	04aH
	DB	049H
	DB	04aH
	DB	049H
	DB	04aH
	DB	028H
	DB	042H
	DB	049H
	DB	04aH
	DB	0ecH
	DB	062H
	DB	055H
	DB	0adH
	DB	0f4H
	DB	0a4H
	DB	0abH
	DB	05aH
	DB	028H
	DB	042H
	DB	029H
	DB	04aH
	DB	049H
	DB	04aH
	DB	049H
	DB	04aH
	DB	048H
	DB	042H
	DB	049H
	DB	04aH
	DB	029H
	DB	04aH
	DB	048H
	DB	042H
	DB	049H
	DB	04aH
	DB	029H
	DB	04aH
	DB	048H
	DB	042H
	DB	049H
	DB	04aH
	DB	029H
	DB	04aH
	DB	048H
	DB	042H
	DB	049H
	DB	04aH
	DB	049H
	DB	04aH
	DB	048H
	DB	042H
	DB	049H
	DB	04aH
	DB	049H
	DB	04aH
	DB	028H
	DB	042H
	DB	049H
	DB	04aH
	DB	049H
	DB	04aH
	DB	028H
	DB	042H
	DB	049H
	DB	04aH
	DB	049H
	DB	04aH
	DB	028H
	DB	042H
	DB	049H
	DB	04aH
	DB	049H
	DB	04aH
	DB	028H
	DB	042H
	DB	049H
	DB	04aH
	DB	049H
	DB	04aH
	DB	028H
	DB	042H
	DB	049H
	DB	04aH
	DB	049H
	DB	04aH
	DB	028H
	DB	042H
	DB	049H
	DB	04aH
	DB	049H
	DB	04aH
	DB	048H
	DB	042H
	DB	049H
	DB	04aH
	DB	049H
	DB	04aH
	DB	028H
	DB	042H
	DB	049H
	DB	04aH
	DB	049H
	DB	04aH
	DB	049H
	DB	04aH
	DB	028H
	DB	042H
	DB	029H
	DB	04aH
	DB	0abH
	DB	05aH
	DB	0f3H
	DB	09cH
	DB	0f3H
	DB	09cH
	DB	0abH
	DB	05aH
	DB	029H
	DB	04aH
	DB	048H
	DB	042H
	DB	049H
	DB	04aH
	DB	029H
	DB	04aH
	DB	049H
	DB	04aH
	DB	049H
	DB	04aH
	DB	029H
	DB	04aH
	DB	049H
	DB	04aH
	DB	049H
	DB	04aH
	DB	029H
	DB	04aH
	DB	049H
	DB	04aH
	DB	049H
	DB	04aH
	DB	029H
	DB	04aH
	DB	049H
	DB	04aH
	DB	049H
	DB	04aH
	DB	029H
	DB	04aH
	DB	029H
	DB	04aH
	DB	049H
	DB	04aH
	DB	049H
	DB	04aH
	DB	029H
	DB	04aH
	DB	049H
	DB	04aH
	DB	049H
	DB	04aH
	DB	029H
	DB	04aH
	DB	049H
	DB	04aH
	DB	049H
	DB	04aH
	DB	029H
	DB	04aH
	DB	049H
	DB	04aH
	DB	049H
	DB	04aH
	DB	029H
	DB	04aH
	DB	049H
	DB	04aH
	DB	049H
	DB	04aH
	DB	029H
	DB	04aH
	DB	049H
	DB	04aH
	DB	049H
	DB	04aH
	DB	029H
	DB	04aH
	DB	049H
	DB	04aH
	DB	049H
	DB	04aH
	DB	029H
	DB	04aH
	DB	049H
	DB	04aH
	DB	049H
	DB	04aH
	DB	029H
	DB	04aH
	DB	049H
	DB	04aH
	DB	049H
	DB	04aH
	DB	049H
	DB	04aH
	DB	029H
	DB	04aH
	DB	028H
	DB	042H
	DB	0cbH
	DB	05aH
	DB	0f3H
	DB	09cH
	DB	0f3H
	DB	09cH
	DB	0abH
	DB	05aH
	DB	029H
	DB	04aH
	DB	049H
	DB	04aH
	DB	049H
	DB	04aH
	DB	029H
	DB	04aH
	DB	049H
	DB	04aH
	DB	049H
	DB	04aH
	DB	049H
	DB	04aH
	DB	049H
	DB	04aH
	DB	049H
	DB	04aH
	DB	049H
	DB	04aH
	DB	049H
	DB	04aH
	DB	049H
	DB	04aH
	DB	049H
	DB	04aH
	DB	049H
	DB	04aH
	DB	049H
	DB	04aH
	DB	049H
	DB	04aH
	DB	049H
	DB	04aH
	DB	049H
	DB	04aH
	DB	029H
	DB	04aH
	DB	049H
	DB	04aH
	DB	049H
	DB	04aH
	DB	049H
	DB	04aH
	DB	049H
	DB	04aH
	DB	049H
	DB	04aH
	DB	049H
	DB	04aH
	DB	049H
	DB	04aH
	DB	049H
	DB	04aH
	DB	049H
	DB	04aH
	DB	049H
	DB	04aH
	DB	049H
	DB	04aH
	DB	049H
	DB	04aH
	DB	049H
	DB	04aH
	DB	049H
	DB	04aH
	DB	049H
	DB	04aH
	DB	049H
	DB	04aH
	DB	049H
	DB	04aH
	DB	029H
	DB	04aH
	DB	049H
	DB	04aH
	DB	049H
	DB	04aH
	DB	029H
	DB	04aH
	DB	049H
	DB	04aH
	DB	048H
	DB	042H
	DB	029H
	DB	04aH
	DB	049H
	DB	04aH
	DB	049H
	DB	04aH
	DB	028H
	DB	042H
	DB	0abH
	DB	05aH
	DB	0f3H
	DB	09cH
	DB	0f3H
	DB	09cH
	DB	0abH
	DB	05aH
	DB	028H
	DB	042H
	DB	029H
	DB	04aH
	DB	049H
	DB	04aH
	DB	048H
	DB	042H
	DB	049H
	DB	04aH
	DB	029H
	DB	04aH
	DB	048H
	DB	042H
	DB	029H
	DB	04aH
	DB	029H
	DB	04aH
	DB	048H
	DB	042H
	DB	029H
	DB	04aH
	DB	049H
	DB	04aH
	DB	028H
	DB	042H
	DB	049H
	DB	04aH
	DB	029H
	DB	04aH
	DB	048H
	DB	042H
	DB	049H
	DB	04aH
	DB	049H
	DB	04aH
	DB	048H
	DB	042H
	DB	049H
	DB	04aH
	DB	029H
	DB	04aH
	DB	048H
	DB	042H
	DB	029H
	DB	04aH
	DB	029H
	DB	04aH
	DB	048H
	DB	042H
	DB	049H
	DB	04aH
	DB	029H
	DB	04aH
	DB	028H
	DB	042H
	DB	049H
	DB	04aH
	DB	029H
	DB	04aH
	DB	048H
	DB	042H
	DB	029H
	DB	04aH
	DB	049H
	DB	04aH
	DB	028H
	DB	042H
	DB	049H
	DB	04aH
	DB	049H
	DB	04aH
	DB	048H
	DB	042H
	DB	049H
	DB	04aH
	DB	049H
	DB	04aH
	DB	048H
	DB	042H
	DB	049H
	DB	04aH
	DB	049H
	DB	04aH
	DB	029H
	DB	04aH
	DB	049H
	DB	04aH
	DB	028H
	DB	042H
	DB	029H
	DB	04aH
	DB	0abH
	DB	05aH
	DB	0f3H
	DB	09cH
	DB	0f4H
	DB	0a4H
	DB	0aaH
	DB	052H
	DB	029H
	DB	04aH
	DB	049H
	DB	04aH
	DB	049H
	DB	04aH
	DB	049H
	DB	04aH
	DB	029H
	DB	04aH
	DB	049H
	DB	04aH
	DB	049H
	DB	04aH
	DB	049H
	DB	04aH
	DB	049H
	DB	04aH
	DB	049H
	DB	04aH
	DB	049H
	DB	04aH
	DB	029H
	DB	04aH
	DB	049H
	DB	04aH
	DB	049H
	DB	04aH
	DB	049H
	DB	04aH
	DB	029H
	DB	04aH
	DB	049H
	DB	04aH
	DB	029H
	DB	04aH
	DB	049H
	DB	04aH
	DB	049H
	DB	04aH
	DB	049H
	DB	04aH
	DB	049H
	DB	04aH
	DB	049H
	DB	04aH
	DB	049H
	DB	04aH
	DB	049H
	DB	04aH
	DB	029H
	DB	04aH
	DB	049H
	DB	04aH
	DB	049H
	DB	04aH
	DB	049H
	DB	04aH
	DB	049H
	DB	04aH
	DB	029H
	DB	04aH
	DB	049H
	DB	04aH
	DB	049H
	DB	04aH
	DB	049H
	DB	04aH
	DB	029H
	DB	04aH
	DB	049H
	DB	04aH
	DB	029H
	DB	04aH
	DB	049H
	DB	04aH
	DB	029H
	DB	04aH
	DB	049H
	DB	04aH
	DB	049H
	DB	04aH
	DB	029H
	DB	04aH
	DB	049H
	DB	04aH
	DB	049H
	DB	04aH
	DB	049H
	DB	04aH
	DB	028H
	DB	042H
	DB	0abH
	DB	05aH
	DB	0f4H
	DB	0a4H
	DB	0f3H
	DB	09cH
	DB	0abH
	DB	05aH
	DB	028H
	DB	042H
	DB	049H
	DB	04aH
	DB	049H
	DB	04aH
	DB	049H
	DB	04aH
	DB	049H
	DB	04aH
	DB	049H
	DB	04aH
	DB	049H
	DB	04aH
	DB	048H
	DB	042H
	DB	029H
	DB	04aH
	DB	049H
	DB	04aH
	DB	049H
	DB	04aH
	DB	048H
	DB	042H
	DB	049H
	DB	04aH
	DB	049H
	DB	04aH
	DB	049H
	DB	04aH
	DB	049H
	DB	04aH
	DB	028H
	DB	042H
	DB	049H
	DB	04aH
	DB	049H
	DB	04aH
	DB	029H
	DB	04aH
	DB	048H
	DB	042H
	DB	049H
	DB	04aH
	DB	029H
	DB	04aH
	DB	048H
	DB	042H
	DB	049H
	DB	04aH
	DB	049H
	DB	04aH
	DB	049H
	DB	04aH
	DB	049H
	DB	04aH
	DB	048H
	DB	042H
	DB	049H
	DB	04aH
	DB	049H
	DB	04aH
	DB	048H
	DB	042H
	DB	049H
	DB	04aH
	DB	049H
	DB	04aH
	DB	049H
	DB	04aH
	DB	028H
	DB	042H
	DB	049H
	DB	04aH
	DB	049H
	DB	04aH
	DB	029H
	DB	04aH
	DB	049H
	DB	04aH
	DB	049H
	DB	04aH
	DB	048H
	DB	042H
	DB	049H
	DB	04aH
	DB	049H
	DB	04aH
	DB	029H
	DB	04aH
	DB	028H
	DB	042H
	DB	0abH
	DB	05aH
	DB	0f3H
	DB	09cH
	DB	0f3H
	DB	09cH
	DB	0abH
	DB	05aH
	DB	029H
	DB	04aH
	DB	048H
	DB	042H
	DB	049H
	DB	04aH
	DB	029H
	DB	04aH
	DB	048H
	DB	042H
	DB	029H
	DB	04aH
	DB	049H
	DB	04aH
	DB	049H
	DB	04aH
	DB	029H
	DB	04aH
	DB	049H
	DB	04aH
	DB	049H
	DB	04aH
	DB	029H
	DB	04aH
	DB	049H
	DB	04aH
	DB	028H
	DB	042H
	DB	049H
	DB	04aH
	DB	049H
	DB	04aH
	DB	049H
	DB	04aH
	DB	049H
	DB	04aH
	DB	049H
	DB	04aH
	DB	029H
	DB	04aH
	DB	049H
	DB	04aH
	DB	049H
	DB	04aH
	DB	029H
	DB	04aH
	DB	049H
	DB	04aH
	DB	049H
	DB	04aH
	DB	028H
	DB	042H
	DB	049H
	DB	04aH
	DB	029H
	DB	04aH
	DB	029H
	DB	04aH
	DB	049H
	DB	04aH
	DB	049H
	DB	04aH
	DB	029H
	DB	04aH
	DB	029H
	DB	04aH
	DB	049H
	DB	04aH
	DB	049H
	DB	04aH
	DB	049H
	DB	04aH
	DB	049H
	DB	04aH
	DB	048H
	DB	042H
	DB	049H
	DB	04aH
	DB	029H
	DB	04aH
	DB	049H
	DB	04aH
	DB	049H
	DB	04aH
	DB	029H
	DB	04aH
	DB	049H
	DB	04aH
	DB	048H
	DB	042H
	DB	029H
	DB	04aH
	DB	0abH
	DB	05aH
	DB	0f3H
	DB	09cH
	DB	0f4H
	DB	0a4H
	DB	0abH
	DB	05aH
	DB	028H
	DB	042H
	DB	049H
	DB	04aH
	DB	049H
	DB	04aH
	DB	029H
	DB	04aH
	DB	049H
	DB	04aH
	DB	049H
	DB	04aH
	DB	029H
	DB	04aH
	DB	049H
	DB	04aH
	DB	049H
	DB	04aH
	DB	048H
	DB	042H
	DB	049H
	DB	04aH
	DB	029H
	DB	04aH
	DB	049H
	DB	04aH
	DB	049H
	DB	04aH
	DB	029H
	DB	04aH
	DB	049H
	DB	04aH
	DB	029H
	DB	04aH
	DB	048H
	DB	042H
	DB	049H
	DB	04aH
	DB	049H
	DB	04aH
	DB	049H
	DB	04aH
	DB	049H
	DB	04aH
	DB	049H
	DB	04aH
	DB	049H
	DB	04aH
	DB	029H
	DB	04aH
	DB	049H
	DB	04aH
	DB	049H
	DB	04aH
	DB	049H
	DB	04aH
	DB	049H
	DB	04aH
	DB	049H
	DB	04aH
	DB	029H
	DB	04aH
	DB	049H
	DB	04aH
	DB	049H
	DB	04aH
	DB	028H
	DB	042H
	DB	049H
	DB	04aH
	DB	049H
	DB	04aH
	DB	029H
	DB	04aH
	DB	049H
	DB	04aH
	DB	049H
	DB	04aH
	DB	049H
	DB	04aH
	DB	028H
	DB	042H
	DB	049H
	DB	04aH
	DB	049H
	DB	04aH
	DB	049H
	DB	04aH
	DB	029H
	DB	04aH
	DB	028H
	DB	042H
	DB	0cbH
	DB	05aH
	DB	0f3H
	DB	09cH
	DB	0f3H
	DB	09cH
	DB	0abH
	DB	05aH
	DB	028H
	DB	042H
	DB	049H
	DB	04aH
	DB	049H
	DB	04aH
	DB	049H
	DB	04aH
	DB	049H
	DB	04aH
	DB	049H
	DB	04aH
	DB	048H
	DB	042H
	DB	029H
	DB	04aH
	DB	049H
	DB	04aH
	DB	049H
	DB	04aH
	DB	029H
	DB	04aH
	DB	049H
	DB	04aH
	DB	049H
	DB	04aH
	DB	049H
	DB	04aH
	DB	049H
	DB	04aH
	DB	049H
	DB	04aH
	DB	049H
	DB	04aH
	DB	029H
	DB	04aH
	DB	049H
	DB	04aH
	DB	028H
	DB	042H
	DB	029H
	DB	04aH
	DB	049H
	DB	04aH
	DB	048H
	DB	042H
	DB	029H
	DB	04aH
	DB	049H
	DB	04aH
	DB	049H
	DB	04aH
	DB	049H
	DB	04aH
	DB	028H
	DB	042H
	DB	049H
	DB	04aH
	DB	049H
	DB	04aH
	DB	048H
	DB	042H
	DB	049H
	DB	04aH
	DB	049H
	DB	04aH
	DB	049H
	DB	04aH
	DB	049H
	DB	04aH
	DB	029H
	DB	04aH
	DB	049H
	DB	04aH
	DB	049H
	DB	04aH
	DB	029H
	DB	04aH
	DB	049H
	DB	04aH
	DB	049H
	DB	04aH
	DB	029H
	DB	04aH
	DB	049H
	DB	04aH
	DB	049H
	DB	04aH
	DB	029H
	DB	04aH
	DB	028H
	DB	042H
	DB	0abH
	DB	05aH
	DB	0f4H
	DB	0a4H
	DB	0f3H
	DB	09cH
	DB	0abH
	DB	05aH
	DB	029H
	DB	04aH
	DB	029H
	DB	04aH
	DB	049H
	DB	04aH
	DB	048H
	DB	042H
	DB	029H
	DB	04aH
	DB	049H
	DB	04aH
	DB	049H
	DB	04aH
	DB	049H
	DB	04aH
	DB	029H
	DB	04aH
	DB	049H
	DB	04aH
	DB	049H
	DB	04aH
	DB	048H
	DB	042H
	DB	029H
	DB	04aH
	DB	049H
	DB	04aH
	DB	048H
	DB	042H
	DB	029H
	DB	04aH
	DB	049H
	DB	04aH
	DB	049H
	DB	04aH
	DB	049H
	DB	04aH
	DB	049H
	DB	04aH
	DB	049H
	DB	04aH
	DB	049H
	DB	04aH
	DB	029H
	DB	04aH
	DB	049H
	DB	04aH
	DB	049H
	DB	04aH
	DB	049H
	DB	04aH
	DB	029H
	DB	04aH
	DB	049H
	DB	04aH
	DB	049H
	DB	04aH
	DB	029H
	DB	04aH
	DB	049H
	DB	04aH
	DB	049H
	DB	04aH
	DB	029H
	DB	04aH
	DB	049H
	DB	04aH
	DB	049H
	DB	04aH
	DB	048H
	DB	042H
	DB	049H
	DB	04aH
	DB	049H
	DB	04aH
	DB	028H
	DB	042H
	DB	049H
	DB	04aH
	DB	049H
	DB	04aH
	DB	049H
	DB	04aH
	DB	048H
	DB	042H
	DB	049H
	DB	04aH
	DB	029H
	DB	04aH
	DB	028H
	DB	042H
	DB	0abH
	DB	05aH
	DB	0f3H
	DB	09cH
	DB	0f3H
	DB	09cH
	DB	0abH
	DB	05aH
	DB	028H
	DB	042H
	DB	049H
	DB	04aH
	DB	049H
	DB	04aH
	DB	029H
	DB	04aH
	DB	049H
	DB	04aH
	DB	049H
	DB	04aH
	DB	029H
	DB	04aH
	DB	049H
	DB	04aH
	DB	048H
	DB	042H
	DB	049H
	DB	04aH
	DB	049H
	DB	04aH
	DB	029H
	DB	04aH
	DB	049H
	DB	04aH
	DB	049H
	DB	04aH
	DB	029H
	DB	04aH
	DB	049H
	DB	04aH
	DB	048H
	DB	042H
	DB	029H
	DB	04aH
	DB	049H
	DB	04aH
	DB	049H
	DB	04aH
	DB	049H
	DB	04aH
	DB	029H
	DB	04aH
	DB	049H
	DB	04aH
	DB	048H
	DB	042H
	DB	049H
	DB	04aH
	DB	029H
	DB	04aH
	DB	048H
	DB	042H
	DB	049H
	DB	04aH
	DB	049H
	DB	04aH
	DB	029H
	DB	04aH
	DB	049H
	DB	04aH
	DB	048H
	DB	042H
	DB	029H
	DB	04aH
	DB	049H
	DB	04aH
	DB	049H
	DB	04aH
	DB	029H
	DB	04aH
	DB	049H
	DB	04aH
	DB	049H
	DB	04aH
	DB	049H
	DB	04aH
	DB	049H
	DB	04aH
	DB	029H
	DB	04aH
	DB	049H
	DB	04aH
	DB	049H
	DB	04aH
	DB	049H
	DB	04aH
	DB	029H
	DB	04aH
	DB	028H
	DB	042H
	DB	0cbH
	DB	05aH
	DB	0f3H
	DB	09cH
	DB	0f4H
	DB	0a4H
	DB	0abH
	DB	05aH
	DB	028H
	DB	042H
	DB	049H
	DB	04aH
	DB	049H
	DB	04aH
	DB	049H
	DB	04aH
	DB	049H
	DB	04aH
	DB	048H
	DB	042H
	DB	029H
	DB	04aH
	DB	049H
	DB	04aH
	DB	049H
	DB	04aH
	DB	029H
	DB	04aH
	DB	049H
	DB	04aH
	DB	049H
	DB	04aH
	DB	049H
	DB	04aH
	DB	049H
	DB	04aH
	DB	049H
	DB	04aH
	DB	049H
	DB	04aH
	DB	049H
	DB	04aH
	DB	029H
	DB	04aH
	DB	049H
	DB	04aH
	DB	048H
	DB	042H
	DB	029H
	DB	04aH
	DB	049H
	DB	04aH
	DB	049H
	DB	04aH
	DB	049H
	DB	04aH
	DB	029H
	DB	04aH
	DB	049H
	DB	04aH
	DB	049H
	DB	04aH
	DB	049H
	DB	04aH
	DB	029H
	DB	04aH
	DB	048H
	DB	042H
	DB	049H
	DB	04aH
	DB	049H
	DB	04aH
	DB	049H
	DB	04aH
	DB	029H
	DB	04aH
	DB	048H
	DB	042H
	DB	049H
	DB	04aH
	DB	029H
	DB	04aH
	DB	049H
	DB	04aH
	DB	049H
	DB	04aH
	DB	028H
	DB	042H
	DB	049H
	DB	04aH
	DB	049H
	DB	04aH
	DB	029H
	DB	04aH
	DB	049H
	DB	04aH
	DB	048H
	DB	042H
	DB	029H
	DB	04aH
	DB	0abH
	DB	05aH
	DB	0f3H
	DB	09cH
	DB	035H
	DB	0adH
	DB	0cbH
	DB	05aH
	DB	049H
	DB	04aH
	DB	049H
	DB	04aH
	DB	049H
	DB	04aH
	DB	029H
	DB	04aH
	DB	049H
	DB	04aH
	DB	049H
	DB	04aH
	DB	049H
	DB	04aH
	DB	049H
	DB	04aH
	DB	029H
	DB	04aH
	DB	049H
	DB	04aH
	DB	048H
	DB	042H
	DB	029H
	DB	04aH
	DB	049H
	DB	04aH
	DB	028H
	DB	042H
	DB	049H
	DB	04aH
	DB	049H
	DB	04aH
	DB	029H
	DB	04aH
	DB	049H
	DB	04aH
	DB	049H
	DB	04aH
	DB	049H
	DB	04aH
	DB	049H
	DB	04aH
	DB	048H
	DB	042H
	DB	029H
	DB	04aH
	DB	049H
	DB	04aH
	DB	049H
	DB	04aH
	DB	049H
	DB	04aH
	DB	049H
	DB	04aH
	DB	029H
	DB	04aH
	DB	049H
	DB	04aH
	DB	049H
	DB	04aH
	DB	029H
	DB	04aH
	DB	049H
	DB	04aH
	DB	049H
	DB	04aH
	DB	049H
	DB	04aH
	DB	049H
	DB	04aH
	DB	049H
	DB	04aH
	DB	029H
	DB	04aH
	DB	048H
	DB	042H
	DB	049H
	DB	04aH
	DB	049H
	DB	04aH
	DB	049H
	DB	04aH
	DB	049H
	DB	04aH
	DB	029H
	DB	04aH
	DB	049H
	DB	04aH
	DB	049H
	DB	04aH
	DB	049H
	DB	04aH
	DB	0cH
	DB	063H
	DB	055H
	DB	0adH
	DB	0f7H
	DB	0bdH
	DB	06dH
	DB	06bH
	DB	06aH
	DB	052H
	DB	029H
	DB	04aH
	DB	028H
	DB	042H
	DB	049H
	DB	04aH
	DB	049H
	DB	04aH
	DB	029H
	DB	04aH
	DB	049H
	DB	04aH
	DB	048H
	DB	042H
	DB	049H
	DB	04aH
	DB	049H
	DB	04aH
	DB	049H
	DB	04aH
	DB	049H
	DB	04aH
	DB	049H
	DB	04aH
	DB	029H
	DB	04aH
	DB	049H
	DB	04aH
	DB	048H
	DB	042H
	DB	049H
	DB	04aH
	DB	049H
	DB	04aH
	DB	028H
	DB	042H
	DB	049H
	DB	04aH
	DB	049H
	DB	04aH
	DB	029H
	DB	04aH
	DB	049H
	DB	04aH
	DB	049H
	DB	04aH
	DB	028H
	DB	042H
	DB	049H
	DB	04aH
	DB	049H
	DB	04aH
	DB	048H
	DB	042H
	DB	049H
	DB	04aH
	DB	049H
	DB	04aH
	DB	049H
	DB	04aH
	DB	029H
	DB	04aH
	DB	048H
	DB	042H
	DB	029H
	DB	04aH
	DB	049H
	DB	04aH
	DB	049H
	DB	04aH
	DB	049H
	DB	04aH
	DB	029H
	DB	04aH
	DB	049H
	DB	04aH
	DB	029H
	DB	04aH
	DB	049H
	DB	04aH
	DB	048H
	DB	042H
	DB	049H
	DB	04aH
	DB	028H
	DB	042H
	DB	029H
	DB	04aH
	DB	08aH
	DB	052H
	DB	0aeH
	DB	073H
	DB	018H
	DB	0c6H
	DB	0dfH
	DB	0ffH
	DB	0d3H
	DB	09cH
	DB	0cH
	DB	063H
	DB	049H
	DB	04aH
	DB	048H
	DB	042H
	DB	049H
	DB	04aH
	DB	049H
	DB	04aH
	DB	029H
	DB	04aH
	DB	049H
	DB	04aH
	DB	049H
	DB	04aH
	DB	029H
	DB	04aH
	DB	049H
	DB	04aH
	DB	029H
	DB	04aH
	DB	049H
	DB	04aH
	DB	048H
	DB	042H
	DB	049H
	DB	04aH
	DB	029H
	DB	04aH
	DB	049H
	DB	04aH
	DB	049H
	DB	04aH
	DB	029H
	DB	04aH
	DB	049H
	DB	04aH
	DB	049H
	DB	04aH
	DB	029H
	DB	04aH
	DB	049H
	DB	04aH
	DB	049H
	DB	04aH
	DB	049H
	DB	04aH
	DB	029H
	DB	04aH
	DB	049H
	DB	04aH
	DB	049H
	DB	04aH
	DB	029H
	DB	04aH
	DB	049H
	DB	04aH
	DB	049H
	DB	04aH
	DB	029H
	DB	04aH
	DB	049H
	DB	04aH
	DB	049H
	DB	04aH
	DB	049H
	DB	04aH
	DB	029H
	DB	04aH
	DB	048H
	DB	042H
	DB	049H
	DB	04aH
	DB	049H
	DB	04aH
	DB	049H
	DB	04aH
	DB	029H
	DB	04aH
	DB	049H
	DB	04aH
	DB	049H
	DB	04aH
	DB	049H
	DB	04aH
	DB	029H
	DB	04aH
	DB	049H
	DB	04aH
	DB	02cH
	DB	063H
	DB	014H
	DB	0a5H
	DB	0ffH
	DB	0ffH
	DB	00H
	DB	00H
	DB	0fcH
	DB	0e6H
	DB	034H
	DB	0a5H
	DB	0efH
	DB	07bH
	DB	0ecH
	DB	062H
	DB	06aH
	DB	052H
	DB	049H
	DB	04aH
	DB	048H
	DB	042H
	DB	049H
	DB	04aH
	DB	029H
	DB	04aH
	DB	049H
	DB	04aH
	DB	048H
	DB	042H
	DB	029H
	DB	04aH
	DB	049H
	DB	04aH
	DB	049H
	DB	04aH
	DB	049H
	DB	04aH
	DB	049H
	DB	04aH
	DB	029H
	DB	04aH
	DB	049H
	DB	04aH
	DB	049H
	DB	04aH
	DB	049H
	DB	04aH
	DB	049H
	DB	04aH
	DB	048H
	DB	042H
	DB	049H
	DB	04aH
	DB	049H
	DB	04aH
	DB	028H
	DB	042H
	DB	049H
	DB	04aH
	DB	049H
	DB	04aH
	DB	029H
	DB	04aH
	DB	049H
	DB	04aH
	DB	048H
	DB	042H
	DB	029H
	DB	04aH
	DB	049H
	DB	04aH
	DB	048H
	DB	042H
	DB	049H
	DB	04aH
	DB	049H
	DB	04aH
	DB	029H
	DB	04aH
	DB	049H
	DB	04aH
	DB	049H
	DB	04aH
	DB	029H
	DB	04aH
	DB	048H
	DB	042H
	DB	049H
	DB	04aH
	DB	029H
	DB	04aH
	DB	049H
	DB	04aH
	DB	069H
	DB	04aH
	DB	0cH
	DB	063H
	DB	010H
	DB	084H
	DB	035H
	DB	0adH
	DB	05dH
	DB	0efH
	DB	00H
	DB	00H
	DB	00H
	DB	00H
	DB	00H
	DB	00H
	DB	0ffH
	DB	0ffH
	DB	07aH
	DB	0d6H
	DB	0b6H
	DB	0b5H
	DB	034H
	DB	0a5H
	DB	0d3H
	DB	09cH
	DB	0d3H
	DB	09cH
	DB	0d3H
	DB	09cH
	DB	0d3H
	DB	09cH
	DB	0d3H
	DB	09cH
	DB	0d3H
	DB	09cH
	DB	0d3H
	DB	09cH
	DB	0d3H
	DB	09cH
	DB	0d3H
	DB	09cH
	DB	0d3H
	DB	09cH
	DB	0d3H
	DB	09cH
	DB	0d3H
	DB	09cH
	DB	0d3H
	DB	09cH
	DB	0d3H
	DB	09cH
	DB	0d3H
	DB	09cH
	DB	0d3H
	DB	09cH
	DB	0d3H
	DB	09cH
	DB	0d3H
	DB	09cH
	DB	0d3H
	DB	09cH
	DB	0d3H
	DB	09cH
	DB	0d3H
	DB	09cH
	DB	0d3H
	DB	09cH
	DB	0d3H
	DB	09cH
	DB	0d3H
	DB	09cH
	DB	0d3H
	DB	09cH
	DB	0d3H
	DB	09cH
	DB	0d3H
	DB	09cH
	DB	0d3H
	DB	09cH
	DB	0d3H
	DB	09cH
	DB	0d3H
	DB	09cH
	DB	0d3H
	DB	09cH
	DB	0d3H
	DB	09cH
	DB	0d3H
	DB	09cH
	DB	0d3H
	DB	09cH
	DB	0d3H
	DB	09cH
	DB	0d3H
	DB	09cH
	DB	0d3H
	DB	09cH
	DB	0d3H
	DB	09cH
	DB	034H
	DB	0a5H
	DB	0b7H
	DB	0bdH
	DB	079H
	DB	0ceH
	DB	0ffH
	DB	0ffH
	DB	00H
	DB	00H
	DB	00H
	DB	00H
?_text_background_alpha_channel@@3QBEB DB 00H		; _text_background_alpha_channel
	DB	00H
	DB	028H
	DB	082H
	DB	0c7H
	DB	0ebH
	DB	0fbH
	DB	0ffH
	DB	0ffH
	DB	0ffH
	DB	0ffH
	DB	0ffH
	DB	0ffH
	DB	0ffH
	DB	0ffH
	DB	0ffH
	DB	0ffH
	DB	0ffH
	DB	0ffH
	DB	0ffH
	DB	0ffH
	DB	0ffH
	DB	0ffH
	DB	0ffH
	DB	0ffH
	DB	0ffH
	DB	0ffH
	DB	0ffH
	DB	0ffH
	DB	0ffH
	DB	0ffH
	DB	0ffH
	DB	0ffH
	DB	0ffH
	DB	0ffH
	DB	0ffH
	DB	0ffH
	DB	0ffH
	DB	0ffH
	DB	0ffH
	DB	0ffH
	DB	0ffH
	DB	0ffH
	DB	0fbH
	DB	0efH
	DB	0c7H
	DB	075H
	DB	01cH
	DB	00H
	DB	00H
	DB	00H
	DB	065H
	DB	0dbH
	DB	0ffH
	DB	0ffH
	DB	0ffH
	DB	0ffH
	DB	0ffH
	DB	0ffH
	DB	0ffH
	DB	0ffH
	DB	0ffH
	DB	0ffH
	DB	0ffH
	DB	0ffH
	DB	0ffH
	DB	0ffH
	DB	0ffH
	DB	0ffH
	DB	0ffH
	DB	0ffH
	DB	0ffH
	DB	0ffH
	DB	0ffH
	DB	0ffH
	DB	0ffH
	DB	0ffH
	DB	0ffH
	DB	0ffH
	DB	0ffH
	DB	0ffH
	DB	0ffH
	DB	0ffH
	DB	0ffH
	DB	0ffH
	DB	0ffH
	DB	0ffH
	DB	0ffH
	DB	0ffH
	DB	0ffH
	DB	0ffH
	DB	0ffH
	DB	0ffH
	DB	0ffH
	DB	0ffH
	DB	0ffH
	DB	0ffH
	DB	0d7H
	DB	059H
	DB	00H
	DB	045H
	DB	0dfH
	DB	0ffH
	DB	0ffH
	DB	0ffH
	DB	0ffH
	DB	0ffH
	DB	0ffH
	DB	0ffH
	DB	0ffH
	DB	0ffH
	DB	0ffH
	DB	0ffH
	DB	0ffH
	DB	0ffH
	DB	0ffH
	DB	0ffH
	DB	0ffH
	DB	0ffH
	DB	0ffH
	DB	0ffH
	DB	0ffH
	DB	0ffH
	DB	0ffH
	DB	0ffH
	DB	0ffH
	DB	0ffH
	DB	0ffH
	DB	0ffH
	DB	0ffH
	DB	0ffH
	DB	0ffH
	DB	0ffH
	DB	0ffH
	DB	0ffH
	DB	0ffH
	DB	0ffH
	DB	0ffH
	DB	0ffH
	DB	0ffH
	DB	0ffH
	DB	0ffH
	DB	0ffH
	DB	0ffH
	DB	0ffH
	DB	0ffH
	DB	0ffH
	DB	0ffH
	DB	0dbH
	DB	02cH
	DB	0b2H
	DB	0f3H
	DB	0ffH
	DB	0ffH
	DB	0ffH
	DB	0ffH
	DB	0ffH
	DB	0ffH
	DB	0ffH
	DB	0ffH
	DB	0ffH
	DB	0ffH
	DB	0ffH
	DB	0ffH
	DB	0ffH
	DB	0ffH
	DB	0ffH
	DB	0ffH
	DB	0ffH
	DB	0ffH
	DB	0ffH
	DB	0ffH
	DB	0ffH
	DB	0ffH
	DB	0ffH
	DB	0ffH
	DB	0ffH
	DB	0ffH
	DB	0ffH
	DB	0ffH
	DB	0ffH
	DB	0ffH
	DB	0ffH
	DB	0ffH
	DB	0ffH
	DB	0ffH
	DB	0ffH
	DB	0ffH
	DB	0ffH
	DB	0ffH
	DB	0ffH
	DB	0ffH
	DB	0ffH
	DB	0ffH
	DB	0ffH
	DB	0ffH
	DB	0ffH
	DB	0ffH
	DB	0efH
	DB	0a2H
	DB	0e7H
	DB	0fbH
	DB	0ffH
	DB	0ffH
	DB	0ffH
	DB	0ffH
	DB	0ffH
	DB	0ffH
	DB	0ffH
	DB	0ffH
	DB	0ffH
	DB	0ffH
	DB	0ffH
	DB	0ffH
	DB	0ffH
	DB	0ffH
	DB	0ffH
	DB	0ffH
	DB	0ffH
	DB	0ffH
	DB	0ffH
	DB	0ffH
	DB	0ffH
	DB	0ffH
	DB	0ffH
	DB	0ffH
	DB	0ffH
	DB	0ffH
	DB	0ffH
	DB	0ffH
	DB	0ffH
	DB	0ffH
	DB	0ffH
	DB	0ffH
	DB	0ffH
	DB	0ffH
	DB	0ffH
	DB	0ffH
	DB	0ffH
	DB	0ffH
	DB	0ffH
	DB	0ffH
	DB	0ffH
	DB	0ffH
	DB	0ffH
	DB	0ffH
	DB	0ffH
	DB	0ffH
	DB	0fbH
	DB	0dfH
	DB	0ffH
	DB	0ffH
	DB	0ffH
	DB	0ffH
	DB	0ffH
	DB	0ffH
	DB	0ffH
	DB	0ffH
	DB	0ffH
	DB	0ffH
	DB	0ffH
	DB	0ffH
	DB	0ffH
	DB	0ffH
	DB	0ffH
	DB	0ffH
	DB	0ffH
	DB	0ffH
	DB	0ffH
	DB	0ffH
	DB	0ffH
	DB	0ffH
	DB	0ffH
	DB	0ffH
	DB	0ffH
	DB	0ffH
	DB	0ffH
	DB	0ffH
	DB	0ffH
	DB	0ffH
	DB	0ffH
	DB	0ffH
	DB	0ffH
	DB	0ffH
	DB	0ffH
	DB	0ffH
	DB	0ffH
	DB	0ffH
	DB	0ffH
	DB	0ffH
	DB	0ffH
	DB	0ffH
	DB	0ffH
	DB	0ffH
	DB	0ffH
	DB	0ffH
	DB	0ffH
	DB	0ffH
	DB	0ffH
	DB	0ffH
	DB	0ffH
	DB	0ffH
	DB	0ffH
	DB	0ffH
	DB	0ffH
	DB	0ffH
	DB	0ffH
	DB	0ffH
	DB	0ffH
	DB	0ffH
	DB	0ffH
	DB	0ffH
	DB	0ffH
	DB	0ffH
	DB	0ffH
	DB	0ffH
	DB	0ffH
	DB	0ffH
	DB	0ffH
	DB	0ffH
	DB	0ffH
	DB	0ffH
	DB	0ffH
	DB	0ffH
	DB	0ffH
	DB	0ffH
	DB	0ffH
	DB	0ffH
	DB	0ffH
	DB	0ffH
	DB	0ffH
	DB	0ffH
	DB	0ffH
	DB	0ffH
	DB	0ffH
	DB	0ffH
	DB	0ffH
	DB	0ffH
	DB	0ffH
	DB	0ffH
	DB	0ffH
	DB	0ffH
	DB	0ffH
	DB	0ffH
	DB	0ffH
	DB	0ffH
	DB	0ffH
	DB	0ffH
	DB	0ffH
	DB	0ffH
	DB	0ffH
	DB	0ffH
	DB	0ffH
	DB	0ffH
	DB	0ffH
	DB	0ffH
	DB	0ffH
	DB	0ffH
	DB	0ffH
	DB	0ffH
	DB	0ffH
	DB	0ffH
	DB	0ffH
	DB	0ffH
	DB	0ffH
	DB	0ffH
	DB	0ffH
	DB	0ffH
	DB	0ffH
	DB	0ffH
	DB	0ffH
	DB	0ffH
	DB	0ffH
	DB	0ffH
	DB	0ffH
	DB	0ffH
	DB	0ffH
	DB	0ffH
	DB	0ffH
	DB	0ffH
	DB	0ffH
	DB	0ffH
	DB	0ffH
	DB	0ffH
	DB	0ffH
	DB	0ffH
	DB	0ffH
	DB	0ffH
	DB	0ffH
	DB	0ffH
	DB	0ffH
	DB	0ffH
	DB	0ffH
	DB	0ffH
	DB	0ffH
	DB	0ffH
	DB	0ffH
	DB	0ffH
	DB	0ffH
	DB	0ffH
	DB	0ffH
	DB	0ffH
	DB	0ffH
	DB	0ffH
	DB	0ffH
	DB	0ffH
	DB	0ffH
	DB	0ffH
	DB	0ffH
	DB	0ffH
	DB	0ffH
	DB	0ffH
	DB	0ffH
	DB	0ffH
	DB	0ffH
	DB	0ffH
	DB	0ffH
	DB	0ffH
	DB	0ffH
	DB	0ffH
	DB	0ffH
	DB	0ffH
	DB	0ffH
	DB	0ffH
	DB	0ffH
	DB	0ffH
	DB	0ffH
	DB	0ffH
	DB	0ffH
	DB	0ffH
	DB	0ffH
	DB	0ffH
	DB	0ffH
	DB	0ffH
	DB	0ffH
	DB	0ffH
	DB	0ffH
	DB	0ffH
	DB	0ffH
	DB	0ffH
	DB	0ffH
	DB	0ffH
	DB	0ffH
	DB	0ffH
	DB	0ffH
	DB	0ffH
	DB	0ffH
	DB	0ffH
	DB	0ffH
	DB	0ffH
	DB	0ffH
	DB	0ffH
	DB	0ffH
	DB	0ffH
	DB	0ffH
	DB	0ffH
	DB	0ffH
	DB	0ffH
	DB	0ffH
	DB	0ffH
	DB	0ffH
	DB	0ffH
	DB	0ffH
	DB	0ffH
	DB	0ffH
	DB	0ffH
	DB	0ffH
	DB	0ffH
	DB	0ffH
	DB	0ffH
	DB	0ffH
	DB	0ffH
	DB	0ffH
	DB	0ffH
	DB	0ffH
	DB	0ffH
	DB	0ffH
	DB	0ffH
	DB	0ffH
	DB	0ffH
	DB	0ffH
	DB	0ffH
	DB	0ffH
	DB	0ffH
	DB	0ffH
	DB	0ffH
	DB	0ffH
	DB	0ffH
	DB	0ffH
	DB	0ffH
	DB	0ffH
	DB	0ffH
	DB	0ffH
	DB	0ffH
	DB	0ffH
	DB	0ffH
	DB	0ffH
	DB	0ffH
	DB	0ffH
	DB	0ffH
	DB	0ffH
	DB	0ffH
	DB	0ffH
	DB	0ffH
	DB	0ffH
	DB	0ffH
	DB	0ffH
	DB	0ffH
	DB	0ffH
	DB	0ffH
	DB	0ffH
	DB	0ffH
	DB	0ffH
	DB	0ffH
	DB	0ffH
	DB	0ffH
	DB	0ffH
	DB	0ffH
	DB	0ffH
	DB	0ffH
	DB	0ffH
	DB	0ffH
	DB	0ffH
	DB	0ffH
	DB	0ffH
	DB	0ffH
	DB	0ffH
	DB	0ffH
	DB	0ffH
	DB	0ffH
	DB	0ffH
	DB	0ffH
	DB	0ffH
	DB	0ffH
	DB	0ffH
	DB	0ffH
	DB	0ffH
	DB	0ffH
	DB	0ffH
	DB	0ffH
	DB	0ffH
	DB	0ffH
	DB	0ffH
	DB	0ffH
	DB	0ffH
	DB	0ffH
	DB	0ffH
	DB	0ffH
	DB	0ffH
	DB	0ffH
	DB	0ffH
	DB	0ffH
	DB	0ffH
	DB	0ffH
	DB	0ffH
	DB	0ffH
	DB	0ffH
	DB	0ffH
	DB	0ffH
	DB	0ffH
	DB	0ffH
	DB	0ffH
	DB	0ffH
	DB	0ffH
	DB	0ffH
	DB	0ffH
	DB	0ffH
	DB	0ffH
	DB	0ffH
	DB	0ffH
	DB	0ffH
	DB	0ffH
	DB	0ffH
	DB	0ffH
	DB	0ffH
	DB	0ffH
	DB	0ffH
	DB	0ffH
	DB	0ffH
	DB	0ffH
	DB	0ffH
	DB	0ffH
	DB	0ffH
	DB	0ffH
	DB	0ffH
	DB	0ffH
	DB	0ffH
	DB	0ffH
	DB	0ffH
	DB	0ffH
	DB	0ffH
	DB	0ffH
	DB	0ffH
	DB	0ffH
	DB	0ffH
	DB	0ffH
	DB	0ffH
	DB	0ffH
	DB	0ffH
	DB	0ffH
	DB	0ffH
	DB	0ffH
	DB	0ffH
	DB	0ffH
	DB	0ffH
	DB	0ffH
	DB	0ffH
	DB	0ffH
	DB	0ffH
	DB	0ffH
	DB	0ffH
	DB	0ffH
	DB	0ffH
	DB	0ffH
	DB	0ffH
	DB	0ffH
	DB	0ffH
	DB	0ffH
	DB	0ffH
	DB	0ffH
	DB	0ffH
	DB	0ffH
	DB	0ffH
	DB	0ffH
	DB	0ffH
	DB	0ffH
	DB	0ffH
	DB	0ffH
	DB	0ffH
	DB	0ffH
	DB	0ffH
	DB	0ffH
	DB	0ffH
	DB	0ffH
	DB	0ffH
	DB	0ffH
	DB	0ffH
	DB	0ffH
	DB	0ffH
	DB	0ffH
	DB	0ffH
	DB	0ffH
	DB	0ffH
	DB	0ffH
	DB	0ffH
	DB	0ffH
	DB	0ffH
	DB	0ffH
	DB	0ffH
	DB	0ffH
	DB	0ffH
	DB	0ffH
	DB	0ffH
	DB	0ffH
	DB	0ffH
	DB	0ffH
	DB	0ffH
	DB	0ffH
	DB	0ffH
	DB	0ffH
	DB	0ffH
	DB	0ffH
	DB	0ffH
	DB	0ffH
	DB	0ffH
	DB	0ffH
	DB	0ffH
	DB	0ffH
	DB	0ffH
	DB	0ffH
	DB	0ffH
	DB	0ffH
	DB	0ffH
	DB	0ffH
	DB	0ffH
	DB	0ffH
	DB	0ffH
	DB	0ffH
	DB	0ffH
	DB	0ffH
	DB	0ffH
	DB	0ffH
	DB	0ffH
	DB	0ffH
	DB	0ffH
	DB	0ffH
	DB	0ffH
	DB	0ffH
	DB	0ffH
	DB	0ffH
	DB	0ffH
	DB	0ffH
	DB	0ffH
	DB	0ffH
	DB	0ffH
	DB	0ffH
	DB	0ffH
	DB	0ffH
	DB	0ffH
	DB	0ffH
	DB	0ffH
	DB	0ffH
	DB	0ffH
	DB	0ffH
	DB	0ffH
	DB	0ffH
	DB	0ffH
	DB	0ffH
	DB	0ffH
	DB	0ffH
	DB	0ffH
	DB	0ffH
	DB	0ffH
	DB	0ffH
	DB	0ffH
	DB	0ffH
	DB	0ffH
	DB	0ffH
	DB	0ffH
	DB	0ffH
	DB	0ffH
	DB	0ffH
	DB	0ffH
	DB	0ffH
	DB	0ffH
	DB	0ffH
	DB	0ffH
	DB	0ffH
	DB	0ffH
	DB	0ffH
	DB	0ffH
	DB	0ffH
	DB	0ffH
	DB	0ffH
	DB	0ffH
	DB	0ffH
	DB	0ffH
	DB	0ffH
	DB	0ffH
	DB	0ffH
	DB	0ffH
	DB	0ffH
	DB	0ffH
	DB	0ffH
	DB	0ffH
	DB	0ffH
	DB	0ffH
	DB	0ffH
	DB	0ffH
	DB	0ffH
	DB	0ffH
	DB	0ffH
	DB	0ffH
	DB	0ffH
	DB	0ffH
	DB	0ffH
	DB	0ffH
	DB	0ffH
	DB	0ffH
	DB	0ffH
	DB	0ffH
	DB	0ffH
	DB	0ffH
	DB	0ffH
	DB	0ffH
	DB	0ffH
	DB	0ffH
	DB	0ffH
	DB	0ffH
	DB	0ffH
	DB	0ffH
	DB	0ffH
	DB	0ffH
	DB	0ffH
	DB	0ffH
	DB	0ffH
	DB	0ffH
	DB	0ffH
	DB	0ffH
	DB	0ffH
	DB	0ffH
	DB	0ffH
	DB	0ffH
	DB	0ffH
	DB	0ffH
	DB	0ffH
	DB	0ffH
	DB	0ffH
	DB	0ffH
	DB	0ffH
	DB	0ffH
	DB	0ffH
	DB	0ffH
	DB	0ffH
	DB	0ffH
	DB	0ffH
	DB	0ffH
	DB	0ffH
	DB	0ffH
	DB	0ffH
	DB	0ffH
	DB	0ffH
	DB	0ffH
	DB	0ffH
	DB	0ffH
	DB	0ffH
	DB	0ffH
	DB	0ffH
	DB	0ffH
	DB	0ffH
	DB	0ffH
	DB	0ffH
	DB	0ffH
	DB	0ffH
	DB	0ffH
	DB	0ffH
	DB	0ffH
	DB	0ffH
	DB	0ffH
	DB	0ffH
	DB	0ffH
	DB	0ffH
	DB	0ffH
	DB	0ffH
	DB	0ffH
	DB	0ffH
	DB	0ffH
	DB	0ffH
	DB	0ffH
	DB	0ffH
	DB	0ffH
	DB	0ffH
	DB	0ffH
	DB	0ffH
	DB	0ffH
	DB	0ffH
	DB	0ffH
	DB	0ffH
	DB	0ffH
	DB	0ffH
	DB	0ffH
	DB	0ffH
	DB	0ffH
	DB	0ffH
	DB	0ffH
	DB	0ffH
	DB	0ffH
	DB	0ffH
	DB	0ffH
	DB	0ffH
	DB	0e7H
	DB	0fbH
	DB	0ffH
	DB	0ffH
	DB	0ffH
	DB	0ffH
	DB	0ffH
	DB	0ffH
	DB	0ffH
	DB	0ffH
	DB	0ffH
	DB	0ffH
	DB	0ffH
	DB	0ffH
	DB	0ffH
	DB	0ffH
	DB	0ffH
	DB	0ffH
	DB	0ffH
	DB	0ffH
	DB	0ffH
	DB	0ffH
	DB	0ffH
	DB	0ffH
	DB	0ffH
	DB	0ffH
	DB	0ffH
	DB	0ffH
	DB	0ffH
	DB	0ffH
	DB	0ffH
	DB	0ffH
	DB	0ffH
	DB	0ffH
	DB	0ffH
	DB	0ffH
	DB	0ffH
	DB	0ffH
	DB	0ffH
	DB	0ffH
	DB	0ffH
	DB	0ffH
	DB	0ffH
	DB	0ffH
	DB	0ffH
	DB	0ffH
	DB	0ffH
	DB	0ffH
	DB	0fbH
	DB	0dfH
	DB	0b2H
	DB	0f3H
	DB	0ffH
	DB	0ffH
	DB	0ffH
	DB	0ffH
	DB	0ffH
	DB	0ffH
	DB	0ffH
	DB	0ffH
	DB	0ffH
	DB	0ffH
	DB	0ffH
	DB	0ffH
	DB	0ffH
	DB	0ffH
	DB	0ffH
	DB	0ffH
	DB	0ffH
	DB	0ffH
	DB	0ffH
	DB	0ffH
	DB	0ffH
	DB	0ffH
	DB	0ffH
	DB	0ffH
	DB	0ffH
	DB	0ffH
	DB	0ffH
	DB	0ffH
	DB	0ffH
	DB	0ffH
	DB	0ffH
	DB	0ffH
	DB	0ffH
	DB	0ffH
	DB	0ffH
	DB	0ffH
	DB	0ffH
	DB	0ffH
	DB	0ffH
	DB	0ffH
	DB	0ffH
	DB	0ffH
	DB	0ffH
	DB	0ffH
	DB	0ffH
	DB	0ffH
	DB	0efH
	DB	09eH
	DB	034H
	DB	0dbH
	DB	0ffH
	DB	0ffH
	DB	0ffH
	DB	0ffH
	DB	0ffH
	DB	0ffH
	DB	0ffH
	DB	0ffH
	DB	0ffH
	DB	0ffH
	DB	0ffH
	DB	0ffH
	DB	0ffH
	DB	0ffH
	DB	0ffH
	DB	0ffH
	DB	0ffH
	DB	0ffH
	DB	0ffH
	DB	0ffH
	DB	0ffH
	DB	0ffH
	DB	0ffH
	DB	0ffH
	DB	0ffH
	DB	0ffH
	DB	0ffH
	DB	0ffH
	DB	0ffH
	DB	0ffH
	DB	0ffH
	DB	0ffH
	DB	0ffH
	DB	0ffH
	DB	0ffH
	DB	0ffH
	DB	0ffH
	DB	0ffH
	DB	0ffH
	DB	0ffH
	DB	0ffH
	DB	0ffH
	DB	0ffH
	DB	0ffH
	DB	0ffH
	DB	0ffH
	DB	0d3H
	DB	020H
	DB	00H
	DB	055H
	DB	0d3H
	DB	0ffH
	DB	0ffH
	DB	0ffH
	DB	0ffH
	DB	0ffH
	DB	0ffH
	DB	0ffH
	DB	0ffH
	DB	0ffH
	DB	0ffH
	DB	0ffH
	DB	0ffH
	DB	0ffH
	DB	0ffH
	DB	0ffH
	DB	0ffH
	DB	0ffH
	DB	0ffH
	DB	0ffH
	DB	0ffH
	DB	0ffH
	DB	0ffH
	DB	0ffH
	DB	0ffH
	DB	0ffH
	DB	0ffH
	DB	0ffH
	DB	0ffH
	DB	0ffH
	DB	0ffH
	DB	0ffH
	DB	0ffH
	DB	0ffH
	DB	0ffH
	DB	0ffH
	DB	0ffH
	DB	0ffH
	DB	0ffH
	DB	0ffH
	DB	0ffH
	DB	0ffH
	DB	0ffH
	DB	0ffH
	DB	0fbH
	DB	0cbH
	DB	049H
	DB	00H
	DB	00H
	DB	00H
	DB	018H
	DB	069H
	DB	0b6H
	DB	0e7H
	DB	0fbH
	DB	0ffH
	DB	0ffH
	DB	0ffH
	DB	0ffH
	DB	0ffH
	DB	0ffH
	DB	0ffH
	DB	0ffH
	DB	0ffH
	DB	0ffH
	DB	0ffH
	DB	0ffH
	DB	0ffH
	DB	0ffH
	DB	0ffH
	DB	0ffH
	DB	0ffH
	DB	0ffH
	DB	0ffH
	DB	0ffH
	DB	0ffH
	DB	0ffH
	DB	0ffH
	DB	0ffH
	DB	0ffH
	DB	0ffH
	DB	0ffH
	DB	0ffH
	DB	0ffH
	DB	0ffH
	DB	0ffH
	DB	0ffH
	DB	0ffH
	DB	0ffH
	DB	0ffH
	DB	0ffH
	DB	0fbH
	DB	0e7H
	DB	0b6H
	DB	061H
	DB	010H
	DB	00H
	DB	00H
CONST	ENDS
END
