; Listing generated by Microsoft (R) Optimizing Compiler Version 19.00.24210.0 

	TITLE	C:\MyFiles\SoftwareTeam\Technologies_Boards\Graphic\TouchGFX\Scope\Project\Oscilloscope\Graphic\generated\images\src\channelInfo.cpp
	.686P
	.XMM
	include listing.inc
	.model	flat

INCLUDELIB MSVCRTD
INCLUDELIB OLDNAMES

PUBLIC	?_channelInfo@@3QBEB				; _channelInfo
CONST	SEGMENT
?_channelInfo@@3QBEB DB 055H				; _channelInfo
	DB	0adH
	DB	034H
	DB	0a5H
	DB	034H
	DB	0a5H
	DB	034H
	DB	0a5H
	DB	034H
	DB	0a5H
	DB	034H
	DB	0a5H
	DB	034H
	DB	0a5H
	DB	034H
	DB	0a5H
	DB	034H
	DB	0a5H
	DB	034H
	DB	0a5H
	DB	034H
	DB	0a5H
	DB	034H
	DB	0a5H
	DB	034H
	DB	0a5H
	DB	034H
	DB	0a5H
	DB	034H
	DB	0a5H
	DB	034H
	DB	0a5H
	DB	034H
	DB	0a5H
	DB	034H
	DB	0a5H
	DB	034H
	DB	0a5H
	DB	034H
	DB	0a5H
	DB	034H
	DB	0a5H
	DB	034H
	DB	0a5H
	DB	034H
	DB	0a5H
	DB	034H
	DB	0a5H
	DB	034H
	DB	0a5H
	DB	034H
	DB	0a5H
	DB	034H
	DB	0a5H
	DB	034H
	DB	0a5H
	DB	034H
	DB	0a5H
	DB	034H
	DB	0a5H
	DB	034H
	DB	0a5H
	DB	034H
	DB	0a5H
	DB	034H
	DB	0a5H
	DB	034H
	DB	0a5H
	DB	034H
	DB	0a5H
	DB	034H
	DB	0a5H
	DB	034H
	DB	0a5H
	DB	034H
	DB	0a5H
	DB	034H
	DB	0a5H
	DB	034H
	DB	0a5H
	DB	034H
	DB	0a5H
	DB	034H
	DB	0a5H
	DB	034H
	DB	0a5H
	DB	034H
	DB	0a5H
	DB	034H
	DB	0a5H
	DB	034H
	DB	0a5H
	DB	034H
	DB	0a5H
	DB	034H
	DB	0a5H
	DB	034H
	DB	0a5H
	DB	034H
	DB	0a5H
	DB	034H
	DB	0a5H
	DB	034H
	DB	0a5H
	DB	034H
	DB	0a5H
	DB	034H
	DB	0a5H
	DB	034H
	DB	0a5H
	DB	034H
	DB	0a5H
	DB	034H
	DB	0a5H
	DB	034H
	DB	0a5H
	DB	034H
	DB	0a5H
	DB	034H
	DB	0a5H
	DB	034H
	DB	0a5H
	DB	034H
	DB	0a5H
	DB	034H
	DB	0a5H
	DB	034H
	DB	0a5H
	DB	034H
	DB	0a5H
	DB	034H
	DB	0a5H
	DB	034H
	DB	0a5H
	DB	034H
	DB	0a5H
	DB	034H
	DB	0a5H
	DB	034H
	DB	0a5H
	DB	034H
	DB	0a5H
	DB	034H
	DB	0a5H
	DB	034H
	DB	0a5H
	DB	034H
	DB	0a5H
	DB	034H
	DB	0a5H
	DB	034H
	DB	0a5H
	DB	034H
	DB	0a5H
	DB	034H
	DB	0a5H
	DB	034H
	DB	0a5H
	DB	034H
	DB	0a5H
	DB	034H
	DB	0a5H
	DB	034H
	DB	0a5H
	DB	034H
	DB	0a5H
	DB	034H
	DB	0a5H
	DB	034H
	DB	0a5H
	DB	034H
	DB	0a5H
	DB	034H
	DB	0a5H
	DB	034H
	DB	0a5H
	DB	034H
	DB	0a5H
	DB	034H
	DB	0a5H
	DB	034H
	DB	0a5H
	DB	055H
	DB	0adH
	DB	055H
	DB	0adH
	DB	066H
	DB	031H
	DB	086H
	DB	031H
	DB	066H
	DB	031H
	DB	086H
	DB	031H
	DB	066H
	DB	031H
	DB	086H
	DB	031H
	DB	066H
	DB	031H
	DB	086H
	DB	031H
	DB	066H
	DB	031H
	DB	086H
	DB	031H
	DB	066H
	DB	031H
	DB	086H
	DB	031H
	DB	066H
	DB	031H
	DB	086H
	DB	031H
	DB	066H
	DB	031H
	DB	086H
	DB	031H
	DB	066H
	DB	031H
	DB	086H
	DB	031H
	DB	066H
	DB	031H
	DB	086H
	DB	031H
	DB	066H
	DB	031H
	DB	086H
	DB	031H
	DB	066H
	DB	031H
	DB	086H
	DB	031H
	DB	066H
	DB	031H
	DB	086H
	DB	031H
	DB	066H
	DB	031H
	DB	086H
	DB	031H
	DB	066H
	DB	031H
	DB	086H
	DB	031H
	DB	066H
	DB	031H
	DB	086H
	DB	031H
	DB	066H
	DB	031H
	DB	086H
	DB	031H
	DB	066H
	DB	031H
	DB	086H
	DB	031H
	DB	066H
	DB	031H
	DB	086H
	DB	031H
	DB	066H
	DB	031H
	DB	086H
	DB	031H
	DB	066H
	DB	031H
	DB	086H
	DB	031H
	DB	066H
	DB	031H
	DB	086H
	DB	031H
	DB	066H
	DB	031H
	DB	086H
	DB	031H
	DB	066H
	DB	031H
	DB	086H
	DB	031H
	DB	066H
	DB	031H
	DB	086H
	DB	031H
	DB	066H
	DB	031H
	DB	086H
	DB	031H
	DB	066H
	DB	031H
	DB	086H
	DB	031H
	DB	066H
	DB	031H
	DB	086H
	DB	031H
	DB	066H
	DB	031H
	DB	086H
	DB	031H
	DB	066H
	DB	031H
	DB	086H
	DB	031H
	DB	066H
	DB	031H
	DB	086H
	DB	031H
	DB	066H
	DB	031H
	DB	086H
	DB	031H
	DB	066H
	DB	031H
	DB	086H
	DB	031H
	DB	066H
	DB	031H
	DB	086H
	DB	031H
	DB	066H
	DB	031H
	DB	086H
	DB	031H
	DB	066H
	DB	031H
	DB	086H
	DB	031H
	DB	066H
	DB	031H
	DB	086H
	DB	031H
	DB	066H
	DB	031H
	DB	086H
	DB	031H
	DB	066H
	DB	031H
	DB	086H
	DB	031H
	DB	066H
	DB	031H
	DB	086H
	DB	031H
	DB	066H
	DB	031H
	DB	086H
	DB	031H
	DB	066H
	DB	031H
	DB	086H
	DB	031H
	DB	066H
	DB	031H
	DB	086H
	DB	031H
	DB	066H
	DB	031H
	DB	086H
	DB	031H
	DB	066H
	DB	031H
	DB	086H
	DB	031H
	DB	055H
	DB	0adH
	DB	055H
	DB	0adH
	DB	0a7H
	DB	039H
	DB	0a7H
	DB	039H
	DB	0a7H
	DB	039H
	DB	0a7H
	DB	039H
	DB	0c7H
	DB	039H
	DB	0a7H
	DB	039H
	DB	0a7H
	DB	039H
	DB	0a7H
	DB	039H
	DB	0c7H
	DB	039H
	DB	0a7H
	DB	039H
	DB	0a7H
	DB	039H
	DB	0a7H
	DB	039H
	DB	0c7H
	DB	039H
	DB	0a7H
	DB	039H
	DB	0a7H
	DB	039H
	DB	0a7H
	DB	039H
	DB	0c7H
	DB	039H
	DB	0a7H
	DB	039H
	DB	0a7H
	DB	039H
	DB	0a7H
	DB	039H
	DB	0c7H
	DB	039H
	DB	0a7H
	DB	039H
	DB	0a7H
	DB	039H
	DB	0a7H
	DB	039H
	DB	0c7H
	DB	039H
	DB	0a7H
	DB	039H
	DB	0a7H
	DB	039H
	DB	0a7H
	DB	039H
	DB	0c7H
	DB	039H
	DB	0a7H
	DB	039H
	DB	0a7H
	DB	039H
	DB	0a7H
	DB	039H
	DB	0c7H
	DB	039H
	DB	0a7H
	DB	039H
	DB	0a7H
	DB	039H
	DB	0a7H
	DB	039H
	DB	0c7H
	DB	039H
	DB	0a7H
	DB	039H
	DB	0a7H
	DB	039H
	DB	0a7H
	DB	039H
	DB	0c7H
	DB	039H
	DB	0a7H
	DB	039H
	DB	0a7H
	DB	039H
	DB	0a7H
	DB	039H
	DB	0c7H
	DB	039H
	DB	0a7H
	DB	039H
	DB	0a7H
	DB	039H
	DB	0a7H
	DB	039H
	DB	0c7H
	DB	039H
	DB	0a7H
	DB	039H
	DB	0a7H
	DB	039H
	DB	0a7H
	DB	039H
	DB	0c7H
	DB	039H
	DB	0a7H
	DB	039H
	DB	0a7H
	DB	039H
	DB	0a7H
	DB	039H
	DB	0c7H
	DB	039H
	DB	0a7H
	DB	039H
	DB	0a7H
	DB	039H
	DB	0a7H
	DB	039H
	DB	0c7H
	DB	039H
	DB	0a7H
	DB	039H
	DB	0a7H
	DB	039H
	DB	0a7H
	DB	039H
	DB	0c7H
	DB	039H
	DB	0a7H
	DB	039H
	DB	0a7H
	DB	039H
	DB	0a7H
	DB	039H
	DB	0c7H
	DB	039H
	DB	0a7H
	DB	039H
	DB	0a7H
	DB	039H
	DB	0a7H
	DB	039H
	DB	0c7H
	DB	039H
	DB	0a7H
	DB	039H
	DB	0a7H
	DB	039H
	DB	0a7H
	DB	039H
	DB	0c7H
	DB	039H
	DB	0a7H
	DB	039H
	DB	0a7H
	DB	039H
	DB	0a7H
	DB	039H
	DB	0c7H
	DB	039H
	DB	0a7H
	DB	039H
	DB	0a7H
	DB	039H
	DB	0a7H
	DB	039H
	DB	0c7H
	DB	039H
	DB	0a7H
	DB	039H
	DB	0a7H
	DB	039H
	DB	0a7H
	DB	039H
	DB	0a7H
	DB	039H
	DB	0a7H
	DB	039H
	DB	055H
	DB	0adH
	DB	055H
	DB	0adH
	DB	0a7H
	DB	039H
	DB	0c7H
	DB	039H
	DB	0c7H
	DB	039H
	DB	0c7H
	DB	039H
	DB	0a7H
	DB	039H
	DB	0c7H
	DB	039H
	DB	0c7H
	DB	039H
	DB	0a7H
	DB	039H
	DB	0c7H
	DB	039H
	DB	0c7H
	DB	039H
	DB	0a7H
	DB	039H
	DB	0c7H
	DB	039H
	DB	0c7H
	DB	039H
	DB	0a7H
	DB	039H
	DB	0c7H
	DB	039H
	DB	0c7H
	DB	039H
	DB	0a7H
	DB	039H
	DB	0c7H
	DB	039H
	DB	0c7H
	DB	039H
	DB	0a7H
	DB	039H
	DB	0c7H
	DB	039H
	DB	0c7H
	DB	039H
	DB	0a7H
	DB	039H
	DB	0c7H
	DB	039H
	DB	0c7H
	DB	039H
	DB	0a7H
	DB	039H
	DB	0c7H
	DB	039H
	DB	0c7H
	DB	039H
	DB	0a7H
	DB	039H
	DB	0c7H
	DB	039H
	DB	0c7H
	DB	039H
	DB	0a7H
	DB	039H
	DB	0c7H
	DB	039H
	DB	0c7H
	DB	039H
	DB	0a7H
	DB	039H
	DB	0c7H
	DB	039H
	DB	0c7H
	DB	039H
	DB	0a7H
	DB	039H
	DB	0c7H
	DB	039H
	DB	0c7H
	DB	039H
	DB	0a7H
	DB	039H
	DB	0c7H
	DB	039H
	DB	0c7H
	DB	039H
	DB	0a7H
	DB	039H
	DB	0c7H
	DB	039H
	DB	0c7H
	DB	039H
	DB	0a7H
	DB	039H
	DB	0c7H
	DB	039H
	DB	0c7H
	DB	039H
	DB	0a7H
	DB	039H
	DB	0c7H
	DB	039H
	DB	0c7H
	DB	039H
	DB	0a7H
	DB	039H
	DB	0c7H
	DB	039H
	DB	0c7H
	DB	039H
	DB	0a7H
	DB	039H
	DB	0c7H
	DB	039H
	DB	0c7H
	DB	039H
	DB	0a7H
	DB	039H
	DB	0c7H
	DB	039H
	DB	0c7H
	DB	039H
	DB	0a7H
	DB	039H
	DB	0c7H
	DB	039H
	DB	0c7H
	DB	039H
	DB	0a7H
	DB	039H
	DB	0c7H
	DB	039H
	DB	0c7H
	DB	039H
	DB	0a7H
	DB	039H
	DB	0c7H
	DB	039H
	DB	0c7H
	DB	039H
	DB	0a7H
	DB	039H
	DB	0c7H
	DB	039H
	DB	0c7H
	DB	039H
	DB	0a7H
	DB	039H
	DB	0c7H
	DB	039H
	DB	0c7H
	DB	039H
	DB	0a7H
	DB	039H
	DB	0c7H
	DB	039H
	DB	0c7H
	DB	039H
	DB	0a7H
	DB	039H
	DB	0c7H
	DB	039H
	DB	0c7H
	DB	039H
	DB	0a7H
	DB	039H
	DB	0c7H
	DB	039H
	DB	0c7H
	DB	039H
	DB	0a7H
	DB	039H
	DB	0c7H
	DB	039H
	DB	0c7H
	DB	039H
	DB	0c7H
	DB	039H
	DB	0a7H
	DB	039H
	DB	055H
	DB	0adH
	DB	055H
	DB	0adH
	DB	0a6H
	DB	039H
	DB	0c7H
	DB	031H
	DB	0a6H
	DB	039H
	DB	0a7H
	DB	031H
	DB	0c6H
	DB	039H
	DB	0a7H
	DB	039H
	DB	0c7H
	DB	031H
	DB	0a6H
	DB	039H
	DB	0a7H
	DB	039H
	DB	0c7H
	DB	031H
	DB	0a6H
	DB	039H
	DB	0c7H
	DB	039H
	DB	0a7H
	DB	031H
	DB	0a6H
	DB	039H
	DB	0c7H
	DB	039H
	DB	0c7H
	DB	031H
	DB	0a6H
	DB	039H
	DB	0a7H
	DB	039H
	DB	0c7H
	DB	031H
	DB	0a6H
	DB	039H
	DB	0a7H
	DB	039H
	DB	0c7H
	DB	031H
	DB	0a6H
	DB	039H
	DB	0c7H
	DB	039H
	DB	0a7H
	DB	031H
	DB	0a6H
	DB	039H
	DB	0c7H
	DB	039H
	DB	0c7H
	DB	031H
	DB	0a6H
	DB	039H
	DB	0a7H
	DB	039H
	DB	0c7H
	DB	031H
	DB	0a6H
	DB	039H
	DB	0a7H
	DB	039H
	DB	0c7H
	DB	031H
	DB	0a6H
	DB	039H
	DB	0c7H
	DB	039H
	DB	0a7H
	DB	031H
	DB	0a6H
	DB	039H
	DB	0c7H
	DB	039H
	DB	0c7H
	DB	031H
	DB	0a6H
	DB	039H
	DB	0a7H
	DB	039H
	DB	0c7H
	DB	031H
	DB	0a6H
	DB	039H
	DB	0a7H
	DB	039H
	DB	0c7H
	DB	031H
	DB	0a6H
	DB	039H
	DB	0c7H
	DB	039H
	DB	0a7H
	DB	031H
	DB	0a6H
	DB	039H
	DB	0c7H
	DB	039H
	DB	0c7H
	DB	031H
	DB	0a6H
	DB	039H
	DB	0a7H
	DB	039H
	DB	0c7H
	DB	031H
	DB	0a6H
	DB	039H
	DB	0a7H
	DB	039H
	DB	0c7H
	DB	031H
	DB	0a6H
	DB	039H
	DB	0c7H
	DB	039H
	DB	0a7H
	DB	031H
	DB	0a6H
	DB	039H
	DB	0c7H
	DB	039H
	DB	0c7H
	DB	031H
	DB	0a6H
	DB	039H
	DB	0a7H
	DB	039H
	DB	0c7H
	DB	031H
	DB	0a6H
	DB	039H
	DB	0a7H
	DB	039H
	DB	0c7H
	DB	031H
	DB	0a6H
	DB	039H
	DB	0c7H
	DB	039H
	DB	0a7H
	DB	031H
	DB	0a6H
	DB	039H
	DB	0c7H
	DB	039H
	DB	0c7H
	DB	031H
	DB	0a6H
	DB	039H
	DB	0a7H
	DB	039H
	DB	0c7H
	DB	031H
	DB	0a6H
	DB	039H
	DB	0a7H
	DB	039H
	DB	0c7H
	DB	031H
	DB	0a6H
	DB	039H
	DB	0c7H
	DB	039H
	DB	0a7H
	DB	031H
	DB	0c6H
	DB	039H
	DB	0a7H
	DB	039H
	DB	0c7H
	DB	031H
	DB	0a6H
	DB	039H
	DB	0c7H
	DB	039H
	DB	055H
	DB	0adH
	DB	055H
	DB	0adH
	DB	0a7H
	DB	039H
	DB	0c7H
	DB	039H
	DB	0a7H
	DB	039H
	DB	0c6H
	DB	039H
	DB	0c7H
	DB	031H
	DB	0a7H
	DB	039H
	DB	0c6H
	DB	039H
	DB	0c7H
	DB	031H
	DB	0a7H
	DB	039H
	DB	0c6H
	DB	039H
	DB	0a7H
	DB	031H
	DB	0c7H
	DB	039H
	DB	0c6H
	DB	039H
	DB	0a7H
	DB	031H
	DB	0a7H
	DB	039H
	DB	0c6H
	DB	039H
	DB	0a7H
	DB	031H
	DB	0c7H
	DB	039H
	DB	0c6H
	DB	039H
	DB	0a7H
	DB	031H
	DB	0c7H
	DB	039H
	DB	0a6H
	DB	039H
	DB	0c7H
	DB	031H
	DB	0a7H
	DB	039H
	DB	0c6H
	DB	039H
	DB	0a7H
	DB	031H
	DB	0a7H
	DB	039H
	DB	0c6H
	DB	039H
	DB	0a7H
	DB	031H
	DB	0c7H
	DB	039H
	DB	0c6H
	DB	039H
	DB	0a7H
	DB	031H
	DB	0c7H
	DB	039H
	DB	0a6H
	DB	039H
	DB	0c7H
	DB	031H
	DB	0a7H
	DB	039H
	DB	0c6H
	DB	039H
	DB	0a7H
	DB	031H
	DB	0a7H
	DB	039H
	DB	0c6H
	DB	039H
	DB	0a7H
	DB	031H
	DB	0c7H
	DB	039H
	DB	0c6H
	DB	039H
	DB	0a7H
	DB	031H
	DB	0c7H
	DB	039H
	DB	0a6H
	DB	039H
	DB	0c7H
	DB	031H
	DB	0a7H
	DB	039H
	DB	0c6H
	DB	039H
	DB	0a7H
	DB	031H
	DB	0a7H
	DB	039H
	DB	0c6H
	DB	039H
	DB	0a7H
	DB	031H
	DB	0c7H
	DB	039H
	DB	0c6H
	DB	039H
	DB	0a7H
	DB	031H
	DB	0c7H
	DB	039H
	DB	0a6H
	DB	039H
	DB	0c7H
	DB	031H
	DB	0a7H
	DB	039H
	DB	0c6H
	DB	039H
	DB	0a7H
	DB	031H
	DB	0a7H
	DB	039H
	DB	0c6H
	DB	039H
	DB	0a7H
	DB	031H
	DB	0c7H
	DB	039H
	DB	0c6H
	DB	039H
	DB	0a7H
	DB	031H
	DB	0c7H
	DB	039H
	DB	0a6H
	DB	039H
	DB	0c7H
	DB	031H
	DB	0a7H
	DB	039H
	DB	0c6H
	DB	039H
	DB	0a7H
	DB	031H
	DB	0a7H
	DB	039H
	DB	0c6H
	DB	039H
	DB	0a7H
	DB	031H
	DB	0c7H
	DB	039H
	DB	0c6H
	DB	039H
	DB	0a7H
	DB	031H
	DB	0c7H
	DB	039H
	DB	0a6H
	DB	039H
	DB	0c7H
	DB	031H
	DB	0a7H
	DB	039H
	DB	0c6H
	DB	039H
	DB	0a7H
	DB	031H
	DB	0a7H
	DB	039H
	DB	0c6H
	DB	039H
	DB	0a7H
	DB	031H
	DB	0a7H
	DB	039H
	DB	055H
	DB	0adH
	DB	055H
	DB	0adH
	DB	0a7H
	DB	039H
	DB	0c7H
	DB	031H
	DB	0a7H
	DB	039H
	DB	0c7H
	DB	039H
	DB	0a7H
	DB	039H
	DB	0a7H
	DB	039H
	DB	0c7H
	DB	039H
	DB	0a7H
	DB	031H
	DB	0c7H
	DB	039H
	DB	0a6H
	DB	039H
	DB	0c7H
	DB	039H
	DB	0a7H
	DB	039H
	DB	0c7H
	DB	039H
	DB	0c7H
	DB	039H
	DB	0a7H
	DB	039H
	DB	0c7H
	DB	039H
	DB	0a7H
	DB	039H
	DB	0a7H
	DB	039H
	DB	0c7H
	DB	039H
	DB	0c7H
	DB	039H
	DB	0a7H
	DB	039H
	DB	0c7H
	DB	039H
	DB	0a7H
	DB	039H
	DB	0c7H
	DB	039H
	DB	0c7H
	DB	039H
	DB	0c7H
	DB	039H
	DB	0a7H
	DB	039H
	DB	0c7H
	DB	039H
	DB	0a7H
	DB	039H
	DB	0c7H
	DB	039H
	DB	0a7H
	DB	039H
	DB	0c7H
	DB	039H
	DB	0c7H
	DB	039H
	DB	0a7H
	DB	039H
	DB	0c7H
	DB	039H
	DB	0c7H
	DB	039H
	DB	0a7H
	DB	039H
	DB	0c7H
	DB	039H
	DB	0c7H
	DB	039H
	DB	0a7H
	DB	039H
	DB	0c7H
	DB	039H
	DB	0a7H
	DB	039H
	DB	0a7H
	DB	039H
	DB	0c7H
	DB	039H
	DB	0c7H
	DB	039H
	DB	0a7H
	DB	039H
	DB	0c7H
	DB	039H
	DB	0c7H
	DB	039H
	DB	0a7H
	DB	039H
	DB	0c7H
	DB	039H
	DB	0c7H
	DB	039H
	DB	0a7H
	DB	039H
	DB	0c7H
	DB	039H
	DB	0a7H
	DB	039H
	DB	0a7H
	DB	039H
	DB	0c7H
	DB	039H
	DB	0c7H
	DB	039H
	DB	0a7H
	DB	039H
	DB	0c7H
	DB	039H
	DB	0c7H
	DB	039H
	DB	0a7H
	DB	039H
	DB	0c7H
	DB	039H
	DB	0c7H
	DB	039H
	DB	0a7H
	DB	039H
	DB	0c7H
	DB	039H
	DB	0a7H
	DB	039H
	DB	0a7H
	DB	039H
	DB	0c7H
	DB	039H
	DB	0c7H
	DB	039H
	DB	0a7H
	DB	039H
	DB	0c7H
	DB	039H
	DB	0c7H
	DB	039H
	DB	0a7H
	DB	039H
	DB	0c7H
	DB	039H
	DB	0c7H
	DB	039H
	DB	0a7H
	DB	039H
	DB	0c7H
	DB	039H
	DB	0a7H
	DB	039H
	DB	0a7H
	DB	039H
	DB	0c7H
	DB	039H
	DB	0c7H
	DB	039H
	DB	0a7H
	DB	039H
	DB	0c7H
	DB	039H
	DB	0a7H
	DB	039H
	DB	0c7H
	DB	039H
	DB	0c7H
	DB	039H
	DB	0a7H
	DB	039H
	DB	0c6H
	DB	039H
	DB	0c7H
	DB	031H
	DB	0a7H
	DB	039H
	DB	055H
	DB	0adH
	DB	055H
	DB	0adH
	DB	0a6H
	DB	039H
	DB	0a6H
	DB	039H
	DB	0c7H
	DB	031H
	DB	0a7H
	DB	039H
	DB	0c6H
	DB	031H
	DB	0a6H
	DB	039H
	DB	0a7H
	DB	039H
	DB	0c7H
	DB	039H
	DB	0a6H
	DB	039H
	DB	0c7H
	DB	031H
	DB	0a7H
	DB	039H
	DB	0a6H
	DB	031H
	DB	0a7H
	DB	039H
	DB	0c6H
	DB	031H
	DB	0a7H
	DB	031H
	DB	0c6H
	DB	039H
	DB	0c6H
	DB	031H
	DB	0a7H
	DB	039H
	DB	0a6H
	DB	031H
	DB	0c7H
	DB	039H
	DB	0a6H
	DB	031H
	DB	0c7H
	DB	031H
	DB	0a6H
	DB	039H
	DB	0a6H
	DB	031H
	DB	0c7H
	DB	039H
	DB	0a6H
	DB	031H
	DB	0c7H
	DB	031H
	DB	0a6H
	DB	039H
	DB	0c6H
	DB	031H
	DB	0a7H
	DB	039H
	DB	0a6H
	DB	031H
	DB	0c7H
	DB	039H
	DB	0a6H
	DB	031H
	DB	0a7H
	DB	031H
	DB	0c6H
	DB	039H
	DB	0a6H
	DB	031H
	DB	0a7H
	DB	039H
	DB	0c6H
	DB	031H
	DB	0a7H
	DB	031H
	DB	0c6H
	DB	039H
	DB	0a6H
	DB	031H
	DB	0c7H
	DB	039H
	DB	0a6H
	DB	031H
	DB	0c7H
	DB	039H
	DB	0a6H
	DB	031H
	DB	0a7H
	DB	031H
	DB	0c6H
	DB	039H
	DB	0a6H
	DB	031H
	DB	0a7H
	DB	039H
	DB	0c6H
	DB	031H
	DB	0a7H
	DB	031H
	DB	0c6H
	DB	039H
	DB	0a6H
	DB	031H
	DB	0c7H
	DB	039H
	DB	0a6H
	DB	031H
	DB	0c7H
	DB	039H
	DB	0a6H
	DB	031H
	DB	0a7H
	DB	031H
	DB	0c6H
	DB	039H
	DB	0a6H
	DB	031H
	DB	0a7H
	DB	039H
	DB	0c6H
	DB	031H
	DB	0a7H
	DB	031H
	DB	0c6H
	DB	039H
	DB	0a6H
	DB	031H
	DB	0c7H
	DB	039H
	DB	0a6H
	DB	031H
	DB	0c7H
	DB	039H
	DB	0a6H
	DB	031H
	DB	0a7H
	DB	031H
	DB	0c6H
	DB	039H
	DB	0a6H
	DB	031H
	DB	0a7H
	DB	039H
	DB	0c6H
	DB	031H
	DB	0a7H
	DB	031H
	DB	0c6H
	DB	039H
	DB	0a6H
	DB	031H
	DB	0c7H
	DB	039H
	DB	0a6H
	DB	031H
	DB	0c7H
	DB	039H
	DB	0a6H
	DB	031H
	DB	0c7H
	DB	031H
	DB	0a6H
	DB	039H
	DB	0a6H
	DB	031H
	DB	0c7H
	DB	039H
	DB	0a7H
	DB	031H
	DB	0a6H
	DB	039H
	DB	0c7H
	DB	039H
	DB	0a7H
	DB	039H
	DB	0c6H
	DB	039H
	DB	055H
	DB	0adH
	DB	055H
	DB	0adH
	DB	0a7H
	DB	039H
	DB	0c7H
	DB	039H
	DB	0c7H
	DB	039H
	DB	0a6H
	DB	039H
	DB	0c7H
	DB	031H
	DB	0c7H
	DB	039H
	DB	0a7H
	DB	039H
	DB	0c6H
	DB	031H
	DB	0c7H
	DB	039H
	DB	0a7H
	DB	039H
	DB	0c7H
	DB	039H
	DB	0c7H
	DB	039H
	DB	0a7H
	DB	039H
	DB	0c7H
	DB	039H
	DB	0a7H
	DB	039H
	DB	0a7H
	DB	039H
	DB	0c7H
	DB	039H
	DB	0c7H
	DB	031H
	DB	0a7H
	DB	039H
	DB	0a6H
	DB	039H
	DB	0c7H
	DB	039H
	DB	0c7H
	DB	039H
	DB	0a7H
	DB	039H
	DB	0c7H
	DB	039H
	DB	0a7H
	DB	039H
	DB	0a7H
	DB	039H
	DB	0c7H
	DB	039H
	DB	0a7H
	DB	039H
	DB	0c7H
	DB	039H
	DB	0c7H
	DB	031H
	DB	0a7H
	DB	039H
	DB	0c6H
	DB	039H
	DB	0a7H
	DB	039H
	DB	0c7H
	DB	039H
	DB	0c7H
	DB	039H
	DB	0a7H
	DB	039H
	DB	0c7H
	DB	039H
	DB	0a7H
	DB	039H
	DB	0c7H
	DB	039H
	DB	0a7H
	DB	039H
	DB	0c7H
	DB	039H
	DB	0c7H
	DB	031H
	DB	0a7H
	DB	039H
	DB	0c6H
	DB	039H
	DB	0a7H
	DB	039H
	DB	0c7H
	DB	039H
	DB	0c7H
	DB	039H
	DB	0a7H
	DB	039H
	DB	0c7H
	DB	039H
	DB	0a7H
	DB	039H
	DB	0c7H
	DB	039H
	DB	0a7H
	DB	039H
	DB	0c7H
	DB	039H
	DB	0c7H
	DB	031H
	DB	0a7H
	DB	039H
	DB	0c6H
	DB	039H
	DB	0a7H
	DB	039H
	DB	0c7H
	DB	039H
	DB	0c7H
	DB	039H
	DB	0a7H
	DB	039H
	DB	0c7H
	DB	039H
	DB	0a7H
	DB	039H
	DB	0c7H
	DB	039H
	DB	0a7H
	DB	039H
	DB	0c7H
	DB	039H
	DB	0c7H
	DB	031H
	DB	0a7H
	DB	039H
	DB	0c6H
	DB	039H
	DB	0a7H
	DB	039H
	DB	0c7H
	DB	039H
	DB	0c7H
	DB	039H
	DB	0a7H
	DB	039H
	DB	0c7H
	DB	039H
	DB	0a7H
	DB	039H
	DB	0c7H
	DB	039H
	DB	0a7H
	DB	039H
	DB	0c7H
	DB	039H
	DB	0c7H
	DB	031H
	DB	0a7H
	DB	039H
	DB	0a6H
	DB	039H
	DB	0c7H
	DB	039H
	DB	0a7H
	DB	039H
	DB	0c7H
	DB	039H
	DB	0c7H
	DB	039H
	DB	0a7H
	DB	031H
	DB	0c6H
	DB	039H
	DB	0c7H
	DB	039H
	DB	0a7H
	DB	031H
	DB	0a7H
	DB	039H
	DB	0a7H
	DB	039H
	DB	055H
	DB	0adH
	DB	055H
	DB	0adH
	DB	0a7H
	DB	031H
	DB	0c7H
	DB	039H
	DB	0a7H
	DB	039H
	DB	0a7H
	DB	039H
	DB	0c7H
	DB	039H
	DB	0a7H
	DB	039H
	DB	0c7H
	DB	031H
	DB	0a7H
	DB	039H
	DB	0a7H
	DB	039H
	DB	0c6H
	DB	031H
	DB	0a7H
	DB	039H
	DB	0c7H
	DB	039H
	DB	0c6H
	DB	031H
	DB	0a7H
	DB	039H
	DB	0c7H
	DB	039H
	DB	0a6H
	DB	039H
	DB	0a7H
	DB	039H
	DB	0c7H
	DB	039H
	DB	0c7H
	DB	039H
	DB	0a7H
	DB	039H
	DB	0c7H
	DB	031H
	DB	0a7H
	DB	039H
	DB	0c6H
	DB	039H
	DB	0c7H
	DB	031H
	DB	0a7H
	DB	039H
	DB	0c6H
	DB	039H
	DB	0a7H
	DB	031H
	DB	0c7H
	DB	039H
	DB	0a6H
	DB	039H
	DB	0a7H
	DB	039H
	DB	0c7H
	DB	039H
	DB	0a7H
	DB	039H
	DB	0c7H
	DB	039H
	DB	0a7H
	DB	031H
	DB	0a7H
	DB	039H
	DB	0c6H
	DB	039H
	DB	0c7H
	DB	031H
	DB	0a7H
	DB	039H
	DB	0a6H
	DB	039H
	DB	0c7H
	DB	039H
	DB	0a7H
	DB	039H
	DB	0a7H
	DB	039H
	DB	0c7H
	DB	039H
	DB	0a7H
	DB	039H
	DB	0c7H
	DB	031H
	DB	0a7H
	DB	039H
	DB	0a6H
	DB	039H
	DB	0c7H
	DB	031H
	DB	0c7H
	DB	039H
	DB	0a6H
	DB	039H
	DB	0a7H
	DB	031H
	DB	0c7H
	DB	039H
	DB	0a6H
	DB	039H
	DB	0a7H
	DB	039H
	DB	0c7H
	DB	039H
	DB	0a7H
	DB	039H
	DB	0c7H
	DB	039H
	DB	0a7H
	DB	031H
	DB	0a7H
	DB	039H
	DB	0c6H
	DB	039H
	DB	0c7H
	DB	031H
	DB	0a7H
	DB	039H
	DB	0a6H
	DB	039H
	DB	0c7H
	DB	039H
	DB	0a7H
	DB	039H
	DB	0a7H
	DB	039H
	DB	0c7H
	DB	039H
	DB	0a7H
	DB	039H
	DB	0c7H
	DB	031H
	DB	0a7H
	DB	039H
	DB	0a6H
	DB	039H
	DB	0c7H
	DB	031H
	DB	0c7H
	DB	039H
	DB	0a6H
	DB	039H
	DB	0a7H
	DB	031H
	DB	0c7H
	DB	039H
	DB	0a6H
	DB	039H
	DB	0a7H
	DB	039H
	DB	0c7H
	DB	039H
	DB	0c7H
	DB	039H
	DB	0a7H
	DB	039H
	DB	0c7H
	DB	031H
	DB	0a6H
	DB	039H
	DB	0c7H
	DB	039H
	DB	0a7H
	DB	039H
	DB	0a7H
	DB	039H
	DB	0c7H
	DB	039H
	DB	0c6H
	DB	031H
	DB	0c7H
	DB	039H
	DB	0a7H
	DB	039H
	DB	055H
	DB	0adH
	DB	055H
	DB	0adH
	DB	0a6H
	DB	039H
	DB	0c6H
	DB	031H
	DB	0a7H
	DB	039H
	DB	0c7H
	DB	031H
	DB	0a6H
	DB	039H
	DB	0c6H
	DB	039H
	DB	0a7H
	DB	039H
	DB	0c7H
	DB	039H
	DB	0a6H
	DB	039H
	DB	0c7H
	DB	031H
	DB	0a7H
	DB	039H
	DB	0a6H
	DB	039H
	DB	0c7H
	DB	031H
	DB	0a7H
	DB	039H
	DB	0c6H
	DB	031H
	DB	0c7H
	DB	031H
	DB	0a7H
	DB	039H
	DB	0a6H
	DB	039H
	DB	0c6H
	DB	031H
	DB	0a7H
	DB	039H
	DB	0a7H
	DB	039H
	DB	0c6H
	DB	031H
	DB	0a7H
	DB	039H
	DB	0a7H
	DB	039H
	DB	0c6H
	DB	031H
	DB	0c7H
	DB	039H
	DB	0a7H
	DB	039H
	DB	0c6H
	DB	031H
	DB	0a7H
	DB	039H
	DB	0c7H
	DB	039H
	DB	0c6H
	DB	031H
	DB	0a7H
	DB	039H
	DB	0c6H
	DB	031H
	DB	0a7H
	DB	039H
	DB	0a7H
	DB	039H
	DB	0c6H
	DB	031H
	DB	0a7H
	DB	039H
	DB	0c7H
	DB	039H
	DB	0c6H
	DB	031H
	DB	0a7H
	DB	031H
	DB	0c6H
	DB	039H
	DB	0a6H
	DB	039H
	DB	0c7H
	DB	031H
	DB	0c7H
	DB	039H
	DB	0a6H
	DB	039H
	DB	0c7H
	DB	031H
	DB	0a7H
	DB	039H
	DB	0a6H
	DB	039H
	DB	0c7H
	DB	031H
	DB	0c7H
	DB	039H
	DB	0a6H
	DB	039H
	DB	0c7H
	DB	031H
	DB	0c7H
	DB	039H
	DB	0a6H
	DB	039H
	DB	0c7H
	DB	031H
	DB	0a7H
	DB	039H
	DB	0c6H
	DB	031H
	DB	0c7H
	DB	039H
	DB	0a6H
	DB	039H
	DB	0a7H
	DB	031H
	DB	0c7H
	DB	039H
	DB	0c6H
	DB	039H
	DB	0a7H
	DB	031H
	DB	0c7H
	DB	031H
	DB	0c6H
	DB	039H
	DB	0a6H
	DB	039H
	DB	0c7H
	DB	031H
	DB	0a7H
	DB	039H
	DB	0c6H
	DB	039H
	DB	0c7H
	DB	031H
	DB	0a7H
	DB	039H
	DB	0a6H
	DB	039H
	DB	0c7H
	DB	031H
	DB	0c7H
	DB	039H
	DB	0a6H
	DB	039H
	DB	0c7H
	DB	031H
	DB	0c7H
	DB	039H
	DB	0a6H
	DB	039H
	DB	0c7H
	DB	031H
	DB	0a7H
	DB	039H
	DB	0c6H
	DB	031H
	DB	0a7H
	DB	039H
	DB	0a7H
	DB	039H
	DB	0c6H
	DB	031H
	DB	0c7H
	DB	039H
	DB	0a7H
	DB	039H
	DB	0a6H
	DB	031H
	DB	0c7H
	DB	039H
	DB	0a7H
	DB	039H
	DB	0c6H
	DB	031H
	DB	055H
	DB	0adH
	DB	055H
	DB	0adH
	DB	0a7H
	DB	039H
	DB	0c7H
	DB	039H
	DB	0c7H
	DB	039H
	DB	0a7H
	DB	031H
	DB	0c7H
	DB	039H
	DB	0a7H
	DB	031H
	DB	0c7H
	DB	039H
	DB	0c6H
	DB	039H
	DB	0a7H
	DB	031H
	DB	0c7H
	DB	039H
	DB	0c7H
	DB	039H
	DB	0a7H
	DB	039H
	DB	0a7H
	DB	039H
	DB	0c7H
	DB	039H
	DB	0a7H
	DB	039H
	DB	0c7H
	DB	039H
	DB	0c7H
	DB	039H
	DB	0a7H
	DB	031H
	DB	0c7H
	DB	039H
	DB	0c7H
	DB	039H
	DB	0a6H
	DB	039H
	DB	0c7H
	DB	039H
	DB	0a7H
	DB	039H
	DB	0a7H
	DB	039H
	DB	0c7H
	DB	039H
	DB	0a7H
	DB	039H
	DB	0c7H
	DB	039H
	DB	0a7H
	DB	039H
	DB	0c7H
	DB	031H
	DB	0a7H
	DB	039H
	DB	0a7H
	DB	039H
	DB	0c7H
	DB	039H
	DB	0c6H
	DB	039H
	DB	0c7H
	DB	039H
	DB	0a7H
	DB	039H
	DB	0c7H
	DB	039H
	DB	0a7H
	DB	039H
	DB	0a7H
	DB	039H
	DB	0c7H
	DB	039H
	DB	0a7H
	DB	039H
	DB	0c7H
	DB	031H
	DB	0c7H
	DB	039H
	DB	0a7H
	DB	039H
	DB	0a6H
	DB	039H
	DB	0c7H
	DB	039H
	DB	0c7H
	DB	039H
	DB	0a7H
	DB	039H
	DB	0c7H
	DB	039H
	DB	0a7H
	DB	039H
	DB	0a7H
	DB	039H
	DB	0c7H
	DB	039H
	DB	0a7H
	DB	039H
	DB	0a7H
	DB	031H
	DB	0c7H
	DB	039H
	DB	0a6H
	DB	039H
	DB	0c7H
	DB	039H
	DB	0a7H
	DB	039H
	DB	0c7H
	DB	039H
	DB	0c7H
	DB	039H
	DB	0a7H
	DB	039H
	DB	0a7H
	DB	039H
	DB	0c7H
	DB	039H
	DB	0a7H
	DB	039H
	DB	0a7H
	DB	039H
	DB	0c7H
	DB	031H
	DB	0a7H
	DB	039H
	DB	0c6H
	DB	039H
	DB	0a7H
	DB	039H
	DB	0a7H
	DB	039H
	DB	0c7H
	DB	039H
	DB	0c7H
	DB	039H
	DB	0a7H
	DB	039H
	DB	0a7H
	DB	039H
	DB	0c7H
	DB	039H
	DB	0a7H
	DB	039H
	DB	0a7H
	DB	039H
	DB	0c7H
	DB	031H
	DB	0a7H
	DB	039H
	DB	0a6H
	DB	039H
	DB	0c7H
	DB	039H
	DB	0c7H
	DB	039H
	DB	0a7H
	DB	039H
	DB	0c7H
	DB	039H
	DB	0a7H
	DB	031H
	DB	0c6H
	DB	039H
	DB	0c7H
	DB	039H
	DB	0a7H
	DB	039H
	DB	0a7H
	DB	039H
	DB	0c7H
	DB	039H
	DB	0a6H
	DB	039H
	DB	055H
	DB	0adH
	DB	055H
	DB	0adH
	DB	0a7H
	DB	039H
	DB	0a7H
	DB	039H
	DB	0c6H
	DB	039H
	DB	0a6H
	DB	039H
	DB	0c7H
	DB	039H
	DB	0a7H
	DB	039H
	DB	0a7H
	DB	031H
	DB	0c7H
	DB	039H
	DB	0a7H
	DB	039H
	DB	0a6H
	DB	039H
	DB	0c7H
	DB	031H
	DB	0c6H
	DB	039H
	DB	0a7H
	DB	039H
	DB	0c6H
	DB	031H
	DB	0a7H
	DB	039H
	DB	0a6H
	DB	039H
	DB	0c7H
	DB	039H
	DB	0a7H
	DB	039H
	DB	0a7H
	DB	031H
	DB	0c6H
	DB	039H
	DB	0c7H
	DB	031H
	DB	0a7H
	DB	039H
	DB	0c6H
	DB	031H
	DB	0c7H
	DB	039H
	DB	0a7H
	DB	031H
	DB	0a6H
	DB	039H
	DB	0c6H
	DB	039H
	DB	0a7H
	DB	031H
	DB	0c6H
	DB	039H
	DB	0c7H
	DB	039H
	DB	0a7H
	DB	031H
	DB	0a7H
	DB	039H
	DB	0c7H
	DB	039H
	DB	0a6H
	DB	031H
	DB	0c7H
	DB	031H
	DB	0c6H
	DB	039H
	DB	0a7H
	DB	031H
	DB	0c6H
	DB	039H
	DB	0a7H
	DB	039H
	DB	0a7H
	DB	039H
	DB	0c6H
	DB	039H
	DB	0a7H
	DB	031H
	DB	0a7H
	DB	039H
	DB	0c7H
	DB	031H
	DB	0a6H
	DB	039H
	DB	0a7H
	DB	031H
	DB	0c6H
	DB	039H
	DB	0c7H
	DB	031H
	DB	0a6H
	DB	039H
	DB	0c7H
	DB	031H
	DB	0c6H
	DB	039H
	DB	0a7H
	DB	039H
	DB	0c7H
	DB	039H
	DB	0c6H
	DB	031H
	DB	0a7H
	DB	039H
	DB	0a7H
	DB	039H
	DB	0c6H
	DB	031H
	DB	0a7H
	DB	031H
	DB	0a7H
	DB	039H
	DB	0c6H
	DB	031H
	DB	0c6H
	DB	039H
	DB	0a7H
	DB	031H
	DB	0c6H
	DB	039H
	DB	0c7H
	DB	039H
	DB	0a7H
	DB	039H
	DB	0c7H
	DB	031H
	DB	0a7H
	DB	039H
	DB	0c6H
	DB	031H
	DB	0a7H
	DB	039H
	DB	0a6H
	DB	031H
	DB	0c7H
	DB	039H
	DB	0c6H
	DB	031H
	DB	0a7H
	DB	039H
	DB	0c6H
	DB	031H
	DB	0c7H
	DB	039H
	DB	0a6H
	DB	039H
	DB	0c7H
	DB	039H
	DB	0c7H
	DB	031H
	DB	0a7H
	DB	039H
	DB	0c6H
	DB	039H
	DB	0a7H
	DB	031H
	DB	0c6H
	DB	039H
	DB	0a7H
	DB	039H
	DB	0a7H
	DB	039H
	DB	0c7H
	DB	031H
	DB	0a6H
	DB	039H
	DB	0c7H
	DB	039H
	DB	0c7H
	DB	031H
	DB	0a6H
	DB	039H
	DB	0a7H
	DB	039H
	DB	055H
	DB	0adH
	DB	055H
	DB	0adH
	DB	0a7H
	DB	031H
	DB	0c6H
	DB	039H
	DB	0a7H
	DB	031H
	DB	0c7H
	DB	039H
	DB	0a6H
	DB	039H
	DB	0c7H
	DB	039H
	DB	0a6H
	DB	039H
	DB	0c7H
	DB	031H
	DB	0c7H
	DB	039H
	DB	0a7H
	DB	039H
	DB	0a6H
	DB	031H
	DB	0c7H
	DB	039H
	DB	0c7H
	DB	039H
	DB	0a7H
	DB	031H
	DB	0c6H
	DB	039H
	DB	0a7H
	DB	031H
	DB	0c6H
	DB	039H
	DB	0c7H
	DB	039H
	DB	0a7H
	DB	039H
	DB	0a7H
	DB	039H
	DB	0c7H
	DB	039H
	DB	0a7H
	DB	031H
	DB	0c6H
	DB	039H
	DB	0c7H
	DB	039H
	DB	0a7H
	DB	039H
	DB	0c7H
	DB	031H
	DB	0c7H
	DB	039H
	DB	0a7H
	DB	039H
	DB	0a7H
	DB	039H
	DB	0c6H
	DB	039H
	DB	0c6H
	DB	031H
	DB	0a7H
	DB	039H
	DB	0a7H
	DB	039H
	DB	0a7H
	DB	039H
	DB	0c7H
	DB	039H
	DB	0a7H
	DB	039H
	DB	0c6H
	DB	031H
	DB	0c7H
	DB	039H
	DB	0a7H
	DB	031H
	DB	0c6H
	DB	039H
	DB	0c7H
	DB	039H
	DB	0a7H
	DB	039H
	DB	0c6H
	DB	039H
	DB	0c7H
	DB	039H
	DB	0a7H
	DB	031H
	DB	0a7H
	DB	039H
	DB	0c7H
	DB	039H
	DB	0a6H
	DB	039H
	DB	0a7H
	DB	031H
	DB	0c7H
	DB	039H
	DB	0a7H
	DB	039H
	DB	0a6H
	DB	031H
	DB	0c7H
	DB	039H
	DB	0a7H
	DB	039H
	DB	0c7H
	DB	031H
	DB	0c7H
	DB	039H
	DB	0a6H
	DB	039H
	DB	0c7H
	DB	039H
	DB	0a7H
	DB	039H
	DB	0c7H
	DB	039H
	DB	0a7H
	DB	031H
	DB	0a7H
	DB	039H
	DB	0c6H
	DB	039H
	DB	0a7H
	DB	031H
	DB	0a6H
	DB	039H
	DB	0c7H
	DB	039H
	DB	0c7H
	DB	039H
	DB	0a7H
	DB	039H
	DB	0c7H
	DB	031H
	DB	0a7H
	DB	039H
	DB	0c6H
	DB	039H
	DB	0a7H
	DB	039H
	DB	0a7H
	DB	031H
	DB	0c7H
	DB	039H
	DB	0a6H
	DB	039H
	DB	0a7H
	DB	031H
	DB	0c7H
	DB	039H
	DB	0a6H
	DB	039H
	DB	0c7H
	DB	031H
	DB	0a7H
	DB	039H
	DB	0a7H
	DB	039H
	DB	0c7H
	DB	031H
	DB	0c6H
	DB	039H
	DB	0a7H
	DB	039H
	DB	0a7H
	DB	039H
	DB	0c7H
	DB	031H
	DB	0a6H
	DB	039H
	DB	0c7H
	DB	039H
	DB	0a7H
	DB	031H
	DB	0c7H
	DB	039H
	DB	055H
	DB	0adH
	DB	055H
	DB	0adH
	DB	0a7H
	DB	039H
	DB	0c7H
	DB	039H
	DB	0c7H
	DB	039H
	DB	0a7H
	DB	031H
	DB	0c7H
	DB	031H
	DB	0a7H
	DB	039H
	DB	0c6H
	DB	039H
	DB	0a7H
	DB	039H
	DB	0c7H
	DB	039H
	DB	0a7H
	DB	039H
	DB	0a7H
	DB	039H
	DB	0c7H
	DB	039H
	DB	0a7H
	DB	039H
	DB	0a7H
	DB	039H
	DB	0c7H
	DB	039H
	DB	0c7H
	DB	039H
	DB	0a7H
	DB	031H
	DB	0c6H
	DB	039H
	DB	0c7H
	DB	039H
	DB	0a6H
	DB	031H
	DB	0a7H
	DB	039H
	DB	0c7H
	DB	039H
	DB	0a7H
	DB	039H
	DB	0a6H
	DB	039H
	DB	0c7H
	DB	039H
	DB	0a7H
	DB	039H
	DB	0c6H
	DB	031H
	DB	0a7H
	DB	039H
	DB	0a7H
	DB	039H
	DB	0c7H
	DB	039H
	DB	0a7H
	DB	039H
	DB	0c6H
	DB	031H
	DB	0c7H
	DB	039H
	DB	0a7H
	DB	039H
	DB	0a6H
	DB	039H
	DB	0c7H
	DB	039H
	DB	0a7H
	DB	039H
	DB	0a7H
	DB	039H
	DB	0c7H
	DB	039H
	DB	0a7H
	DB	031H
	DB	0a7H
	DB	039H
	DB	0c7H
	DB	039H
	DB	0a7H
	DB	031H
	DB	0c6H
	DB	039H
	DB	0c7H
	DB	039H
	DB	0c7H
	DB	039H
	DB	0a7H
	DB	039H
	DB	0c7H
	DB	039H
	DB	0c7H
	DB	039H
	DB	0a7H
	DB	039H
	DB	0c7H
	DB	039H
	DB	0c7H
	DB	031H
	DB	0a6H
	DB	039H
	DB	0a7H
	DB	039H
	DB	0c7H
	DB	039H
	DB	0a7H
	DB	039H
	DB	0c7H
	DB	039H
	DB	0a6H
	DB	031H
	DB	0c7H
	DB	039H
	DB	0a7H
	DB	039H
	DB	0c7H
	DB	039H
	DB	0c7H
	DB	039H
	DB	0a7H
	DB	039H
	DB	0c7H
	DB	039H
	DB	0a7H
	DB	031H
	DB	0c6H
	DB	039H
	DB	0a7H
	DB	039H
	DB	0c7H
	DB	039H
	DB	0c6H
	DB	039H
	DB	0a7H
	DB	039H
	DB	0c7H
	DB	039H
	DB	0a7H
	DB	039H
	DB	0c7H
	DB	039H
	DB	0c7H
	DB	039H
	DB	0a7H
	DB	039H
	DB	0c7H
	DB	031H
	DB	0a7H
	DB	039H
	DB	0c7H
	DB	039H
	DB	0a6H
	DB	039H
	DB	0c7H
	DB	039H
	DB	0a7H
	DB	039H
	DB	0c7H
	DB	031H
	DB	0c6H
	DB	039H
	DB	0a7H
	DB	039H
	DB	0c7H
	DB	039H
	DB	0c7H
	DB	039H
	DB	0a7H
	DB	031H
	DB	0a7H
	DB	039H
	DB	0c7H
	DB	039H
	DB	0a6H
	DB	031H
	DB	055H
	DB	0adH
	DB	055H
	DB	0adH
	DB	0a6H
	DB	039H
	DB	0a7H
	DB	039H
	DB	0c7H
	DB	039H
	DB	0a6H
	DB	039H
	DB	0a7H
	DB	039H
	DB	0c7H
	DB	031H
	DB	0a7H
	DB	039H
	DB	0c6H
	DB	031H
	DB	0a7H
	DB	039H
	DB	0c6H
	DB	031H
	DB	0c7H
	DB	039H
	DB	0a6H
	DB	031H
	DB	0c6H
	DB	039H
	DB	0a7H
	DB	039H
	DB	0c7H
	DB	031H
	DB	0a6H
	DB	039H
	DB	0a7H
	DB	039H
	DB	0a7H
	DB	031H
	DB	0c7H
	DB	039H
	DB	0c7H
	DB	039H
	DB	0a6H
	DB	031H
	DB	0c7H
	DB	039H
	DB	0a7H
	DB	039H
	DB	0c7H
	DB	031H
	DB	0a7H
	DB	039H
	DB	0a6H
	DB	039H
	DB	0c7H
	DB	039H
	DB	0c7H
	DB	031H
	DB	0a6H
	DB	039H
	DB	0c7H
	DB	039H
	DB	0a7H
	DB	031H
	DB	0c7H
	DB	039H
	DB	0c7H
	DB	039H
	DB	0a6H
	DB	031H
	DB	0c7H
	DB	031H
	DB	0c7H
	DB	039H
	DB	0a7H
	DB	039H
	DB	0c6H
	DB	031H
	DB	0c7H
	DB	039H
	DB	0a6H
	DB	039H
	DB	0c7H
	DB	031H
	DB	0a7H
	DB	039H
	DB	0a6H
	DB	039H
	DB	0a7H
	DB	031H
	DB	0c7H
	DB	039H
	DB	0a6H
	DB	039H
	DB	0a7H
	DB	031H
	DB	0c7H
	DB	031H
	DB	0a6H
	DB	039H
	DB	0a6H
	DB	039H
	DB	0c7H
	DB	039H
	DB	0c7H
	DB	039H
	DB	0a7H
	DB	039H
	DB	0c6H
	DB	031H
	DB	0a7H
	DB	039H
	DB	0a7H
	DB	039H
	DB	0c6H
	DB	031H
	DB	0c7H
	DB	039H
	DB	0a7H
	DB	039H
	DB	0a6H
	DB	031H
	DB	0c6H
	DB	039H
	DB	0a7H
	DB	039H
	DB	0c7H
	DB	031H
	DB	0c6H
	DB	039H
	DB	0a7H
	DB	039H
	DB	0a7H
	DB	031H
	DB	0c6H
	DB	039H
	DB	0a7H
	DB	031H
	DB	0a7H
	DB	039H
	DB	0c6H
	DB	031H
	DB	0a7H
	DB	031H
	DB	0c7H
	DB	039H
	DB	0a6H
	DB	039H
	DB	0a6H
	DB	031H
	DB	0c7H
	DB	039H
	DB	0c6H
	DB	039H
	DB	0a7H
	DB	039H
	DB	0a7H
	DB	031H
	DB	0c7H
	DB	039H
	DB	0c6H
	DB	039H
	DB	0a7H
	DB	031H
	DB	0a7H
	DB	039H
	DB	0c7H
	DB	039H
	DB	0a6H
	DB	031H
	DB	0a7H
	DB	039H
	DB	0c6H
	DB	039H
	DB	0c7H
	DB	039H
	DB	0a7H
	DB	039H
	DB	0c6H
	DB	039H
	DB	0a7H
	DB	039H
	DB	055H
	DB	0adH
	DB	055H
	DB	0adH
	DB	0a7H
	DB	039H
	DB	0c6H
	DB	031H
	DB	0c7H
	DB	039H
	DB	0a7H
	DB	039H
	DB	0c6H
	DB	039H
	DB	0c7H
	DB	039H
	DB	0a7H
	DB	039H
	DB	0c7H
	DB	039H
	DB	0a7H
	DB	031H
	DB	0c7H
	DB	039H
	DB	0a7H
	DB	039H
	DB	0c7H
	DB	031H
	DB	0c7H
	DB	039H
	DB	0a7H
	DB	039H
	DB	0c6H
	DB	031H
	DB	0c7H
	DB	039H
	DB	0a7H
	DB	039H
	DB	0c7H
	DB	039H
	DB	0a6H
	DB	039H
	DB	0a7H
	DB	039H
	DB	0c7H
	DB	039H
	DB	0a6H
	DB	039H
	DB	0c7H
	DB	031H
	DB	0c7H
	DB	039H
	DB	0a6H
	DB	031H
	DB	0c7H
	DB	039H
	DB	0c7H
	DB	039H
	DB	0a7H
	DB	031H
	DB	0c7H
	DB	039H
	DB	0a6H
	DB	039H
	DB	0a7H
	DB	031H
	DB	0c7H
	DB	039H
	DB	0a6H
	DB	039H
	DB	0a7H
	DB	039H
	DB	0c7H
	DB	039H
	DB	0a7H
	DB	039H
	DB	0a6H
	DB	031H
	DB	0c7H
	DB	039H
	DB	0a7H
	DB	039H
	DB	0c7H
	DB	039H
	DB	0c6H
	DB	039H
	DB	0c7H
	DB	039H
	DB	0a7H
	DB	039H
	DB	0c7H
	DB	039H
	DB	0a7H
	DB	031H
	DB	0c6H
	DB	039H
	DB	0c7H
	DB	039H
	DB	0a7H
	DB	039H
	DB	0c7H
	DB	031H
	DB	0a7H
	DB	039H
	DB	0a6H
	DB	031H
	DB	0c7H
	DB	039H
	DB	0a7H
	DB	039H
	DB	0c6H
	DB	031H
	DB	0c7H
	DB	039H
	DB	0a7H
	DB	039H
	DB	0a6H
	DB	039H
	DB	0c7H
	DB	039H
	DB	0a7H
	DB	039H
	DB	0c7H
	DB	031H
	DB	0a7H
	DB	039H
	DB	0a7H
	DB	039H
	DB	0c6H
	DB	031H
	DB	0a7H
	DB	039H
	DB	0c7H
	DB	039H
	DB	0c7H
	DB	039H
	DB	0a7H
	DB	039H
	DB	0c7H
	DB	039H
	DB	0a7H
	DB	039H
	DB	0c7H
	DB	039H
	DB	0c6H
	DB	039H
	DB	0a7H
	DB	039H
	DB	0c7H
	DB	031H
	DB	0a7H
	DB	039H
	DB	0c7H
	DB	039H
	DB	0a7H
	DB	039H
	DB	0c6H
	DB	039H
	DB	0a7H
	DB	031H
	DB	0c7H
	DB	039H
	DB	0a7H
	DB	039H
	DB	0c6H
	DB	039H
	DB	0a7H
	DB	039H
	DB	0c7H
	DB	039H
	DB	0c7H
	DB	031H
	DB	0a7H
	DB	039H
	DB	0a6H
	DB	031H
	DB	0c7H
	DB	039H
	DB	0a7H
	DB	031H
	DB	0c7H
	DB	039H
	DB	0a7H
	DB	039H
	DB	055H
	DB	0adH
	DB	055H
	DB	0adH
	DB	0a7H
	DB	039H
	DB	0c7H
	DB	031H
	DB	0a7H
	DB	039H
	DB	0a7H
	DB	031H
	DB	0c7H
	DB	039H
	DB	0a6H
	DB	039H
	DB	0c7H
	DB	031H
	DB	0a7H
	DB	039H
	DB	0c6H
	DB	039H
	DB	0a7H
	DB	039H
	DB	0a7H
	DB	039H
	DB	0c6H
	DB	039H
	DB	0a7H
	DB	039H
	DB	0a7H
	DB	039H
	DB	0c7H
	DB	039H
	DB	0a7H
	DB	039H
	DB	0c6H
	DB	031H
	DB	0c7H
	DB	039H
	DB	0a7H
	DB	031H
	DB	0c7H
	DB	039H
	DB	0c7H
	DB	039H
	DB	0a7H
	DB	031H
	DB	0a6H
	DB	039H
	DB	0c7H
	DB	039H
	DB	0a7H
	DB	039H
	DB	0a7H
	DB	039H
	DB	0c6H
	DB	039H
	DB	0a7H
	DB	039H
	DB	0c7H
	DB	039H
	DB	0c7H
	DB	039H
	DB	0a7H
	DB	039H
	DB	0c6H
	DB	039H
	DB	0a7H
	DB	031H
	DB	0c7H
	DB	039H
	DB	0c7H
	DB	039H
	DB	0a6H
	DB	031H
	DB	0c7H
	DB	039H
	DB	0a7H
	DB	039H
	DB	0a7H
	DB	031H
	DB	0a7H
	DB	039H
	DB	0c7H
	DB	031H
	DB	0a6H
	DB	039H
	DB	0c7H
	DB	039H
	DB	0c7H
	DB	031H
	DB	0a6H
	DB	039H
	DB	0a7H
	DB	039H
	DB	0c7H
	DB	039H
	DB	0a6H
	DB	039H
	DB	0c7H
	DB	039H
	DB	0c7H
	DB	039H
	DB	0a7H
	DB	031H
	DB	0c7H
	DB	039H
	DB	0a7H
	DB	039H
	DB	0a7H
	DB	039H
	DB	0c7H
	DB	031H
	DB	0c7H
	DB	039H
	DB	0a7H
	DB	039H
	DB	0c7H
	DB	031H
	DB	0c6H
	DB	039H
	DB	0a7H
	DB	039H
	DB	0c7H
	DB	039H
	DB	0c6H
	DB	039H
	DB	0a7H
	DB	039H
	DB	0a7H
	DB	039H
	DB	0c6H
	DB	031H
	DB	0a7H
	DB	039H
	DB	0c6H
	DB	039H
	DB	0a7H
	DB	031H
	DB	0c7H
	DB	039H
	DB	0a6H
	DB	039H
	DB	0a7H
	DB	039H
	DB	0c7H
	DB	031H
	DB	0c7H
	DB	039H
	DB	0a7H
	DB	039H
	DB	0a7H
	DB	031H
	DB	0c7H
	DB	039H
	DB	0a6H
	DB	039H
	DB	0c7H
	DB	039H
	DB	0a7H
	DB	031H
	DB	0c7H
	DB	039H
	DB	0a6H
	DB	039H
	DB	0c7H
	DB	031H
	DB	0a7H
	DB	039H
	DB	0c6H
	DB	039H
	DB	0c7H
	DB	039H
	DB	0a7H
	DB	039H
	DB	0a6H
	DB	031H
	DB	0c7H
	DB	039H
	DB	0a7H
	DB	039H
	DB	0c6H
	DB	031H
	DB	055H
	DB	0adH
	DB	055H
	DB	0adH
	DB	0a7H
	DB	039H
	DB	0a6H
	DB	039H
	DB	0c7H
	DB	039H
	DB	0c7H
	DB	039H
	DB	0a6H
	DB	031H
	DB	0a7H
	DB	039H
	DB	0c7H
	DB	039H
	DB	0a6H
	DB	031H
	DB	0c7H
	DB	039H
	DB	0c7H
	DB	039H
	DB	0a6H
	DB	031H
	DB	0c7H
	DB	039H
	DB	0a7H
	DB	031H
	DB	0c6H
	DB	039H
	DB	0a7H
	DB	039H
	DB	0a7H
	DB	031H
	DB	0c6H
	DB	039H
	DB	0a7H
	DB	039H
	DB	0a7H
	DB	039H
	DB	0c6H
	DB	031H
	DB	0a7H
	DB	039H
	DB	0c7H
	DB	039H
	DB	0c7H
	DB	039H
	DB	0a6H
	DB	039H
	DB	0c7H
	DB	031H
	DB	0c7H
	DB	039H
	DB	0a7H
	DB	031H
	DB	0a6H
	DB	039H
	DB	0c7H
	DB	031H
	DB	0a7H
	DB	039H
	DB	0c6H
	DB	039H
	DB	0a7H
	DB	031H
	DB	0c7H
	DB	039H
	DB	0a7H
	DB	039H
	DB	0a6H
	DB	039H
	DB	0c7H
	DB	039H
	DB	0c7H
	DB	039H
	DB	0c6H
	DB	039H
	DB	0a6H
	DB	039H
	DB	0c7H
	DB	031H
	DB	0a7H
	DB	039H
	DB	0a7H
	DB	039H
	DB	0c6H
	DB	031H
	DB	0a7H
	DB	039H
	DB	0c7H
	DB	039H
	DB	0c7H
	DB	031H
	DB	0a7H
	DB	039H
	DB	0a6H
	DB	031H
	DB	0c7H
	DB	039H
	DB	0a7H
	DB	039H
	DB	0c6H
	DB	039H
	DB	0c7H
	DB	039H
	DB	0a6H
	DB	039H
	DB	0a7H
	DB	039H
	DB	0c6H
	DB	039H
	DB	0a7H
	DB	031H
	DB	0c7H
	DB	039H
	DB	0a6H
	DB	039H
	DB	0a7H
	DB	031H
	DB	0c7H
	DB	039H
	DB	0a7H
	DB	031H
	DB	0c7H
	DB	039H
	DB	0a7H
	DB	039H
	DB	0c7H
	DB	031H
	DB	0a7H
	DB	039H
	DB	0a6H
	DB	039H
	DB	0c7H
	DB	031H
	DB	0c7H
	DB	039H
	DB	0a6H
	DB	039H
	DB	0c7H
	DB	031H
	DB	0a7H
	DB	039H
	DB	0a6H
	DB	039H
	DB	0c6H
	DB	039H
	DB	0c7H
	DB	039H
	DB	0a6H
	DB	031H
	DB	0c7H
	DB	039H
	DB	0c7H
	DB	039H
	DB	0a6H
	DB	039H
	DB	0c7H
	DB	031H
	DB	0a7H
	DB	039H
	DB	0c7H
	DB	039H
	DB	0a7H
	DB	031H
	DB	0a6H
	DB	039H
	DB	0a7H
	DB	039H
	DB	0c7H
	DB	039H
	DB	0c7H
	DB	039H
	DB	0a7H
	DB	039H
	DB	0c6H
	DB	039H
	DB	0a7H
	DB	039H
	DB	0a7H
	DB	039H
	DB	055H
	DB	0adH
	DB	055H
	DB	0adH
	DB	0a7H
	DB	039H
	DB	0c6H
	DB	031H
	DB	0c7H
	DB	039H
	DB	0a7H
	DB	039H
	DB	0c7H
	DB	039H
	DB	0c7H
	DB	039H
	DB	0a7H
	DB	039H
	DB	0a7H
	DB	039H
	DB	0c7H
	DB	039H
	DB	0a7H
	DB	031H
	DB	0c7H
	DB	039H
	DB	0a7H
	DB	039H
	DB	0c7H
	DB	039H
	DB	0c6H
	DB	031H
	DB	0a7H
	DB	039H
	DB	0c7H
	DB	039H
	DB	0c7H
	DB	039H
	DB	0a7H
	DB	039H
	DB	0c6H
	DB	039H
	DB	0a7H
	DB	039H
	DB	0a7H
	DB	031H
	DB	0c6H
	DB	039H
	DB	0a7H
	DB	039H
	DB	0a7H
	DB	031H
	DB	0c6H
	DB	039H
	DB	0c7H
	DB	039H
	DB	0a7H
	DB	039H
	DB	0c7H
	DB	031H
	DB	0a6H
	DB	039H
	DB	0a7H
	DB	039H
	DB	0c7H
	DB	031H
	DB	0c7H
	DB	039H
	DB	0a7H
	DB	039H
	DB	0c6H
	DB	031H
	DB	0a7H
	DB	039H
	DB	0a7H
	DB	031H
	DB	0c7H
	DB	039H
	DB	0a7H
	DB	039H
	DB	0c7H
	DB	039H
	DB	0c6H
	DB	039H
	DB	0a7H
	DB	039H
	DB	0c7H
	DB	039H
	DB	0a7H
	DB	039H
	DB	0a7H
	DB	039H
	DB	0c6H
	DB	039H
	DB	0c7H
	DB	039H
	DB	0a7H
	DB	039H
	DB	0c7H
	DB	039H
	DB	0a7H
	DB	031H
	DB	0a6H
	DB	039H
	DB	0c7H
	DB	039H
	DB	0a7H
	DB	031H
	DB	0c7H
	DB	031H
	DB	0c6H
	DB	039H
	DB	0a7H
	DB	039H
	DB	0c7H
	DB	039H
	DB	0a6H
	DB	039H
	DB	0c7H
	DB	039H
	DB	0c7H
	DB	039H
	DB	0a6H
	DB	039H
	DB	0c7H
	DB	039H
	DB	0a6H
	DB	031H
	DB	0c7H
	DB	039H
	DB	0c7H
	DB	039H
	DB	0a7H
	DB	039H
	DB	0c7H
	DB	039H
	DB	0a7H
	DB	039H
	DB	0a7H
	DB	039H
	DB	0c7H
	DB	039H
	DB	0c7H
	DB	031H
	DB	0a7H
	DB	039H
	DB	0c7H
	DB	039H
	DB	0a7H
	DB	031H
	DB	0a7H
	DB	039H
	DB	0c7H
	DB	039H
	DB	0a7H
	DB	031H
	DB	0a7H
	DB	039H
	DB	0c7H
	DB	039H
	DB	0a6H
	DB	039H
	DB	0c7H
	DB	039H
	DB	0c7H
	DB	039H
	DB	0a6H
	DB	039H
	DB	0c7H
	DB	031H
	DB	0c7H
	DB	039H
	DB	0a6H
	DB	031H
	DB	0a7H
	DB	031H
	DB	0c7H
	DB	039H
	DB	0c7H
	DB	039H
	DB	0a6H
	DB	031H
	DB	0c7H
	DB	039H
	DB	055H
	DB	0adH
	DB	055H
	DB	0adH
	DB	0a7H
	DB	039H
	DB	0c7H
	DB	039H
	DB	0a6H
	DB	031H
	DB	0a7H
	DB	039H
	DB	0c7H
	DB	031H
	DB	0c6H
	DB	039H
	DB	0a6H
	DB	031H
	DB	0c7H
	DB	039H
	DB	0a6H
	DB	039H
	DB	0a7H
	DB	039H
	DB	0c6H
	DB	039H
	DB	0a7H
	DB	039H
	DB	0a7H
	DB	039H
	DB	0c7H
	DB	031H
	DB	0a6H
	DB	039H
	DB	0a7H
	DB	039H
	DB	0c7H
	DB	031H
	DB	0a6H
	DB	031H
	DB	0c7H
	DB	039H
	DB	0c7H
	DB	039H
	DB	0a7H
	DB	039H
	DB	0c6H
	DB	031H
	DB	0c7H
	DB	039H
	DB	0a7H
	DB	039H
	DB	0a7H
	DB	039H
	DB	0a6H
	DB	039H
	DB	0c7H
	DB	039H
	DB	0c7H
	DB	039H
	DB	0a7H
	DB	039H
	DB	0c6H
	DB	039H
	DB	0a7H
	DB	039H
	DB	0a7H
	DB	039H
	DB	0c6H
	DB	039H
	DB	0c7H
	DB	039H
	DB	0c7H
	DB	031H
	DB	0a7H
	DB	039H
	DB	0a6H
	DB	031H
	DB	0c7H
	DB	039H
	DB	0a7H
	DB	031H
	DB	0a7H
	DB	039H
	DB	0c6H
	DB	031H
	DB	0c7H
	DB	039H
	DB	0a7H
	DB	039H
	DB	0c6H
	DB	031H
	DB	0a7H
	DB	039H
	DB	0a7H
	DB	039H
	DB	0c6H
	DB	031H
	DB	0c7H
	DB	039H
	DB	0a7H
	DB	039H
	DB	0c7H
	DB	031H
	DB	0a7H
	DB	039H
	DB	0a7H
	DB	039H
	DB	0c7H
	DB	039H
	DB	0a7H
	DB	031H
	DB	0c7H
	DB	039H
	DB	0a7H
	DB	031H
	DB	0a7H
	DB	039H
	DB	0c7H
	DB	031H
	DB	0a7H
	DB	039H
	DB	0a7H
	DB	039H
	DB	0c6H
	DB	039H
	DB	0a7H
	DB	039H
	DB	0a6H
	DB	031H
	DB	0c7H
	DB	039H
	DB	0c6H
	DB	039H
	DB	0a7H
	DB	031H
	DB	0c6H
	DB	039H
	DB	0a7H
	DB	039H
	DB	0a7H
	DB	031H
	DB	0c6H
	DB	039H
	DB	0c7H
	DB	039H
	DB	0a7H
	DB	039H
	DB	0c7H
	DB	031H
	DB	0a6H
	DB	039H
	DB	0c7H
	DB	039H
	DB	0c6H
	DB	039H
	DB	0a7H
	DB	031H
	DB	0c7H
	DB	039H
	DB	0a7H
	DB	031H
	DB	0a6H
	DB	039H
	DB	0c7H
	DB	039H
	DB	0a7H
	DB	031H
	DB	0c7H
	DB	039H
	DB	0c7H
	DB	039H
	DB	0a7H
	DB	039H
	DB	0a6H
	DB	039H
	DB	0c7H
	DB	039H
	DB	0a7H
	DB	031H
	DB	0c7H
	DB	039H
	DB	0a6H
	DB	039H
	DB	055H
	DB	0adH
	DB	055H
	DB	0adH
	DB	0a7H
	DB	039H
	DB	0a7H
	DB	039H
	DB	0c6H
	DB	039H
	DB	0a7H
	DB	039H
	DB	0a7H
	DB	039H
	DB	0a7H
	DB	031H
	DB	0c7H
	DB	039H
	DB	0c7H
	DB	039H
	DB	0a7H
	DB	031H
	DB	0c6H
	DB	039H
	DB	0c7H
	DB	031H
	DB	0a7H
	DB	039H
	DB	0c6H
	DB	039H
	DB	0c7H
	DB	039H
	DB	0a7H
	DB	039H
	DB	0c7H
	DB	039H
	DB	0a6H
	DB	039H
	DB	0a7H
	DB	039H
	DB	0c7H
	DB	031H
	DB	0a7H
	DB	039H
	DB	0a7H
	DB	039H
	DB	0c7H
	DB	039H
	DB	0c7H
	DB	031H
	DB	0a7H
	DB	039H
	DB	0c7H
	DB	031H
	DB	0c7H
	DB	031H
	DB	0a6H
	DB	039H
	DB	0a7H
	DB	039H
	DB	0c7H
	DB	031H
	DB	0c7H
	DB	031H
	DB	0a6H
	DB	039H
	DB	0a7H
	DB	031H
	DB	0c7H
	DB	039H
	DB	0a7H
	DB	039H
	DB	0a7H
	DB	039H
	DB	0c6H
	DB	039H
	DB	0c7H
	DB	039H
	DB	0a7H
	DB	039H
	DB	0c7H
	DB	039H
	DB	0a7H
	DB	031H
	DB	0c7H
	DB	039H
	DB	0a6H
	DB	039H
	DB	0c7H
	DB	031H
	DB	0c7H
	DB	039H
	DB	0a7H
	DB	039H
	DB	0a7H
	DB	031H
	DB	0c6H
	DB	039H
	DB	0a7H
	DB	039H
	DB	0c7H
	DB	039H
	DB	0c6H
	DB	039H
	DB	0a6H
	DB	039H
	DB	0c7H
	DB	039H
	DB	0a6H
	DB	039H
	DB	0c7H
	DB	039H
	DB	0c6H
	DB	039H
	DB	0a7H
	DB	039H
	DB	0c6H
	DB	031H
	DB	0c7H
	DB	039H
	DB	0a7H
	DB	031H
	DB	0c7H
	DB	039H
	DB	0c7H
	DB	031H
	DB	0a7H
	DB	039H
	DB	0a7H
	DB	039H
	DB	0c7H
	DB	031H
	DB	0a7H
	DB	039H
	DB	0a6H
	DB	039H
	DB	0c7H
	DB	031H
	DB	0c7H
	DB	039H
	DB	0a6H
	DB	039H
	DB	0a7H
	DB	039H
	DB	0c6H
	DB	039H
	DB	0a7H
	DB	031H
	DB	0c7H
	DB	039H
	DB	0c6H
	DB	039H
	DB	0a7H
	DB	039H
	DB	0a7H
	DB	039H
	DB	0c6H
	DB	039H
	DB	0c7H
	DB	039H
	DB	0a7H
	DB	031H
	DB	0c7H
	DB	039H
	DB	0a6H
	DB	039H
	DB	0a7H
	DB	039H
	DB	0c7H
	DB	039H
	DB	0a6H
	DB	039H
	DB	0c7H
	DB	039H
	DB	0c7H
	DB	039H
	DB	0a6H
	DB	031H
	DB	0c7H
	DB	039H
	DB	0a7H
	DB	039H
	DB	0a7H
	DB	039H
	DB	055H
	DB	0adH
	DB	055H
	DB	0adH
	DB	0a6H
	DB	031H
	DB	0c7H
	DB	039H
	DB	0c7H
	DB	039H
	DB	0c7H
	DB	031H
	DB	0a6H
	DB	039H
	DB	0c7H
	DB	039H
	DB	0a7H
	DB	039H
	DB	0a7H
	DB	039H
	DB	0c7H
	DB	039H
	DB	0a7H
	DB	031H
	DB	0c7H
	DB	039H
	DB	0a7H
	DB	039H
	DB	0c6H
	DB	031H
	DB	0a7H
	DB	039H
	DB	0c7H
	DB	031H
	DB	0c7H
	DB	039H
	DB	0a7H
	DB	039H
	DB	0c7H
	DB	039H
	DB	0c6H
	DB	039H
	DB	0a6H
	DB	031H
	DB	0c7H
	DB	039H
	DB	0a7H
	DB	039H
	DB	0a6H
	DB	039H
	DB	0c6H
	DB	039H
	DB	0a7H
	DB	039H
	DB	0c7H
	DB	039H
	DB	0a7H
	DB	039H
	DB	0a6H
	DB	031H
	DB	0c7H
	DB	039H
	DB	0c7H
	DB	039H
	DB	0a7H
	DB	039H
	DB	0c6H
	DB	039H
	DB	0c7H
	DB	031H
	DB	0a7H
	DB	039H
	DB	0a6H
	DB	039H
	DB	0c7H
	DB	031H
	DB	0a7H
	DB	039H
	DB	0c6H
	DB	039H
	DB	0c6H
	DB	039H
	DB	0a7H
	DB	039H
	DB	0a7H
	DB	039H
	DB	0c7H
	DB	039H
	DB	0a6H
	DB	031H
	DB	0c7H
	DB	039H
	DB	0c7H
	DB	039H
	DB	0a6H
	DB	039H
	DB	0c7H
	DB	039H
	DB	0a7H
	DB	031H
	DB	0a7H
	DB	039H
	DB	0c7H
	DB	031H
	DB	0c7H
	DB	039H
	DB	0a7H
	DB	031H
	DB	0c7H
	DB	031H
	DB	0a6H
	DB	039H
	DB	0a7H
	DB	039H
	DB	0c7H
	DB	039H
	DB	0a7H
	DB	039H
	DB	0a6H
	DB	039H
	DB	0c6H
	DB	039H
	DB	0a7H
	DB	039H
	DB	0c7H
	DB	039H
	DB	0c6H
	DB	039H
	DB	0a7H
	DB	039H
	DB	0c7H
	DB	039H
	DB	0c7H
	DB	039H
	DB	0a7H
	DB	039H
	DB	0c7H
	DB	031H
	DB	0c7H
	DB	039H
	DB	0a7H
	DB	039H
	DB	0c7H
	DB	031H
	DB	0a7H
	DB	039H
	DB	0a6H
	DB	039H
	DB	0c7H
	DB	039H
	DB	0a7H
	DB	031H
	DB	0a7H
	DB	039H
	DB	0c7H
	DB	031H
	DB	0a7H
	DB	039H
	DB	0a6H
	DB	039H
	DB	0c7H
	DB	039H
	DB	0c7H
	DB	031H
	DB	0a7H
	DB	039H
	DB	0c6H
	DB	039H
	DB	0a7H
	DB	031H
	DB	0a7H
	DB	031H
	DB	0c7H
	DB	039H
	DB	0a7H
	DB	039H
	DB	0a7H
	DB	039H
	DB	0c6H
	DB	039H
	DB	0c7H
	DB	031H
	DB	0a7H
	DB	039H
	DB	055H
	DB	0adH
	DB	055H
	DB	0adH
	DB	0a7H
	DB	039H
	DB	0a7H
	DB	039H
	DB	0c7H
	DB	031H
	DB	0a6H
	DB	039H
	DB	0c7H
	DB	039H
	DB	0c7H
	DB	039H
	DB	0a6H
	DB	031H
	DB	0c6H
	DB	039H
	DB	0c7H
	DB	039H
	DB	0a6H
	DB	039H
	DB	0a7H
	DB	039H
	DB	0c7H
	DB	031H
	DB	0a7H
	DB	039H
	DB	0a6H
	DB	039H
	DB	0c7H
	DB	031H
	DB	0a6H
	DB	039H
	DB	0a7H
	DB	031H
	DB	0c7H
	DB	039H
	DB	0a7H
	DB	039H
	DB	0c7H
	DB	039H
	DB	0c7H
	DB	031H
	DB	0a6H
	DB	039H
	DB	0c7H
	DB	039H
	DB	0a7H
	DB	031H
	DB	0c7H
	DB	039H
	DB	0a6H
	DB	039H
	DB	0c7H
	DB	039H
	DB	0c7H
	DB	039H
	DB	0a6H
	DB	039H
	DB	0a7H
	DB	039H
	DB	0c7H
	DB	039H
	DB	0a7H
	DB	039H
	DB	0c6H
	DB	039H
	DB	0c7H
	DB	031H
	DB	0a7H
	DB	039H
	DB	0c7H
	DB	039H
	DB	0a7H
	DB	031H
	DB	0a7H
	DB	039H
	DB	0c7H
	DB	031H
	DB	0c6H
	DB	039H
	DB	0a7H
	DB	039H
	DB	0c7H
	DB	031H
	DB	0a7H
	DB	039H
	DB	0a7H
	DB	039H
	DB	0c6H
	DB	031H
	DB	0a7H
	DB	039H
	DB	0c7H
	DB	039H
	DB	0c6H
	DB	039H
	DB	0a7H
	DB	031H
	DB	0a7H
	DB	039H
	DB	0c6H
	DB	039H
	DB	0a7H
	DB	039H
	DB	0c7H
	DB	039H
	DB	0a7H
	DB	031H
	DB	0c7H
	DB	039H
	DB	0c7H
	DB	031H
	DB	0a7H
	DB	039H
	DB	0c7H
	DB	039H
	DB	0a7H
	DB	031H
	DB	0a7H
	DB	039H
	DB	0c6H
	DB	039H
	DB	0a7H
	DB	031H
	DB	0a7H
	DB	039H
	DB	0c6H
	DB	031H
	DB	0a6H
	DB	039H
	DB	0a7H
	DB	039H
	DB	0c6H
	DB	039H
	DB	0a7H
	DB	039H
	DB	0c7H
	DB	031H
	DB	0c6H
	DB	039H
	DB	0a7H
	DB	039H
	DB	0c7H
	DB	039H
	DB	0c7H
	DB	031H
	DB	0a6H
	DB	039H
	DB	0c7H
	DB	039H
	DB	0c7H
	DB	039H
	DB	0a7H
	DB	031H
	DB	0c6H
	DB	039H
	DB	0a7H
	DB	039H
	DB	0a7H
	DB	039H
	DB	0c7H
	DB	031H
	DB	0c7H
	DB	039H
	DB	0a6H
	DB	039H
	DB	0c7H
	DB	039H
	DB	0c6H
	DB	031H
	DB	0a7H
	DB	039H
	DB	0c7H
	DB	039H
	DB	0a7H
	DB	031H
	DB	0c6H
	DB	039H
	DB	0a7H
	DB	039H
	DB	055H
	DB	0adH
	DB	055H
	DB	0adH
	DB	0a7H
	DB	039H
	DB	0c6H
	DB	039H
	DB	0a7H
	DB	039H
	DB	0a7H
	DB	039H
	DB	0c7H
	DB	031H
	DB	0a7H
	DB	039H
	DB	0a7H
	DB	039H
	DB	0c7H
	DB	031H
	DB	0a7H
	DB	039H
	DB	0c6H
	DB	039H
	DB	0c7H
	DB	031H
	DB	0a7H
	DB	039H
	DB	0c7H
	DB	039H
	DB	0c7H
	DB	039H
	DB	0a7H
	DB	039H
	DB	0c7H
	DB	039H
	DB	0c6H
	DB	039H
	DB	0a7H
	DB	031H
	DB	0a7H
	DB	039H
	DB	0c7H
	DB	039H
	DB	0a6H
	DB	039H
	DB	0c7H
	DB	031H
	DB	0a7H
	DB	039H
	DB	0c7H
	DB	039H
	DB	0a7H
	DB	031H
	DB	0c7H
	DB	039H
	DB	0a7H
	DB	031H
	DB	0c7H
	DB	039H
	DB	0a7H
	DB	031H
	DB	0c6H
	DB	031H
	DB	0a7H
	DB	039H
	DB	0a7H
	DB	039H
	DB	0c7H
	DB	031H
	DB	0a7H
	DB	039H
	DB	0c6H
	DB	039H
	DB	0c7H
	DB	039H
	DB	0a7H
	DB	039H
	DB	0a7H
	DB	039H
	DB	0c7H
	DB	031H
	DB	0a7H
	DB	039H
	DB	0c6H
	DB	039H
	DB	0a7H
	DB	039H
	DB	0c7H
	DB	039H
	DB	0a6H
	DB	039H
	DB	0a7H
	DB	031H
	DB	0c7H
	DB	039H
	DB	0a7H
	DB	039H
	DB	0c7H
	DB	039H
	DB	0a6H
	DB	039H
	DB	0c7H
	DB	039H
	DB	0a7H
	DB	039H
	DB	0c6H
	DB	039H
	DB	0a7H
	DB	039H
	DB	0c7H
	DB	039H
	DB	0a6H
	DB	039H
	DB	0a6H
	DB	039H
	DB	0c7H
	DB	031H
	DB	0c7H
	DB	039H
	DB	0a7H
	DB	039H
	DB	0c6H
	DB	031H
	DB	0c7H
	DB	039H
	DB	0a7H
	DB	039H
	DB	0c7H
	DB	031H
	DB	0c7H
	DB	039H
	DB	0a7H
	DB	039H
	DB	0c7H
	DB	031H
	DB	0a7H
	DB	039H
	DB	0a6H
	DB	039H
	DB	0c7H
	DB	039H
	DB	0a7H
	DB	031H
	DB	0a6H
	DB	039H
	DB	0c7H
	DB	039H
	DB	0a7H
	DB	039H
	DB	0a7H
	DB	039H
	DB	0c6H
	DB	039H
	DB	0a7H
	DB	039H
	DB	0c7H
	DB	031H
	DB	0c7H
	DB	039H
	DB	0a6H
	DB	039H
	DB	0c7H
	DB	039H
	DB	0a7H
	DB	039H
	DB	0a6H
	DB	031H
	DB	0c7H
	DB	039H
	DB	0a7H
	DB	039H
	DB	0a7H
	DB	039H
	DB	0c6H
	DB	031H
	DB	0c7H
	DB	039H
	DB	0a7H
	DB	039H
	DB	0a7H
	DB	039H
	DB	0c6H
	DB	031H
	DB	055H
	DB	0adH
	DB	055H
	DB	0adH
	DB	0c7H
	DB	039H
	DB	0a6H
	DB	031H
	DB	0c7H
	DB	039H
	DB	0c7H
	DB	039H
	DB	0a6H
	DB	031H
	DB	0c7H
	DB	039H
	DB	0c7H
	DB	039H
	DB	0a7H
	DB	039H
	DB	0a7H
	DB	031H
	DB	0c7H
	DB	039H
	DB	0a6H
	DB	039H
	DB	0a7H
	DB	039H
	DB	0c6H
	DB	031H
	DB	0a7H
	DB	039H
	DB	0a7H
	DB	039H
	DB	0c7H
	DB	031H
	DB	0c6H
	DB	039H
	DB	0a7H
	DB	039H
	DB	0c7H
	DB	031H
	DB	0a6H
	DB	039H
	DB	0a7H
	DB	039H
	DB	0c7H
	DB	039H
	DB	0c6H
	DB	039H
	DB	0a7H
	DB	039H
	DB	0c6H
	DB	039H
	DB	0a7H
	DB	039H
	DB	0a6H
	DB	039H
	DB	0c7H
	DB	039H
	DB	0c7H
	DB	039H
	DB	0a7H
	DB	039H
	DB	0c6H
	DB	039H
	DB	0c7H
	DB	031H
	DB	0a7H
	DB	039H
	DB	0a6H
	DB	039H
	DB	0c7H
	DB	031H
	DB	0a6H
	DB	039H
	DB	0c6H
	DB	039H
	DB	0c7H
	DB	039H
	DB	0a7H
	DB	039H
	DB	0c6H
	DB	031H
	DB	0a7H
	DB	039H
	DB	0c7H
	DB	039H
	DB	0c7H
	DB	031H
	DB	0c7H
	DB	039H
	DB	0a7H
	DB	039H
	DB	0c6H
	DB	031H
	DB	0a7H
	DB	039H
	DB	0a7H
	DB	031H
	DB	0c7H
	DB	039H
	DB	0c7H
	DB	031H
	DB	0a7H
	DB	031H
	DB	0a6H
	DB	039H
	DB	0c7H
	DB	031H
	DB	0c7H
	DB	039H
	DB	0a7H
	DB	039H
	DB	0a7H
	DB	039H
	DB	0c6H
	DB	039H
	DB	0a7H
	DB	039H
	DB	0c7H
	DB	039H
	DB	0a6H
	DB	039H
	DB	0a7H
	DB	039H
	DB	0c7H
	DB	039H
	DB	0a6H
	DB	039H
	DB	0a7H
	DB	039H
	DB	0c7H
	DB	039H
	DB	0c7H
	DB	031H
	DB	0a7H
	DB	039H
	DB	0c6H
	DB	039H
	DB	0c7H
	DB	031H
	DB	0a7H
	DB	039H
	DB	0c7H
	DB	039H
	DB	0c6H
	DB	031H
	DB	0a7H
	DB	039H
	DB	0c7H
	DB	031H
	DB	0a7H
	DB	039H
	DB	0a6H
	DB	039H
	DB	0c7H
	DB	039H
	DB	0a7H
	DB	031H
	DB	0c7H
	DB	039H
	DB	0c6H
	DB	039H
	DB	0a7H
	DB	031H
	DB	0c7H
	DB	039H
	DB	0c7H
	DB	039H
	DB	0a7H
	DB	039H
	DB	0a7H
	DB	039H
	DB	0c7H
	DB	039H
	DB	0a6H
	DB	031H
	DB	0c7H
	DB	039H
	DB	0c7H
	DB	039H
	DB	0a7H
	DB	039H
	DB	055H
	DB	0adH
	DB	055H
	DB	0adH
	DB	0a7H
	DB	039H
	DB	0a7H
	DB	031H
	DB	0c7H
	DB	039H
	DB	0a6H
	DB	039H
	DB	0a7H
	DB	039H
	DB	0c6H
	DB	039H
	DB	0c6H
	DB	039H
	DB	0a7H
	DB	031H
	DB	0c7H
	DB	039H
	DB	0c6H
	DB	039H
	DB	0a7H
	DB	039H
	DB	0c7H
	DB	031H
	DB	0c7H
	DB	039H
	DB	0a6H
	DB	039H
	DB	0a7H
	DB	031H
	DB	0c7H
	DB	039H
	DB	0a7H
	DB	039H
	DB	0a6H
	DB	039H
	DB	0c7H
	DB	039H
	DB	0c7H
	DB	031H
	DB	0a7H
	DB	039H
	DB	0a7H
	DB	031H
	DB	0c7H
	DB	039H
	DB	0a7H
	DB	031H
	DB	0c7H
	DB	039H
	DB	0c6H
	DB	031H
	DB	0a7H
	DB	039H
	DB	0a7H
	DB	039H
	DB	0c6H
	DB	031H
	DB	0a7H
	DB	039H
	DB	0a7H
	DB	039H
	DB	0c7H
	DB	039H
	DB	0a6H
	DB	039H
	DB	0c7H
	DB	039H
	DB	0a7H
	DB	031H
	DB	0a7H
	DB	039H
	DB	0c7H
	DB	031H
	DB	0a7H
	DB	039H
	DB	0c6H
	DB	039H
	DB	0a7H
	DB	031H
	DB	0a7H
	DB	039H
	DB	0a6H
	DB	039H
	DB	0c7H
	DB	031H
	DB	0a7H
	DB	039H
	DB	0c6H
	DB	039H
	DB	0c7H
	DB	039H
	DB	0a7H
	DB	039H
	DB	0c6H
	DB	039H
	DB	0a7H
	DB	039H
	DB	0c7H
	DB	039H
	DB	0c6H
	DB	039H
	DB	0a7H
	DB	039H
	DB	0c7H
	DB	039H
	DB	0a6H
	DB	031H
	DB	0c7H
	DB	031H
	DB	0c7H
	DB	039H
	DB	0a7H
	DB	031H
	DB	0c6H
	DB	039H
	DB	0a7H
	DB	031H
	DB	0c7H
	DB	039H
	DB	0c7H
	DB	031H
	DB	0a7H
	DB	039H
	DB	0c6H
	DB	031H
	DB	0a7H
	DB	039H
	DB	0c6H
	DB	039H
	DB	0a7H
	DB	039H
	DB	0a7H
	DB	039H
	DB	0c7H
	DB	031H
	DB	0a7H
	DB	039H
	DB	0a7H
	DB	039H
	DB	0c7H
	DB	039H
	DB	0a7H
	DB	039H
	DB	0c6H
	DB	031H
	DB	0c7H
	DB	039H
	DB	0a7H
	DB	039H
	DB	0c6H
	DB	031H
	DB	0a7H
	DB	039H
	DB	0a7H
	DB	039H
	DB	0c6H
	DB	031H
	DB	0a7H
	DB	039H
	DB	0a7H
	DB	039H
	DB	0c7H
	DB	039H
	DB	0c6H
	DB	031H
	DB	0a6H
	DB	031H
	DB	0c7H
	DB	039H
	DB	0c7H
	DB	039H
	DB	0a7H
	DB	039H
	DB	0a6H
	DB	031H
	DB	0c7H
	DB	039H
	DB	0a7H
	DB	039H
	DB	055H
	DB	0adH
	DB	055H
	DB	0adH
	DB	0a6H
	DB	039H
	DB	0c7H
	DB	039H
	DB	0c7H
	DB	039H
	DB	0a7H
	DB	031H
	DB	0c7H
	DB	039H
	DB	0a7H
	DB	039H
	DB	0a7H
	DB	031H
	DB	0c7H
	DB	039H
	DB	0a6H
	DB	039H
	DB	0a7H
	DB	039H
	DB	0c7H
	DB	031H
	DB	0a7H
	DB	039H
	DB	0c7H
	DB	039H
	DB	0c6H
	DB	039H
	DB	0a7H
	DB	039H
	DB	0c7H
	DB	039H
	DB	0c6H
	DB	031H
	DB	0a7H
	DB	039H
	DB	0c7H
	DB	039H
	DB	0c6H
	DB	039H
	DB	0a7H
	DB	039H
	DB	0c6H
	DB	039H
	DB	0a7H
	DB	031H
	DB	0a7H
	DB	039H
	DB	0c7H
	DB	039H
	DB	0c7H
	DB	039H
	DB	0a7H
	DB	031H
	DB	0c7H
	DB	039H
	DB	0c7H
	DB	039H
	DB	0a6H
	DB	031H
	DB	0c7H
	DB	039H
	DB	0a7H
	DB	039H
	DB	0c7H
	DB	031H
	DB	0c7H
	DB	039H
	DB	0a7H
	DB	039H
	DB	0c7H
	DB	039H
	DB	0a7H
	DB	039H
	DB	0c7H
	DB	031H
	DB	0a7H
	DB	039H
	DB	0c7H
	DB	039H
	DB	0c7H
	DB	039H
	DB	0a6H
	DB	039H
	DB	0a7H
	DB	039H
	DB	0c7H
	DB	039H
	DB	0a7H
	DB	031H
	DB	0a7H
	DB	039H
	DB	0c7H
	DB	039H
	DB	0c6H
	DB	031H
	DB	0a7H
	DB	039H
	DB	0a7H
	DB	039H
	DB	0c7H
	DB	031H
	DB	0a7H
	DB	039H
	DB	0a7H
	DB	039H
	DB	0c6H
	DB	039H
	DB	0a7H
	DB	039H
	DB	0c7H
	DB	039H
	DB	0a7H
	DB	039H
	DB	0c7H
	DB	031H
	DB	0a6H
	DB	039H
	DB	0a7H
	DB	039H
	DB	0c7H
	DB	039H
	DB	0a6H
	DB	031H
	DB	0c7H
	DB	039H
	DB	0c7H
	DB	039H
	DB	0a7H
	DB	031H
	DB	0c6H
	DB	039H
	DB	0c7H
	DB	039H
	DB	0a6H
	DB	039H
	DB	0c7H
	DB	039H
	DB	0c6H
	DB	031H
	DB	0a7H
	DB	039H
	DB	0a7H
	DB	039H
	DB	0c7H
	DB	039H
	DB	0a7H
	DB	039H
	DB	0c7H
	DB	039H
	DB	0c7H
	DB	031H
	DB	0a7H
	DB	039H
	DB	0c7H
	DB	039H
	DB	0c7H
	DB	039H
	DB	0a7H
	DB	039H
	DB	0a6H
	DB	039H
	DB	0c7H
	DB	039H
	DB	0a7H
	DB	039H
	DB	0a7H
	DB	039H
	DB	0c6H
	DB	031H
	DB	0a7H
	DB	039H
	DB	0c7H
	DB	039H
	DB	0a7H
	DB	039H
	DB	0a6H
	DB	031H
	DB	0c7H
	DB	039H
	DB	055H
	DB	0adH
	DB	055H
	DB	0adH
	DB	086H
	DB	031H
	DB	086H
	DB	031H
	DB	086H
	DB	031H
	DB	086H
	DB	031H
	DB	086H
	DB	031H
	DB	086H
	DB	031H
	DB	086H
	DB	031H
	DB	086H
	DB	031H
	DB	086H
	DB	031H
	DB	086H
	DB	031H
	DB	086H
	DB	031H
	DB	086H
	DB	031H
	DB	086H
	DB	031H
	DB	086H
	DB	031H
	DB	086H
	DB	031H
	DB	086H
	DB	031H
	DB	086H
	DB	031H
	DB	086H
	DB	031H
	DB	086H
	DB	031H
	DB	086H
	DB	031H
	DB	086H
	DB	031H
	DB	086H
	DB	031H
	DB	086H
	DB	031H
	DB	086H
	DB	031H
	DB	085H
	DB	031H
	DB	086H
	DB	031H
	DB	086H
	DB	031H
	DB	086H
	DB	031H
	DB	086H
	DB	031H
	DB	086H
	DB	031H
	DB	086H
	DB	031H
	DB	086H
	DB	031H
	DB	086H
	DB	031H
	DB	086H
	DB	031H
	DB	085H
	DB	031H
	DB	086H
	DB	031H
	DB	086H
	DB	031H
	DB	085H
	DB	031H
	DB	086H
	DB	031H
	DB	086H
	DB	031H
	DB	086H
	DB	031H
	DB	086H
	DB	031H
	DB	086H
	DB	031H
	DB	086H
	DB	031H
	DB	086H
	DB	031H
	DB	086H
	DB	031H
	DB	086H
	DB	031H
	DB	086H
	DB	031H
	DB	086H
	DB	031H
	DB	086H
	DB	031H
	DB	086H
	DB	031H
	DB	086H
	DB	031H
	DB	086H
	DB	031H
	DB	086H
	DB	031H
	DB	086H
	DB	031H
	DB	086H
	DB	031H
	DB	086H
	DB	031H
	DB	086H
	DB	031H
	DB	086H
	DB	031H
	DB	086H
	DB	031H
	DB	086H
	DB	031H
	DB	086H
	DB	031H
	DB	086H
	DB	031H
	DB	086H
	DB	031H
	DB	086H
	DB	031H
	DB	086H
	DB	031H
	DB	086H
	DB	031H
	DB	086H
	DB	031H
	DB	086H
	DB	031H
	DB	086H
	DB	031H
	DB	086H
	DB	031H
	DB	086H
	DB	031H
	DB	086H
	DB	031H
	DB	085H
	DB	031H
	DB	086H
	DB	031H
	DB	086H
	DB	031H
	DB	086H
	DB	031H
	DB	085H
	DB	031H
	DB	086H
	DB	031H
	DB	086H
	DB	031H
	DB	086H
	DB	029H
	DB	086H
	DB	031H
	DB	086H
	DB	031H
	DB	086H
	DB	031H
	DB	086H
	DB	031H
	DB	086H
	DB	031H
	DB	086H
	DB	031H
	DB	086H
	DB	031H
	DB	086H
	DB	031H
	DB	086H
	DB	031H
	DB	055H
	DB	0adH
	DB	055H
	DB	0adH
	DB	014H
	DB	0a5H
	DB	034H
	DB	0a5H
	DB	034H
	DB	0a5H
	DB	014H
	DB	0a5H
	DB	034H
	DB	0a5H
	DB	034H
	DB	0a5H
	DB	034H
	DB	0a5H
	DB	034H
	DB	0a5H
	DB	034H
	DB	0a5H
	DB	034H
	DB	0a5H
	DB	014H
	DB	0a5H
	DB	034H
	DB	0a5H
	DB	034H
	DB	0a5H
	DB	014H
	DB	0a5H
	DB	034H
	DB	0a5H
	DB	014H
	DB	0a5H
	DB	034H
	DB	0a5H
	DB	014H
	DB	0a5H
	DB	034H
	DB	0a5H
	DB	014H
	DB	0a5H
	DB	034H
	DB	0a5H
	DB	034H
	DB	0a5H
	DB	034H
	DB	0a5H
	DB	034H
	DB	0a5H
	DB	014H
	DB	0a5H
	DB	034H
	DB	0a5H
	DB	014H
	DB	0a5H
	DB	034H
	DB	0a5H
	DB	034H
	DB	0a5H
	DB	014H
	DB	0a5H
	DB	034H
	DB	0a5H
	DB	034H
	DB	0a5H
	DB	014H
	DB	0a5H
	DB	034H
	DB	0a5H
	DB	034H
	DB	0a5H
	DB	014H
	DB	0a5H
	DB	034H
	DB	0a5H
	DB	034H
	DB	0a5H
	DB	034H
	DB	0a5H
	DB	014H
	DB	0a5H
	DB	034H
	DB	0a5H
	DB	034H
	DB	0a5H
	DB	034H
	DB	0a5H
	DB	034H
	DB	0a5H
	DB	034H
	DB	0a5H
	DB	034H
	DB	0a5H
	DB	014H
	DB	0a5H
	DB	034H
	DB	0a5H
	DB	034H
	DB	0a5H
	DB	034H
	DB	0a5H
	DB	034H
	DB	0a5H
	DB	034H
	DB	0a5H
	DB	034H
	DB	0a5H
	DB	014H
	DB	0a5H
	DB	034H
	DB	0a5H
	DB	034H
	DB	0a5H
	DB	014H
	DB	0a5H
	DB	034H
	DB	0a5H
	DB	034H
	DB	0a5H
	DB	034H
	DB	0a5H
	DB	034H
	DB	0a5H
	DB	014H
	DB	0a5H
	DB	034H
	DB	0a5H
	DB	014H
	DB	0a5H
	DB	034H
	DB	0a5H
	DB	014H
	DB	0a5H
	DB	034H
	DB	0a5H
	DB	034H
	DB	0a5H
	DB	014H
	DB	0a5H
	DB	034H
	DB	0a5H
	DB	034H
	DB	0a5H
	DB	034H
	DB	0a5H
	DB	014H
	DB	0a5H
	DB	034H
	DB	0a5H
	DB	014H
	DB	0a5H
	DB	034H
	DB	0a5H
	DB	034H
	DB	0a5H
	DB	014H
	DB	0a5H
	DB	034H
	DB	0a5H
	DB	034H
	DB	0a5H
	DB	034H
	DB	0a5H
	DB	034H
	DB	0a5H
	DB	034H
	DB	0a5H
	DB	034H
	DB	0a5H
	DB	034H
	DB	0a5H
	DB	034H
	DB	0a5H
	DB	034H
	DB	0a5H
	DB	034H
	DB	0a5H
	DB	034H
	DB	0a5H
	DB	014H
	DB	0a5H
	DB	055H
	DB	0adH
CONST	ENDS
END
