; Listing generated by Microsoft (R) Optimizing Compiler Version 19.00.24210.0 

	TITLE	C:\MyFiles\SoftwareTeam\Technologies_Boards\Graphic\TouchGFX\Scope\Project\Oscilloscope\Graphic\generated\images\src\Chn2ControlButtonOn.cpp
	.686P
	.XMM
	include listing.inc
	.model	flat

INCLUDELIB MSVCRTD
INCLUDELIB OLDNAMES

PUBLIC	?_Chn2ControlButtonOn@@3QBEB			; _Chn2ControlButtonOn
PUBLIC	?_Chn2ControlButtonOn_alpha_channel@@3QBEB	; _Chn2ControlButtonOn_alpha_channel
CONST	SEGMENT
?_Chn2ControlButtonOn@@3QBEB DB 09eH			; _Chn2ControlButtonOn
	DB	0ffH
	DB	09eH
	DB	0ffH
	DB	0f9H
	DB	0ffH
	DB	0edH
	DB	0ffH
	DB	0e8H
	DB	0ffH
	DB	0e5H
	DB	0ffH
	DB	0e5H
	DB	0ffH
	DB	0e5H
	DB	0ffH
	DB	0e5H
	DB	0ffH
	DB	0e5H
	DB	0ffH
	DB	0e5H
	DB	0ffH
	DB	0e5H
	DB	0ffH
	DB	0e5H
	DB	0ffH
	DB	0e5H
	DB	0ffH
	DB	0e5H
	DB	0ffH
	DB	0e5H
	DB	0ffH
	DB	0e5H
	DB	0ffH
	DB	0e5H
	DB	0ffH
	DB	0e5H
	DB	0ffH
	DB	0e5H
	DB	0ffH
	DB	0e5H
	DB	0ffH
	DB	0e5H
	DB	0ffH
	DB	0e5H
	DB	0ffH
	DB	0e5H
	DB	0ffH
	DB	0e5H
	DB	0ffH
	DB	0e5H
	DB	0ffH
	DB	0e5H
	DB	0ffH
	DB	0e5H
	DB	0ffH
	DB	0e5H
	DB	0ffH
	DB	0e5H
	DB	0ffH
	DB	0e5H
	DB	0ffH
	DB	0e5H
	DB	0ffH
	DB	0e5H
	DB	0ffH
	DB	0e5H
	DB	0ffH
	DB	0e5H
	DB	0ffH
	DB	0e5H
	DB	0ffH
	DB	0e7H
	DB	0ffH
	DB	0edH
	DB	0ffH
	DB	0fbH
	DB	0ffH
	DB	09eH
	DB	0ffH
	DB	09eH
	DB	0ffH
	DB	09eH
	DB	0ffH
	DB	0f4H
	DB	0ffH
	DB	0e6H
	DB	0ffH
	DB	0e6H
	DB	0ffH
	DB	0e5H
	DB	0ffH
	DB	0e5H
	DB	0ffH
	DB	0e6H
	DB	0ffH
	DB	0e5H
	DB	0ffH
	DB	0e5H
	DB	0ffH
	DB	0e6H
	DB	0ffH
	DB	0e5H
	DB	0ffH
	DB	0e5H
	DB	0ffH
	DB	0e6H
	DB	0ffH
	DB	0e5H
	DB	0ffH
	DB	0e5H
	DB	0ffH
	DB	0e6H
	DB	0ffH
	DB	0e5H
	DB	0ffH
	DB	0e5H
	DB	0ffH
	DB	0e6H
	DB	0ffH
	DB	0e5H
	DB	0ffH
	DB	0e5H
	DB	0ffH
	DB	0e6H
	DB	0ffH
	DB	0e5H
	DB	0ffH
	DB	0e5H
	DB	0ffH
	DB	0e6H
	DB	0ffH
	DB	0e5H
	DB	0ffH
	DB	0e5H
	DB	0ffH
	DB	0e6H
	DB	0ffH
	DB	0e5H
	DB	0ffH
	DB	0e5H
	DB	0ffH
	DB	0e6H
	DB	0ffH
	DB	0e5H
	DB	0ffH
	DB	0e5H
	DB	0ffH
	DB	0e6H
	DB	0ffH
	DB	0e5H
	DB	0ffH
	DB	0e6H
	DB	0ffH
	DB	0e6H
	DB	0ffH
	DB	0e6H
	DB	0ffH
	DB	0e6H
	DB	0ffH
	DB	0f5H
	DB	0ffH
	DB	09eH
	DB	0ffH
	DB	0faH
	DB	0ffH
	DB	0e6H
	DB	0ffH
	DB	0e7H
	DB	0ffH
	DB	0e7H
	DB	0ffH
	DB	0e6H
	DB	0ffH
	DB	0e7H
	DB	0ffH
	DB	0e7H
	DB	0ffH
	DB	0e6H
	DB	0ffH
	DB	0e7H
	DB	0ffH
	DB	0e7H
	DB	0ffH
	DB	0e6H
	DB	0ffH
	DB	0e7H
	DB	0ffH
	DB	0e7H
	DB	0ffH
	DB	0e6H
	DB	0ffH
	DB	0e7H
	DB	0ffH
	DB	0e7H
	DB	0ffH
	DB	0e6H
	DB	0ffH
	DB	0e7H
	DB	0ffH
	DB	0e7H
	DB	0ffH
	DB	0e6H
	DB	0ffH
	DB	0e7H
	DB	0ffH
	DB	0e7H
	DB	0ffH
	DB	0e6H
	DB	0ffH
	DB	0e7H
	DB	0ffH
	DB	0e7H
	DB	0ffH
	DB	0e6H
	DB	0ffH
	DB	0e7H
	DB	0ffH
	DB	0e7H
	DB	0ffH
	DB	0e6H
	DB	0ffH
	DB	0e7H
	DB	0ffH
	DB	0e7H
	DB	0ffH
	DB	0e6H
	DB	0ffH
	DB	0e7H
	DB	0ffH
	DB	0e7H
	DB	0ffH
	DB	0e6H
	DB	0ffH
	DB	0e6H
	DB	0ffH
	DB	0e7H
	DB	0ffH
	DB	0e7H
	DB	0ffH
	DB	0e6H
	DB	0ffH
	DB	0e7H
	DB	0ffH
	DB	0fcH
	DB	0ffH
	DB	0eeH
	DB	0ffH
	DB	0e7H
	DB	0ffH
	DB	0e7H
	DB	0ffH
	DB	04fH
	DB	0dfH
	DB	01fH
	DB	086H
	DB	01fH
	DB	086H
	DB	01fH
	DB	086H
	DB	01fH
	DB	086H
	DB	01fH
	DB	086H
	DB	01fH
	DB	086H
	DB	01fH
	DB	086H
	DB	01fH
	DB	086H
	DB	01fH
	DB	086H
	DB	01fH
	DB	086H
	DB	01fH
	DB	086H
	DB	01fH
	DB	086H
	DB	01fH
	DB	086H
	DB	01fH
	DB	086H
	DB	01fH
	DB	086H
	DB	01fH
	DB	086H
	DB	01fH
	DB	086H
	DB	01fH
	DB	086H
	DB	01fH
	DB	086H
	DB	01fH
	DB	086H
	DB	01fH
	DB	086H
	DB	01fH
	DB	086H
	DB	01fH
	DB	086H
	DB	01fH
	DB	086H
	DB	01fH
	DB	086H
	DB	01fH
	DB	086H
	DB	01fH
	DB	086H
	DB	01fH
	DB	086H
	DB	01fH
	DB	086H
	DB	01fH
	DB	086H
	DB	01fH
	DB	086H
	DB	01fH
	DB	086H
	DB	01fH
	DB	086H
	DB	06dH
	DB	0e7H
	DB	0e7H
	DB	0ffH
	DB	0e8H
	DB	0ffH
	DB	0eeH
	DB	0ffH
	DB	0e3H
	DB	0ffH
	DB	0e6H
	DB	0ffH
	DB	0e9H
	DB	0ffH
	DB	01fH
	DB	086H
	DB	01fH
	DB	086H
	DB	01fH
	DB	08eH
	DB	01fH
	DB	08eH
	DB	01fH
	DB	086H
	DB	01fH
	DB	08eH
	DB	01fH
	DB	08eH
	DB	01fH
	DB	086H
	DB	01fH
	DB	08eH
	DB	01fH
	DB	08eH
	DB	01fH
	DB	086H
	DB	01fH
	DB	08eH
	DB	01fH
	DB	08eH
	DB	01fH
	DB	086H
	DB	01fH
	DB	08eH
	DB	01fH
	DB	08eH
	DB	01fH
	DB	086H
	DB	01fH
	DB	08eH
	DB	01fH
	DB	08eH
	DB	01fH
	DB	086H
	DB	01fH
	DB	08eH
	DB	01fH
	DB	08eH
	DB	01fH
	DB	086H
	DB	01fH
	DB	08eH
	DB	01fH
	DB	08eH
	DB	01fH
	DB	086H
	DB	01fH
	DB	08eH
	DB	01fH
	DB	08eH
	DB	01fH
	DB	086H
	DB	01fH
	DB	08eH
	DB	01fH
	DB	08eH
	DB	01fH
	DB	086H
	DB	01fH
	DB	08eH
	DB	01fH
	DB	086H
	DB	01fH
	DB	086H
	DB	0e9H
	DB	0ffH
	DB	0e5H
	DB	0ffH
	DB	0e4H
	DB	0ffH
	DB	0e0H
	DB	0ffH
	DB	0e0H
	DB	0ffH
	DB	0e6H
	DB	0ffH
	DB	01fH
	DB	086H
	DB	01fH
	DB	08eH
	DB	01fH
	DB	086H
	DB	01fH
	DB	086H
	DB	01fH
	DB	08eH
	DB	01fH
	DB	086H
	DB	01fH
	DB	086H
	DB	01fH
	DB	08eH
	DB	01fH
	DB	086H
	DB	01fH
	DB	086H
	DB	01fH
	DB	08eH
	DB	01fH
	DB	086H
	DB	01fH
	DB	086H
	DB	01fH
	DB	08eH
	DB	01fH
	DB	086H
	DB	01fH
	DB	086H
	DB	01fH
	DB	08eH
	DB	01fH
	DB	086H
	DB	01fH
	DB	086H
	DB	01fH
	DB	08eH
	DB	01fH
	DB	086H
	DB	01fH
	DB	086H
	DB	01fH
	DB	08eH
	DB	01fH
	DB	086H
	DB	01fH
	DB	086H
	DB	01fH
	DB	08eH
	DB	01fH
	DB	086H
	DB	01fH
	DB	086H
	DB	01fH
	DB	08eH
	DB	01fH
	DB	086H
	DB	01fH
	DB	086H
	DB	01fH
	DB	08eH
	DB	01fH
	DB	086H
	DB	01fH
	DB	08eH
	DB	01fH
	DB	086H
	DB	0e7H
	DB	0ffH
	DB	0e0H
	DB	0ffH
	DB	0e0H
	DB	0ffH
	DB	0e0H
	DB	0ffH
	DB	0e0H
	DB	0ffH
	DB	0e0H
	DB	0ffH
	DB	01fH
	DB	086H
	DB	01fH
	DB	08eH
	DB	01fH
	DB	086H
	DB	01fH
	DB	086H
	DB	01fH
	DB	08eH
	DB	01fH
	DB	086H
	DB	01fH
	DB	086H
	DB	01fH
	DB	08eH
	DB	01fH
	DB	086H
	DB	01fH
	DB	086H
	DB	01fH
	DB	08eH
	DB	01fH
	DB	086H
	DB	01fH
	DB	086H
	DB	01fH
	DB	08eH
	DB	01fH
	DB	086H
	DB	01fH
	DB	086H
	DB	01fH
	DB	08eH
	DB	01fH
	DB	086H
	DB	01fH
	DB	086H
	DB	01fH
	DB	08eH
	DB	01fH
	DB	086H
	DB	01fH
	DB	086H
	DB	01fH
	DB	08eH
	DB	01fH
	DB	086H
	DB	01fH
	DB	086H
	DB	01fH
	DB	08eH
	DB	01fH
	DB	086H
	DB	01fH
	DB	086H
	DB	01fH
	DB	08eH
	DB	01fH
	DB	086H
	DB	01fH
	DB	086H
	DB	01fH
	DB	086H
	DB	01fH
	DB	08eH
	DB	01fH
	DB	086H
	DB	01fH
	DB	08eH
	DB	0e1H
	DB	0ffH
	DB	0e0H
	DB	0ffH
	DB	0e0H
	DB	0ffH
	DB	0e0H
	DB	0ffH
	DB	0e0H
	DB	0ffH
	DB	0e0H
	DB	0ffH
	DB	01fH
	DB	086H
	DB	01fH
	DB	08eH
	DB	01fH
	DB	086H
	DB	01fH
	DB	086H
	DB	01fH
	DB	08eH
	DB	01fH
	DB	086H
	DB	01fH
	DB	086H
	DB	01fH
	DB	08eH
	DB	01fH
	DB	086H
	DB	01fH
	DB	086H
	DB	01fH
	DB	08eH
	DB	01fH
	DB	086H
	DB	01fH
	DB	086H
	DB	01fH
	DB	08eH
	DB	01fH
	DB	086H
	DB	01fH
	DB	086H
	DB	01fH
	DB	08eH
	DB	01fH
	DB	086H
	DB	01fH
	DB	086H
	DB	01fH
	DB	08eH
	DB	01fH
	DB	086H
	DB	01fH
	DB	086H
	DB	01fH
	DB	08eH
	DB	01fH
	DB	086H
	DB	01fH
	DB	086H
	DB	01fH
	DB	08eH
	DB	01fH
	DB	086H
	DB	01fH
	DB	086H
	DB	01fH
	DB	08eH
	DB	01fH
	DB	08eH
	DB	01fH
	DB	086H
	DB	01fH
	DB	08eH
	DB	01fH
	DB	086H
	DB	01fH
	DB	086H
	DB	01fH
	DB	086H
	DB	0e0H
	DB	0ffH
	DB	0e0H
	DB	0ffH
	DB	0e0H
	DB	0ffH
	DB	0e0H
	DB	0ffH
	DB	0e0H
	DB	0ffH
	DB	0e0H
	DB	0ffH
	DB	01fH
	DB	086H
	DB	01fH
	DB	08eH
	DB	01fH
	DB	086H
	DB	01fH
	DB	086H
	DB	01fH
	DB	08eH
	DB	01fH
	DB	086H
	DB	01fH
	DB	086H
	DB	01fH
	DB	08eH
	DB	01fH
	DB	086H
	DB	01fH
	DB	08eH
	DB	01fH
	DB	086H
	DB	01fH
	DB	086H
	DB	01fH
	DB	08eH
	DB	01fH
	DB	086H
	DB	01fH
	DB	08eH
	DB	01fH
	DB	086H
	DB	01fH
	DB	086H
	DB	01fH
	DB	08eH
	DB	01fH
	DB	086H
	DB	01fH
	DB	08eH
	DB	01fH
	DB	086H
	DB	01fH
	DB	086H
	DB	01fH
	DB	08eH
	DB	01fH
	DB	086H
	DB	01fH
	DB	08eH
	DB	01fH
	DB	086H
	DB	01fH
	DB	086H
	DB	01fH
	DB	08eH
	DB	01fH
	DB	086H
	DB	01fH
	DB	086H
	DB	01fH
	DB	086H
	DB	01fH
	DB	08eH
	DB	01fH
	DB	086H
	DB	01fH
	DB	08eH
	DB	01fH
	DB	086H
	DB	0e0H
	DB	0ffH
	DB	0e0H
	DB	0ffH
	DB	0e0H
	DB	0ffH
	DB	0e0H
	DB	0ffH
	DB	0e0H
	DB	0ffH
	DB	0e0H
	DB	0ffH
	DB	01fH
	DB	086H
	DB	01fH
	DB	08eH
	DB	01fH
	DB	086H
	DB	01fH
	DB	08eH
	DB	01fH
	DB	086H
	DB	01fH
	DB	08eH
	DB	01fH
	DB	086H
	DB	01fH
	DB	086H
	DB	01fH
	DB	08eH
	DB	01fH
	DB	086H
	DB	01fH
	DB	086H
	DB	01fH
	DB	08eH
	DB	01fH
	DB	086H
	DB	01fH
	DB	086H
	DB	01fH
	DB	08eH
	DB	01fH
	DB	086H
	DB	01fH
	DB	08eH
	DB	01fH
	DB	086H
	DB	01fH
	DB	086H
	DB	01fH
	DB	08eH
	DB	01fH
	DB	086H
	DB	01fH
	DB	08eH
	DB	01fH
	DB	086H
	DB	01fH
	DB	086H
	DB	01fH
	DB	08eH
	DB	01fH
	DB	086H
	DB	01fH
	DB	08eH
	DB	01fH
	DB	086H
	DB	01fH
	DB	086H
	DB	01fH
	DB	08eH
	DB	01fH
	DB	086H
	DB	01fH
	DB	086H
	DB	01fH
	DB	08eH
	DB	01fH
	DB	086H
	DB	01fH
	DB	08eH
	DB	0e0H
	DB	0ffH
	DB	0e0H
	DB	0ffH
	DB	0e0H
	DB	0ffH
	DB	0e0H
	DB	0ffH
	DB	0e0H
	DB	0ffH
	DB	0e0H
	DB	0ffH
	DB	01fH
	DB	086H
	DB	01fH
	DB	086H
	DB	01fH
	DB	08eH
	DB	01fH
	DB	086H
	DB	01fH
	DB	086H
	DB	0e0H
	DB	0ffH
	DB	0e0H
	DB	0ffH
	DB	0e0H
	DB	0ffH
	DB	0e0H
	DB	0ffH
	DB	0e0H
	DB	0ffH
	DB	0e1H
	DB	0ffH
	DB	0e3H
	DB	0ffH
	DB	0e6H
	DB	0ffH
	DB	0e7H
	DB	0ffH
	DB	0e9H
	DB	0ffH
	DB	0ebH
	DB	0ffH
	DB	0ecH
	DB	0ffH
	DB	0ecH
	DB	0ffH
	DB	0ecH
	DB	0ffH
	DB	0ecH
	DB	0ffH
	DB	0ecH
	DB	0ffH
	DB	0e8H
	DB	0ffH
	DB	0e6H
	DB	0ffH
	DB	0e4H
	DB	0ffH
	DB	0e1H
	DB	0ffH
	DB	0e0H
	DB	0ffH
	DB	0e0H
	DB	0ffH
	DB	0e0H
	DB	0ffH
	DB	0e2H
	DB	0ffH
	DB	01fH
	DB	08eH
	DB	01fH
	DB	086H
	DB	01fH
	DB	086H
	DB	01fH
	DB	08eH
	DB	01fH
	DB	086H
	DB	01fH
	DB	086H
	DB	0e0H
	DB	0ffH
	DB	0e0H
	DB	0ffH
	DB	0e0H
	DB	0ffH
	DB	0e0H
	DB	0ffH
	DB	0e0H
	DB	0ffH
	DB	0e0H
	DB	0ffH
	DB	01fH
	DB	08eH
	DB	01fH
	DB	086H
	DB	01fH
	DB	086H
	DB	01fH
	DB	08eH
	DB	01fH
	DB	086H
	DB	0e0H
	DB	0ffH
	DB	0e0H
	DB	0ffH
	DB	0e0H
	DB	0ffH
	DB	0e0H
	DB	0ffH
	DB	0e0H
	DB	0ffH
	DB	0e0H
	DB	0ffH
	DB	0e0H
	DB	0ffH
	DB	0e2H
	DB	0ffH
	DB	0e0H
	DB	0ffH
	DB	0e0H
	DB	0ffH
	DB	0e0H
	DB	0ffH
	DB	0e1H
	DB	0ffH
	DB	0e3H
	DB	0ffH
	DB	0e4H
	DB	0ffH
	DB	0e2H
	DB	0ffH
	DB	0e2H
	DB	0ffH
	DB	0e0H
	DB	0ffH
	DB	0e0H
	DB	0ffH
	DB	0e0H
	DB	0ffH
	DB	0e0H
	DB	0ffH
	DB	0e0H
	DB	0ffH
	DB	0e0H
	DB	0ffH
	DB	0e0H
	DB	0ffH
	DB	0e2H
	DB	0ffH
	DB	01fH
	DB	086H
	DB	01fH
	DB	086H
	DB	01fH
	DB	08eH
	DB	01fH
	DB	086H
	DB	01fH
	DB	086H
	DB	01fH
	DB	08eH
	DB	0e0H
	DB	0ffH
	DB	0e0H
	DB	0ffH
	DB	0e0H
	DB	0ffH
	DB	0e0H
	DB	0ffH
	DB	0e0H
	DB	0ffH
	DB	0e0H
	DB	0ffH
	DB	01fH
	DB	086H
	DB	01fH
	DB	08eH
	DB	01fH
	DB	086H
	DB	01fH
	DB	08eH
	DB	01fH
	DB	08eH
	DB	01fH
	DB	086H
	DB	01fH
	DB	08eH
	DB	01fH
	DB	086H
	DB	01fH
	DB	08eH
	DB	01fH
	DB	086H
	DB	01fH
	DB	086H
	DB	01fH
	DB	08eH
	DB	01fH
	DB	086H
	DB	01fH
	DB	086H
	DB	01fH
	DB	08eH
	DB	01fH
	DB	086H
	DB	01fH
	DB	086H
	DB	01fH
	DB	08eH
	DB	01fH
	DB	086H
	DB	01fH
	DB	086H
	DB	01fH
	DB	08eH
	DB	01fH
	DB	086H
	DB	01fH
	DB	086H
	DB	01fH
	DB	08eH
	DB	01fH
	DB	086H
	DB	01fH
	DB	086H
	DB	01fH
	DB	08eH
	DB	01fH
	DB	086H
	DB	01fH
	DB	086H
	DB	01fH
	DB	08eH
	DB	01fH
	DB	086H
	DB	01fH
	DB	08eH
	DB	01fH
	DB	086H
	DB	01fH
	DB	086H
	DB	01fH
	DB	08eH
	DB	0e0H
	DB	0ffH
	DB	0e0H
	DB	0ffH
	DB	0e0H
	DB	0ffH
	DB	0e0H
	DB	0ffH
	DB	0e0H
	DB	0ffH
	DB	0e0H
	DB	0ffH
	DB	01fH
	DB	086H
	DB	01fH
	DB	086H
	DB	01fH
	DB	08eH
	DB	01fH
	DB	086H
	DB	01fH
	DB	086H
	DB	01fH
	DB	086H
	DB	01fH
	DB	08eH
	DB	01fH
	DB	086H
	DB	01fH
	DB	086H
	DB	01fH
	DB	08eH
	DB	01fH
	DB	086H
	DB	01fH
	DB	08eH
	DB	01fH
	DB	086H
	DB	01fH
	DB	086H
	DB	01fH
	DB	08eH
	DB	01fH
	DB	086H
	DB	01fH
	DB	086H
	DB	01fH
	DB	08eH
	DB	01fH
	DB	086H
	DB	01fH
	DB	086H
	DB	01fH
	DB	08eH
	DB	01fH
	DB	086H
	DB	01fH
	DB	086H
	DB	01fH
	DB	08eH
	DB	01fH
	DB	086H
	DB	01fH
	DB	086H
	DB	01fH
	DB	08eH
	DB	01fH
	DB	086H
	DB	01fH
	DB	086H
	DB	01fH
	DB	08eH
	DB	01fH
	DB	086H
	DB	01fH
	DB	086H
	DB	01fH
	DB	08eH
	DB	01fH
	DB	086H
	DB	01fH
	DB	086H
	DB	0e0H
	DB	0ffH
	DB	0e0H
	DB	0ffH
	DB	0e0H
	DB	0ffH
	DB	0e0H
	DB	0ffH
	DB	0e0H
	DB	0ffH
	DB	0e0H
	DB	0ffH
	DB	01fH
	DB	08eH
	DB	01fH
	DB	086H
	DB	01fH
	DB	086H
	DB	01fH
	DB	08eH
	DB	01fH
	DB	086H
	DB	01fH
	DB	086H
	DB	01fH
	DB	08eH
	DB	01fH
	DB	086H
	DB	01fH
	DB	086H
	DB	01fH
	DB	08eH
	DB	01fH
	DB	086H
	DB	01fH
	DB	086H
	DB	01fH
	DB	08eH
	DB	01fH
	DB	086H
	DB	01fH
	DB	08eH
	DB	01fH
	DB	086H
	DB	01fH
	DB	08eH
	DB	01fH
	DB	086H
	DB	01fH
	DB	08eH
	DB	01fH
	DB	086H
	DB	01fH
	DB	086H
	DB	01fH
	DB	08eH
	DB	01fH
	DB	086H
	DB	01fH
	DB	08eH
	DB	01fH
	DB	086H
	DB	01fH
	DB	086H
	DB	01fH
	DB	08eH
	DB	01fH
	DB	086H
	DB	01fH
	DB	086H
	DB	01fH
	DB	08eH
	DB	01fH
	DB	086H
	DB	01fH
	DB	086H
	DB	01fH
	DB	08eH
	DB	01fH
	DB	08eH
	DB	01fH
	DB	086H
	DB	0e0H
	DB	0ffH
	DB	0e0H
	DB	0ffH
	DB	0e0H
	DB	0ffH
	DB	0e0H
	DB	0ffH
	DB	0e0H
	DB	0ffH
	DB	0e0H
	DB	0ffH
	DB	01fH
	DB	086H
	DB	01fH
	DB	08eH
	DB	01fH
	DB	086H
	DB	01fH
	DB	086H
	DB	01fH
	DB	08eH
	DB	01fH
	DB	086H
	DB	01fH
	DB	08eH
	DB	01fH
	DB	086H
	DB	01fH
	DB	08eH
	DB	01fH
	DB	086H
	DB	01fH
	DB	086H
	DB	01fH
	DB	08eH
	DB	01fH
	DB	086H
	DB	01fH
	DB	086H
	DB	01fH
	DB	086H
	DB	01fH
	DB	08eH
	DB	01fH
	DB	086H
	DB	01fH
	DB	086H
	DB	01fH
	DB	08eH
	DB	01fH
	DB	086H
	DB	01fH
	DB	086H
	DB	01fH
	DB	08eH
	DB	01fH
	DB	086H
	DB	01fH
	DB	086H
	DB	01fH
	DB	08eH
	DB	01fH
	DB	086H
	DB	01fH
	DB	08eH
	DB	01fH
	DB	086H
	DB	01fH
	DB	08eH
	DB	01fH
	DB	086H
	DB	01fH
	DB	08eH
	DB	01fH
	DB	086H
	DB	01fH
	DB	086H
	DB	01fH
	DB	086H
	DB	01fH
	DB	08eH
	DB	0e0H
	DB	0ffH
	DB	0e0H
	DB	0ffH
	DB	0e0H
	DB	0ffH
	DB	0e3H
	DB	0ffH
	DB	0e0H
	DB	0ffH
	DB	0e0H
	DB	0ffH
	DB	01fH
	DB	086H
	DB	01fH
	DB	08eH
	DB	01fH
	DB	086H
	DB	01fH
	DB	086H
	DB	01fH
	DB	08eH
	DB	01fH
	DB	086H
	DB	01fH
	DB	086H
	DB	01fH
	DB	08eH
	DB	01fH
	DB	086H
	DB	01fH
	DB	086H
	DB	01fH
	DB	08eH
	DB	01fH
	DB	08eH
	DB	01fH
	DB	086H
	DB	01fH
	DB	08eH
	DB	01fH
	DB	086H
	DB	01fH
	DB	086H
	DB	01fH
	DB	08eH
	DB	01fH
	DB	086H
	DB	01fH
	DB	086H
	DB	01fH
	DB	08eH
	DB	01fH
	DB	086H
	DB	01fH
	DB	08eH
	DB	01fH
	DB	086H
	DB	01fH
	DB	086H
	DB	01fH
	DB	08eH
	DB	01fH
	DB	086H
	DB	01fH
	DB	086H
	DB	01fH
	DB	08eH
	DB	01fH
	DB	086H
	DB	01fH
	DB	086H
	DB	01fH
	DB	08eH
	DB	01fH
	DB	086H
	DB	01fH
	DB	086H
	DB	01fH
	DB	08eH
	DB	01fH
	DB	086H
	DB	0e0H
	DB	0ffH
	DB	0e0H
	DB	0ffH
	DB	0e5H
	DB	0ffH
	DB	0e9H
	DB	0ffH
	DB	0e0H
	DB	0ffH
	DB	0e0H
	DB	0ffH
	DB	069H
	DB	0dfH
	DB	01fH
	DB	086H
	DB	01fH
	DB	08eH
	DB	01fH
	DB	086H
	DB	01fH
	DB	08eH
	DB	01fH
	DB	086H
	DB	01fH
	DB	086H
	DB	01fH
	DB	08eH
	DB	01fH
	DB	086H
	DB	01fH
	DB	086H
	DB	01fH
	DB	08eH
	DB	01fH
	DB	086H
	DB	01fH
	DB	086H
	DB	01fH
	DB	08eH
	DB	01fH
	DB	086H
	DB	01fH
	DB	086H
	DB	01fH
	DB	08eH
	DB	01fH
	DB	086H
	DB	01fH
	DB	08eH
	DB	01fH
	DB	086H
	DB	01fH
	DB	086H
	DB	01fH
	DB	08eH
	DB	01fH
	DB	086H
	DB	01fH
	DB	08eH
	DB	01fH
	DB	086H
	DB	01fH
	DB	086H
	DB	01fH
	DB	08eH
	DB	01fH
	DB	086H
	DB	01fH
	DB	086H
	DB	01fH
	DB	08eH
	DB	01fH
	DB	086H
	DB	01fH
	DB	08eH
	DB	01fH
	DB	086H
	DB	01fH
	DB	08eH
	DB	087H
	DB	0e7H
	DB	0e0H
	DB	0ffH
	DB	0e0H
	DB	0ffH
	DB	0ebH
	DB	0ffH
	DB	0f9H
	DB	0ffH
	DB	0e0H
	DB	0ffH
	DB	0e0H
	DB	0ffH
	DB	0e0H
	DB	0ffH
	DB	0e0H
	DB	0ffH
	DB	0e0H
	DB	0ffH
	DB	0e0H
	DB	0ffH
	DB	0e0H
	DB	0ffH
	DB	0e0H
	DB	0ffH
	DB	0e0H
	DB	0ffH
	DB	0e0H
	DB	0ffH
	DB	0e0H
	DB	0ffH
	DB	0e0H
	DB	0ffH
	DB	0e0H
	DB	0ffH
	DB	0e0H
	DB	0ffH
	DB	0e0H
	DB	0ffH
	DB	0e0H
	DB	0ffH
	DB	0e0H
	DB	0ffH
	DB	0e0H
	DB	0ffH
	DB	0e0H
	DB	0ffH
	DB	0e0H
	DB	0ffH
	DB	0e0H
	DB	0ffH
	DB	0e0H
	DB	0ffH
	DB	0e0H
	DB	0ffH
	DB	0e0H
	DB	0ffH
	DB	0e0H
	DB	0ffH
	DB	0e0H
	DB	0ffH
	DB	0e0H
	DB	0ffH
	DB	0e0H
	DB	0ffH
	DB	0e0H
	DB	0ffH
	DB	0e0H
	DB	0ffH
	DB	0e0H
	DB	0ffH
	DB	0e0H
	DB	0ffH
	DB	0e0H
	DB	0ffH
	DB	0e0H
	DB	0ffH
	DB	0e0H
	DB	0ffH
	DB	0e0H
	DB	0ffH
	DB	0e0H
	DB	0ffH
	DB	0e0H
	DB	0ffH
	DB	0e1H
	DB	0ffH
	DB	0fbH
	DB	0ffH
	DB	0ffH
	DB	0ffH
	DB	0f1H
	DB	0ffH
	DB	0e0H
	DB	0ffH
	DB	0e0H
	DB	0ffH
	DB	0e0H
	DB	0ffH
	DB	0e0H
	DB	0ffH
	DB	0e0H
	DB	0ffH
	DB	0e0H
	DB	0ffH
	DB	0e0H
	DB	0ffH
	DB	0e0H
	DB	0ffH
	DB	0e0H
	DB	0ffH
	DB	0e0H
	DB	0ffH
	DB	0e0H
	DB	0ffH
	DB	0e0H
	DB	0ffH
	DB	0e0H
	DB	0ffH
	DB	0e0H
	DB	0ffH
	DB	0e0H
	DB	0ffH
	DB	0e0H
	DB	0ffH
	DB	0e0H
	DB	0ffH
	DB	0e0H
	DB	0ffH
	DB	0e0H
	DB	0ffH
	DB	0e0H
	DB	0ffH
	DB	0e0H
	DB	0ffH
	DB	0e0H
	DB	0ffH
	DB	0e0H
	DB	0ffH
	DB	0e0H
	DB	0ffH
	DB	0e0H
	DB	0ffH
	DB	0e0H
	DB	0ffH
	DB	0e0H
	DB	0ffH
	DB	0e0H
	DB	0ffH
	DB	0e0H
	DB	0ffH
	DB	0e0H
	DB	0ffH
	DB	0e0H
	DB	0ffH
	DB	0e0H
	DB	0ffH
	DB	0e0H
	DB	0ffH
	DB	0e0H
	DB	0ffH
	DB	0e0H
	DB	0ffH
	DB	0e0H
	DB	0ffH
	DB	0e1H
	DB	0ffH
	DB	0f3H
	DB	0ffH
	DB	0ffH
	DB	0ffH
	DB	0ffH
	DB	0ffH
	DB	0ffH
	DB	0ffH
	DB	0f9H
	DB	0ffH
	DB	0ebH
	DB	0ffH
	DB	0e4H
	DB	0ffH
	DB	0e0H
	DB	0ffH
	DB	0e0H
	DB	0ffH
	DB	0e0H
	DB	0ffH
	DB	0e0H
	DB	0ffH
	DB	0e0H
	DB	0ffH
	DB	0e0H
	DB	0ffH
	DB	0e0H
	DB	0ffH
	DB	0e0H
	DB	0ffH
	DB	0e0H
	DB	0ffH
	DB	0e0H
	DB	0ffH
	DB	0e0H
	DB	0ffH
	DB	0e0H
	DB	0ffH
	DB	0e0H
	DB	0ffH
	DB	0e0H
	DB	0ffH
	DB	0e0H
	DB	0ffH
	DB	0e0H
	DB	0ffH
	DB	0e0H
	DB	0ffH
	DB	0e0H
	DB	0ffH
	DB	0e0H
	DB	0ffH
	DB	0e0H
	DB	0ffH
	DB	0e0H
	DB	0ffH
	DB	0e0H
	DB	0ffH
	DB	0e0H
	DB	0ffH
	DB	0e0H
	DB	0ffH
	DB	0e0H
	DB	0ffH
	DB	0e0H
	DB	0ffH
	DB	0e0H
	DB	0ffH
	DB	0e0H
	DB	0ffH
	DB	0e0H
	DB	0ffH
	DB	0e0H
	DB	0ffH
	DB	0e0H
	DB	0ffH
	DB	0e4H
	DB	0ffH
	DB	0ebH
	DB	0ffH
	DB	0fbH
	DB	0ffH
	DB	0ffH
	DB	0ffH
	DB	0ffH
	DB	0ffH
	ORG $+6
?_Chn2ControlButtonOn_alpha_channel@@3QBEB DB 00H	; _Chn2ControlButtonOn_alpha_channel
	DB	00H
	DB	049H
	DB	0b6H
	DB	0e7H
	DB	0ffH
	DB	0ffH
	DB	0ffH
	DB	0ffH
	DB	0ffH
	DB	0ffH
	DB	0ffH
	DB	0ffH
	DB	0ffH
	DB	0ffH
	DB	0ffH
	DB	0ffH
	DB	0ffH
	DB	0ffH
	DB	0ffH
	DB	0ffH
	DB	0ffH
	DB	0ffH
	DB	0ffH
	DB	0ffH
	DB	0ffH
	DB	0ffH
	DB	0ffH
	DB	0ffH
	DB	0ffH
	DB	0ffH
	DB	0ffH
	DB	0ffH
	DB	0ffH
	DB	0ffH
	DB	0ffH
	DB	0e7H
	DB	0b6H
	DB	03cH
	DB	00H
	DB	00H
	DB	00H
	DB	086H
	DB	0ffH
	DB	0ffH
	DB	0ffH
	DB	0ffH
	DB	0ffH
	DB	0ffH
	DB	0ffH
	DB	0ffH
	DB	0ffH
	DB	0ffH
	DB	0ffH
	DB	0ffH
	DB	0ffH
	DB	0ffH
	DB	0ffH
	DB	0ffH
	DB	0ffH
	DB	0ffH
	DB	0ffH
	DB	0ffH
	DB	0ffH
	DB	0ffH
	DB	0ffH
	DB	0ffH
	DB	0ffH
	DB	0ffH
	DB	0ffH
	DB	0ffH
	DB	0ffH
	DB	0ffH
	DB	0ffH
	DB	0ffH
	DB	0ffH
	DB	0ffH
	DB	0ffH
	DB	0ffH
	DB	0ffH
	DB	075H
	DB	00H
	DB	049H
	DB	0ffH
	DB	0ffH
	DB	0ffH
	DB	0ffH
	DB	0ffH
	DB	0ffH
	DB	0ffH
	DB	0ffH
	DB	0ffH
	DB	0ffH
	DB	0ffH
	DB	0ffH
	DB	0ffH
	DB	0ffH
	DB	0ffH
	DB	0ffH
	DB	0ffH
	DB	0ffH
	DB	0ffH
	DB	0ffH
	DB	0ffH
	DB	0ffH
	DB	0ffH
	DB	0ffH
	DB	0ffH
	DB	0ffH
	DB	0ffH
	DB	0ffH
	DB	0ffH
	DB	0ffH
	DB	0ffH
	DB	0ffH
	DB	0ffH
	DB	0ffH
	DB	0ffH
	DB	0ffH
	DB	0ffH
	DB	0ffH
	DB	0fbH
	DB	034H
	DB	0b6H
	DB	0ffH
	DB	0ffH
	DB	0ffH
	DB	0ffH
	DB	0ffH
	DB	0ffH
	DB	0ffH
	DB	0ffH
	DB	0ffH
	DB	0ffH
	DB	0ffH
	DB	0ffH
	DB	0ffH
	DB	0ffH
	DB	0ffH
	DB	0ffH
	DB	0ffH
	DB	0ffH
	DB	0ffH
	DB	0ffH
	DB	0ffH
	DB	0ffH
	DB	0ffH
	DB	0ffH
	DB	0ffH
	DB	0ffH
	DB	0ffH
	DB	0ffH
	DB	0ffH
	DB	0ffH
	DB	0ffH
	DB	0ffH
	DB	0ffH
	DB	0ffH
	DB	0ffH
	DB	0ffH
	DB	0ffH
	DB	0ffH
	DB	0ffH
	DB	0a6H
	DB	0ebH
	DB	0ffH
	DB	0ffH
	DB	0ffH
	DB	0ffH
	DB	0ffH
	DB	0ffH
	DB	0ffH
	DB	0ffH
	DB	0ffH
	DB	0ffH
	DB	0ffH
	DB	0ffH
	DB	0ffH
	DB	0ffH
	DB	0ffH
	DB	0ffH
	DB	0ffH
	DB	0ffH
	DB	0ffH
	DB	0ffH
	DB	0ffH
	DB	0ffH
	DB	0ffH
	DB	0ffH
	DB	0ffH
	DB	0ffH
	DB	0ffH
	DB	0ffH
	DB	0ffH
	DB	0ffH
	DB	0ffH
	DB	0ffH
	DB	0ffH
	DB	0ffH
	DB	0ffH
	DB	0ffH
	DB	0ffH
	DB	0ffH
	DB	0ffH
	DB	0e3H
	DB	0ffH
	DB	0ffH
	DB	0ffH
	DB	0ffH
	DB	0ffH
	DB	0ffH
	DB	0ffH
	DB	0ffH
	DB	0ffH
	DB	0ffH
	DB	0ffH
	DB	0ffH
	DB	0ffH
	DB	0ffH
	DB	0ffH
	DB	0ffH
	DB	0ffH
	DB	0ffH
	DB	0ffH
	DB	0ffH
	DB	0ffH
	DB	0ffH
	DB	0ffH
	DB	0ffH
	DB	0ffH
	DB	0ffH
	DB	0ffH
	DB	0ffH
	DB	0ffH
	DB	0ffH
	DB	0ffH
	DB	0ffH
	DB	0ffH
	DB	0ffH
	DB	0ffH
	DB	0ffH
	DB	0ffH
	DB	0ffH
	DB	0ffH
	DB	0ffH
	DB	0ffH
	DB	0ffH
	DB	0ffH
	DB	0ffH
	DB	0ffH
	DB	0ffH
	DB	0ffH
	DB	0ffH
	DB	0ffH
	DB	0ffH
	DB	0ffH
	DB	0ffH
	DB	0ffH
	DB	0ffH
	DB	0ffH
	DB	0ffH
	DB	0ffH
	DB	0ffH
	DB	0ffH
	DB	0ffH
	DB	0ffH
	DB	0ffH
	DB	0ffH
	DB	0ffH
	DB	0ffH
	DB	0ffH
	DB	0ffH
	DB	0ffH
	DB	0ffH
	DB	0ffH
	DB	0ffH
	DB	0ffH
	DB	0ffH
	DB	0ffH
	DB	0ffH
	DB	0ffH
	DB	0ffH
	DB	0ffH
	DB	0ffH
	DB	0ffH
	DB	0ffH
	DB	0ffH
	DB	0ffH
	DB	0ffH
	DB	0ffH
	DB	0ffH
	DB	0ffH
	DB	0ffH
	DB	0ffH
	DB	0ffH
	DB	0ffH
	DB	0ffH
	DB	0ffH
	DB	0ffH
	DB	0ffH
	DB	0ffH
	DB	0ffH
	DB	0ffH
	DB	0ffH
	DB	0ffH
	DB	0ffH
	DB	0ffH
	DB	0ffH
	DB	0ffH
	DB	0ffH
	DB	0ffH
	DB	0ffH
	DB	0ffH
	DB	0ffH
	DB	0ffH
	DB	0ffH
	DB	0ffH
	DB	0ffH
	DB	0ffH
	DB	0ffH
	DB	0ffH
	DB	0ffH
	DB	0ffH
	DB	0ffH
	DB	0ffH
	DB	0ffH
	DB	0ffH
	DB	0ffH
	DB	0ffH
	DB	0ffH
	DB	0ffH
	DB	0ffH
	DB	0ffH
	DB	0ffH
	DB	0ffH
	DB	0ffH
	DB	0ffH
	DB	0ffH
	DB	0ffH
	DB	0ffH
	DB	0ffH
	DB	0ffH
	DB	0ffH
	DB	0ffH
	DB	0ffH
	DB	0ffH
	DB	0ffH
	DB	0ffH
	DB	0ffH
	DB	0ffH
	DB	0ffH
	DB	0ffH
	DB	0ffH
	DB	0ffH
	DB	0ffH
	DB	0ffH
	DB	0ffH
	DB	0ffH
	DB	0ffH
	DB	0ffH
	DB	0ffH
	DB	0ffH
	DB	0ffH
	DB	0ffH
	DB	0ffH
	DB	0ffH
	DB	0ffH
	DB	0ffH
	DB	0ffH
	DB	0ffH
	DB	0ffH
	DB	0ffH
	DB	0ffH
	DB	0ffH
	DB	0ffH
	DB	0ffH
	DB	0ffH
	DB	0ffH
	DB	0ffH
	DB	0ffH
	DB	0ffH
	DB	0ffH
	DB	0ffH
	DB	0ffH
	DB	0ffH
	DB	0ffH
	DB	0ffH
	DB	0ffH
	DB	0ffH
	DB	0ffH
	DB	0ffH
	DB	0ffH
	DB	0ffH
	DB	0ffH
	DB	0ffH
	DB	0ffH
	DB	0ffH
	DB	0ffH
	DB	0ffH
	DB	0ffH
	DB	0ffH
	DB	0ffH
	DB	0ffH
	DB	0ffH
	DB	0ffH
	DB	0ffH
	DB	0ffH
	DB	0ffH
	DB	0ffH
	DB	0ffH
	DB	0ffH
	DB	0ffH
	DB	0ffH
	DB	0ffH
	DB	0ffH
	DB	0ffH
	DB	0ffH
	DB	0ffH
	DB	0ffH
	DB	0ffH
	DB	0ffH
	DB	0ffH
	DB	0ffH
	DB	0ffH
	DB	0ffH
	DB	0ffH
	DB	0ffH
	DB	0ffH
	DB	0ffH
	DB	0ffH
	DB	0ffH
	DB	0ffH
	DB	0ffH
	DB	0ffH
	DB	0ffH
	DB	0ffH
	DB	0ffH
	DB	0ffH
	DB	0ffH
	DB	0ffH
	DB	0ffH
	DB	0ffH
	DB	0ffH
	DB	0ffH
	DB	0ffH
	DB	0ffH
	DB	0ffH
	DB	0ffH
	DB	0ffH
	DB	0ffH
	DB	0ffH
	DB	0ffH
	DB	0ffH
	DB	0ffH
	DB	0ffH
	DB	0ffH
	DB	0ffH
	DB	0ffH
	DB	0ffH
	DB	0ffH
	DB	0ffH
	DB	0ffH
	DB	0ffH
	DB	0ffH
	DB	0ffH
	DB	0ffH
	DB	0ffH
	DB	0ffH
	DB	0ffH
	DB	0ffH
	DB	0ffH
	DB	0ffH
	DB	0ffH
	DB	0ffH
	DB	0ffH
	DB	0ffH
	DB	0ffH
	DB	0ffH
	DB	0ffH
	DB	0ffH
	DB	0ffH
	DB	0ffH
	DB	0ffH
	DB	0ffH
	DB	0ffH
	DB	0ffH
	DB	0ffH
	DB	0ffH
	DB	0ffH
	DB	0ffH
	DB	0ffH
	DB	0ffH
	DB	0ffH
	DB	0ffH
	DB	0ffH
	DB	0ffH
	DB	0ffH
	DB	0ffH
	DB	0ffH
	DB	0ffH
	DB	0ffH
	DB	0ffH
	DB	0ffH
	DB	0ffH
	DB	0ffH
	DB	0ffH
	DB	0ffH
	DB	0ffH
	DB	0ffH
	DB	0ffH
	DB	0ffH
	DB	0ffH
	DB	0ffH
	DB	0ffH
	DB	0ffH
	DB	0ffH
	DB	0ffH
	DB	0ffH
	DB	0ffH
	DB	0ffH
	DB	0ffH
	DB	0ffH
	DB	0ffH
	DB	0ffH
	DB	0ffH
	DB	0ffH
	DB	0ffH
	DB	0ffH
	DB	0ffH
	DB	0ffH
	DB	0ffH
	DB	0ffH
	DB	0ffH
	DB	0ffH
	DB	0ffH
	DB	0ffH
	DB	0ffH
	DB	0ffH
	DB	0ffH
	DB	0ffH
	DB	0ffH
	DB	0ffH
	DB	0ffH
	DB	0ffH
	DB	0ffH
	DB	0ffH
	DB	0ffH
	DB	0ffH
	DB	0ffH
	DB	0ffH
	DB	0ffH
	DB	0ffH
	DB	0ffH
	DB	0ffH
	DB	0ffH
	DB	0ffH
	DB	0ffH
	DB	0ffH
	DB	0ffH
	DB	0ffH
	DB	0ffH
	DB	0ffH
	DB	0ffH
	DB	0ffH
	DB	0ffH
	DB	0ffH
	DB	0ffH
	DB	0ffH
	DB	0ffH
	DB	0ffH
	DB	0ffH
	DB	0ffH
	DB	0ffH
	DB	0ffH
	DB	0ffH
	DB	0ffH
	DB	0ffH
	DB	0ffH
	DB	0ffH
	DB	0ffH
	DB	0ffH
	DB	0ffH
	DB	0ffH
	DB	0ffH
	DB	0ffH
	DB	0ffH
	DB	0ffH
	DB	0ffH
	DB	0ffH
	DB	0ffH
	DB	0ffH
	DB	0ffH
	DB	0ffH
	DB	0ffH
	DB	0ffH
	DB	0ffH
	DB	0ffH
	DB	0ffH
	DB	0ffH
	DB	0ffH
	DB	0ffH
	DB	0ffH
	DB	0ffH
	DB	0ffH
	DB	0ffH
	DB	0ffH
	DB	0ffH
	DB	0ffH
	DB	0ffH
	DB	0ffH
	DB	0ffH
	DB	0ffH
	DB	0ffH
	DB	0ffH
	DB	0ffH
	DB	0ffH
	DB	0ffH
	DB	0ffH
	DB	0ffH
	DB	0ffH
	DB	0ffH
	DB	0ffH
	DB	0ffH
	DB	0ffH
	DB	0ffH
	DB	0ffH
	DB	0ffH
	DB	0ffH
	DB	0ffH
	DB	0ffH
	DB	0ffH
	DB	0ffH
	DB	0ffH
	DB	0ffH
	DB	0ffH
	DB	0ffH
	DB	0ffH
	DB	0ffH
	DB	0ffH
	DB	0ffH
	DB	0ffH
	DB	0ffH
	DB	0ffH
	DB	0ffH
	DB	0ffH
	DB	0ffH
	DB	0ffH
	DB	0ffH
	DB	0ffH
	DB	0ffH
	DB	0ffH
	DB	0ffH
	DB	0ffH
	DB	0ffH
	DB	0ffH
	DB	0ffH
	DB	0e7H
	DB	0ffH
	DB	0ffH
	DB	0ffH
	DB	0ffH
	DB	0ffH
	DB	0ffH
	DB	0ffH
	DB	0ffH
	DB	0ffH
	DB	0ffH
	DB	0ffH
	DB	0ffH
	DB	0ffH
	DB	0ffH
	DB	0ffH
	DB	0ffH
	DB	0ffH
	DB	0ffH
	DB	0ffH
	DB	0ffH
	DB	0ffH
	DB	0ffH
	DB	0ffH
	DB	0ffH
	DB	0ffH
	DB	0ffH
	DB	0ffH
	DB	0ffH
	DB	0ffH
	DB	0ffH
	DB	0ffH
	DB	0ffH
	DB	0ffH
	DB	0ffH
	DB	0ffH
	DB	0ffH
	DB	0ffH
	DB	0ffH
	DB	0ffH
	DB	0d7H
	DB	0b2H
	DB	0ffH
	DB	0ffH
	DB	0ffH
	DB	0ffH
	DB	0ffH
	DB	0ffH
	DB	0ffH
	DB	0ffH
	DB	0ffH
	DB	0ffH
	DB	0ffH
	DB	0ffH
	DB	0ffH
	DB	0ffH
	DB	0ffH
	DB	0ffH
	DB	0ffH
	DB	0ffH
	DB	0ffH
	DB	0ffH
	DB	0ffH
	DB	0ffH
	DB	0ffH
	DB	0ffH
	DB	0ffH
	DB	0ffH
	DB	0ffH
	DB	0ffH
	DB	0ffH
	DB	0ffH
	DB	0ffH
	DB	0ffH
	DB	0ffH
	DB	0ffH
	DB	0ffH
	DB	0ffH
	DB	0ffH
	DB	0ffH
	DB	0ffH
	DB	0a2H
	DB	03cH
	DB	0ffH
	DB	0ffH
	DB	0ffH
	DB	0ffH
	DB	0ffH
	DB	0ffH
	DB	0ffH
	DB	0ffH
	DB	0ffH
	DB	0ffH
	DB	0ffH
	DB	0ffH
	DB	0ffH
	DB	0ffH
	DB	0ffH
	DB	0ffH
	DB	0ffH
	DB	0ffH
	DB	0ffH
	DB	0ffH
	DB	0ffH
	DB	0ffH
	DB	0ffH
	DB	0ffH
	DB	0ffH
	DB	0ffH
	DB	0ffH
	DB	0ffH
	DB	0ffH
	DB	0ffH
	DB	0ffH
	DB	0ffH
	DB	0ffH
	DB	0ffH
	DB	0ffH
	DB	0ffH
	DB	0ffH
	DB	0ffH
	DB	0f7H
	DB	028H
	DB	00H
	DB	075H
	DB	0fbH
	DB	0ffH
	DB	0ffH
	DB	0ffH
	DB	0ffH
	DB	0ffH
	DB	0ffH
	DB	0ffH
	DB	0ffH
	DB	0ffH
	DB	0ffH
	DB	0ffH
	DB	0ffH
	DB	0ffH
	DB	0ffH
	DB	0ffH
	DB	0ffH
	DB	0ffH
	DB	0ffH
	DB	0ffH
	DB	0ffH
	DB	0ffH
	DB	0ffH
	DB	0ffH
	DB	0ffH
	DB	0ffH
	DB	0ffH
	DB	0ffH
	DB	0ffH
	DB	0ffH
	DB	0ffH
	DB	0ffH
	DB	0ffH
	DB	0ffH
	DB	0ffH
	DB	0ffH
	DB	0f7H
	DB	069H
	DB	00H
	DB	00H
	DB	00H
	DB	034H
	DB	0a6H
	DB	0dfH
	DB	0ffH
	DB	0ffH
	DB	0ffH
	DB	0ffH
	DB	0ffH
	DB	0ffH
	DB	0ffH
	DB	0ffH
	DB	0ffH
	DB	0ffH
	DB	0ffH
	DB	0ffH
	DB	0ffH
	DB	0ffH
	DB	0ffH
	DB	0ffH
	DB	0ffH
	DB	0ffH
	DB	0ffH
	DB	0ffH
	DB	0ffH
	DB	0ffH
	DB	0ffH
	DB	0ffH
	DB	0ffH
	DB	0ffH
	DB	0ffH
	DB	0ffH
	DB	0ffH
	DB	0ffH
	DB	0ffH
	DB	0dfH
	DB	0a2H
	DB	028H
	DB	00H
	DB	00H
CONST	ENDS
END
