; Listing generated by Microsoft (R) Optimizing Compiler Version 19.00.24210.0 

	TITLE	C:\MyFiles\SoftwareTeam\Technologies_Boards\Graphic\TouchGFX\Scope\Project\Oscilloscope\Graphic\generated\images\src\controlPanel.cpp
	.686P
	.XMM
	include listing.inc
	.model	flat

INCLUDELIB MSVCRTD
INCLUDELIB OLDNAMES

PUBLIC	?_controlPanel@@3QBEB				; _controlPanel
CONST	SEGMENT
?_controlPanel@@3QBEB DB 055H				; _controlPanel
	DB	0adH
	DB	034H
	DB	0a5H
	DB	034H
	DB	0adH
	DB	034H
	DB	0a5H
	DB	034H
	DB	0a5H
	DB	034H
	DB	0adH
	DB	034H
	DB	0a5H
	DB	034H
	DB	0a5H
	DB	034H
	DB	0adH
	DB	034H
	DB	0a5H
	DB	034H
	DB	0a5H
	DB	034H
	DB	0adH
	DB	034H
	DB	0a5H
	DB	034H
	DB	0a5H
	DB	034H
	DB	0adH
	DB	034H
	DB	0a5H
	DB	034H
	DB	0a5H
	DB	034H
	DB	0adH
	DB	034H
	DB	0a5H
	DB	034H
	DB	0a5H
	DB	034H
	DB	0adH
	DB	034H
	DB	0a5H
	DB	034H
	DB	0a5H
	DB	034H
	DB	0adH
	DB	034H
	DB	0a5H
	DB	034H
	DB	0a5H
	DB	034H
	DB	0adH
	DB	034H
	DB	0a5H
	DB	034H
	DB	0a5H
	DB	034H
	DB	0adH
	DB	034H
	DB	0a5H
	DB	034H
	DB	0a5H
	DB	034H
	DB	0adH
	DB	034H
	DB	0a5H
	DB	034H
	DB	0a5H
	DB	034H
	DB	0adH
	DB	034H
	DB	0a5H
	DB	034H
	DB	0a5H
	DB	034H
	DB	0adH
	DB	034H
	DB	0a5H
	DB	034H
	DB	0a5H
	DB	034H
	DB	0adH
	DB	034H
	DB	0a5H
	DB	034H
	DB	0a5H
	DB	034H
	DB	0adH
	DB	034H
	DB	0a5H
	DB	034H
	DB	0a5H
	DB	034H
	DB	0adH
	DB	034H
	DB	0a5H
	DB	034H
	DB	0a5H
	DB	034H
	DB	0adH
	DB	034H
	DB	0a5H
	DB	034H
	DB	0a5H
	DB	034H
	DB	0adH
	DB	034H
	DB	0a5H
	DB	034H
	DB	0a5H
	DB	034H
	DB	0adH
	DB	034H
	DB	0a5H
	DB	034H
	DB	0a5H
	DB	034H
	DB	0adH
	DB	034H
	DB	0a5H
	DB	034H
	DB	0a5H
	DB	034H
	DB	0adH
	DB	034H
	DB	0a5H
	DB	034H
	DB	0a5H
	DB	034H
	DB	0adH
	DB	034H
	DB	0a5H
	DB	034H
	DB	0a5H
	DB	034H
	DB	0adH
	DB	034H
	DB	0a5H
	DB	034H
	DB	0a5H
	DB	034H
	DB	0adH
	DB	034H
	DB	0a5H
	DB	034H
	DB	0a5H
	DB	034H
	DB	0adH
	DB	034H
	DB	0a5H
	DB	034H
	DB	0a5H
	DB	034H
	DB	0adH
	DB	034H
	DB	0a5H
	DB	034H
	DB	0a5H
	DB	034H
	DB	0adH
	DB	034H
	DB	0a5H
	DB	034H
	DB	0a5H
	DB	034H
	DB	0adH
	DB	034H
	DB	0a5H
	DB	034H
	DB	0a5H
	DB	034H
	DB	0adH
	DB	034H
	DB	0a5H
	DB	034H
	DB	0a5H
	DB	034H
	DB	0adH
	DB	034H
	DB	0a5H
	DB	034H
	DB	0a5H
	DB	034H
	DB	0adH
	DB	034H
	DB	0a5H
	DB	034H
	DB	0a5H
	DB	034H
	DB	0adH
	DB	034H
	DB	0a5H
	DB	034H
	DB	0a5H
	DB	034H
	DB	0adH
	DB	034H
	DB	0a5H
	DB	034H
	DB	0a5H
	DB	034H
	DB	0adH
	DB	034H
	DB	0a5H
	DB	034H
	DB	0a5H
	DB	034H
	DB	0adH
	DB	034H
	DB	0a5H
	DB	034H
	DB	0a5H
	DB	034H
	DB	0adH
	DB	034H
	DB	0a5H
	DB	034H
	DB	0a5H
	DB	034H
	DB	0adH
	DB	034H
	DB	0a5H
	DB	034H
	DB	0a5H
	DB	034H
	DB	0adH
	DB	034H
	DB	0a5H
	DB	034H
	DB	0a5H
	DB	034H
	DB	0adH
	DB	034H
	DB	0a5H
	DB	034H
	DB	0a5H
	DB	034H
	DB	0adH
	DB	034H
	DB	0a5H
	DB	034H
	DB	0a5H
	DB	034H
	DB	0adH
	DB	034H
	DB	0a5H
	DB	034H
	DB	0a5H
	DB	034H
	DB	0adH
	DB	034H
	DB	0a5H
	DB	034H
	DB	0a5H
	DB	034H
	DB	0adH
	DB	034H
	DB	0a5H
	DB	034H
	DB	0a5H
	DB	034H
	DB	0adH
	DB	034H
	DB	0a5H
	DB	034H
	DB	0a5H
	DB	034H
	DB	0adH
	DB	034H
	DB	0a5H
	DB	034H
	DB	0a5H
	DB	034H
	DB	0adH
	DB	034H
	DB	0a5H
	DB	034H
	DB	0a5H
	DB	034H
	DB	0adH
	DB	034H
	DB	0a5H
	DB	034H
	DB	0a5H
	DB	034H
	DB	0adH
	DB	034H
	DB	0a5H
	DB	034H
	DB	0a5H
	DB	034H
	DB	0adH
	DB	034H
	DB	0a5H
	DB	034H
	DB	0a5H
	DB	034H
	DB	0adH
	DB	034H
	DB	0a5H
	DB	034H
	DB	0a5H
	DB	034H
	DB	0adH
	DB	034H
	DB	0a5H
	DB	034H
	DB	0a5H
	DB	034H
	DB	0adH
	DB	034H
	DB	0a5H
	DB	034H
	DB	0a5H
	DB	034H
	DB	0adH
	DB	034H
	DB	0a5H
	DB	034H
	DB	0a5H
	DB	034H
	DB	0adH
	DB	034H
	DB	0a5H
	DB	034H
	DB	0a5H
	DB	055H
	DB	0adH
	DB	055H
	DB	0adH
	DB	029H
	DB	04aH
	DB	08H
	DB	042H
	DB	029H
	DB	042H
	DB	09H
	DB	042H
	DB	028H
	DB	042H
	DB	09H
	DB	042H
	DB	029H
	DB	042H
	DB	08H
	DB	042H
	DB	029H
	DB	042H
	DB	09H
	DB	042H
	DB	028H
	DB	042H
	DB	09H
	DB	042H
	DB	029H
	DB	042H
	DB	08H
	DB	042H
	DB	029H
	DB	042H
	DB	09H
	DB	042H
	DB	028H
	DB	042H
	DB	09H
	DB	042H
	DB	029H
	DB	042H
	DB	08H
	DB	042H
	DB	029H
	DB	042H
	DB	09H
	DB	042H
	DB	028H
	DB	042H
	DB	09H
	DB	042H
	DB	029H
	DB	042H
	DB	08H
	DB	042H
	DB	029H
	DB	042H
	DB	09H
	DB	042H
	DB	028H
	DB	042H
	DB	09H
	DB	042H
	DB	029H
	DB	042H
	DB	08H
	DB	042H
	DB	029H
	DB	042H
	DB	09H
	DB	042H
	DB	028H
	DB	042H
	DB	09H
	DB	042H
	DB	029H
	DB	042H
	DB	08H
	DB	042H
	DB	029H
	DB	042H
	DB	09H
	DB	042H
	DB	028H
	DB	042H
	DB	09H
	DB	042H
	DB	029H
	DB	042H
	DB	08H
	DB	042H
	DB	029H
	DB	042H
	DB	09H
	DB	042H
	DB	028H
	DB	042H
	DB	09H
	DB	042H
	DB	029H
	DB	042H
	DB	08H
	DB	042H
	DB	029H
	DB	042H
	DB	09H
	DB	042H
	DB	028H
	DB	042H
	DB	09H
	DB	042H
	DB	029H
	DB	042H
	DB	08H
	DB	042H
	DB	029H
	DB	042H
	DB	09H
	DB	042H
	DB	028H
	DB	042H
	DB	09H
	DB	042H
	DB	029H
	DB	042H
	DB	08H
	DB	042H
	DB	029H
	DB	042H
	DB	09H
	DB	042H
	DB	028H
	DB	042H
	DB	09H
	DB	042H
	DB	029H
	DB	042H
	DB	08H
	DB	042H
	DB	029H
	DB	042H
	DB	09H
	DB	042H
	DB	028H
	DB	042H
	DB	09H
	DB	042H
	DB	029H
	DB	042H
	DB	08H
	DB	042H
	DB	029H
	DB	042H
	DB	09H
	DB	042H
	DB	028H
	DB	042H
	DB	09H
	DB	042H
	DB	029H
	DB	042H
	DB	08H
	DB	042H
	DB	029H
	DB	042H
	DB	09H
	DB	042H
	DB	028H
	DB	042H
	DB	09H
	DB	042H
	DB	029H
	DB	042H
	DB	08H
	DB	042H
	DB	029H
	DB	042H
	DB	09H
	DB	042H
	DB	028H
	DB	042H
	DB	09H
	DB	042H
	DB	029H
	DB	042H
	DB	08H
	DB	042H
	DB	029H
	DB	042H
	DB	09H
	DB	042H
	DB	028H
	DB	042H
	DB	09H
	DB	042H
	DB	029H
	DB	042H
	DB	08H
	DB	042H
	DB	029H
	DB	042H
	DB	09H
	DB	042H
	DB	028H
	DB	042H
	DB	09H
	DB	042H
	DB	029H
	DB	042H
	DB	08H
	DB	042H
	DB	029H
	DB	042H
	DB	09H
	DB	042H
	DB	028H
	DB	042H
	DB	09H
	DB	042H
	DB	029H
	DB	042H
	DB	08H
	DB	042H
	DB	029H
	DB	042H
	DB	09H
	DB	042H
	DB	028H
	DB	042H
	DB	09H
	DB	042H
	DB	029H
	DB	042H
	DB	08H
	DB	042H
	DB	029H
	DB	042H
	DB	09H
	DB	042H
	DB	028H
	DB	042H
	DB	09H
	DB	042H
	DB	029H
	DB	042H
	DB	08H
	DB	042H
	DB	029H
	DB	042H
	DB	09H
	DB	042H
	DB	028H
	DB	042H
	DB	09H
	DB	042H
	DB	029H
	DB	042H
	DB	08H
	DB	042H
	DB	029H
	DB	042H
	DB	09H
	DB	042H
	DB	028H
	DB	042H
	DB	09H
	DB	042H
	DB	029H
	DB	042H
	DB	08H
	DB	042H
	DB	029H
	DB	042H
	DB	09H
	DB	042H
	DB	028H
	DB	042H
	DB	09H
	DB	042H
	DB	029H
	DB	042H
	DB	08H
	DB	042H
	DB	029H
	DB	042H
	DB	09H
	DB	042H
	DB	028H
	DB	042H
	DB	09H
	DB	042H
	DB	029H
	DB	042H
	DB	08H
	DB	042H
	DB	029H
	DB	042H
	DB	09H
	DB	042H
	DB	028H
	DB	042H
	DB	09H
	DB	042H
	DB	029H
	DB	042H
	DB	08H
	DB	042H
	DB	029H
	DB	042H
	DB	09H
	DB	042H
	DB	028H
	DB	042H
	DB	09H
	DB	042H
	DB	029H
	DB	042H
	DB	08H
	DB	042H
	DB	029H
	DB	042H
	DB	09H
	DB	042H
	DB	028H
	DB	042H
	DB	09H
	DB	042H
	DB	029H
	DB	04aH
	DB	055H
	DB	0adH
	DB	055H
	DB	0adH
	DB	049H
	DB	04aH
	DB	049H
	DB	04aH
	DB	049H
	DB	04aH
	DB	049H
	DB	04aH
	DB	029H
	DB	04aH
	DB	049H
	DB	04aH
	DB	049H
	DB	04aH
	DB	049H
	DB	04aH
	DB	029H
	DB	04aH
	DB	049H
	DB	04aH
	DB	049H
	DB	04aH
	DB	049H
	DB	04aH
	DB	029H
	DB	04aH
	DB	049H
	DB	04aH
	DB	049H
	DB	04aH
	DB	049H
	DB	04aH
	DB	029H
	DB	04aH
	DB	049H
	DB	04aH
	DB	049H
	DB	04aH
	DB	049H
	DB	04aH
	DB	029H
	DB	04aH
	DB	049H
	DB	04aH
	DB	049H
	DB	04aH
	DB	049H
	DB	04aH
	DB	029H
	DB	04aH
	DB	049H
	DB	04aH
	DB	049H
	DB	04aH
	DB	049H
	DB	04aH
	DB	029H
	DB	04aH
	DB	049H
	DB	04aH
	DB	049H
	DB	04aH
	DB	049H
	DB	04aH
	DB	029H
	DB	04aH
	DB	049H
	DB	04aH
	DB	049H
	DB	04aH
	DB	049H
	DB	04aH
	DB	029H
	DB	04aH
	DB	049H
	DB	04aH
	DB	049H
	DB	04aH
	DB	049H
	DB	04aH
	DB	029H
	DB	04aH
	DB	049H
	DB	04aH
	DB	049H
	DB	04aH
	DB	049H
	DB	04aH
	DB	029H
	DB	04aH
	DB	049H
	DB	04aH
	DB	049H
	DB	04aH
	DB	049H
	DB	04aH
	DB	029H
	DB	04aH
	DB	049H
	DB	04aH
	DB	049H
	DB	04aH
	DB	049H
	DB	04aH
	DB	029H
	DB	04aH
	DB	049H
	DB	04aH
	DB	049H
	DB	04aH
	DB	049H
	DB	04aH
	DB	029H
	DB	04aH
	DB	049H
	DB	04aH
	DB	049H
	DB	04aH
	DB	049H
	DB	04aH
	DB	029H
	DB	04aH
	DB	049H
	DB	04aH
	DB	049H
	DB	04aH
	DB	049H
	DB	04aH
	DB	029H
	DB	04aH
	DB	049H
	DB	04aH
	DB	049H
	DB	04aH
	DB	049H
	DB	04aH
	DB	029H
	DB	04aH
	DB	049H
	DB	04aH
	DB	049H
	DB	04aH
	DB	049H
	DB	04aH
	DB	029H
	DB	04aH
	DB	049H
	DB	04aH
	DB	049H
	DB	04aH
	DB	049H
	DB	04aH
	DB	029H
	DB	04aH
	DB	049H
	DB	04aH
	DB	049H
	DB	04aH
	DB	049H
	DB	04aH
	DB	029H
	DB	04aH
	DB	049H
	DB	04aH
	DB	049H
	DB	04aH
	DB	049H
	DB	04aH
	DB	029H
	DB	04aH
	DB	049H
	DB	04aH
	DB	049H
	DB	04aH
	DB	049H
	DB	04aH
	DB	029H
	DB	04aH
	DB	049H
	DB	04aH
	DB	049H
	DB	04aH
	DB	049H
	DB	04aH
	DB	029H
	DB	04aH
	DB	049H
	DB	04aH
	DB	049H
	DB	04aH
	DB	049H
	DB	04aH
	DB	029H
	DB	04aH
	DB	049H
	DB	04aH
	DB	049H
	DB	04aH
	DB	049H
	DB	04aH
	DB	029H
	DB	04aH
	DB	049H
	DB	04aH
	DB	049H
	DB	04aH
	DB	049H
	DB	04aH
	DB	029H
	DB	04aH
	DB	049H
	DB	04aH
	DB	049H
	DB	04aH
	DB	049H
	DB	04aH
	DB	029H
	DB	04aH
	DB	049H
	DB	04aH
	DB	049H
	DB	04aH
	DB	049H
	DB	04aH
	DB	029H
	DB	04aH
	DB	049H
	DB	04aH
	DB	049H
	DB	04aH
	DB	049H
	DB	04aH
	DB	029H
	DB	04aH
	DB	049H
	DB	04aH
	DB	049H
	DB	04aH
	DB	049H
	DB	04aH
	DB	029H
	DB	04aH
	DB	049H
	DB	04aH
	DB	049H
	DB	04aH
	DB	049H
	DB	04aH
	DB	029H
	DB	04aH
	DB	049H
	DB	04aH
	DB	049H
	DB	04aH
	DB	049H
	DB	04aH
	DB	029H
	DB	04aH
	DB	049H
	DB	04aH
	DB	049H
	DB	04aH
	DB	049H
	DB	04aH
	DB	029H
	DB	04aH
	DB	049H
	DB	04aH
	DB	049H
	DB	04aH
	DB	049H
	DB	04aH
	DB	029H
	DB	04aH
	DB	049H
	DB	04aH
	DB	049H
	DB	04aH
	DB	049H
	DB	04aH
	DB	029H
	DB	04aH
	DB	049H
	DB	04aH
	DB	049H
	DB	04aH
	DB	049H
	DB	04aH
	DB	029H
	DB	04aH
	DB	049H
	DB	04aH
	DB	049H
	DB	04aH
	DB	049H
	DB	04aH
	DB	029H
	DB	04aH
	DB	049H
	DB	04aH
	DB	049H
	DB	04aH
	DB	049H
	DB	04aH
	DB	029H
	DB	04aH
	DB	049H
	DB	04aH
	DB	049H
	DB	04aH
	DB	049H
	DB	04aH
	DB	029H
	DB	04aH
	DB	049H
	DB	04aH
	DB	049H
	DB	04aH
	DB	049H
	DB	04aH
	DB	049H
	DB	04aH
	DB	049H
	DB	04aH
	DB	049H
	DB	04aH
	DB	055H
	DB	0adH
	DB	055H
	DB	0adH
	DB	049H
	DB	04aH
	DB	029H
	DB	04aH
	DB	049H
	DB	04aH
	DB	049H
	DB	04aH
	DB	049H
	DB	04aH
	DB	049H
	DB	04aH
	DB	049H
	DB	04aH
	DB	049H
	DB	04aH
	DB	049H
	DB	04aH
	DB	049H
	DB	04aH
	DB	049H
	DB	04aH
	DB	049H
	DB	04aH
	DB	049H
	DB	04aH
	DB	049H
	DB	04aH
	DB	049H
	DB	04aH
	DB	049H
	DB	04aH
	DB	049H
	DB	04aH
	DB	049H
	DB	04aH
	DB	049H
	DB	04aH
	DB	049H
	DB	04aH
	DB	049H
	DB	04aH
	DB	049H
	DB	04aH
	DB	049H
	DB	04aH
	DB	049H
	DB	04aH
	DB	049H
	DB	04aH
	DB	049H
	DB	04aH
	DB	049H
	DB	04aH
	DB	049H
	DB	04aH
	DB	049H
	DB	04aH
	DB	049H
	DB	04aH
	DB	049H
	DB	04aH
	DB	049H
	DB	04aH
	DB	049H
	DB	04aH
	DB	049H
	DB	04aH
	DB	049H
	DB	04aH
	DB	049H
	DB	04aH
	DB	049H
	DB	04aH
	DB	049H
	DB	04aH
	DB	049H
	DB	04aH
	DB	049H
	DB	04aH
	DB	049H
	DB	04aH
	DB	049H
	DB	04aH
	DB	049H
	DB	04aH
	DB	049H
	DB	04aH
	DB	049H
	DB	04aH
	DB	049H
	DB	04aH
	DB	049H
	DB	04aH
	DB	049H
	DB	04aH
	DB	049H
	DB	04aH
	DB	049H
	DB	04aH
	DB	049H
	DB	04aH
	DB	049H
	DB	04aH
	DB	049H
	DB	04aH
	DB	049H
	DB	04aH
	DB	049H
	DB	04aH
	DB	049H
	DB	04aH
	DB	049H
	DB	04aH
	DB	049H
	DB	04aH
	DB	049H
	DB	04aH
	DB	049H
	DB	04aH
	DB	049H
	DB	04aH
	DB	049H
	DB	04aH
	DB	049H
	DB	04aH
	DB	049H
	DB	04aH
	DB	049H
	DB	04aH
	DB	049H
	DB	04aH
	DB	049H
	DB	04aH
	DB	049H
	DB	04aH
	DB	049H
	DB	04aH
	DB	049H
	DB	04aH
	DB	049H
	DB	04aH
	DB	049H
	DB	04aH
	DB	049H
	DB	04aH
	DB	049H
	DB	04aH
	DB	049H
	DB	04aH
	DB	049H
	DB	04aH
	DB	049H
	DB	04aH
	DB	049H
	DB	04aH
	DB	049H
	DB	04aH
	DB	049H
	DB	04aH
	DB	049H
	DB	04aH
	DB	049H
	DB	04aH
	DB	049H
	DB	04aH
	DB	049H
	DB	04aH
	DB	049H
	DB	04aH
	DB	049H
	DB	04aH
	DB	049H
	DB	04aH
	DB	049H
	DB	04aH
	DB	049H
	DB	04aH
	DB	049H
	DB	04aH
	DB	049H
	DB	04aH
	DB	049H
	DB	04aH
	DB	049H
	DB	04aH
	DB	049H
	DB	04aH
	DB	049H
	DB	04aH
	DB	049H
	DB	04aH
	DB	049H
	DB	04aH
	DB	049H
	DB	04aH
	DB	049H
	DB	04aH
	DB	049H
	DB	04aH
	DB	049H
	DB	04aH
	DB	049H
	DB	04aH
	DB	049H
	DB	04aH
	DB	049H
	DB	04aH
	DB	049H
	DB	04aH
	DB	049H
	DB	04aH
	DB	049H
	DB	04aH
	DB	049H
	DB	04aH
	DB	049H
	DB	04aH
	DB	049H
	DB	04aH
	DB	049H
	DB	04aH
	DB	049H
	DB	04aH
	DB	049H
	DB	04aH
	DB	049H
	DB	04aH
	DB	049H
	DB	04aH
	DB	049H
	DB	04aH
	DB	049H
	DB	04aH
	DB	049H
	DB	04aH
	DB	049H
	DB	04aH
	DB	049H
	DB	04aH
	DB	049H
	DB	04aH
	DB	049H
	DB	04aH
	DB	049H
	DB	04aH
	DB	049H
	DB	04aH
	DB	049H
	DB	04aH
	DB	049H
	DB	04aH
	DB	049H
	DB	04aH
	DB	049H
	DB	04aH
	DB	049H
	DB	04aH
	DB	049H
	DB	04aH
	DB	049H
	DB	04aH
	DB	049H
	DB	04aH
	DB	049H
	DB	04aH
	DB	049H
	DB	04aH
	DB	049H
	DB	04aH
	DB	049H
	DB	04aH
	DB	049H
	DB	04aH
	DB	049H
	DB	04aH
	DB	049H
	DB	04aH
	DB	049H
	DB	04aH
	DB	049H
	DB	04aH
	DB	049H
	DB	04aH
	DB	049H
	DB	04aH
	DB	049H
	DB	04aH
	DB	049H
	DB	04aH
	DB	049H
	DB	04aH
	DB	049H
	DB	04aH
	DB	049H
	DB	04aH
	DB	049H
	DB	04aH
	DB	049H
	DB	04aH
	DB	049H
	DB	04aH
	DB	049H
	DB	04aH
	DB	049H
	DB	04aH
	DB	049H
	DB	04aH
	DB	049H
	DB	04aH
	DB	049H
	DB	04aH
	DB	049H
	DB	04aH
	DB	049H
	DB	04aH
	DB	029H
	DB	04aH
	DB	049H
	DB	04aH
	DB	049H
	DB	04aH
	DB	029H
	DB	04aH
	DB	049H
	DB	04aH
	DB	055H
	DB	0adH
	DB	055H
	DB	0adH
	DB	049H
	DB	04aH
	DB	049H
	DB	04aH
	DB	029H
	DB	04aH
	DB	049H
	DB	04aH
	DB	049H
	DB	04aH
	DB	029H
	DB	04aH
	DB	029H
	DB	04aH
	DB	049H
	DB	04aH
	DB	049H
	DB	04aH
	DB	029H
	DB	04aH
	DB	029H
	DB	04aH
	DB	049H
	DB	04aH
	DB	049H
	DB	04aH
	DB	029H
	DB	04aH
	DB	029H
	DB	04aH
	DB	049H
	DB	04aH
	DB	049H
	DB	04aH
	DB	029H
	DB	04aH
	DB	029H
	DB	04aH
	DB	049H
	DB	04aH
	DB	049H
	DB	04aH
	DB	029H
	DB	04aH
	DB	029H
	DB	04aH
	DB	049H
	DB	04aH
	DB	049H
	DB	04aH
	DB	029H
	DB	04aH
	DB	029H
	DB	04aH
	DB	049H
	DB	04aH
	DB	049H
	DB	04aH
	DB	029H
	DB	04aH
	DB	029H
	DB	04aH
	DB	049H
	DB	04aH
	DB	049H
	DB	04aH
	DB	029H
	DB	04aH
	DB	029H
	DB	04aH
	DB	049H
	DB	04aH
	DB	049H
	DB	04aH
	DB	029H
	DB	04aH
	DB	029H
	DB	04aH
	DB	049H
	DB	04aH
	DB	049H
	DB	04aH
	DB	029H
	DB	04aH
	DB	029H
	DB	04aH
	DB	049H
	DB	04aH
	DB	049H
	DB	04aH
	DB	029H
	DB	04aH
	DB	029H
	DB	04aH
	DB	049H
	DB	04aH
	DB	049H
	DB	04aH
	DB	029H
	DB	04aH
	DB	029H
	DB	04aH
	DB	049H
	DB	04aH
	DB	049H
	DB	04aH
	DB	029H
	DB	04aH
	DB	029H
	DB	04aH
	DB	049H
	DB	04aH
	DB	049H
	DB	04aH
	DB	029H
	DB	04aH
	DB	029H
	DB	04aH
	DB	049H
	DB	04aH
	DB	049H
	DB	04aH
	DB	029H
	DB	04aH
	DB	029H
	DB	04aH
	DB	049H
	DB	04aH
	DB	049H
	DB	04aH
	DB	029H
	DB	04aH
	DB	029H
	DB	04aH
	DB	049H
	DB	04aH
	DB	049H
	DB	04aH
	DB	029H
	DB	04aH
	DB	029H
	DB	04aH
	DB	049H
	DB	04aH
	DB	049H
	DB	04aH
	DB	029H
	DB	04aH
	DB	029H
	DB	04aH
	DB	049H
	DB	04aH
	DB	049H
	DB	04aH
	DB	029H
	DB	04aH
	DB	029H
	DB	04aH
	DB	049H
	DB	04aH
	DB	049H
	DB	04aH
	DB	029H
	DB	04aH
	DB	029H
	DB	04aH
	DB	049H
	DB	04aH
	DB	049H
	DB	04aH
	DB	029H
	DB	04aH
	DB	029H
	DB	04aH
	DB	049H
	DB	04aH
	DB	049H
	DB	04aH
	DB	029H
	DB	04aH
	DB	029H
	DB	04aH
	DB	049H
	DB	04aH
	DB	049H
	DB	04aH
	DB	029H
	DB	04aH
	DB	029H
	DB	04aH
	DB	049H
	DB	04aH
	DB	049H
	DB	04aH
	DB	029H
	DB	04aH
	DB	029H
	DB	04aH
	DB	049H
	DB	04aH
	DB	049H
	DB	04aH
	DB	029H
	DB	04aH
	DB	029H
	DB	04aH
	DB	049H
	DB	04aH
	DB	049H
	DB	04aH
	DB	029H
	DB	04aH
	DB	029H
	DB	04aH
	DB	049H
	DB	04aH
	DB	049H
	DB	04aH
	DB	029H
	DB	04aH
	DB	029H
	DB	04aH
	DB	049H
	DB	04aH
	DB	049H
	DB	04aH
	DB	029H
	DB	04aH
	DB	029H
	DB	04aH
	DB	049H
	DB	04aH
	DB	049H
	DB	04aH
	DB	029H
	DB	04aH
	DB	029H
	DB	04aH
	DB	049H
	DB	04aH
	DB	049H
	DB	04aH
	DB	029H
	DB	04aH
	DB	029H
	DB	04aH
	DB	049H
	DB	04aH
	DB	049H
	DB	04aH
	DB	029H
	DB	04aH
	DB	029H
	DB	04aH
	DB	049H
	DB	04aH
	DB	049H
	DB	04aH
	DB	029H
	DB	04aH
	DB	029H
	DB	04aH
	DB	049H
	DB	04aH
	DB	049H
	DB	04aH
	DB	029H
	DB	04aH
	DB	029H
	DB	04aH
	DB	049H
	DB	04aH
	DB	049H
	DB	04aH
	DB	029H
	DB	04aH
	DB	029H
	DB	04aH
	DB	049H
	DB	04aH
	DB	049H
	DB	04aH
	DB	029H
	DB	04aH
	DB	029H
	DB	04aH
	DB	049H
	DB	04aH
	DB	049H
	DB	04aH
	DB	029H
	DB	04aH
	DB	029H
	DB	04aH
	DB	049H
	DB	04aH
	DB	049H
	DB	04aH
	DB	029H
	DB	04aH
	DB	029H
	DB	04aH
	DB	049H
	DB	04aH
	DB	049H
	DB	04aH
	DB	029H
	DB	04aH
	DB	029H
	DB	04aH
	DB	049H
	DB	04aH
	DB	049H
	DB	04aH
	DB	029H
	DB	04aH
	DB	049H
	DB	04aH
	DB	049H
	DB	04aH
	DB	029H
	DB	04aH
	DB	049H
	DB	04aH
	DB	049H
	DB	04aH
	DB	055H
	DB	0adH
	DB	055H
	DB	0adH
	DB	049H
	DB	04aH
	DB	049H
	DB	04aH
	DB	049H
	DB	04aH
	DB	029H
	DB	04aH
	DB	049H
	DB	04aH
	DB	049H
	DB	04aH
	DB	048H
	DB	04aH
	DB	049H
	DB	04aH
	DB	049H
	DB	04aH
	DB	049H
	DB	04aH
	DB	049H
	DB	04aH
	DB	029H
	DB	04aH
	DB	048H
	DB	04aH
	DB	049H
	DB	04aH
	DB	049H
	DB	04aH
	DB	049H
	DB	04aH
	DB	029H
	DB	04aH
	DB	049H
	DB	04aH
	DB	048H
	DB	04aH
	DB	049H
	DB	04aH
	DB	049H
	DB	04aH
	DB	049H
	DB	04aH
	DB	049H
	DB	04aH
	DB	029H
	DB	04aH
	DB	048H
	DB	04aH
	DB	049H
	DB	04aH
	DB	049H
	DB	04aH
	DB	049H
	DB	04aH
	DB	029H
	DB	04aH
	DB	049H
	DB	04aH
	DB	048H
	DB	04aH
	DB	049H
	DB	04aH
	DB	049H
	DB	04aH
	DB	049H
	DB	04aH
	DB	049H
	DB	04aH
	DB	029H
	DB	04aH
	DB	048H
	DB	04aH
	DB	049H
	DB	04aH
	DB	049H
	DB	04aH
	DB	049H
	DB	04aH
	DB	029H
	DB	04aH
	DB	049H
	DB	04aH
	DB	048H
	DB	04aH
	DB	049H
	DB	04aH
	DB	049H
	DB	04aH
	DB	049H
	DB	04aH
	DB	049H
	DB	04aH
	DB	029H
	DB	04aH
	DB	048H
	DB	04aH
	DB	049H
	DB	04aH
	DB	049H
	DB	04aH
	DB	049H
	DB	04aH
	DB	029H
	DB	04aH
	DB	049H
	DB	04aH
	DB	048H
	DB	04aH
	DB	049H
	DB	04aH
	DB	049H
	DB	04aH
	DB	049H
	DB	04aH
	DB	049H
	DB	04aH
	DB	029H
	DB	04aH
	DB	048H
	DB	04aH
	DB	049H
	DB	04aH
	DB	049H
	DB	04aH
	DB	049H
	DB	04aH
	DB	029H
	DB	04aH
	DB	049H
	DB	04aH
	DB	048H
	DB	04aH
	DB	049H
	DB	04aH
	DB	049H
	DB	04aH
	DB	049H
	DB	04aH
	DB	049H
	DB	04aH
	DB	029H
	DB	04aH
	DB	048H
	DB	04aH
	DB	049H
	DB	04aH
	DB	049H
	DB	04aH
	DB	049H
	DB	04aH
	DB	029H
	DB	04aH
	DB	049H
	DB	04aH
	DB	048H
	DB	04aH
	DB	049H
	DB	04aH
	DB	049H
	DB	04aH
	DB	049H
	DB	04aH
	DB	049H
	DB	04aH
	DB	029H
	DB	04aH
	DB	048H
	DB	04aH
	DB	049H
	DB	04aH
	DB	049H
	DB	04aH
	DB	049H
	DB	04aH
	DB	029H
	DB	04aH
	DB	049H
	DB	04aH
	DB	048H
	DB	04aH
	DB	049H
	DB	04aH
	DB	049H
	DB	04aH
	DB	049H
	DB	04aH
	DB	049H
	DB	04aH
	DB	029H
	DB	04aH
	DB	048H
	DB	04aH
	DB	049H
	DB	04aH
	DB	049H
	DB	04aH
	DB	049H
	DB	04aH
	DB	029H
	DB	04aH
	DB	049H
	DB	04aH
	DB	048H
	DB	04aH
	DB	049H
	DB	04aH
	DB	049H
	DB	04aH
	DB	049H
	DB	04aH
	DB	049H
	DB	04aH
	DB	029H
	DB	04aH
	DB	048H
	DB	04aH
	DB	049H
	DB	04aH
	DB	049H
	DB	04aH
	DB	049H
	DB	04aH
	DB	029H
	DB	04aH
	DB	049H
	DB	04aH
	DB	048H
	DB	04aH
	DB	049H
	DB	04aH
	DB	049H
	DB	04aH
	DB	049H
	DB	04aH
	DB	049H
	DB	04aH
	DB	029H
	DB	04aH
	DB	048H
	DB	04aH
	DB	049H
	DB	04aH
	DB	049H
	DB	04aH
	DB	049H
	DB	04aH
	DB	029H
	DB	04aH
	DB	049H
	DB	04aH
	DB	048H
	DB	04aH
	DB	049H
	DB	04aH
	DB	049H
	DB	04aH
	DB	049H
	DB	04aH
	DB	049H
	DB	04aH
	DB	029H
	DB	04aH
	DB	048H
	DB	04aH
	DB	049H
	DB	04aH
	DB	049H
	DB	04aH
	DB	049H
	DB	04aH
	DB	029H
	DB	04aH
	DB	049H
	DB	04aH
	DB	048H
	DB	04aH
	DB	049H
	DB	04aH
	DB	049H
	DB	04aH
	DB	049H
	DB	04aH
	DB	049H
	DB	04aH
	DB	029H
	DB	04aH
	DB	048H
	DB	04aH
	DB	049H
	DB	04aH
	DB	049H
	DB	04aH
	DB	049H
	DB	04aH
	DB	029H
	DB	04aH
	DB	049H
	DB	04aH
	DB	048H
	DB	04aH
	DB	049H
	DB	04aH
	DB	049H
	DB	04aH
	DB	049H
	DB	04aH
	DB	049H
	DB	04aH
	DB	049H
	DB	04aH
	DB	028H
	DB	04aH
	DB	049H
	DB	04aH
	DB	049H
	DB	04aH
	DB	049H
	DB	04aH
	DB	049H
	DB	04aH
	DB	049H
	DB	04aH
	DB	049H
	DB	04aH
	DB	035H
	DB	0adH
	DB	035H
	DB	0adH
	DB	049H
	DB	04aH
	DB	049H
	DB	04aH
	DB	049H
	DB	04aH
	DB	048H
	DB	04aH
	DB	049H
	DB	04aH
	DB	049H
	DB	04aH
	DB	029H
	DB	04aH
	DB	049H
	DB	04aH
	DB	029H
	DB	04aH
	DB	048H
	DB	04aH
	DB	049H
	DB	04aH
	DB	049H
	DB	04aH
	DB	049H
	DB	04aH
	DB	049H
	DB	04aH
	DB	049H
	DB	04aH
	DB	028H
	DB	04aH
	DB	049H
	DB	04aH
	DB	049H
	DB	04aH
	DB	049H
	DB	04aH
	DB	029H
	DB	04aH
	DB	049H
	DB	04aH
	DB	048H
	DB	04aH
	DB	049H
	DB	04aH
	DB	049H
	DB	04aH
	DB	049H
	DB	04aH
	DB	049H
	DB	04aH
	DB	049H
	DB	04aH
	DB	028H
	DB	04aH
	DB	049H
	DB	04aH
	DB	049H
	DB	04aH
	DB	049H
	DB	04aH
	DB	029H
	DB	04aH
	DB	049H
	DB	04aH
	DB	048H
	DB	04aH
	DB	049H
	DB	04aH
	DB	049H
	DB	04aH
	DB	049H
	DB	04aH
	DB	049H
	DB	04aH
	DB	049H
	DB	04aH
	DB	028H
	DB	04aH
	DB	049H
	DB	04aH
	DB	049H
	DB	04aH
	DB	049H
	DB	04aH
	DB	029H
	DB	04aH
	DB	049H
	DB	04aH
	DB	048H
	DB	04aH
	DB	049H
	DB	04aH
	DB	049H
	DB	04aH
	DB	049H
	DB	04aH
	DB	049H
	DB	04aH
	DB	049H
	DB	04aH
	DB	028H
	DB	04aH
	DB	049H
	DB	04aH
	DB	049H
	DB	04aH
	DB	049H
	DB	04aH
	DB	029H
	DB	04aH
	DB	049H
	DB	04aH
	DB	048H
	DB	04aH
	DB	049H
	DB	04aH
	DB	049H
	DB	04aH
	DB	049H
	DB	04aH
	DB	049H
	DB	04aH
	DB	049H
	DB	04aH
	DB	028H
	DB	04aH
	DB	049H
	DB	04aH
	DB	049H
	DB	04aH
	DB	049H
	DB	04aH
	DB	029H
	DB	04aH
	DB	049H
	DB	04aH
	DB	048H
	DB	04aH
	DB	049H
	DB	04aH
	DB	049H
	DB	04aH
	DB	049H
	DB	04aH
	DB	049H
	DB	04aH
	DB	049H
	DB	04aH
	DB	028H
	DB	04aH
	DB	049H
	DB	04aH
	DB	049H
	DB	04aH
	DB	049H
	DB	04aH
	DB	029H
	DB	04aH
	DB	049H
	DB	04aH
	DB	048H
	DB	04aH
	DB	049H
	DB	04aH
	DB	049H
	DB	04aH
	DB	049H
	DB	04aH
	DB	049H
	DB	04aH
	DB	049H
	DB	04aH
	DB	028H
	DB	04aH
	DB	049H
	DB	04aH
	DB	049H
	DB	04aH
	DB	049H
	DB	04aH
	DB	029H
	DB	04aH
	DB	049H
	DB	04aH
	DB	048H
	DB	04aH
	DB	049H
	DB	04aH
	DB	049H
	DB	04aH
	DB	049H
	DB	04aH
	DB	049H
	DB	04aH
	DB	049H
	DB	04aH
	DB	028H
	DB	04aH
	DB	049H
	DB	04aH
	DB	049H
	DB	04aH
	DB	049H
	DB	04aH
	DB	029H
	DB	04aH
	DB	049H
	DB	04aH
	DB	048H
	DB	04aH
	DB	049H
	DB	04aH
	DB	049H
	DB	04aH
	DB	049H
	DB	04aH
	DB	049H
	DB	04aH
	DB	049H
	DB	04aH
	DB	028H
	DB	04aH
	DB	049H
	DB	04aH
	DB	049H
	DB	04aH
	DB	049H
	DB	04aH
	DB	029H
	DB	04aH
	DB	049H
	DB	04aH
	DB	048H
	DB	04aH
	DB	049H
	DB	04aH
	DB	049H
	DB	04aH
	DB	049H
	DB	04aH
	DB	049H
	DB	04aH
	DB	049H
	DB	04aH
	DB	028H
	DB	04aH
	DB	049H
	DB	04aH
	DB	049H
	DB	04aH
	DB	049H
	DB	04aH
	DB	029H
	DB	04aH
	DB	049H
	DB	04aH
	DB	048H
	DB	04aH
	DB	049H
	DB	04aH
	DB	049H
	DB	04aH
	DB	049H
	DB	04aH
	DB	049H
	DB	04aH
	DB	049H
	DB	04aH
	DB	028H
	DB	04aH
	DB	049H
	DB	04aH
	DB	049H
	DB	04aH
	DB	049H
	DB	04aH
	DB	029H
	DB	04aH
	DB	049H
	DB	04aH
	DB	048H
	DB	04aH
	DB	049H
	DB	04aH
	DB	049H
	DB	04aH
	DB	049H
	DB	04aH
	DB	049H
	DB	04aH
	DB	049H
	DB	04aH
	DB	028H
	DB	04aH
	DB	049H
	DB	04aH
	DB	049H
	DB	04aH
	DB	049H
	DB	04aH
	DB	029H
	DB	04aH
	DB	049H
	DB	04aH
	DB	048H
	DB	04aH
	DB	029H
	DB	04aH
	DB	049H
	DB	04aH
	DB	049H
	DB	04aH
	DB	049H
	DB	04aH
	DB	029H
	DB	04aH
	DB	048H
	DB	04aH
	DB	049H
	DB	04aH
	DB	029H
	DB	04aH
	DB	049H
	DB	04aH
	DB	055H
	DB	0adH
	DB	055H
	DB	0adH
	DB	049H
	DB	04aH
	DB	029H
	DB	04aH
	DB	049H
	DB	04aH
	DB	049H
	DB	04aH
	DB	029H
	DB	04aH
	DB	049H
	DB	04aH
	DB	049H
	DB	04aH
	DB	029H
	DB	04aH
	DB	049H
	DB	04aH
	DB	049H
	DB	04aH
	DB	029H
	DB	04aH
	DB	049H
	DB	04aH
	DB	029H
	DB	04aH
	DB	049H
	DB	04aH
	DB	049H
	DB	04aH
	DB	029H
	DB	04aH
	DB	049H
	DB	04aH
	DB	049H
	DB	04aH
	DB	029H
	DB	04aH
	DB	049H
	DB	04aH
	DB	029H
	DB	04aH
	DB	029H
	DB	04aH
	DB	049H
	DB	04aH
	DB	029H
	DB	04aH
	DB	029H
	DB	04aH
	DB	049H
	DB	04aH
	DB	049H
	DB	04aH
	DB	049H
	DB	04aH
	DB	049H
	DB	04aH
	DB	049H
	DB	04aH
	DB	029H
	DB	04aH
	DB	049H
	DB	04aH
	DB	029H
	DB	04aH
	DB	029H
	DB	04aH
	DB	049H
	DB	04aH
	DB	029H
	DB	04aH
	DB	029H
	DB	04aH
	DB	049H
	DB	04aH
	DB	049H
	DB	04aH
	DB	049H
	DB	04aH
	DB	049H
	DB	04aH
	DB	049H
	DB	04aH
	DB	029H
	DB	04aH
	DB	049H
	DB	04aH
	DB	029H
	DB	04aH
	DB	029H
	DB	04aH
	DB	049H
	DB	04aH
	DB	029H
	DB	04aH
	DB	029H
	DB	04aH
	DB	049H
	DB	04aH
	DB	049H
	DB	04aH
	DB	049H
	DB	04aH
	DB	049H
	DB	04aH
	DB	049H
	DB	04aH
	DB	029H
	DB	04aH
	DB	049H
	DB	04aH
	DB	029H
	DB	04aH
	DB	029H
	DB	04aH
	DB	049H
	DB	04aH
	DB	029H
	DB	04aH
	DB	029H
	DB	04aH
	DB	049H
	DB	04aH
	DB	049H
	DB	04aH
	DB	049H
	DB	04aH
	DB	049H
	DB	04aH
	DB	049H
	DB	04aH
	DB	029H
	DB	04aH
	DB	049H
	DB	04aH
	DB	029H
	DB	04aH
	DB	029H
	DB	04aH
	DB	049H
	DB	04aH
	DB	029H
	DB	04aH
	DB	029H
	DB	04aH
	DB	049H
	DB	04aH
	DB	049H
	DB	04aH
	DB	049H
	DB	04aH
	DB	049H
	DB	04aH
	DB	049H
	DB	04aH
	DB	029H
	DB	04aH
	DB	049H
	DB	04aH
	DB	029H
	DB	04aH
	DB	029H
	DB	04aH
	DB	049H
	DB	04aH
	DB	029H
	DB	04aH
	DB	029H
	DB	04aH
	DB	049H
	DB	04aH
	DB	049H
	DB	04aH
	DB	049H
	DB	04aH
	DB	049H
	DB	04aH
	DB	049H
	DB	04aH
	DB	029H
	DB	04aH
	DB	049H
	DB	04aH
	DB	029H
	DB	04aH
	DB	029H
	DB	04aH
	DB	049H
	DB	04aH
	DB	029H
	DB	04aH
	DB	029H
	DB	04aH
	DB	049H
	DB	04aH
	DB	049H
	DB	04aH
	DB	049H
	DB	04aH
	DB	049H
	DB	04aH
	DB	049H
	DB	04aH
	DB	029H
	DB	04aH
	DB	049H
	DB	04aH
	DB	029H
	DB	04aH
	DB	029H
	DB	04aH
	DB	049H
	DB	04aH
	DB	029H
	DB	04aH
	DB	029H
	DB	04aH
	DB	049H
	DB	04aH
	DB	049H
	DB	04aH
	DB	049H
	DB	04aH
	DB	049H
	DB	04aH
	DB	049H
	DB	04aH
	DB	029H
	DB	04aH
	DB	049H
	DB	04aH
	DB	029H
	DB	04aH
	DB	029H
	DB	04aH
	DB	049H
	DB	04aH
	DB	029H
	DB	04aH
	DB	029H
	DB	04aH
	DB	049H
	DB	04aH
	DB	049H
	DB	04aH
	DB	049H
	DB	04aH
	DB	049H
	DB	04aH
	DB	049H
	DB	04aH
	DB	029H
	DB	04aH
	DB	049H
	DB	04aH
	DB	029H
	DB	04aH
	DB	029H
	DB	04aH
	DB	049H
	DB	04aH
	DB	029H
	DB	04aH
	DB	029H
	DB	04aH
	DB	049H
	DB	04aH
	DB	049H
	DB	04aH
	DB	049H
	DB	04aH
	DB	049H
	DB	04aH
	DB	049H
	DB	04aH
	DB	029H
	DB	04aH
	DB	049H
	DB	04aH
	DB	029H
	DB	04aH
	DB	029H
	DB	04aH
	DB	049H
	DB	04aH
	DB	029H
	DB	04aH
	DB	029H
	DB	04aH
	DB	049H
	DB	04aH
	DB	049H
	DB	04aH
	DB	049H
	DB	04aH
	DB	049H
	DB	04aH
	DB	049H
	DB	04aH
	DB	029H
	DB	04aH
	DB	049H
	DB	04aH
	DB	049H
	DB	04aH
	DB	029H
	DB	04aH
	DB	049H
	DB	04aH
	DB	049H
	DB	04aH
	DB	049H
	DB	04aH
	DB	029H
	DB	04aH
	DB	049H
	DB	04aH
	DB	049H
	DB	04aH
	DB	029H
	DB	04aH
	DB	049H
	DB	04aH
	DB	049H
	DB	04aH
	DB	055H
	DB	0adH
	DB	055H
	DB	0adH
	DB	049H
	DB	04aH
	DB	049H
	DB	04aH
	DB	049H
	DB	04aH
	DB	029H
	DB	042H
	DB	048H
	DB	04aH
	DB	049H
	DB	04aH
	DB	049H
	DB	042H
	DB	048H
	DB	04aH
	DB	049H
	DB	04aH
	DB	049H
	DB	042H
	DB	049H
	DB	04aH
	DB	028H
	DB	04aH
	DB	049H
	DB	042H
	DB	049H
	DB	04aH
	DB	048H
	DB	04aH
	DB	049H
	DB	042H
	DB	049H
	DB	04aH
	DB	048H
	DB	04aH
	DB	049H
	DB	042H
	DB	049H
	DB	04aH
	DB	048H
	DB	04aH
	DB	049H
	DB	042H
	DB	049H
	DB	04aH
	DB	048H
	DB	04aH
	DB	049H
	DB	042H
	DB	029H
	DB	04aH
	DB	048H
	DB	04aH
	DB	029H
	DB	042H
	DB	049H
	DB	04aH
	DB	048H
	DB	04aH
	DB	049H
	DB	042H
	DB	049H
	DB	04aH
	DB	048H
	DB	04aH
	DB	049H
	DB	042H
	DB	049H
	DB	04aH
	DB	048H
	DB	04aH
	DB	049H
	DB	042H
	DB	029H
	DB	04aH
	DB	048H
	DB	04aH
	DB	029H
	DB	042H
	DB	049H
	DB	04aH
	DB	048H
	DB	04aH
	DB	049H
	DB	042H
	DB	049H
	DB	04aH
	DB	048H
	DB	04aH
	DB	049H
	DB	042H
	DB	049H
	DB	04aH
	DB	048H
	DB	04aH
	DB	049H
	DB	042H
	DB	029H
	DB	04aH
	DB	048H
	DB	04aH
	DB	029H
	DB	042H
	DB	049H
	DB	04aH
	DB	048H
	DB	04aH
	DB	049H
	DB	042H
	DB	049H
	DB	04aH
	DB	048H
	DB	04aH
	DB	049H
	DB	042H
	DB	049H
	DB	04aH
	DB	048H
	DB	04aH
	DB	049H
	DB	042H
	DB	029H
	DB	04aH
	DB	048H
	DB	04aH
	DB	029H
	DB	042H
	DB	049H
	DB	04aH
	DB	048H
	DB	04aH
	DB	049H
	DB	042H
	DB	049H
	DB	04aH
	DB	048H
	DB	04aH
	DB	049H
	DB	042H
	DB	049H
	DB	04aH
	DB	048H
	DB	04aH
	DB	049H
	DB	042H
	DB	029H
	DB	04aH
	DB	048H
	DB	04aH
	DB	029H
	DB	042H
	DB	049H
	DB	04aH
	DB	048H
	DB	04aH
	DB	049H
	DB	042H
	DB	049H
	DB	04aH
	DB	048H
	DB	04aH
	DB	049H
	DB	042H
	DB	049H
	DB	04aH
	DB	048H
	DB	04aH
	DB	049H
	DB	042H
	DB	029H
	DB	04aH
	DB	048H
	DB	04aH
	DB	029H
	DB	042H
	DB	049H
	DB	04aH
	DB	048H
	DB	04aH
	DB	049H
	DB	042H
	DB	049H
	DB	04aH
	DB	048H
	DB	04aH
	DB	049H
	DB	042H
	DB	049H
	DB	04aH
	DB	048H
	DB	04aH
	DB	049H
	DB	042H
	DB	029H
	DB	04aH
	DB	048H
	DB	04aH
	DB	029H
	DB	042H
	DB	049H
	DB	04aH
	DB	048H
	DB	04aH
	DB	049H
	DB	042H
	DB	049H
	DB	04aH
	DB	048H
	DB	04aH
	DB	049H
	DB	042H
	DB	049H
	DB	04aH
	DB	048H
	DB	04aH
	DB	049H
	DB	042H
	DB	029H
	DB	04aH
	DB	048H
	DB	04aH
	DB	029H
	DB	042H
	DB	049H
	DB	04aH
	DB	048H
	DB	04aH
	DB	049H
	DB	042H
	DB	049H
	DB	04aH
	DB	048H
	DB	04aH
	DB	049H
	DB	042H
	DB	049H
	DB	04aH
	DB	048H
	DB	04aH
	DB	049H
	DB	042H
	DB	029H
	DB	04aH
	DB	048H
	DB	04aH
	DB	029H
	DB	042H
	DB	049H
	DB	04aH
	DB	048H
	DB	04aH
	DB	049H
	DB	042H
	DB	049H
	DB	04aH
	DB	048H
	DB	04aH
	DB	049H
	DB	042H
	DB	049H
	DB	04aH
	DB	048H
	DB	04aH
	DB	049H
	DB	042H
	DB	029H
	DB	04aH
	DB	048H
	DB	04aH
	DB	029H
	DB	042H
	DB	049H
	DB	04aH
	DB	048H
	DB	04aH
	DB	049H
	DB	042H
	DB	049H
	DB	04aH
	DB	048H
	DB	04aH
	DB	049H
	DB	042H
	DB	049H
	DB	04aH
	DB	048H
	DB	04aH
	DB	049H
	DB	042H
	DB	029H
	DB	04aH
	DB	048H
	DB	04aH
	DB	029H
	DB	042H
	DB	049H
	DB	04aH
	DB	048H
	DB	04aH
	DB	029H
	DB	042H
	DB	049H
	DB	04aH
	DB	048H
	DB	04aH
	DB	049H
	DB	042H
	DB	029H
	DB	04aH
	DB	048H
	DB	04aH
	DB	049H
	DB	042H
	DB	049H
	DB	04aH
	DB	048H
	DB	04aH
	DB	049H
	DB	042H
	DB	049H
	DB	04aH
	DB	048H
	DB	04aH
	DB	049H
	DB	04aH
	DB	055H
	DB	0adH
	DB	055H
	DB	0adH
	DB	049H
	DB	04aH
	DB	049H
	DB	04aH
	DB	049H
	DB	04aH
	DB	029H
	DB	04aH
	DB	049H
	DB	04aH
	DB	049H
	DB	04aH
	DB	029H
	DB	04aH
	DB	049H
	DB	04aH
	DB	029H
	DB	04aH
	DB	049H
	DB	04aH
	DB	049H
	DB	04aH
	DB	049H
	DB	04aH
	DB	049H
	DB	04aH
	DB	029H
	DB	04aH
	DB	029H
	DB	04aH
	DB	049H
	DB	04aH
	DB	049H
	DB	04aH
	DB	029H
	DB	04aH
	DB	049H
	DB	04aH
	DB	049H
	DB	04aH
	DB	049H
	DB	04aH
	DB	049H
	DB	04aH
	DB	029H
	DB	04aH
	DB	049H
	DB	04aH
	DB	049H
	DB	04aH
	DB	049H
	DB	04aH
	DB	049H
	DB	04aH
	DB	029H
	DB	04aH
	DB	049H
	DB	04aH
	DB	049H
	DB	04aH
	DB	029H
	DB	04aH
	DB	049H
	DB	04aH
	DB	049H
	DB	04aH
	DB	049H
	DB	04aH
	DB	049H
	DB	04aH
	DB	049H
	DB	04aH
	DB	049H
	DB	04aH
	DB	049H
	DB	04aH
	DB	049H
	DB	04aH
	DB	029H
	DB	04aH
	DB	049H
	DB	04aH
	DB	049H
	DB	04aH
	DB	029H
	DB	04aH
	DB	049H
	DB	04aH
	DB	049H
	DB	04aH
	DB	049H
	DB	04aH
	DB	049H
	DB	04aH
	DB	049H
	DB	04aH
	DB	049H
	DB	04aH
	DB	049H
	DB	04aH
	DB	049H
	DB	04aH
	DB	029H
	DB	04aH
	DB	049H
	DB	04aH
	DB	049H
	DB	04aH
	DB	029H
	DB	04aH
	DB	049H
	DB	04aH
	DB	049H
	DB	04aH
	DB	049H
	DB	04aH
	DB	049H
	DB	04aH
	DB	049H
	DB	04aH
	DB	049H
	DB	04aH
	DB	049H
	DB	04aH
	DB	049H
	DB	04aH
	DB	029H
	DB	04aH
	DB	049H
	DB	04aH
	DB	049H
	DB	04aH
	DB	029H
	DB	04aH
	DB	049H
	DB	04aH
	DB	049H
	DB	04aH
	DB	049H
	DB	04aH
	DB	049H
	DB	04aH
	DB	049H
	DB	04aH
	DB	049H
	DB	04aH
	DB	049H
	DB	04aH
	DB	049H
	DB	04aH
	DB	029H
	DB	04aH
	DB	049H
	DB	04aH
	DB	049H
	DB	04aH
	DB	029H
	DB	04aH
	DB	049H
	DB	04aH
	DB	049H
	DB	04aH
	DB	049H
	DB	04aH
	DB	049H
	DB	04aH
	DB	049H
	DB	04aH
	DB	049H
	DB	04aH
	DB	049H
	DB	04aH
	DB	049H
	DB	04aH
	DB	029H
	DB	04aH
	DB	049H
	DB	04aH
	DB	049H
	DB	04aH
	DB	029H
	DB	04aH
	DB	049H
	DB	04aH
	DB	049H
	DB	04aH
	DB	049H
	DB	04aH
	DB	049H
	DB	04aH
	DB	049H
	DB	04aH
	DB	049H
	DB	04aH
	DB	049H
	DB	04aH
	DB	049H
	DB	04aH
	DB	029H
	DB	04aH
	DB	049H
	DB	04aH
	DB	049H
	DB	04aH
	DB	029H
	DB	04aH
	DB	049H
	DB	04aH
	DB	049H
	DB	04aH
	DB	049H
	DB	04aH
	DB	049H
	DB	04aH
	DB	049H
	DB	04aH
	DB	049H
	DB	04aH
	DB	049H
	DB	04aH
	DB	049H
	DB	04aH
	DB	029H
	DB	04aH
	DB	049H
	DB	04aH
	DB	049H
	DB	04aH
	DB	029H
	DB	04aH
	DB	049H
	DB	04aH
	DB	049H
	DB	04aH
	DB	049H
	DB	04aH
	DB	049H
	DB	04aH
	DB	049H
	DB	04aH
	DB	049H
	DB	04aH
	DB	049H
	DB	04aH
	DB	049H
	DB	04aH
	DB	029H
	DB	04aH
	DB	049H
	DB	04aH
	DB	049H
	DB	04aH
	DB	029H
	DB	04aH
	DB	049H
	DB	04aH
	DB	049H
	DB	04aH
	DB	049H
	DB	04aH
	DB	049H
	DB	04aH
	DB	049H
	DB	04aH
	DB	049H
	DB	04aH
	DB	049H
	DB	04aH
	DB	049H
	DB	04aH
	DB	029H
	DB	04aH
	DB	049H
	DB	04aH
	DB	049H
	DB	04aH
	DB	029H
	DB	04aH
	DB	049H
	DB	04aH
	DB	049H
	DB	04aH
	DB	049H
	DB	04aH
	DB	049H
	DB	04aH
	DB	049H
	DB	04aH
	DB	049H
	DB	04aH
	DB	049H
	DB	04aH
	DB	049H
	DB	04aH
	DB	029H
	DB	04aH
	DB	049H
	DB	04aH
	DB	049H
	DB	04aH
	DB	049H
	DB	04aH
	DB	049H
	DB	04aH
	DB	049H
	DB	04aH
	DB	029H
	DB	04aH
	DB	049H
	DB	04aH
	DB	049H
	DB	04aH
	DB	029H
	DB	04aH
	DB	049H
	DB	04aH
	DB	029H
	DB	04aH
	DB	049H
	DB	04aH
	DB	049H
	DB	04aH
	DB	029H
	DB	04aH
	DB	049H
	DB	04aH
	DB	055H
	DB	0adH
	DB	055H
	DB	0adH
	DB	049H
	DB	04aH
	DB	028H
	DB	04aH
	DB	049H
	DB	04aH
	DB	049H
	DB	04aH
	DB	049H
	DB	04aH
	DB	029H
	DB	04aH
	DB	049H
	DB	04aH
	DB	049H
	DB	04aH
	DB	048H
	DB	04aH
	DB	029H
	DB	04aH
	DB	049H
	DB	04aH
	DB	049H
	DB	04aH
	DB	049H
	DB	04aH
	DB	049H
	DB	04aH
	DB	049H
	DB	04aH
	DB	049H
	DB	04aH
	DB	029H
	DB	04aH
	DB	049H
	DB	04aH
	DB	029H
	DB	04aH
	DB	049H
	DB	04aH
	DB	029H
	DB	04aH
	DB	049H
	DB	04aH
	DB	049H
	DB	04aH
	DB	029H
	DB	04aH
	DB	049H
	DB	04aH
	DB	049H
	DB	04aH
	DB	049H
	DB	04aH
	DB	049H
	DB	04aH
	DB	049H
	DB	04aH
	DB	029H
	DB	04aH
	DB	049H
	DB	04aH
	DB	049H
	DB	04aH
	DB	029H
	DB	04aH
	DB	029H
	DB	04aH
	DB	049H
	DB	04aH
	DB	029H
	DB	04aH
	DB	029H
	DB	04aH
	DB	049H
	DB	04aH
	DB	049H
	DB	04aH
	DB	049H
	DB	04aH
	DB	049H
	DB	04aH
	DB	029H
	DB	04aH
	DB	049H
	DB	04aH
	DB	049H
	DB	04aH
	DB	029H
	DB	04aH
	DB	029H
	DB	04aH
	DB	049H
	DB	04aH
	DB	029H
	DB	04aH
	DB	029H
	DB	04aH
	DB	049H
	DB	04aH
	DB	049H
	DB	04aH
	DB	049H
	DB	04aH
	DB	049H
	DB	04aH
	DB	029H
	DB	04aH
	DB	049H
	DB	04aH
	DB	049H
	DB	04aH
	DB	029H
	DB	04aH
	DB	029H
	DB	04aH
	DB	049H
	DB	04aH
	DB	029H
	DB	04aH
	DB	029H
	DB	04aH
	DB	049H
	DB	04aH
	DB	049H
	DB	04aH
	DB	049H
	DB	04aH
	DB	049H
	DB	04aH
	DB	029H
	DB	04aH
	DB	049H
	DB	04aH
	DB	049H
	DB	04aH
	DB	029H
	DB	04aH
	DB	029H
	DB	04aH
	DB	049H
	DB	04aH
	DB	029H
	DB	04aH
	DB	029H
	DB	04aH
	DB	049H
	DB	04aH
	DB	049H
	DB	04aH
	DB	049H
	DB	04aH
	DB	049H
	DB	04aH
	DB	029H
	DB	04aH
	DB	049H
	DB	04aH
	DB	049H
	DB	04aH
	DB	029H
	DB	04aH
	DB	029H
	DB	04aH
	DB	049H
	DB	04aH
	DB	029H
	DB	04aH
	DB	029H
	DB	04aH
	DB	049H
	DB	04aH
	DB	049H
	DB	04aH
	DB	049H
	DB	04aH
	DB	049H
	DB	04aH
	DB	029H
	DB	04aH
	DB	049H
	DB	04aH
	DB	049H
	DB	04aH
	DB	029H
	DB	04aH
	DB	029H
	DB	04aH
	DB	049H
	DB	04aH
	DB	029H
	DB	04aH
	DB	029H
	DB	04aH
	DB	049H
	DB	04aH
	DB	049H
	DB	04aH
	DB	049H
	DB	04aH
	DB	049H
	DB	04aH
	DB	029H
	DB	04aH
	DB	049H
	DB	04aH
	DB	049H
	DB	04aH
	DB	029H
	DB	04aH
	DB	029H
	DB	04aH
	DB	049H
	DB	04aH
	DB	029H
	DB	04aH
	DB	029H
	DB	04aH
	DB	049H
	DB	04aH
	DB	049H
	DB	04aH
	DB	049H
	DB	04aH
	DB	049H
	DB	04aH
	DB	029H
	DB	04aH
	DB	049H
	DB	04aH
	DB	049H
	DB	04aH
	DB	029H
	DB	04aH
	DB	029H
	DB	04aH
	DB	049H
	DB	04aH
	DB	029H
	DB	04aH
	DB	029H
	DB	04aH
	DB	049H
	DB	04aH
	DB	049H
	DB	04aH
	DB	049H
	DB	04aH
	DB	049H
	DB	04aH
	DB	029H
	DB	04aH
	DB	049H
	DB	04aH
	DB	049H
	DB	04aH
	DB	029H
	DB	04aH
	DB	029H
	DB	04aH
	DB	049H
	DB	04aH
	DB	029H
	DB	04aH
	DB	029H
	DB	04aH
	DB	049H
	DB	04aH
	DB	049H
	DB	04aH
	DB	049H
	DB	04aH
	DB	049H
	DB	04aH
	DB	029H
	DB	04aH
	DB	049H
	DB	04aH
	DB	049H
	DB	04aH
	DB	029H
	DB	04aH
	DB	029H
	DB	04aH
	DB	049H
	DB	04aH
	DB	029H
	DB	04aH
	DB	029H
	DB	04aH
	DB	049H
	DB	04aH
	DB	049H
	DB	04aH
	DB	049H
	DB	04aH
	DB	049H
	DB	04aH
	DB	029H
	DB	04aH
	DB	049H
	DB	04aH
	DB	049H
	DB	04aH
	DB	029H
	DB	04aH
	DB	049H
	DB	04aH
	DB	049H
	DB	04aH
	DB	049H
	DB	04aH
	DB	049H
	DB	04aH
	DB	029H
	DB	04aH
	DB	049H
	DB	04aH
	DB	049H
	DB	04aH
	DB	029H
	DB	04aH
	DB	049H
	DB	04aH
	DB	049H
	DB	04aH
	DB	055H
	DB	0adH
	DB	055H
	DB	0adH
	DB	049H
	DB	04aH
	DB	049H
	DB	04aH
	DB	029H
	DB	04aH
	DB	048H
	DB	042H
	DB	049H
	DB	04aH
	DB	049H
	DB	04aH
	DB	048H
	DB	042H
	DB	049H
	DB	04aH
	DB	049H
	DB	04aH
	DB	029H
	DB	042H
	DB	049H
	DB	04aH
	DB	028H
	DB	04aH
	DB	029H
	DB	042H
	DB	049H
	DB	04aH
	DB	048H
	DB	04aH
	DB	049H
	DB	042H
	DB	049H
	DB	04aH
	DB	048H
	DB	04aH
	DB	049H
	DB	042H
	DB	049H
	DB	04aH
	DB	048H
	DB	04aH
	DB	049H
	DB	042H
	DB	049H
	DB	04aH
	DB	048H
	DB	04aH
	DB	029H
	DB	042H
	DB	049H
	DB	04aH
	DB	028H
	DB	04aH
	DB	049H
	DB	042H
	DB	049H
	DB	04aH
	DB	048H
	DB	04aH
	DB	049H
	DB	042H
	DB	049H
	DB	04aH
	DB	048H
	DB	04aH
	DB	049H
	DB	042H
	DB	049H
	DB	04aH
	DB	048H
	DB	04aH
	DB	049H
	DB	042H
	DB	049H
	DB	04aH
	DB	028H
	DB	04aH
	DB	049H
	DB	042H
	DB	049H
	DB	04aH
	DB	048H
	DB	04aH
	DB	049H
	DB	042H
	DB	049H
	DB	04aH
	DB	048H
	DB	04aH
	DB	049H
	DB	042H
	DB	049H
	DB	04aH
	DB	048H
	DB	04aH
	DB	049H
	DB	042H
	DB	049H
	DB	04aH
	DB	028H
	DB	04aH
	DB	049H
	DB	042H
	DB	049H
	DB	04aH
	DB	048H
	DB	04aH
	DB	049H
	DB	042H
	DB	049H
	DB	04aH
	DB	048H
	DB	04aH
	DB	049H
	DB	042H
	DB	049H
	DB	04aH
	DB	048H
	DB	04aH
	DB	049H
	DB	042H
	DB	049H
	DB	04aH
	DB	028H
	DB	04aH
	DB	049H
	DB	042H
	DB	049H
	DB	04aH
	DB	048H
	DB	04aH
	DB	049H
	DB	042H
	DB	049H
	DB	04aH
	DB	048H
	DB	04aH
	DB	049H
	DB	042H
	DB	049H
	DB	04aH
	DB	048H
	DB	04aH
	DB	049H
	DB	042H
	DB	049H
	DB	04aH
	DB	028H
	DB	04aH
	DB	049H
	DB	042H
	DB	049H
	DB	04aH
	DB	048H
	DB	04aH
	DB	049H
	DB	042H
	DB	049H
	DB	04aH
	DB	048H
	DB	04aH
	DB	049H
	DB	042H
	DB	049H
	DB	04aH
	DB	048H
	DB	04aH
	DB	049H
	DB	042H
	DB	049H
	DB	04aH
	DB	028H
	DB	04aH
	DB	049H
	DB	042H
	DB	049H
	DB	04aH
	DB	048H
	DB	04aH
	DB	049H
	DB	042H
	DB	049H
	DB	04aH
	DB	048H
	DB	04aH
	DB	049H
	DB	042H
	DB	049H
	DB	04aH
	DB	048H
	DB	04aH
	DB	049H
	DB	042H
	DB	049H
	DB	04aH
	DB	028H
	DB	04aH
	DB	049H
	DB	042H
	DB	049H
	DB	04aH
	DB	048H
	DB	04aH
	DB	049H
	DB	042H
	DB	049H
	DB	04aH
	DB	048H
	DB	04aH
	DB	049H
	DB	042H
	DB	049H
	DB	04aH
	DB	048H
	DB	04aH
	DB	049H
	DB	042H
	DB	049H
	DB	04aH
	DB	028H
	DB	04aH
	DB	049H
	DB	042H
	DB	049H
	DB	04aH
	DB	048H
	DB	04aH
	DB	049H
	DB	042H
	DB	049H
	DB	04aH
	DB	048H
	DB	04aH
	DB	049H
	DB	042H
	DB	049H
	DB	04aH
	DB	048H
	DB	04aH
	DB	049H
	DB	042H
	DB	049H
	DB	04aH
	DB	028H
	DB	04aH
	DB	049H
	DB	042H
	DB	049H
	DB	04aH
	DB	048H
	DB	04aH
	DB	049H
	DB	042H
	DB	049H
	DB	04aH
	DB	048H
	DB	04aH
	DB	049H
	DB	042H
	DB	049H
	DB	04aH
	DB	048H
	DB	04aH
	DB	049H
	DB	042H
	DB	049H
	DB	04aH
	DB	028H
	DB	04aH
	DB	049H
	DB	042H
	DB	049H
	DB	04aH
	DB	048H
	DB	04aH
	DB	049H
	DB	042H
	DB	049H
	DB	04aH
	DB	048H
	DB	04aH
	DB	049H
	DB	042H
	DB	049H
	DB	04aH
	DB	048H
	DB	04aH
	DB	049H
	DB	042H
	DB	049H
	DB	04aH
	DB	028H
	DB	04aH
	DB	049H
	DB	042H
	DB	049H
	DB	04aH
	DB	028H
	DB	04aH
	DB	049H
	DB	042H
	DB	049H
	DB	04aH
	DB	028H
	DB	04aH
	DB	049H
	DB	042H
	DB	049H
	DB	04aH
	DB	028H
	DB	04aH
	DB	049H
	DB	042H
	DB	049H
	DB	04aH
	DB	048H
	DB	04aH
	DB	049H
	DB	042H
	DB	049H
	DB	04aH
	DB	048H
	DB	04aH
	DB	049H
	DB	04aH
	DB	035H
	DB	0adH
	DB	035H
	DB	0adH
	DB	049H
	DB	04aH
	DB	049H
	DB	04aH
	DB	049H
	DB	04aH
	DB	029H
	DB	04aH
	DB	049H
	DB	04aH
	DB	049H
	DB	04aH
	DB	029H
	DB	04aH
	DB	049H
	DB	04aH
	DB	049H
	DB	04aH
	DB	049H
	DB	04aH
	DB	049H
	DB	04aH
	DB	049H
	DB	04aH
	DB	049H
	DB	04aH
	DB	029H
	DB	04aH
	DB	049H
	DB	04aH
	DB	029H
	DB	04aH
	DB	049H
	DB	04aH
	DB	049H
	DB	04aH
	DB	029H
	DB	04aH
	DB	049H
	DB	04aH
	DB	029H
	DB	04aH
	DB	049H
	DB	04aH
	DB	049H
	DB	04aH
	DB	029H
	DB	04aH
	DB	049H
	DB	04aH
	DB	049H
	DB	04aH
	DB	049H
	DB	04aH
	DB	029H
	DB	04aH
	DB	049H
	DB	04aH
	DB	029H
	DB	04aH
	DB	029H
	DB	04aH
	DB	049H
	DB	04aH
	DB	049H
	DB	04aH
	DB	029H
	DB	04aH
	DB	049H
	DB	04aH
	DB	049H
	DB	04aH
	DB	049H
	DB	04aH
	DB	029H
	DB	04aH
	DB	049H
	DB	04aH
	DB	049H
	DB	04aH
	DB	029H
	DB	04aH
	DB	049H
	DB	04aH
	DB	029H
	DB	04aH
	DB	049H
	DB	04aH
	DB	049H
	DB	04aH
	DB	029H
	DB	04aH
	DB	049H
	DB	04aH
	DB	049H
	DB	04aH
	DB	049H
	DB	04aH
	DB	029H
	DB	04aH
	DB	049H
	DB	04aH
	DB	049H
	DB	04aH
	DB	029H
	DB	04aH
	DB	049H
	DB	04aH
	DB	029H
	DB	04aH
	DB	049H
	DB	04aH
	DB	049H
	DB	04aH
	DB	029H
	DB	04aH
	DB	049H
	DB	04aH
	DB	049H
	DB	04aH
	DB	049H
	DB	04aH
	DB	029H
	DB	04aH
	DB	049H
	DB	04aH
	DB	049H
	DB	04aH
	DB	029H
	DB	04aH
	DB	049H
	DB	04aH
	DB	029H
	DB	04aH
	DB	049H
	DB	04aH
	DB	049H
	DB	04aH
	DB	029H
	DB	04aH
	DB	049H
	DB	04aH
	DB	049H
	DB	04aH
	DB	049H
	DB	04aH
	DB	029H
	DB	04aH
	DB	049H
	DB	04aH
	DB	049H
	DB	04aH
	DB	029H
	DB	04aH
	DB	049H
	DB	04aH
	DB	029H
	DB	04aH
	DB	049H
	DB	04aH
	DB	049H
	DB	04aH
	DB	029H
	DB	04aH
	DB	049H
	DB	04aH
	DB	049H
	DB	04aH
	DB	049H
	DB	04aH
	DB	029H
	DB	04aH
	DB	049H
	DB	04aH
	DB	049H
	DB	04aH
	DB	029H
	DB	04aH
	DB	049H
	DB	04aH
	DB	029H
	DB	04aH
	DB	049H
	DB	04aH
	DB	049H
	DB	04aH
	DB	029H
	DB	04aH
	DB	049H
	DB	04aH
	DB	049H
	DB	04aH
	DB	049H
	DB	04aH
	DB	029H
	DB	04aH
	DB	049H
	DB	04aH
	DB	049H
	DB	04aH
	DB	029H
	DB	04aH
	DB	049H
	DB	04aH
	DB	029H
	DB	04aH
	DB	049H
	DB	04aH
	DB	049H
	DB	04aH
	DB	029H
	DB	04aH
	DB	049H
	DB	04aH
	DB	049H
	DB	04aH
	DB	049H
	DB	04aH
	DB	029H
	DB	04aH
	DB	049H
	DB	04aH
	DB	049H
	DB	04aH
	DB	029H
	DB	04aH
	DB	049H
	DB	04aH
	DB	029H
	DB	04aH
	DB	049H
	DB	04aH
	DB	049H
	DB	04aH
	DB	029H
	DB	04aH
	DB	049H
	DB	04aH
	DB	049H
	DB	04aH
	DB	049H
	DB	04aH
	DB	029H
	DB	04aH
	DB	049H
	DB	04aH
	DB	049H
	DB	04aH
	DB	029H
	DB	04aH
	DB	049H
	DB	04aH
	DB	029H
	DB	04aH
	DB	049H
	DB	04aH
	DB	049H
	DB	04aH
	DB	029H
	DB	04aH
	DB	049H
	DB	04aH
	DB	049H
	DB	04aH
	DB	049H
	DB	04aH
	DB	029H
	DB	04aH
	DB	049H
	DB	04aH
	DB	049H
	DB	04aH
	DB	029H
	DB	04aH
	DB	049H
	DB	04aH
	DB	029H
	DB	04aH
	DB	049H
	DB	04aH
	DB	049H
	DB	04aH
	DB	029H
	DB	04aH
	DB	049H
	DB	04aH
	DB	049H
	DB	04aH
	DB	049H
	DB	04aH
	DB	029H
	DB	04aH
	DB	049H
	DB	04aH
	DB	049H
	DB	04aH
	DB	049H
	DB	04aH
	DB	049H
	DB	04aH
	DB	049H
	DB	04aH
	DB	049H
	DB	04aH
	DB	049H
	DB	04aH
	DB	049H
	DB	04aH
	DB	049H
	DB	04aH
	DB	029H
	DB	04aH
	DB	049H
	DB	04aH
	DB	049H
	DB	04aH
	DB	029H
	DB	04aH
	DB	049H
	DB	04aH
	DB	049H
	DB	04aH
	DB	029H
	DB	04aH
	DB	049H
	DB	04aH
	DB	055H
	DB	0adH
	DB	055H
	DB	0adH
	DB	049H
	DB	04aH
	DB	049H
	DB	04aH
	DB	049H
	DB	04aH
	DB	049H
	DB	04aH
	DB	029H
	DB	042H
	DB	049H
	DB	04aH
	DB	049H
	DB	04aH
	DB	029H
	DB	04aH
	DB	048H
	DB	042H
	DB	029H
	DB	04aH
	DB	049H
	DB	04aH
	DB	049H
	DB	04aH
	DB	049H
	DB	04aH
	DB	048H
	DB	042H
	DB	049H
	DB	04aH
	DB	029H
	DB	04aH
	DB	049H
	DB	04aH
	DB	049H
	DB	04aH
	DB	029H
	DB	04aH
	DB	049H
	DB	04aH
	DB	049H
	DB	04aH
	DB	029H
	DB	04aH
	DB	049H
	DB	04aH
	DB	049H
	DB	04aH
	DB	049H
	DB	04aH
	DB	049H
	DB	04aH
	DB	049H
	DB	04aH
	DB	049H
	DB	04aH
	DB	049H
	DB	04aH
	DB	049H
	DB	04aH
	DB	049H
	DB	04aH
	DB	049H
	DB	04aH
	DB	029H
	DB	04aH
	DB	049H
	DB	04aH
	DB	049H
	DB	04aH
	DB	029H
	DB	04aH
	DB	049H
	DB	04aH
	DB	049H
	DB	04aH
	DB	049H
	DB	04aH
	DB	049H
	DB	04aH
	DB	029H
	DB	04aH
	DB	049H
	DB	04aH
	DB	049H
	DB	04aH
	DB	029H
	DB	04aH
	DB	049H
	DB	04aH
	DB	049H
	DB	04aH
	DB	029H
	DB	04aH
	DB	049H
	DB	04aH
	DB	049H
	DB	04aH
	DB	029H
	DB	04aH
	DB	049H
	DB	04aH
	DB	049H
	DB	04aH
	DB	049H
	DB	04aH
	DB	029H
	DB	04aH
	DB	049H
	DB	04aH
	DB	049H
	DB	04aH
	DB	029H
	DB	04aH
	DB	049H
	DB	04aH
	DB	049H
	DB	04aH
	DB	029H
	DB	04aH
	DB	049H
	DB	04aH
	DB	049H
	DB	04aH
	DB	049H
	DB	04aH
	DB	049H
	DB	04aH
	DB	029H
	DB	04aH
	DB	049H
	DB	04aH
	DB	049H
	DB	04aH
	DB	029H
	DB	04aH
	DB	049H
	DB	04aH
	DB	049H
	DB	04aH
	DB	029H
	DB	04aH
	DB	049H
	DB	04aH
	DB	049H
	DB	04aH
	DB	029H
	DB	04aH
	DB	049H
	DB	04aH
	DB	049H
	DB	04aH
	DB	049H
	DB	04aH
	DB	029H
	DB	04aH
	DB	049H
	DB	04aH
	DB	049H
	DB	04aH
	DB	029H
	DB	04aH
	DB	049H
	DB	04aH
	DB	049H
	DB	04aH
	DB	029H
	DB	04aH
	DB	049H
	DB	04aH
	DB	049H
	DB	04aH
	DB	049H
	DB	04aH
	DB	049H
	DB	04aH
	DB	029H
	DB	04aH
	DB	049H
	DB	04aH
	DB	049H
	DB	04aH
	DB	029H
	DB	04aH
	DB	049H
	DB	04aH
	DB	049H
	DB	04aH
	DB	029H
	DB	04aH
	DB	049H
	DB	04aH
	DB	049H
	DB	04aH
	DB	029H
	DB	04aH
	DB	049H
	DB	04aH
	DB	049H
	DB	04aH
	DB	049H
	DB	04aH
	DB	029H
	DB	04aH
	DB	049H
	DB	04aH
	DB	049H
	DB	04aH
	DB	029H
	DB	04aH
	DB	049H
	DB	04aH
	DB	049H
	DB	04aH
	DB	029H
	DB	04aH
	DB	049H
	DB	04aH
	DB	049H
	DB	04aH
	DB	049H
	DB	04aH
	DB	049H
	DB	04aH
	DB	029H
	DB	04aH
	DB	049H
	DB	04aH
	DB	049H
	DB	04aH
	DB	029H
	DB	04aH
	DB	049H
	DB	04aH
	DB	049H
	DB	04aH
	DB	029H
	DB	04aH
	DB	049H
	DB	04aH
	DB	049H
	DB	04aH
	DB	029H
	DB	04aH
	DB	049H
	DB	04aH
	DB	049H
	DB	04aH
	DB	049H
	DB	04aH
	DB	029H
	DB	04aH
	DB	049H
	DB	04aH
	DB	049H
	DB	04aH
	DB	029H
	DB	04aH
	DB	049H
	DB	04aH
	DB	049H
	DB	04aH
	DB	029H
	DB	04aH
	DB	049H
	DB	04aH
	DB	049H
	DB	04aH
	DB	049H
	DB	04aH
	DB	049H
	DB	04aH
	DB	029H
	DB	04aH
	DB	049H
	DB	04aH
	DB	049H
	DB	04aH
	DB	029H
	DB	04aH
	DB	049H
	DB	04aH
	DB	049H
	DB	04aH
	DB	029H
	DB	04aH
	DB	049H
	DB	04aH
	DB	049H
	DB	04aH
	DB	029H
	DB	04aH
	DB	049H
	DB	04aH
	DB	049H
	DB	04aH
	DB	029H
	DB	04aH
	DB	049H
	DB	04aH
	DB	029H
	DB	04aH
	DB	049H
	DB	04aH
	DB	029H
	DB	04aH
	DB	049H
	DB	04aH
	DB	049H
	DB	04aH
	DB	049H
	DB	04aH
	DB	049H
	DB	04aH
	DB	049H
	DB	04aH
	DB	029H
	DB	04aH
	DB	049H
	DB	04aH
	DB	049H
	DB	042H
	DB	049H
	DB	04aH
	DB	049H
	DB	04aH
	DB	055H
	DB	0adH
	DB	055H
	DB	0adH
	DB	049H
	DB	04aH
	DB	029H
	DB	04aH
	DB	049H
	DB	04aH
	DB	048H
	DB	04aH
	DB	049H
	DB	04aH
	DB	049H
	DB	04aH
	DB	048H
	DB	04aH
	DB	049H
	DB	04aH
	DB	029H
	DB	04aH
	DB	049H
	DB	04aH
	DB	049H
	DB	042H
	DB	028H
	DB	04aH
	DB	049H
	DB	04aH
	DB	049H
	DB	04aH
	DB	049H
	DB	04aH
	DB	049H
	DB	04aH
	DB	048H
	DB	042H
	DB	049H
	DB	04aH
	DB	049H
	DB	04aH
	DB	048H
	DB	042H
	DB	049H
	DB	04aH
	DB	049H
	DB	04aH
	DB	028H
	DB	042H
	DB	049H
	DB	04aH
	DB	029H
	DB	04aH
	DB	028H
	DB	042H
	DB	049H
	DB	04aH
	DB	049H
	DB	04aH
	DB	028H
	DB	042H
	DB	049H
	DB	04aH
	DB	049H
	DB	04aH
	DB	048H
	DB	042H
	DB	049H
	DB	04aH
	DB	049H
	DB	04aH
	DB	048H
	DB	042H
	DB	029H
	DB	04aH
	DB	049H
	DB	04aH
	DB	048H
	DB	042H
	DB	029H
	DB	04aH
	DB	049H
	DB	04aH
	DB	048H
	DB	042H
	DB	049H
	DB	04aH
	DB	049H
	DB	04aH
	DB	048H
	DB	042H
	DB	049H
	DB	04aH
	DB	049H
	DB	04aH
	DB	028H
	DB	042H
	DB	049H
	DB	04aH
	DB	049H
	DB	04aH
	DB	048H
	DB	042H
	DB	049H
	DB	04aH
	DB	049H
	DB	04aH
	DB	048H
	DB	042H
	DB	049H
	DB	04aH
	DB	049H
	DB	04aH
	DB	048H
	DB	042H
	DB	049H
	DB	04aH
	DB	049H
	DB	04aH
	DB	028H
	DB	042H
	DB	049H
	DB	04aH
	DB	049H
	DB	04aH
	DB	028H
	DB	042H
	DB	049H
	DB	04aH
	DB	049H
	DB	04aH
	DB	048H
	DB	042H
	DB	049H
	DB	04aH
	DB	049H
	DB	04aH
	DB	048H
	DB	042H
	DB	049H
	DB	04aH
	DB	049H
	DB	04aH
	DB	028H
	DB	042H
	DB	049H
	DB	04aH
	DB	049H
	DB	04aH
	DB	048H
	DB	042H
	DB	049H
	DB	04aH
	DB	049H
	DB	04aH
	DB	048H
	DB	042H
	DB	049H
	DB	04aH
	DB	049H
	DB	04aH
	DB	048H
	DB	042H
	DB	049H
	DB	04aH
	DB	049H
	DB	04aH
	DB	028H
	DB	042H
	DB	049H
	DB	04aH
	DB	049H
	DB	04aH
	DB	028H
	DB	042H
	DB	049H
	DB	04aH
	DB	049H
	DB	04aH
	DB	048H
	DB	042H
	DB	049H
	DB	04aH
	DB	049H
	DB	04aH
	DB	048H
	DB	042H
	DB	049H
	DB	04aH
	DB	049H
	DB	04aH
	DB	028H
	DB	042H
	DB	049H
	DB	04aH
	DB	049H
	DB	04aH
	DB	048H
	DB	042H
	DB	049H
	DB	04aH
	DB	049H
	DB	04aH
	DB	048H
	DB	042H
	DB	049H
	DB	04aH
	DB	049H
	DB	04aH
	DB	048H
	DB	042H
	DB	049H
	DB	04aH
	DB	049H
	DB	04aH
	DB	028H
	DB	042H
	DB	049H
	DB	04aH
	DB	049H
	DB	04aH
	DB	028H
	DB	042H
	DB	049H
	DB	04aH
	DB	049H
	DB	04aH
	DB	048H
	DB	042H
	DB	049H
	DB	04aH
	DB	049H
	DB	04aH
	DB	048H
	DB	042H
	DB	049H
	DB	04aH
	DB	049H
	DB	04aH
	DB	028H
	DB	042H
	DB	049H
	DB	04aH
	DB	049H
	DB	04aH
	DB	048H
	DB	042H
	DB	049H
	DB	04aH
	DB	049H
	DB	04aH
	DB	048H
	DB	042H
	DB	049H
	DB	04aH
	DB	049H
	DB	04aH
	DB	048H
	DB	042H
	DB	049H
	DB	04aH
	DB	049H
	DB	04aH
	DB	028H
	DB	042H
	DB	049H
	DB	04aH
	DB	049H
	DB	04aH
	DB	028H
	DB	042H
	DB	049H
	DB	04aH
	DB	049H
	DB	04aH
	DB	048H
	DB	042H
	DB	049H
	DB	04aH
	DB	049H
	DB	04aH
	DB	048H
	DB	042H
	DB	049H
	DB	04aH
	DB	049H
	DB	04aH
	DB	028H
	DB	042H
	DB	049H
	DB	04aH
	DB	049H
	DB	04aH
	DB	048H
	DB	042H
	DB	049H
	DB	04aH
	DB	029H
	DB	04aH
	DB	048H
	DB	042H
	DB	049H
	DB	04aH
	DB	049H
	DB	04aH
	DB	028H
	DB	042H
	DB	049H
	DB	04aH
	DB	049H
	DB	04aH
	DB	028H
	DB	042H
	DB	049H
	DB	04aH
	DB	049H
	DB	042H
	DB	028H
	DB	04aH
	DB	049H
	DB	04aH
	DB	049H
	DB	04aH
	DB	028H
	DB	04aH
	DB	049H
	DB	04aH
	DB	049H
	DB	04aH
	DB	055H
	DB	0adH
	DB	055H
	DB	0adH
	DB	049H
	DB	04aH
	DB	049H
	DB	04aH
	DB	029H
	DB	042H
	DB	049H
	DB	04aH
	DB	029H
	DB	04aH
	DB	049H
	DB	04aH
	DB	049H
	DB	042H
	DB	029H
	DB	04aH
	DB	049H
	DB	04aH
	DB	049H
	DB	04aH
	DB	049H
	DB	04aH
	DB	029H
	DB	04aH
	DB	049H
	DB	04aH
	DB	029H
	DB	04aH
	DB	029H
	DB	04aH
	DB	049H
	DB	04aH
	DB	029H
	DB	04aH
	DB	049H
	DB	04aH
	DB	029H
	DB	04aH
	DB	049H
	DB	04aH
	DB	049H
	DB	04aH
	DB	049H
	DB	04aH
	DB	049H
	DB	04aH
	DB	049H
	DB	04aH
	DB	049H
	DB	04aH
	DB	049H
	DB	04aH
	DB	049H
	DB	04aH
	DB	029H
	DB	04aH
	DB	049H
	DB	04aH
	DB	049H
	DB	04aH
	DB	029H
	DB	04aH
	DB	029H
	DB	04aH
	DB	049H
	DB	04aH
	DB	049H
	DB	04aH
	DB	029H
	DB	04aH
	DB	049H
	DB	04aH
	DB	049H
	DB	04aH
	DB	049H
	DB	04aH
	DB	029H
	DB	04aH
	DB	049H
	DB	04aH
	DB	049H
	DB	04aH
	DB	029H
	DB	04aH
	DB	049H
	DB	04aH
	DB	029H
	DB	04aH
	DB	049H
	DB	04aH
	DB	049H
	DB	04aH
	DB	049H
	DB	04aH
	DB	029H
	DB	04aH
	DB	049H
	DB	04aH
	DB	049H
	DB	04aH
	DB	029H
	DB	04aH
	DB	029H
	DB	04aH
	DB	049H
	DB	04aH
	DB	029H
	DB	04aH
	DB	049H
	DB	04aH
	DB	029H
	DB	04aH
	DB	049H
	DB	04aH
	DB	049H
	DB	04aH
	DB	049H
	DB	04aH
	DB	049H
	DB	04aH
	DB	049H
	DB	04aH
	DB	029H
	DB	04aH
	DB	049H
	DB	04aH
	DB	049H
	DB	04aH
	DB	029H
	DB	04aH
	DB	049H
	DB	04aH
	DB	029H
	DB	04aH
	DB	049H
	DB	04aH
	DB	049H
	DB	04aH
	DB	029H
	DB	04aH
	DB	049H
	DB	04aH
	DB	049H
	DB	04aH
	DB	029H
	DB	04aH
	DB	049H
	DB	04aH
	DB	029H
	DB	04aH
	DB	029H
	DB	04aH
	DB	049H
	DB	04aH
	DB	029H
	DB	04aH
	DB	049H
	DB	04aH
	DB	029H
	DB	04aH
	DB	049H
	DB	04aH
	DB	049H
	DB	04aH
	DB	049H
	DB	04aH
	DB	049H
	DB	04aH
	DB	049H
	DB	04aH
	DB	029H
	DB	04aH
	DB	049H
	DB	04aH
	DB	049H
	DB	04aH
	DB	029H
	DB	04aH
	DB	049H
	DB	04aH
	DB	029H
	DB	04aH
	DB	049H
	DB	04aH
	DB	049H
	DB	04aH
	DB	029H
	DB	04aH
	DB	049H
	DB	04aH
	DB	049H
	DB	04aH
	DB	029H
	DB	04aH
	DB	049H
	DB	04aH
	DB	029H
	DB	04aH
	DB	029H
	DB	04aH
	DB	049H
	DB	04aH
	DB	029H
	DB	04aH
	DB	049H
	DB	04aH
	DB	029H
	DB	04aH
	DB	049H
	DB	04aH
	DB	049H
	DB	04aH
	DB	049H
	DB	04aH
	DB	049H
	DB	04aH
	DB	049H
	DB	04aH
	DB	029H
	DB	04aH
	DB	049H
	DB	04aH
	DB	049H
	DB	04aH
	DB	029H
	DB	04aH
	DB	049H
	DB	04aH
	DB	029H
	DB	04aH
	DB	049H
	DB	04aH
	DB	049H
	DB	04aH
	DB	029H
	DB	04aH
	DB	049H
	DB	04aH
	DB	049H
	DB	04aH
	DB	029H
	DB	04aH
	DB	049H
	DB	04aH
	DB	029H
	DB	04aH
	DB	029H
	DB	04aH
	DB	049H
	DB	04aH
	DB	029H
	DB	04aH
	DB	049H
	DB	04aH
	DB	029H
	DB	04aH
	DB	049H
	DB	04aH
	DB	049H
	DB	04aH
	DB	049H
	DB	04aH
	DB	049H
	DB	04aH
	DB	049H
	DB	04aH
	DB	029H
	DB	04aH
	DB	049H
	DB	04aH
	DB	049H
	DB	04aH
	DB	029H
	DB	04aH
	DB	049H
	DB	04aH
	DB	029H
	DB	04aH
	DB	049H
	DB	04aH
	DB	049H
	DB	04aH
	DB	029H
	DB	04aH
	DB	049H
	DB	04aH
	DB	049H
	DB	04aH
	DB	029H
	DB	04aH
	DB	049H
	DB	04aH
	DB	049H
	DB	04aH
	DB	049H
	DB	04aH
	DB	049H
	DB	04aH
	DB	049H
	DB	04aH
	DB	049H
	DB	04aH
	DB	049H
	DB	04aH
	DB	049H
	DB	04aH
	DB	049H
	DB	04aH
	DB	029H
	DB	04aH
	DB	049H
	DB	04aH
	DB	049H
	DB	04aH
	DB	049H
	DB	04aH
	DB	049H
	DB	042H
	DB	049H
	DB	04aH
	DB	029H
	DB	04aH
	DB	049H
	DB	04aH
	DB	049H
	DB	04aH
	DB	035H
	DB	0adH
	DB	055H
	DB	0adH
	DB	049H
	DB	04aH
	DB	049H
	DB	04aH
	DB	049H
	DB	04aH
	DB	049H
	DB	04aH
	DB	029H
	DB	04aH
	DB	049H
	DB	04aH
	DB	049H
	DB	04aH
	DB	049H
	DB	04aH
	DB	049H
	DB	04aH
	DB	048H
	DB	04aH
	DB	029H
	DB	04aH
	DB	049H
	DB	04aH
	DB	049H
	DB	042H
	DB	049H
	DB	04aH
	DB	048H
	DB	04aH
	DB	049H
	DB	042H
	DB	049H
	DB	04aH
	DB	049H
	DB	04aH
	DB	029H
	DB	04aH
	DB	048H
	DB	04aH
	DB	029H
	DB	042H
	DB	029H
	DB	04aH
	DB	049H
	DB	04aH
	DB	048H
	DB	04aH
	DB	049H
	DB	042H
	DB	049H
	DB	04aH
	DB	029H
	DB	04aH
	DB	048H
	DB	042H
	DB	049H
	DB	04aH
	DB	049H
	DB	04aH
	DB	048H
	DB	04aH
	DB	049H
	DB	04aH
	DB	049H
	DB	042H
	DB	029H
	DB	04aH
	DB	049H
	DB	04aH
	DB	048H
	DB	042H
	DB	049H
	DB	04aH
	DB	029H
	DB	04aH
	DB	048H
	DB	04aH
	DB	049H
	DB	042H
	DB	049H
	DB	04aH
	DB	049H
	DB	04aH
	DB	028H
	DB	042H
	DB	049H
	DB	04aH
	DB	049H
	DB	04aH
	DB	028H
	DB	04aH
	DB	049H
	DB	04aH
	DB	049H
	DB	042H
	DB	049H
	DB	04aH
	DB	049H
	DB	04aH
	DB	048H
	DB	042H
	DB	049H
	DB	04aH
	DB	049H
	DB	04aH
	DB	048H
	DB	04aH
	DB	029H
	DB	042H
	DB	049H
	DB	04aH
	DB	049H
	DB	04aH
	DB	028H
	DB	042H
	DB	049H
	DB	04aH
	DB	049H
	DB	04aH
	DB	028H
	DB	04aH
	DB	049H
	DB	04aH
	DB	049H
	DB	042H
	DB	029H
	DB	04aH
	DB	049H
	DB	04aH
	DB	048H
	DB	042H
	DB	029H
	DB	04aH
	DB	049H
	DB	04aH
	DB	048H
	DB	04aH
	DB	049H
	DB	042H
	DB	049H
	DB	04aH
	DB	049H
	DB	04aH
	DB	048H
	DB	042H
	DB	049H
	DB	04aH
	DB	049H
	DB	04aH
	DB	048H
	DB	04aH
	DB	049H
	DB	04aH
	DB	049H
	DB	042H
	DB	029H
	DB	04aH
	DB	049H
	DB	04aH
	DB	048H
	DB	042H
	DB	029H
	DB	04aH
	DB	049H
	DB	04aH
	DB	048H
	DB	04aH
	DB	029H
	DB	042H
	DB	049H
	DB	04aH
	DB	049H
	DB	04aH
	DB	028H
	DB	042H
	DB	049H
	DB	04aH
	DB	049H
	DB	04aH
	DB	028H
	DB	04aH
	DB	049H
	DB	04aH
	DB	049H
	DB	042H
	DB	049H
	DB	04aH
	DB	049H
	DB	04aH
	DB	048H
	DB	042H
	DB	049H
	DB	04aH
	DB	049H
	DB	04aH
	DB	048H
	DB	04aH
	DB	049H
	DB	042H
	DB	049H
	DB	04aH
	DB	049H
	DB	04aH
	DB	028H
	DB	042H
	DB	049H
	DB	04aH
	DB	049H
	DB	04aH
	DB	028H
	DB	04aH
	DB	049H
	DB	04aH
	DB	049H
	DB	042H
	DB	029H
	DB	04aH
	DB	049H
	DB	04aH
	DB	048H
	DB	042H
	DB	029H
	DB	04aH
	DB	049H
	DB	04aH
	DB	048H
	DB	04aH
	DB	029H
	DB	042H
	DB	049H
	DB	04aH
	DB	049H
	DB	04aH
	DB	048H
	DB	042H
	DB	049H
	DB	04aH
	DB	049H
	DB	04aH
	DB	048H
	DB	04aH
	DB	049H
	DB	04aH
	DB	049H
	DB	042H
	DB	049H
	DB	04aH
	DB	049H
	DB	04aH
	DB	048H
	DB	042H
	DB	029H
	DB	04aH
	DB	049H
	DB	04aH
	DB	048H
	DB	04aH
	DB	029H
	DB	042H
	DB	049H
	DB	04aH
	DB	049H
	DB	04aH
	DB	028H
	DB	042H
	DB	049H
	DB	04aH
	DB	049H
	DB	04aH
	DB	028H
	DB	04aH
	DB	049H
	DB	04aH
	DB	049H
	DB	042H
	DB	029H
	DB	04aH
	DB	049H
	DB	04aH
	DB	048H
	DB	042H
	DB	049H
	DB	04aH
	DB	049H
	DB	04aH
	DB	048H
	DB	04aH
	DB	029H
	DB	042H
	DB	049H
	DB	04aH
	DB	049H
	DB	04aH
	DB	028H
	DB	042H
	DB	029H
	DB	04aH
	DB	049H
	DB	04aH
	DB	028H
	DB	04aH
	DB	049H
	DB	04aH
	DB	049H
	DB	042H
	DB	029H
	DB	04aH
	DB	049H
	DB	04aH
	DB	048H
	DB	04aH
	DB	029H
	DB	04aH
	DB	049H
	DB	04aH
	DB	049H
	DB	04aH
	DB	028H
	DB	04aH
	DB	049H
	DB	04aH
	DB	049H
	DB	042H
	DB	049H
	DB	04aH
	DB	055H
	DB	0adH
	DB	055H
	DB	0adH
	DB	049H
	DB	04aH
	DB	028H
	DB	04aH
	DB	049H
	DB	04aH
	DB	049H
	DB	04aH
	DB	048H
	DB	042H
	DB	029H
	DB	04aH
	DB	049H
	DB	04aH
	DB	028H
	DB	04aH
	DB	049H
	DB	042H
	DB	049H
	DB	04aH
	DB	049H
	DB	04aH
	DB	049H
	DB	04aH
	DB	049H
	DB	04aH
	DB	049H
	DB	04aH
	DB	049H
	DB	04aH
	DB	029H
	DB	04aH
	DB	049H
	DB	04aH
	DB	048H
	DB	04aH
	DB	049H
	DB	042H
	DB	049H
	DB	04aH
	DB	049H
	DB	04aH
	DB	049H
	DB	04aH
	DB	029H
	DB	04aH
	DB	049H
	DB	04aH
	DB	029H
	DB	04aH
	DB	049H
	DB	04aH
	DB	049H
	DB	04aH
	DB	049H
	DB	04aH
	DB	029H
	DB	04aH
	DB	049H
	DB	042H
	DB	049H
	DB	04aH
	DB	029H
	DB	04aH
	DB	048H
	DB	04aH
	DB	049H
	DB	04aH
	DB	049H
	DB	04aH
	DB	049H
	DB	04aH
	DB	029H
	DB	04aH
	DB	049H
	DB	04aH
	DB	049H
	DB	04aH
	DB	029H
	DB	04aH
	DB	049H
	DB	04aH
	DB	049H
	DB	04aH
	DB	049H
	DB	04aH
	DB	049H
	DB	04aH
	DB	049H
	DB	042H
	DB	029H
	DB	04aH
	DB	049H
	DB	04aH
	DB	048H
	DB	04aH
	DB	029H
	DB	04aH
	DB	049H
	DB	04aH
	DB	049H
	DB	04aH
	DB	029H
	DB	04aH
	DB	049H
	DB	04aH
	DB	049H
	DB	04aH
	DB	049H
	DB	04aH
	DB	049H
	DB	04aH
	DB	049H
	DB	04aH
	DB	029H
	DB	04aH
	DB	049H
	DB	04aH
	DB	049H
	DB	042H
	DB	029H
	DB	04aH
	DB	049H
	DB	04aH
	DB	048H
	DB	04aH
	DB	049H
	DB	04aH
	DB	049H
	DB	04aH
	DB	049H
	DB	04aH
	DB	049H
	DB	04aH
	DB	029H
	DB	04aH
	DB	049H
	DB	04aH
	DB	029H
	DB	04aH
	DB	049H
	DB	04aH
	DB	029H
	DB	04aH
	DB	049H
	DB	04aH
	DB	049H
	DB	04aH
	DB	029H
	DB	042H
	DB	049H
	DB	04aH
	DB	049H
	DB	04aH
	DB	048H
	DB	04aH
	DB	049H
	DB	04aH
	DB	049H
	DB	04aH
	DB	049H
	DB	04aH
	DB	029H
	DB	04aH
	DB	049H
	DB	04aH
	DB	049H
	DB	04aH
	DB	029H
	DB	04aH
	DB	049H
	DB	04aH
	DB	049H
	DB	04aH
	DB	049H
	DB	04aH
	DB	049H
	DB	04aH
	DB	049H
	DB	042H
	DB	049H
	DB	04aH
	DB	029H
	DB	04aH
	DB	048H
	DB	04aH
	DB	029H
	DB	04aH
	DB	049H
	DB	04aH
	DB	029H
	DB	04aH
	DB	049H
	DB	04aH
	DB	049H
	DB	04aH
	DB	029H
	DB	04aH
	DB	049H
	DB	04aH
	DB	049H
	DB	04aH
	DB	049H
	DB	04aH
	DB	049H
	DB	04aH
	DB	049H
	DB	04aH
	DB	049H
	DB	042H
	DB	029H
	DB	04aH
	DB	049H
	DB	04aH
	DB	048H
	DB	04aH
	DB	029H
	DB	04aH
	DB	049H
	DB	04aH
	DB	049H
	DB	04aH
	DB	049H
	DB	04aH
	DB	049H
	DB	04aH
	DB	049H
	DB	04aH
	DB	049H
	DB	04aH
	DB	029H
	DB	04aH
	DB	049H
	DB	04aH
	DB	029H
	DB	04aH
	DB	049H
	DB	04aH
	DB	029H
	DB	042H
	DB	049H
	DB	04aH
	DB	049H
	DB	04aH
	DB	028H
	DB	04aH
	DB	049H
	DB	04aH
	DB	049H
	DB	04aH
	DB	049H
	DB	04aH
	DB	049H
	DB	04aH
	DB	049H
	DB	04aH
	DB	049H
	DB	04aH
	DB	029H
	DB	04aH
	DB	049H
	DB	04aH
	DB	049H
	DB	04aH
	DB	029H
	DB	04aH
	DB	049H
	DB	04aH
	DB	049H
	DB	042H
	DB	049H
	DB	04aH
	DB	049H
	DB	04aH
	DB	048H
	DB	04aH
	DB	049H
	DB	04aH
	DB	029H
	DB	04aH
	DB	049H
	DB	04aH
	DB	029H
	DB	04aH
	DB	049H
	DB	04aH
	DB	049H
	DB	04aH
	DB	049H
	DB	04aH
	DB	049H
	DB	04aH
	DB	049H
	DB	04aH
	DB	049H
	DB	04aH
	DB	049H
	DB	04aH
	DB	049H
	DB	042H
	DB	029H
	DB	04aH
	DB	049H
	DB	04aH
	DB	048H
	DB	04aH
	DB	049H
	DB	04aH
	DB	049H
	DB	04aH
	DB	049H
	DB	042H
	DB	029H
	DB	04aH
	DB	049H
	DB	04aH
	DB	049H
	DB	04aH
	DB	049H
	DB	04aH
	DB	049H
	DB	04aH
	DB	049H
	DB	04aH
	DB	049H
	DB	04aH
	DB	055H
	DB	0adH
	DB	055H
	DB	0adH
	DB	049H
	DB	04aH
	DB	049H
	DB	04aH
	DB	029H
	DB	04aH
	DB	049H
	DB	04aH
	DB	049H
	DB	04aH
	DB	049H
	DB	04aH
	DB	049H
	DB	04aH
	DB	029H
	DB	04aH
	DB	049H
	DB	04aH
	DB	049H
	DB	04aH
	DB	029H
	DB	04aH
	DB	048H
	DB	042H
	DB	029H
	DB	04aH
	DB	049H
	DB	04aH
	DB	049H
	DB	04aH
	DB	029H
	DB	04aH
	DB	049H
	DB	04aH
	DB	049H
	DB	04aH
	DB	029H
	DB	04aH
	DB	049H
	DB	04aH
	DB	049H
	DB	04aH
	DB	048H
	DB	04aH
	DB	049H
	DB	042H
	DB	049H
	DB	04aH
	DB	049H
	DB	04aH
	DB	028H
	DB	04aH
	DB	049H
	DB	04aH
	DB	049H
	DB	04aH
	DB	029H
	DB	04aH
	DB	049H
	DB	04aH
	DB	049H
	DB	04aH
	DB	029H
	DB	04aH
	DB	049H
	DB	04aH
	DB	049H
	DB	04aH
	DB	029H
	DB	04aH
	DB	049H
	DB	04aH
	DB	049H
	DB	04aH
	DB	049H
	DB	042H
	DB	049H
	DB	04aH
	DB	049H
	DB	04aH
	DB	028H
	DB	04aH
	DB	049H
	DB	04aH
	DB	049H
	DB	04aH
	DB	029H
	DB	04aH
	DB	049H
	DB	04aH
	DB	049H
	DB	04aH
	DB	049H
	DB	04aH
	DB	029H
	DB	04aH
	DB	049H
	DB	04aH
	DB	049H
	DB	04aH
	DB	029H
	DB	04aH
	DB	049H
	DB	04aH
	DB	049H
	DB	042H
	DB	029H
	DB	04aH
	DB	049H
	DB	04aH
	DB	048H
	DB	04aH
	DB	029H
	DB	04aH
	DB	049H
	DB	04aH
	DB	049H
	DB	04aH
	DB	049H
	DB	04aH
	DB	049H
	DB	04aH
	DB	049H
	DB	04aH
	DB	029H
	DB	04aH
	DB	049H
	DB	04aH
	DB	049H
	DB	04aH
	DB	029H
	DB	04aH
	DB	049H
	DB	04aH
	DB	049H
	DB	042H
	DB	049H
	DB	04aH
	DB	049H
	DB	04aH
	DB	028H
	DB	04aH
	DB	049H
	DB	04aH
	DB	049H
	DB	04aH
	DB	029H
	DB	04aH
	DB	049H
	DB	04aH
	DB	049H
	DB	04aH
	DB	029H
	DB	04aH
	DB	049H
	DB	04aH
	DB	029H
	DB	04aH
	DB	049H
	DB	04aH
	DB	049H
	DB	04aH
	DB	049H
	DB	04aH
	DB	049H
	DB	042H
	DB	049H
	DB	04aH
	DB	049H
	DB	04aH
	DB	048H
	DB	04aH
	DB	029H
	DB	04aH
	DB	049H
	DB	04aH
	DB	049H
	DB	04aH
	DB	029H
	DB	04aH
	DB	049H
	DB	04aH
	DB	049H
	DB	04aH
	DB	049H
	DB	04aH
	DB	049H
	DB	04aH
	DB	029H
	DB	04aH
	DB	049H
	DB	04aH
	DB	049H
	DB	04aH
	DB	029H
	DB	042H
	DB	049H
	DB	04aH
	DB	049H
	DB	04aH
	DB	028H
	DB	04aH
	DB	049H
	DB	04aH
	DB	029H
	DB	04aH
	DB	049H
	DB	04aH
	DB	049H
	DB	04aH
	DB	049H
	DB	04aH
	DB	049H
	DB	04aH
	DB	049H
	DB	04aH
	DB	049H
	DB	04aH
	DB	049H
	DB	04aH
	DB	029H
	DB	04aH
	DB	049H
	DB	04aH
	DB	049H
	DB	042H
	DB	029H
	DB	04aH
	DB	049H
	DB	04aH
	DB	048H
	DB	04aH
	DB	049H
	DB	04aH
	DB	049H
	DB	04aH
	DB	029H
	DB	04aH
	DB	049H
	DB	04aH
	DB	049H
	DB	04aH
	DB	029H
	DB	04aH
	DB	049H
	DB	04aH
	DB	049H
	DB	04aH
	DB	029H
	DB	04aH
	DB	049H
	DB	04aH
	DB	029H
	DB	04aH
	DB	049H
	DB	042H
	DB	049H
	DB	04aH
	DB	049H
	DB	04aH
	DB	048H
	DB	04aH
	DB	049H
	DB	04aH
	DB	049H
	DB	04aH
	DB	049H
	DB	04aH
	DB	029H
	DB	04aH
	DB	049H
	DB	04aH
	DB	049H
	DB	04aH
	DB	029H
	DB	04aH
	DB	049H
	DB	04aH
	DB	049H
	DB	04aH
	DB	049H
	DB	04aH
	DB	049H
	DB	04aH
	DB	029H
	DB	042H
	DB	049H
	DB	04aH
	DB	029H
	DB	04aH
	DB	048H
	DB	04aH
	DB	029H
	DB	04aH
	DB	049H
	DB	04aH
	DB	049H
	DB	04aH
	DB	049H
	DB	04aH
	DB	049H
	DB	04aH
	DB	029H
	DB	04aH
	DB	049H
	DB	04aH
	DB	029H
	DB	04aH
	DB	049H
	DB	04aH
	DB	049H
	DB	04aH
	DB	048H
	DB	04aH
	DB	029H
	DB	04aH
	DB	049H
	DB	042H
	DB	049H
	DB	04aH
	DB	029H
	DB	04aH
	DB	028H
	DB	04aH
	DB	049H
	DB	04aH
	DB	055H
	DB	0adH
	DB	055H
	DB	0adH
	DB	049H
	DB	04aH
	DB	049H
	DB	04aH
	DB	049H
	DB	04aH
	DB	029H
	DB	04aH
	DB	049H
	DB	04aH
	DB	049H
	DB	042H
	DB	049H
	DB	04aH
	DB	049H
	DB	04aH
	DB	049H
	DB	04aH
	DB	029H
	DB	04aH
	DB	049H
	DB	04aH
	DB	049H
	DB	04aH
	DB	029H
	DB	04aH
	DB	048H
	DB	04aH
	DB	049H
	DB	042H
	DB	049H
	DB	04aH
	DB	048H
	DB	04aH
	DB	029H
	DB	042H
	DB	049H
	DB	04aH
	DB	049H
	DB	04aH
	DB	029H
	DB	04aH
	DB	049H
	DB	04aH
	DB	049H
	DB	04aH
	DB	029H
	DB	04aH
	DB	049H
	DB	04aH
	DB	049H
	DB	042H
	DB	049H
	DB	04aH
	DB	049H
	DB	04aH
	DB	048H
	DB	04aH
	DB	049H
	DB	04aH
	DB	049H
	DB	04aH
	DB	049H
	DB	042H
	DB	049H
	DB	04aH
	DB	029H
	DB	04aH
	DB	048H
	DB	042H
	DB	049H
	DB	04aH
	DB	029H
	DB	04aH
	DB	048H
	DB	04aH
	DB	049H
	DB	04aH
	DB	029H
	DB	04aH
	DB	049H
	DB	042H
	DB	049H
	DB	04aH
	DB	029H
	DB	04aH
	DB	048H
	DB	04aH
	DB	049H
	DB	04aH
	DB	049H
	DB	04aH
	DB	029H
	DB	042H
	DB	049H
	DB	04aH
	DB	049H
	DB	04aH
	DB	048H
	DB	042H
	DB	029H
	DB	04aH
	DB	049H
	DB	04aH
	DB	048H
	DB	04aH
	DB	029H
	DB	04aH
	DB	049H
	DB	04aH
	DB	049H
	DB	042H
	DB	049H
	DB	04aH
	DB	049H
	DB	04aH
	DB	028H
	DB	04aH
	DB	049H
	DB	04aH
	DB	049H
	DB	04aH
	DB	029H
	DB	042H
	DB	049H
	DB	04aH
	DB	049H
	DB	04aH
	DB	028H
	DB	042H
	DB	049H
	DB	04aH
	DB	049H
	DB	04aH
	DB	048H
	DB	04aH
	DB	029H
	DB	04aH
	DB	049H
	DB	04aH
	DB	049H
	DB	042H
	DB	049H
	DB	04aH
	DB	049H
	DB	04aH
	DB	048H
	DB	04aH
	DB	049H
	DB	04aH
	DB	049H
	DB	04aH
	DB	049H
	DB	042H
	DB	029H
	DB	04aH
	DB	049H
	DB	04aH
	DB	048H
	DB	042H
	DB	029H
	DB	04aH
	DB	049H
	DB	04aH
	DB	028H
	DB	04aH
	DB	049H
	DB	04aH
	DB	049H
	DB	04aH
	DB	029H
	DB	042H
	DB	049H
	DB	04aH
	DB	049H
	DB	04aH
	DB	028H
	DB	04aH
	DB	049H
	DB	04aH
	DB	049H
	DB	04aH
	DB	049H
	DB	042H
	DB	029H
	DB	04aH
	DB	049H
	DB	04aH
	DB	048H
	DB	042H
	DB	049H
	DB	04aH
	DB	049H
	DB	04aH
	DB	048H
	DB	04aH
	DB	049H
	DB	04aH
	DB	049H
	DB	04aH
	DB	049H
	DB	042H
	DB	029H
	DB	04aH
	DB	049H
	DB	04aH
	DB	048H
	DB	04aH
	DB	029H
	DB	04aH
	DB	049H
	DB	04aH
	DB	029H
	DB	042H
	DB	049H
	DB	04aH
	DB	049H
	DB	04aH
	DB	028H
	DB	042H
	DB	049H
	DB	04aH
	DB	049H
	DB	04aH
	DB	028H
	DB	04aH
	DB	049H
	DB	04aH
	DB	049H
	DB	04aH
	DB	049H
	DB	042H
	DB	029H
	DB	04aH
	DB	049H
	DB	04aH
	DB	048H
	DB	04aH
	DB	049H
	DB	04aH
	DB	049H
	DB	04aH
	DB	049H
	DB	042H
	DB	049H
	DB	04aH
	DB	049H
	DB	04aH
	DB	048H
	DB	042H
	DB	029H
	DB	04aH
	DB	049H
	DB	04aH
	DB	048H
	DB	04aH
	DB	029H
	DB	04aH
	DB	049H
	DB	04aH
	DB	029H
	DB	042H
	DB	049H
	DB	04aH
	DB	049H
	DB	04aH
	DB	028H
	DB	04aH
	DB	049H
	DB	04aH
	DB	049H
	DB	04aH
	DB	029H
	DB	042H
	DB	049H
	DB	04aH
	DB	049H
	DB	04aH
	DB	048H
	DB	042H
	DB	029H
	DB	04aH
	DB	049H
	DB	04aH
	DB	048H
	DB	04aH
	DB	049H
	DB	04aH
	DB	049H
	DB	04aH
	DB	029H
	DB	042H
	DB	049H
	DB	04aH
	DB	049H
	DB	04aH
	DB	028H
	DB	04aH
	DB	049H
	DB	04aH
	DB	049H
	DB	04aH
	DB	049H
	DB	042H
	DB	049H
	DB	04aH
	DB	029H
	DB	04aH
	DB	049H
	DB	042H
	DB	049H
	DB	04aH
	DB	029H
	DB	04aH
	DB	049H
	DB	04aH
	DB	048H
	DB	04aH
	DB	049H
	DB	04aH
	DB	049H
	DB	04aH
	DB	049H
	DB	04aH
	DB	049H
	DB	04aH
	DB	055H
	DB	0adH
	DB	035H
	DB	0adH
	DB	049H
	DB	04aH
	DB	049H
	DB	04aH
	DB	049H
	DB	042H
	DB	048H
	DB	04aH
	DB	029H
	DB	04aH
	DB	049H
	DB	04aH
	DB	028H
	DB	04aH
	DB	049H
	DB	04aH
	DB	049H
	DB	042H
	DB	048H
	DB	04aH
	DB	049H
	DB	04aH
	DB	049H
	DB	04aH
	DB	049H
	DB	04aH
	DB	029H
	DB	04aH
	DB	049H
	DB	04aH
	DB	049H
	DB	04aH
	DB	029H
	DB	04aH
	DB	049H
	DB	04aH
	DB	049H
	DB	04aH
	DB	048H
	DB	04aH
	DB	029H
	DB	042H
	DB	049H
	DB	04aH
	DB	049H
	DB	04aH
	DB	028H
	DB	04aH
	DB	049H
	DB	04aH
	DB	049H
	DB	04aH
	DB	029H
	DB	04aH
	DB	049H
	DB	042H
	DB	029H
	DB	04aH
	DB	049H
	DB	04aH
	DB	028H
	DB	04aH
	DB	049H
	DB	04aH
	DB	049H
	DB	04aH
	DB	049H
	DB	04aH
	DB	049H
	DB	04aH
	DB	049H
	DB	04aH
	DB	029H
	DB	04aH
	DB	049H
	DB	04aH
	DB	049H
	DB	04aH
	DB	049H
	DB	04aH
	DB	049H
	DB	04aH
	DB	049H
	DB	04aH
	DB	049H
	DB	042H
	DB	029H
	DB	04aH
	DB	049H
	DB	04aH
	DB	048H
	DB	04aH
	DB	049H
	DB	04aH
	DB	049H
	DB	04aH
	DB	049H
	DB	04aH
	DB	029H
	DB	04aH
	DB	049H
	DB	04aH
	DB	049H
	DB	04aH
	DB	049H
	DB	04aH
	DB	049H
	DB	04aH
	DB	029H
	DB	04aH
	DB	049H
	DB	04aH
	DB	049H
	DB	04aH
	DB	029H
	DB	042H
	DB	049H
	DB	04aH
	DB	049H
	DB	04aH
	DB	028H
	DB	04aH
	DB	049H
	DB	04aH
	DB	049H
	DB	04aH
	DB	049H
	DB	04aH
	DB	049H
	DB	04aH
	DB	049H
	DB	04aH
	DB	029H
	DB	04aH
	DB	049H
	DB	04aH
	DB	049H
	DB	04aH
	DB	049H
	DB	04aH
	DB	049H
	DB	04aH
	DB	029H
	DB	04aH
	DB	049H
	DB	042H
	DB	029H
	DB	04aH
	DB	049H
	DB	04aH
	DB	048H
	DB	04aH
	DB	029H
	DB	04aH
	DB	049H
	DB	04aH
	DB	049H
	DB	04aH
	DB	049H
	DB	04aH
	DB	049H
	DB	04aH
	DB	029H
	DB	04aH
	DB	049H
	DB	04aH
	DB	049H
	DB	04aH
	DB	029H
	DB	04aH
	DB	049H
	DB	04aH
	DB	049H
	DB	04aH
	DB	049H
	DB	042H
	DB	049H
	DB	04aH
	DB	049H
	DB	04aH
	DB	028H
	DB	04aH
	DB	049H
	DB	04aH
	DB	049H
	DB	04aH
	DB	049H
	DB	04aH
	DB	049H
	DB	04aH
	DB	029H
	DB	04aH
	DB	049H
	DB	04aH
	DB	029H
	DB	04aH
	DB	049H
	DB	04aH
	DB	049H
	DB	04aH
	DB	029H
	DB	04aH
	DB	049H
	DB	04aH
	DB	049H
	DB	042H
	DB	049H
	DB	04aH
	DB	049H
	DB	04aH
	DB	028H
	DB	04aH
	DB	049H
	DB	04aH
	DB	049H
	DB	04aH
	DB	029H
	DB	04aH
	DB	049H
	DB	04aH
	DB	049H
	DB	04aH
	DB	049H
	DB	04aH
	DB	049H
	DB	04aH
	DB	049H
	DB	04aH
	DB	029H
	DB	04aH
	DB	049H
	DB	04aH
	DB	049H
	DB	04aH
	DB	049H
	DB	042H
	DB	049H
	DB	04aH
	DB	029H
	DB	04aH
	DB	048H
	DB	04aH
	DB	029H
	DB	04aH
	DB	049H
	DB	04aH
	DB	049H
	DB	04aH
	DB	029H
	DB	04aH
	DB	049H
	DB	04aH
	DB	049H
	DB	04aH
	DB	049H
	DB	04aH
	DB	049H
	DB	04aH
	DB	029H
	DB	04aH
	DB	049H
	DB	04aH
	DB	049H
	DB	04aH
	DB	029H
	DB	042H
	DB	049H
	DB	04aH
	DB	049H
	DB	04aH
	DB	048H
	DB	04aH
	DB	049H
	DB	04aH
	DB	049H
	DB	04aH
	DB	029H
	DB	04aH
	DB	049H
	DB	04aH
	DB	049H
	DB	04aH
	DB	029H
	DB	04aH
	DB	049H
	DB	04aH
	DB	049H
	DB	04aH
	DB	049H
	DB	04aH
	DB	049H
	DB	04aH
	DB	049H
	DB	04aH
	DB	049H
	DB	042H
	DB	029H
	DB	04aH
	DB	049H
	DB	04aH
	DB	048H
	DB	04aH
	DB	029H
	DB	04aH
	DB	049H
	DB	04aH
	DB	048H
	DB	04aH
	DB	049H
	DB	04aH
	DB	049H
	DB	04aH
	DB	049H
	DB	04aH
	DB	029H
	DB	04aH
	DB	049H
	DB	04aH
	DB	029H
	DB	042H
	DB	049H
	DB	04aH
	DB	049H
	DB	04aH
	DB	049H
	DB	04aH
	DB	035H
	DB	0adH
	DB	055H
	DB	0adH
	DB	049H
	DB	04aH
	DB	029H
	DB	04aH
	DB	049H
	DB	04aH
	DB	049H
	DB	04aH
	DB	049H
	DB	04aH
	DB	049H
	DB	04aH
	DB	029H
	DB	04aH
	DB	049H
	DB	04aH
	DB	049H
	DB	04aH
	DB	029H
	DB	04aH
	DB	049H
	DB	042H
	DB	049H
	DB	04aH
	DB	029H
	DB	04aH
	DB	049H
	DB	042H
	DB	049H
	DB	04aH
	DB	029H
	DB	04aH
	DB	049H
	DB	04aH
	DB	049H
	DB	04aH
	DB	049H
	DB	04aH
	DB	029H
	DB	04aH
	DB	049H
	DB	04aH
	DB	049H
	DB	04aH
	DB	049H
	DB	04aH
	DB	049H
	DB	042H
	DB	049H
	DB	04aH
	DB	029H
	DB	04aH
	DB	048H
	DB	04aH
	DB	049H
	DB	04aH
	DB	049H
	DB	04aH
	DB	029H
	DB	04aH
	DB	049H
	DB	042H
	DB	049H
	DB	04aH
	DB	029H
	DB	04aH
	DB	048H
	DB	04aH
	DB	049H
	DB	04aH
	DB	029H
	DB	042H
	DB	049H
	DB	04aH
	DB	049H
	DB	04aH
	DB	028H
	DB	042H
	DB	049H
	DB	04aH
	DB	029H
	DB	04aH
	DB	048H
	DB	04aH
	DB	049H
	DB	04aH
	DB	049H
	DB	04aH
	DB	029H
	DB	04aH
	DB	049H
	DB	042H
	DB	049H
	DB	04aH
	DB	029H
	DB	04aH
	DB	048H
	DB	04aH
	DB	049H
	DB	04aH
	DB	049H
	DB	042H
	DB	029H
	DB	04aH
	DB	049H
	DB	04aH
	DB	048H
	DB	042H
	DB	049H
	DB	04aH
	DB	029H
	DB	04aH
	DB	048H
	DB	04aH
	DB	049H
	DB	04aH
	DB	049H
	DB	04aH
	DB	049H
	DB	04aH
	DB	049H
	DB	042H
	DB	049H
	DB	04aH
	DB	029H
	DB	04aH
	DB	048H
	DB	04aH
	DB	049H
	DB	04aH
	DB	029H
	DB	042H
	DB	049H
	DB	04aH
	DB	049H
	DB	04aH
	DB	028H
	DB	042H
	DB	049H
	DB	04aH
	DB	049H
	DB	04aH
	DB	028H
	DB	04aH
	DB	049H
	DB	04aH
	DB	049H
	DB	04aH
	DB	029H
	DB	04aH
	DB	049H
	DB	042H
	DB	049H
	DB	04aH
	DB	049H
	DB	04aH
	DB	028H
	DB	04aH
	DB	049H
	DB	04aH
	DB	049H
	DB	042H
	DB	049H
	DB	04aH
	DB	049H
	DB	04aH
	DB	048H
	DB	042H
	DB	049H
	DB	04aH
	DB	049H
	DB	04aH
	DB	028H
	DB	04aH
	DB	049H
	DB	04aH
	DB	049H
	DB	04aH
	DB	029H
	DB	04aH
	DB	049H
	DB	042H
	DB	049H
	DB	04aH
	DB	029H
	DB	04aH
	DB	048H
	DB	04aH
	DB	049H
	DB	04aH
	DB	029H
	DB	042H
	DB	049H
	DB	04aH
	DB	049H
	DB	04aH
	DB	028H
	DB	042H
	DB	049H
	DB	04aH
	DB	049H
	DB	04aH
	DB	048H
	DB	04aH
	DB	029H
	DB	04aH
	DB	049H
	DB	04aH
	DB	049H
	DB	04aH
	DB	049H
	DB	042H
	DB	049H
	DB	04aH
	DB	049H
	DB	04aH
	DB	048H
	DB	04aH
	DB	049H
	DB	04aH
	DB	029H
	DB	042H
	DB	049H
	DB	04aH
	DB	049H
	DB	04aH
	DB	028H
	DB	042H
	DB	049H
	DB	04aH
	DB	049H
	DB	04aH
	DB	028H
	DB	04aH
	DB	049H
	DB	04aH
	DB	049H
	DB	04aH
	DB	029H
	DB	04aH
	DB	049H
	DB	042H
	DB	049H
	DB	04aH
	DB	029H
	DB	04aH
	DB	048H
	DB	04aH
	DB	049H
	DB	04aH
	DB	049H
	DB	042H
	DB	029H
	DB	04aH
	DB	049H
	DB	04aH
	DB	048H
	DB	042H
	DB	049H
	DB	04aH
	DB	049H
	DB	04aH
	DB	048H
	DB	04aH
	DB	049H
	DB	04aH
	DB	049H
	DB	04aH
	DB	029H
	DB	04aH
	DB	049H
	DB	042H
	DB	049H
	DB	04aH
	DB	029H
	DB	04aH
	DB	048H
	DB	04aH
	DB	049H
	DB	04aH
	DB	049H
	DB	042H
	DB	049H
	DB	04aH
	DB	029H
	DB	04aH
	DB	048H
	DB	042H
	DB	029H
	DB	04aH
	DB	049H
	DB	04aH
	DB	048H
	DB	04aH
	DB	029H
	DB	04aH
	DB	049H
	DB	04aH
	DB	049H
	DB	04aH
	DB	029H
	DB	042H
	DB	049H
	DB	04aH
	DB	049H
	DB	04aH
	DB	029H
	DB	04aH
	DB	049H
	DB	04aH
	DB	048H
	DB	04aH
	DB	029H
	DB	042H
	DB	049H
	DB	04aH
	DB	049H
	DB	04aH
	DB	049H
	DB	04aH
	DB	029H
	DB	04aH
	DB	048H
	DB	04aH
	DB	049H
	DB	04aH
	DB	055H
	DB	0adH
	DB	055H
	DB	0adH
	DB	049H
	DB	04aH
	DB	049H
	DB	04aH
	DB	029H
	DB	04aH
	DB	049H
	DB	04aH
	DB	048H
	DB	042H
	DB	049H
	DB	04aH
	DB	049H
	DB	04aH
	DB	029H
	DB	042H
	DB	049H
	DB	04aH
	DB	049H
	DB	04aH
	DB	028H
	DB	04aH
	DB	049H
	DB	04aH
	DB	049H
	DB	04aH
	DB	048H
	DB	04aH
	DB	049H
	DB	04aH
	DB	049H
	DB	04aH
	DB	048H
	DB	042H
	DB	049H
	DB	04aH
	DB	029H
	DB	04aH
	DB	049H
	DB	04aH
	DB	049H
	DB	04aH
	DB	028H
	DB	04aH
	DB	049H
	DB	04aH
	DB	049H
	DB	04aH
	DB	029H
	DB	04aH
	DB	049H
	DB	04aH
	DB	049H
	DB	04aH
	DB	049H
	DB	04aH
	DB	049H
	DB	04aH
	DB	049H
	DB	04aH
	DB	049H
	DB	04aH
	DB	049H
	DB	04aH
	DB	029H
	DB	04aH
	DB	049H
	DB	042H
	DB	049H
	DB	04aH
	DB	049H
	DB	04aH
	DB	048H
	DB	04aH
	DB	049H
	DB	04aH
	DB	049H
	DB	04aH
	DB	029H
	DB	04aH
	DB	049H
	DB	04aH
	DB	049H
	DB	04aH
	DB	029H
	DB	04aH
	DB	049H
	DB	04aH
	DB	049H
	DB	04aH
	DB	029H
	DB	04aH
	DB	049H
	DB	04aH
	DB	049H
	DB	04aH
	DB	029H
	DB	042H
	DB	049H
	DB	04aH
	DB	049H
	DB	04aH
	DB	048H
	DB	04aH
	DB	029H
	DB	04aH
	DB	049H
	DB	04aH
	DB	049H
	DB	04aH
	DB	049H
	DB	04aH
	DB	029H
	DB	04aH
	DB	049H
	DB	04aH
	DB	029H
	DB	04aH
	DB	049H
	DB	04aH
	DB	049H
	DB	04aH
	DB	029H
	DB	04aH
	DB	049H
	DB	04aH
	DB	049H
	DB	042H
	DB	029H
	DB	04aH
	DB	049H
	DB	04aH
	DB	048H
	DB	04aH
	DB	049H
	DB	04aH
	DB	029H
	DB	04aH
	DB	049H
	DB	04aH
	DB	049H
	DB	04aH
	DB	049H
	DB	04aH
	DB	049H
	DB	04aH
	DB	049H
	DB	04aH
	DB	049H
	DB	04aH
	DB	029H
	DB	04aH
	DB	049H
	DB	04aH
	DB	049H
	DB	04aH
	DB	049H
	DB	042H
	DB	029H
	DB	04aH
	DB	049H
	DB	04aH
	DB	028H
	DB	04aH
	DB	049H
	DB	04aH
	DB	029H
	DB	04aH
	DB	049H
	DB	04aH
	DB	049H
	DB	04aH
	DB	029H
	DB	04aH
	DB	049H
	DB	04aH
	DB	049H
	DB	04aH
	DB	049H
	DB	04aH
	DB	049H
	DB	04aH
	DB	049H
	DB	04aH
	DB	029H
	DB	04aH
	DB	049H
	DB	042H
	DB	049H
	DB	04aH
	DB	049H
	DB	04aH
	DB	048H
	DB	04aH
	DB	049H
	DB	04aH
	DB	049H
	DB	04aH
	DB	029H
	DB	04aH
	DB	049H
	DB	04aH
	DB	049H
	DB	04aH
	DB	049H
	DB	04aH
	DB	029H
	DB	04aH
	DB	049H
	DB	04aH
	DB	029H
	DB	04aH
	DB	049H
	DB	04aH
	DB	029H
	DB	04aH
	DB	049H
	DB	042H
	DB	049H
	DB	04aH
	DB	029H
	DB	04aH
	DB	048H
	DB	04aH
	DB	049H
	DB	04aH
	DB	049H
	DB	04aH
	DB	049H
	DB	04aH
	DB	049H
	DB	04aH
	DB	029H
	DB	04aH
	DB	049H
	DB	04aH
	DB	049H
	DB	04aH
	DB	049H
	DB	04aH
	DB	049H
	DB	04aH
	DB	049H
	DB	04aH
	DB	049H
	DB	04aH
	DB	029H
	DB	042H
	DB	049H
	DB	04aH
	DB	049H
	DB	04aH
	DB	048H
	DB	04aH
	DB	029H
	DB	04aH
	DB	049H
	DB	04aH
	DB	029H
	DB	04aH
	DB	049H
	DB	04aH
	DB	029H
	DB	04aH
	DB	049H
	DB	04aH
	DB	049H
	DB	04aH
	DB	029H
	DB	04aH
	DB	049H
	DB	04aH
	DB	049H
	DB	04aH
	DB	049H
	DB	04aH
	DB	049H
	DB	042H
	DB	029H
	DB	04aH
	DB	049H
	DB	04aH
	DB	048H
	DB	04aH
	DB	049H
	DB	04aH
	DB	049H
	DB	04aH
	DB	029H
	DB	04aH
	DB	049H
	DB	04aH
	DB	049H
	DB	04aH
	DB	049H
	DB	04aH
	DB	049H
	DB	04aH
	DB	049H
	DB	04aH
	DB	049H
	DB	04aH
	DB	049H
	DB	04aH
	DB	049H
	DB	04aH
	DB	029H
	DB	042H
	DB	049H
	DB	04aH
	DB	049H
	DB	04aH
	DB	049H
	DB	04aH
	DB	049H
	DB	04aH
	DB	048H
	DB	04aH
	DB	049H
	DB	04aH
	DB	049H
	DB	04aH
	DB	029H
	DB	042H
	DB	049H
	DB	04aH
	DB	055H
	DB	0adH
	DB	055H
	DB	0adH
	DB	049H
	DB	04aH
	DB	049H
	DB	04aH
	DB	049H
	DB	04aH
	DB	029H
	DB	04aH
	DB	049H
	DB	04aH
	DB	029H
	DB	04aH
	DB	048H
	DB	04aH
	DB	049H
	DB	04aH
	DB	049H
	DB	04aH
	DB	049H
	DB	04aH
	DB	029H
	DB	04aH
	DB	049H
	DB	04aH
	DB	049H
	DB	04aH
	DB	029H
	DB	04aH
	DB	049H
	DB	04aH
	DB	029H
	DB	04aH
	DB	049H
	DB	04aH
	DB	049H
	DB	04aH
	DB	048H
	DB	042H
	DB	049H
	DB	04aH
	DB	049H
	DB	04aH
	DB	029H
	DB	042H
	DB	049H
	DB	04aH
	DB	049H
	DB	04aH
	DB	048H
	DB	04aH
	DB	049H
	DB	042H
	DB	029H
	DB	04aH
	DB	029H
	DB	04aH
	DB	048H
	DB	042H
	DB	049H
	DB	04aH
	DB	029H
	DB	04aH
	DB	048H
	DB	04aH
	DB	049H
	DB	04aH
	DB	029H
	DB	04aH
	DB	049H
	DB	04aH
	DB	029H
	DB	04aH
	DB	049H
	DB	04aH
	DB	049H
	DB	04aH
	DB	049H
	DB	04aH
	DB	049H
	DB	042H
	DB	049H
	DB	04aH
	DB	049H
	DB	04aH
	DB	028H
	DB	042H
	DB	049H
	DB	04aH
	DB	049H
	DB	04aH
	DB	048H
	DB	04aH
	DB	049H
	DB	04aH
	DB	049H
	DB	04aH
	DB	049H
	DB	04aH
	DB	029H
	DB	04aH
	DB	049H
	DB	04aH
	DB	049H
	DB	04aH
	DB	049H
	DB	04aH
	DB	029H
	DB	04aH
	DB	049H
	DB	042H
	DB	049H
	DB	04aH
	DB	049H
	DB	04aH
	DB	048H
	DB	042H
	DB	049H
	DB	04aH
	DB	029H
	DB	04aH
	DB	048H
	DB	04aH
	DB	049H
	DB	04aH
	DB	049H
	DB	04aH
	DB	049H
	DB	04aH
	DB	049H
	DB	04aH
	DB	049H
	DB	04aH
	DB	049H
	DB	04aH
	DB	029H
	DB	04aH
	DB	049H
	DB	04aH
	DB	049H
	DB	042H
	DB	029H
	DB	04aH
	DB	049H
	DB	04aH
	DB	028H
	DB	042H
	DB	049H
	DB	04aH
	DB	049H
	DB	04aH
	DB	048H
	DB	04aH
	DB	029H
	DB	04aH
	DB	049H
	DB	04aH
	DB	049H
	DB	04aH
	DB	049H
	DB	04aH
	DB	049H
	DB	04aH
	DB	049H
	DB	04aH
	DB	029H
	DB	04aH
	DB	049H
	DB	04aH
	DB	049H
	DB	042H
	DB	049H
	DB	04aH
	DB	049H
	DB	04aH
	DB	028H
	DB	042H
	DB	049H
	DB	04aH
	DB	029H
	DB	04aH
	DB	048H
	DB	04aH
	DB	049H
	DB	04aH
	DB	049H
	DB	04aH
	DB	029H
	DB	04aH
	DB	049H
	DB	04aH
	DB	049H
	DB	04aH
	DB	029H
	DB	04aH
	DB	049H
	DB	04aH
	DB	049H
	DB	04aH
	DB	049H
	DB	042H
	DB	029H
	DB	04aH
	DB	049H
	DB	04aH
	DB	048H
	DB	042H
	DB	049H
	DB	04aH
	DB	049H
	DB	04aH
	DB	048H
	DB	04aH
	DB	029H
	DB	04aH
	DB	049H
	DB	04aH
	DB	049H
	DB	04aH
	DB	049H
	DB	04aH
	DB	049H
	DB	04aH
	DB	029H
	DB	04aH
	DB	049H
	DB	04aH
	DB	029H
	DB	04aH
	DB	049H
	DB	042H
	DB	049H
	DB	04aH
	DB	049H
	DB	04aH
	DB	028H
	DB	042H
	DB	049H
	DB	04aH
	DB	049H
	DB	04aH
	DB	028H
	DB	04aH
	DB	049H
	DB	04aH
	DB	049H
	DB	04aH
	DB	049H
	DB	04aH
	DB	029H
	DB	04aH
	DB	049H
	DB	04aH
	DB	049H
	DB	04aH
	DB	049H
	DB	04aH
	DB	049H
	DB	04aH
	DB	049H
	DB	042H
	DB	029H
	DB	04aH
	DB	049H
	DB	04aH
	DB	048H
	DB	042H
	DB	049H
	DB	04aH
	DB	049H
	DB	04aH
	DB	028H
	DB	04aH
	DB	049H
	DB	04aH
	DB	049H
	DB	04aH
	DB	029H
	DB	04aH
	DB	049H
	DB	04aH
	DB	049H
	DB	04aH
	DB	029H
	DB	04aH
	DB	049H
	DB	04aH
	DB	049H
	DB	04aH
	DB	049H
	DB	042H
	DB	029H
	DB	04aH
	DB	049H
	DB	04aH
	DB	048H
	DB	042H
	DB	029H
	DB	04aH
	DB	049H
	DB	04aH
	DB	028H
	DB	04aH
	DB	049H
	DB	04aH
	DB	049H
	DB	04aH
	DB	048H
	DB	04aH
	DB	029H
	DB	04aH
	DB	049H
	DB	04aH
	DB	049H
	DB	04aH
	DB	029H
	DB	04aH
	DB	029H
	DB	042H
	DB	049H
	DB	04aH
	DB	049H
	DB	04aH
	DB	049H
	DB	04aH
	DB	049H
	DB	04aH
	DB	055H
	DB	0adH
	DB	055H
	DB	0adH
	DB	049H
	DB	04aH
	DB	028H
	DB	04aH
	DB	049H
	DB	04aH
	DB	049H
	DB	04aH
	DB	049H
	DB	04aH
	DB	049H
	DB	04aH
	DB	029H
	DB	04aH
	DB	049H
	DB	04aH
	DB	049H
	DB	04aH
	DB	028H
	DB	042H
	DB	049H
	DB	04aH
	DB	049H
	DB	04aH
	DB	049H
	DB	042H
	DB	049H
	DB	04aH
	DB	029H
	DB	04aH
	DB	049H
	DB	042H
	DB	049H
	DB	04aH
	DB	029H
	DB	04aH
	DB	049H
	DB	04aH
	DB	049H
	DB	04aH
	DB	029H
	DB	04aH
	DB	049H
	DB	04aH
	DB	049H
	DB	04aH
	DB	029H
	DB	04aH
	DB	049H
	DB	04aH
	DB	049H
	DB	04aH
	DB	049H
	DB	04aH
	DB	049H
	DB	04aH
	DB	049H
	DB	04aH
	DB	029H
	DB	04aH
	DB	049H
	DB	04aH
	DB	049H
	DB	042H
	DB	049H
	DB	04aH
	DB	049H
	DB	04aH
	DB	048H
	DB	04aH
	DB	029H
	DB	04aH
	DB	049H
	DB	042H
	DB	029H
	DB	04aH
	DB	029H
	DB	04aH
	DB	048H
	DB	04aH
	DB	049H
	DB	04aH
	DB	029H
	DB	04aH
	DB	049H
	DB	04aH
	DB	049H
	DB	04aH
	DB	049H
	DB	042H
	DB	029H
	DB	04aH
	DB	049H
	DB	04aH
	DB	048H
	DB	042H
	DB	029H
	DB	04aH
	DB	049H
	DB	04aH
	DB	048H
	DB	04aH
	DB	049H
	DB	042H
	DB	049H
	DB	04aH
	DB	049H
	DB	04aH
	DB	028H
	DB	04aH
	DB	049H
	DB	04aH
	DB	049H
	DB	04aH
	DB	029H
	DB	04aH
	DB	049H
	DB	04aH
	DB	049H
	DB	042H
	DB	049H
	DB	04aH
	DB	029H
	DB	04aH
	DB	048H
	DB	042H
	DB	029H
	DB	04aH
	DB	049H
	DB	04aH
	DB	048H
	DB	04aH
	DB	029H
	DB	042H
	DB	049H
	DB	04aH
	DB	049H
	DB	04aH
	DB	048H
	DB	04aH
	DB	049H
	DB	04aH
	DB	049H
	DB	04aH
	DB	049H
	DB	04aH
	DB	029H
	DB	04aH
	DB	049H
	DB	042H
	DB	049H
	DB	04aH
	DB	049H
	DB	04aH
	DB	028H
	DB	042H
	DB	049H
	DB	04aH
	DB	049H
	DB	04aH
	DB	028H
	DB	04aH
	DB	049H
	DB	042H
	DB	049H
	DB	04aH
	DB	049H
	DB	04aH
	DB	028H
	DB	04aH
	DB	049H
	DB	04aH
	DB	049H
	DB	04aH
	DB	049H
	DB	04aH
	DB	049H
	DB	04aH
	DB	029H
	DB	042H
	DB	049H
	DB	04aH
	DB	049H
	DB	04aH
	DB	048H
	DB	042H
	DB	049H
	DB	04aH
	DB	029H
	DB	04aH
	DB	048H
	DB	04aH
	DB	049H
	DB	042H
	DB	029H
	DB	04aH
	DB	049H
	DB	04aH
	DB	048H
	DB	04aH
	DB	049H
	DB	04aH
	DB	029H
	DB	04aH
	DB	049H
	DB	04aH
	DB	049H
	DB	04aH
	DB	029H
	DB	042H
	DB	049H
	DB	04aH
	DB	049H
	DB	04aH
	DB	048H
	DB	042H
	DB	029H
	DB	04aH
	DB	049H
	DB	04aH
	DB	048H
	DB	04aH
	DB	049H
	DB	042H
	DB	049H
	DB	04aH
	DB	029H
	DB	04aH
	DB	048H
	DB	04aH
	DB	049H
	DB	04aH
	DB	049H
	DB	04aH
	DB	049H
	DB	04aH
	DB	029H
	DB	04aH
	DB	049H
	DB	042H
	DB	049H
	DB	04aH
	DB	029H
	DB	04aH
	DB	048H
	DB	042H
	DB	049H
	DB	04aH
	DB	049H
	DB	04aH
	DB	028H
	DB	04aH
	DB	049H
	DB	042H
	DB	049H
	DB	04aH
	DB	029H
	DB	04aH
	DB	048H
	DB	04aH
	DB	049H
	DB	04aH
	DB	049H
	DB	04aH
	DB	029H
	DB	04aH
	DB	049H
	DB	04aH
	DB	049H
	DB	042H
	DB	049H
	DB	04aH
	DB	029H
	DB	04aH
	DB	048H
	DB	042H
	DB	049H
	DB	04aH
	DB	049H
	DB	04aH
	DB	048H
	DB	04aH
	DB	029H
	DB	042H
	DB	049H
	DB	04aH
	DB	049H
	DB	04aH
	DB	048H
	DB	04aH
	DB	049H
	DB	04aH
	DB	029H
	DB	04aH
	DB	049H
	DB	04aH
	DB	049H
	DB	04aH
	DB	029H
	DB	042H
	DB	049H
	DB	04aH
	DB	049H
	DB	04aH
	DB	029H
	DB	042H
	DB	049H
	DB	04aH
	DB	049H
	DB	04aH
	DB	029H
	DB	042H
	DB	048H
	DB	04aH
	DB	049H
	DB	04aH
	DB	049H
	DB	04aH
	DB	029H
	DB	04aH
	DB	049H
	DB	04aH
	DB	048H
	DB	04aH
	DB	049H
	DB	04aH
	DB	035H
	DB	0adH
	DB	055H
	DB	0adH
	DB	049H
	DB	04aH
	DB	049H
	DB	04aH
	DB	049H
	DB	042H
	DB	029H
	DB	04aH
	DB	048H
	DB	04aH
	DB	049H
	DB	042H
	DB	049H
	DB	04aH
	DB	029H
	DB	04aH
	DB	049H
	DB	04aH
	DB	049H
	DB	04aH
	DB	049H
	DB	04aH
	DB	029H
	DB	04aH
	DB	048H
	DB	04aH
	DB	049H
	DB	04aH
	DB	049H
	DB	04aH
	DB	048H
	DB	04aH
	DB	049H
	DB	04aH
	DB	029H
	DB	04aH
	DB	049H
	DB	04aH
	DB	049H
	DB	04aH
	DB	048H
	DB	04aH
	DB	049H
	DB	04aH
	DB	049H
	DB	042H
	DB	028H
	DB	04aH
	DB	049H
	DB	04aH
	DB	049H
	DB	04aH
	DB	028H
	DB	04aH
	DB	049H
	DB	04aH
	DB	049H
	DB	04aH
	DB	049H
	DB	04aH
	DB	029H
	DB	04aH
	DB	049H
	DB	04aH
	DB	049H
	DB	04aH
	DB	029H
	DB	04aH
	DB	049H
	DB	04aH
	DB	049H
	DB	04aH
	DB	049H
	DB	04aH
	DB	049H
	DB	04aH
	DB	049H
	DB	04aH
	DB	049H
	DB	04aH
	DB	029H
	DB	04aH
	DB	049H
	DB	04aH
	DB	049H
	DB	04aH
	DB	049H
	DB	04aH
	DB	029H
	DB	04aH
	DB	049H
	DB	04aH
	DB	049H
	DB	04aH
	DB	029H
	DB	04aH
	DB	049H
	DB	04aH
	DB	049H
	DB	04aH
	DB	029H
	DB	04aH
	DB	029H
	DB	04aH
	DB	049H
	DB	04aH
	DB	049H
	DB	04aH
	DB	049H
	DB	04aH
	DB	029H
	DB	04aH
	DB	049H
	DB	04aH
	DB	049H
	DB	04aH
	DB	029H
	DB	04aH
	DB	049H
	DB	04aH
	DB	049H
	DB	04aH
	DB	049H
	DB	04aH
	DB	029H
	DB	04aH
	DB	049H
	DB	04aH
	DB	049H
	DB	04aH
	DB	029H
	DB	04aH
	DB	049H
	DB	04aH
	DB	049H
	DB	04aH
	DB	049H
	DB	04aH
	DB	029H
	DB	04aH
	DB	049H
	DB	04aH
	DB	049H
	DB	04aH
	DB	049H
	DB	04aH
	DB	029H
	DB	04aH
	DB	049H
	DB	04aH
	DB	049H
	DB	04aH
	DB	049H
	DB	04aH
	DB	049H
	DB	04aH
	DB	029H
	DB	04aH
	DB	049H
	DB	04aH
	DB	049H
	DB	04aH
	DB	029H
	DB	04aH
	DB	049H
	DB	04aH
	DB	049H
	DB	04aH
	DB	029H
	DB	04aH
	DB	049H
	DB	04aH
	DB	049H
	DB	04aH
	DB	029H
	DB	04aH
	DB	049H
	DB	04aH
	DB	049H
	DB	04aH
	DB	029H
	DB	04aH
	DB	049H
	DB	04aH
	DB	049H
	DB	04aH
	DB	029H
	DB	04aH
	DB	049H
	DB	04aH
	DB	049H
	DB	04aH
	DB	049H
	DB	04aH
	DB	049H
	DB	04aH
	DB	029H
	DB	04aH
	DB	049H
	DB	04aH
	DB	049H
	DB	04aH
	DB	049H
	DB	04aH
	DB	029H
	DB	04aH
	DB	049H
	DB	04aH
	DB	049H
	DB	04aH
	DB	029H
	DB	04aH
	DB	049H
	DB	04aH
	DB	049H
	DB	04aH
	DB	029H
	DB	04aH
	DB	049H
	DB	04aH
	DB	049H
	DB	04aH
	DB	029H
	DB	04aH
	DB	049H
	DB	04aH
	DB	049H
	DB	04aH
	DB	029H
	DB	04aH
	DB	049H
	DB	04aH
	DB	049H
	DB	04aH
	DB	029H
	DB	04aH
	DB	049H
	DB	04aH
	DB	049H
	DB	04aH
	DB	049H
	DB	04aH
	DB	049H
	DB	04aH
	DB	029H
	DB	04aH
	DB	049H
	DB	04aH
	DB	049H
	DB	04aH
	DB	049H
	DB	04aH
	DB	029H
	DB	04aH
	DB	049H
	DB	04aH
	DB	049H
	DB	04aH
	DB	029H
	DB	04aH
	DB	049H
	DB	04aH
	DB	049H
	DB	04aH
	DB	029H
	DB	04aH
	DB	049H
	DB	04aH
	DB	049H
	DB	04aH
	DB	049H
	DB	04aH
	DB	049H
	DB	04aH
	DB	029H
	DB	04aH
	DB	049H
	DB	04aH
	DB	049H
	DB	04aH
	DB	029H
	DB	04aH
	DB	049H
	DB	04aH
	DB	049H
	DB	04aH
	DB	029H
	DB	04aH
	DB	049H
	DB	04aH
	DB	049H
	DB	04aH
	DB	049H
	DB	04aH
	DB	049H
	DB	04aH
	DB	049H
	DB	04aH
	DB	049H
	DB	04aH
	DB	049H
	DB	04aH
	DB	048H
	DB	04aH
	DB	049H
	DB	04aH
	DB	049H
	DB	04aH
	DB	049H
	DB	04aH
	DB	049H
	DB	04aH
	DB	049H
	DB	04aH
	DB	049H
	DB	04aH
	DB	049H
	DB	04aH
	DB	048H
	DB	04aH
	DB	029H
	DB	042H
	DB	049H
	DB	04aH
	DB	049H
	DB	04aH
	DB	055H
	DB	0adH
	DB	055H
	DB	0adH
	DB	049H
	DB	04aH
	DB	049H
	DB	04aH
	DB	049H
	DB	04aH
	DB	029H
	DB	04aH
	DB	049H
	DB	04aH
	DB	049H
	DB	04aH
	DB	049H
	DB	04aH
	DB	048H
	DB	042H
	DB	029H
	DB	04aH
	DB	049H
	DB	04aH
	DB	049H
	DB	04aH
	DB	049H
	DB	04aH
	DB	029H
	DB	04aH
	DB	049H
	DB	04aH
	DB	029H
	DB	04aH
	DB	049H
	DB	04aH
	DB	049H
	DB	04aH
	DB	048H
	DB	042H
	DB	029H
	DB	04aH
	DB	049H
	DB	04aH
	DB	049H
	DB	042H
	DB	029H
	DB	04aH
	DB	049H
	DB	04aH
	DB	049H
	DB	04aH
	DB	049H
	DB	04aH
	DB	049H
	DB	042H
	DB	029H
	DB	04aH
	DB	049H
	DB	04aH
	DB	049H
	DB	042H
	DB	048H
	DB	04aH
	DB	029H
	DB	04aH
	DB	049H
	DB	04aH
	DB	048H
	DB	042H
	DB	029H
	DB	04aH
	DB	049H
	DB	04aH
	DB	049H
	DB	042H
	DB	028H
	DB	04aH
	DB	049H
	DB	04aH
	DB	049H
	DB	042H
	DB	049H
	DB	04aH
	DB	049H
	DB	04aH
	DB	048H
	DB	042H
	DB	049H
	DB	04aH
	DB	029H
	DB	04aH
	DB	048H
	DB	04aH
	DB	049H
	DB	04aH
	DB	049H
	DB	04aH
	DB	049H
	DB	04aH
	DB	049H
	DB	04aH
	DB	049H
	DB	042H
	DB	049H
	DB	04aH
	DB	049H
	DB	04aH
	DB	028H
	DB	04aH
	DB	049H
	DB	042H
	DB	049H
	DB	04aH
	DB	049H
	DB	04aH
	DB	048H
	DB	042H
	DB	049H
	DB	04aH
	DB	049H
	DB	04aH
	DB	028H
	DB	04aH
	DB	049H
	DB	04aH
	DB	049H
	DB	04aH
	DB	049H
	DB	04aH
	DB	049H
	DB	04aH
	DB	049H
	DB	042H
	DB	049H
	DB	04aH
	DB	049H
	DB	04aH
	DB	048H
	DB	04aH
	DB	029H
	DB	042H
	DB	049H
	DB	04aH
	DB	029H
	DB	04aH
	DB	048H
	DB	042H
	DB	049H
	DB	04aH
	DB	049H
	DB	04aH
	DB	028H
	DB	04aH
	DB	049H
	DB	04aH
	DB	049H
	DB	04aH
	DB	029H
	DB	04aH
	DB	049H
	DB	04aH
	DB	049H
	DB	042H
	DB	049H
	DB	04aH
	DB	049H
	DB	04aH
	DB	048H
	DB	04aH
	DB	049H
	DB	042H
	DB	049H
	DB	04aH
	DB	049H
	DB	04aH
	DB	028H
	DB	042H
	DB	049H
	DB	04aH
	DB	049H
	DB	04aH
	DB	048H
	DB	04aH
	DB	049H
	DB	04aH
	DB	029H
	DB	04aH
	DB	049H
	DB	04aH
	DB	049H
	DB	04aH
	DB	049H
	DB	042H
	DB	029H
	DB	04aH
	DB	049H
	DB	04aH
	DB	048H
	DB	04aH
	DB	049H
	DB	042H
	DB	029H
	DB	04aH
	DB	049H
	DB	04aH
	DB	048H
	DB	042H
	DB	049H
	DB	04aH
	DB	049H
	DB	04aH
	DB	048H
	DB	04aH
	DB	049H
	DB	04aH
	DB	049H
	DB	04aH
	DB	049H
	DB	04aH
	DB	049H
	DB	04aH
	DB	049H
	DB	042H
	DB	029H
	DB	04aH
	DB	049H
	DB	04aH
	DB	048H
	DB	04aH
	DB	049H
	DB	042H
	DB	049H
	DB	04aH
	DB	029H
	DB	04aH
	DB	048H
	DB	042H
	DB	049H
	DB	04aH
	DB	049H
	DB	04aH
	DB	028H
	DB	04aH
	DB	049H
	DB	04aH
	DB	049H
	DB	04aH
	DB	049H
	DB	04aH
	DB	029H
	DB	04aH
	DB	049H
	DB	042H
	DB	049H
	DB	04aH
	DB	049H
	DB	04aH
	DB	048H
	DB	04aH
	DB	049H
	DB	042H
	DB	049H
	DB	04aH
	DB	049H
	DB	04aH
	DB	048H
	DB	042H
	DB	049H
	DB	04aH
	DB	029H
	DB	04aH
	DB	048H
	DB	04aH
	DB	049H
	DB	04aH
	DB	029H
	DB	04aH
	DB	049H
	DB	04aH
	DB	049H
	DB	04aH
	DB	049H
	DB	042H
	DB	049H
	DB	04aH
	DB	049H
	DB	04aH
	DB	048H
	DB	04aH
	DB	029H
	DB	042H
	DB	049H
	DB	04aH
	DB	029H
	DB	04aH
	DB	048H
	DB	042H
	DB	029H
	DB	04aH
	DB	049H
	DB	04aH
	DB	028H
	DB	04aH
	DB	049H
	DB	04aH
	DB	029H
	DB	04aH
	DB	049H
	DB	04aH
	DB	029H
	DB	04aH
	DB	048H
	DB	04aH
	DB	049H
	DB	04aH
	DB	029H
	DB	04aH
	DB	029H
	DB	042H
	DB	049H
	DB	04aH
	DB	049H
	DB	04aH
	DB	049H
	DB	04aH
	DB	029H
	DB	04aH
	DB	049H
	DB	04aH
	DB	055H
	DB	0adH
	DB	035H
	DB	0adH
	DB	049H
	DB	04aH
	DB	049H
	DB	04aH
	DB	029H
	DB	04aH
	DB	048H
	DB	04aH
	DB	049H
	DB	04aH
	DB	029H
	DB	04aH
	DB	049H
	DB	04aH
	DB	049H
	DB	04aH
	DB	049H
	DB	04aH
	DB	029H
	DB	04aH
	DB	048H
	DB	042H
	DB	049H
	DB	04aH
	DB	049H
	DB	04aH
	DB	049H
	DB	042H
	DB	049H
	DB	04aH
	DB	029H
	DB	04aH
	DB	049H
	DB	04aH
	DB	049H
	DB	04aH
	DB	029H
	DB	04aH
	DB	049H
	DB	04aH
	DB	049H
	DB	04aH
	DB	029H
	DB	04aH
	DB	049H
	DB	04aH
	DB	049H
	DB	04aH
	DB	029H
	DB	04aH
	DB	049H
	DB	04aH
	DB	049H
	DB	04aH
	DB	029H
	DB	04aH
	DB	049H
	DB	04aH
	DB	049H
	DB	04aH
	DB	049H
	DB	04aH
	DB	049H
	DB	04aH
	DB	049H
	DB	04aH
	DB	049H
	DB	04aH
	DB	049H
	DB	04aH
	DB	049H
	DB	04aH
	DB	029H
	DB	04aH
	DB	049H
	DB	04aH
	DB	048H
	DB	04aH
	DB	029H
	DB	04aH
	DB	049H
	DB	04aH
	DB	049H
	DB	04aH
	DB	029H
	DB	04aH
	DB	049H
	DB	042H
	DB	049H
	DB	04aH
	DB	029H
	DB	04aH
	DB	048H
	DB	042H
	DB	049H
	DB	04aH
	DB	029H
	DB	04aH
	DB	048H
	DB	04aH
	DB	049H
	DB	04aH
	DB	049H
	DB	04aH
	DB	049H
	DB	04aH
	DB	029H
	DB	04aH
	DB	049H
	DB	04aH
	DB	049H
	DB	04aH
	DB	029H
	DB	04aH
	DB	049H
	DB	04aH
	DB	049H
	DB	042H
	DB	049H
	DB	04aH
	DB	029H
	DB	04aH
	DB	048H
	DB	042H
	DB	049H
	DB	04aH
	DB	029H
	DB	04aH
	DB	048H
	DB	04aH
	DB	029H
	DB	04aH
	DB	049H
	DB	04aH
	DB	049H
	DB	04aH
	DB	049H
	DB	04aH
	DB	049H
	DB	04aH
	DB	049H
	DB	04aH
	DB	029H
	DB	04aH
	DB	049H
	DB	04aH
	DB	049H
	DB	042H
	DB	049H
	DB	04aH
	DB	029H
	DB	04aH
	DB	048H
	DB	042H
	DB	049H
	DB	04aH
	DB	049H
	DB	04aH
	DB	028H
	DB	04aH
	DB	049H
	DB	04aH
	DB	049H
	DB	04aH
	DB	029H
	DB	04aH
	DB	049H
	DB	04aH
	DB	049H
	DB	04aH
	DB	029H
	DB	04aH
	DB	049H
	DB	04aH
	DB	049H
	DB	04aH
	DB	049H
	DB	042H
	DB	029H
	DB	04aH
	DB	049H
	DB	04aH
	DB	048H
	DB	042H
	DB	049H
	DB	04aH
	DB	049H
	DB	04aH
	DB	028H
	DB	04aH
	DB	049H
	DB	04aH
	DB	049H
	DB	04aH
	DB	029H
	DB	04aH
	DB	049H
	DB	04aH
	DB	049H
	DB	04aH
	DB	029H
	DB	04aH
	DB	049H
	DB	04aH
	DB	049H
	DB	04aH
	DB	029H
	DB	042H
	DB	049H
	DB	04aH
	DB	029H
	DB	04aH
	DB	048H
	DB	042H
	DB	029H
	DB	04aH
	DB	049H
	DB	04aH
	DB	048H
	DB	04aH
	DB	049H
	DB	04aH
	DB	049H
	DB	04aH
	DB	029H
	DB	04aH
	DB	049H
	DB	04aH
	DB	049H
	DB	04aH
	DB	049H
	DB	04aH
	DB	029H
	DB	04aH
	DB	049H
	DB	04aH
	DB	049H
	DB	042H
	DB	029H
	DB	04aH
	DB	049H
	DB	04aH
	DB	048H
	DB	042H
	DB	029H
	DB	04aH
	DB	049H
	DB	04aH
	DB	048H
	DB	04aH
	DB	029H
	DB	04aH
	DB	049H
	DB	04aH
	DB	029H
	DB	04aH
	DB	049H
	DB	04aH
	DB	049H
	DB	04aH
	DB	029H
	DB	04aH
	DB	049H
	DB	04aH
	DB	049H
	DB	04aH
	DB	029H
	DB	042H
	DB	049H
	DB	04aH
	DB	049H
	DB	04aH
	DB	048H
	DB	042H
	DB	029H
	DB	04aH
	DB	049H
	DB	04aH
	DB	028H
	DB	04aH
	DB	049H
	DB	04aH
	DB	049H
	DB	04aH
	DB	029H
	DB	04aH
	DB	049H
	DB	04aH
	DB	049H
	DB	04aH
	DB	049H
	DB	04aH
	DB	049H
	DB	04aH
	DB	049H
	DB	04aH
	DB	029H
	DB	042H
	DB	049H
	DB	04aH
	DB	049H
	DB	04aH
	DB	049H
	DB	042H
	DB	029H
	DB	04aH
	DB	049H
	DB	04aH
	DB	049H
	DB	042H
	DB	029H
	DB	04aH
	DB	049H
	DB	04aH
	DB	048H
	DB	04aH
	DB	049H
	DB	04aH
	DB	029H
	DB	04aH
	DB	049H
	DB	04aH
	DB	049H
	DB	04aH
	DB	049H
	DB	04aH
	DB	055H
	DB	0adH
	DB	055H
	DB	0adH
	DB	049H
	DB	04aH
	DB	049H
	DB	04aH
	DB	049H
	DB	04aH
	DB	049H
	DB	042H
	DB	049H
	DB	04aH
	DB	029H
	DB	04aH
	DB	049H
	DB	042H
	DB	049H
	DB	04aH
	DB	049H
	DB	04aH
	DB	049H
	DB	04aH
	DB	029H
	DB	04aH
	DB	049H
	DB	04aH
	DB	048H
	DB	04aH
	DB	029H
	DB	04aH
	DB	049H
	DB	04aH
	DB	048H
	DB	042H
	DB	049H
	DB	04aH
	DB	049H
	DB	04aH
	DB	049H
	DB	04aH
	DB	048H
	DB	04aH
	DB	049H
	DB	04aH
	DB	049H
	DB	04aH
	DB	048H
	DB	042H
	DB	029H
	DB	04aH
	DB	049H
	DB	04aH
	DB	048H
	DB	04aH
	DB	049H
	DB	042H
	DB	049H
	DB	04aH
	DB	028H
	DB	04aH
	DB	049H
	DB	042H
	DB	049H
	DB	04aH
	DB	029H
	DB	04aH
	DB	049H
	DB	04aH
	DB	028H
	DB	04aH
	DB	049H
	DB	04aH
	DB	049H
	DB	04aH
	DB	049H
	DB	04aH
	DB	049H
	DB	04aH
	DB	029H
	DB	04aH
	DB	049H
	DB	04aH
	DB	049H
	DB	04aH
	DB	029H
	DB	04aH
	DB	049H
	DB	04aH
	DB	049H
	DB	04aH
	DB	049H
	DB	04aH
	DB	029H
	DB	04aH
	DB	049H
	DB	04aH
	DB	049H
	DB	04aH
	DB	029H
	DB	04aH
	DB	049H
	DB	04aH
	DB	029H
	DB	04aH
	DB	049H
	DB	042H
	DB	049H
	DB	04aH
	DB	049H
	DB	04aH
	DB	028H
	DB	04aH
	DB	049H
	DB	04aH
	DB	049H
	DB	04aH
	DB	029H
	DB	04aH
	DB	049H
	DB	04aH
	DB	049H
	DB	04aH
	DB	049H
	DB	04aH
	DB	029H
	DB	04aH
	DB	049H
	DB	04aH
	DB	049H
	DB	04aH
	DB	029H
	DB	04aH
	DB	049H
	DB	04aH
	DB	049H
	DB	042H
	DB	029H
	DB	04aH
	DB	049H
	DB	04aH
	DB	048H
	DB	04aH
	DB	049H
	DB	04aH
	DB	029H
	DB	04aH
	DB	049H
	DB	04aH
	DB	049H
	DB	04aH
	DB	029H
	DB	04aH
	DB	049H
	DB	04aH
	DB	049H
	DB	04aH
	DB	049H
	DB	04aH
	DB	029H
	DB	04aH
	DB	049H
	DB	04aH
	DB	049H
	DB	04aH
	DB	029H
	DB	042H
	DB	049H
	DB	04aH
	DB	049H
	DB	04aH
	DB	028H
	DB	04aH
	DB	049H
	DB	04aH
	DB	049H
	DB	04aH
	DB	049H
	DB	04aH
	DB	029H
	DB	04aH
	DB	049H
	DB	04aH
	DB	049H
	DB	04aH
	DB	029H
	DB	04aH
	DB	049H
	DB	04aH
	DB	049H
	DB	04aH
	DB	029H
	DB	04aH
	DB	049H
	DB	04aH
	DB	049H
	DB	042H
	DB	049H
	DB	04aH
	DB	049H
	DB	04aH
	DB	048H
	DB	04aH
	DB	049H
	DB	04aH
	DB	029H
	DB	04aH
	DB	049H
	DB	04aH
	DB	049H
	DB	04aH
	DB	029H
	DB	04aH
	DB	049H
	DB	04aH
	DB	049H
	DB	04aH
	DB	049H
	DB	04aH
	DB	029H
	DB	04aH
	DB	049H
	DB	04aH
	DB	049H
	DB	04aH
	DB	029H
	DB	042H
	DB	049H
	DB	04aH
	DB	049H
	DB	04aH
	DB	048H
	DB	04aH
	DB	049H
	DB	04aH
	DB	049H
	DB	04aH
	DB	049H
	DB	04aH
	DB	049H
	DB	04aH
	DB	049H
	DB	04aH
	DB	049H
	DB	04aH
	DB	049H
	DB	04aH
	DB	029H
	DB	04aH
	DB	049H
	DB	04aH
	DB	049H
	DB	04aH
	DB	049H
	DB	04aH
	DB	029H
	DB	042H
	DB	049H
	DB	04aH
	DB	049H
	DB	04aH
	DB	028H
	DB	04aH
	DB	049H
	DB	04aH
	DB	049H
	DB	04aH
	DB	049H
	DB	04aH
	DB	049H
	DB	04aH
	DB	029H
	DB	04aH
	DB	049H
	DB	04aH
	DB	049H
	DB	04aH
	DB	049H
	DB	04aH
	DB	049H
	DB	04aH
	DB	029H
	DB	04aH
	DB	049H
	DB	04aH
	DB	049H
	DB	042H
	DB	049H
	DB	04aH
	DB	049H
	DB	04aH
	DB	048H
	DB	04aH
	DB	029H
	DB	04aH
	DB	049H
	DB	04aH
	DB	049H
	DB	04aH
	DB	049H
	DB	04aH
	DB	049H
	DB	04aH
	DB	049H
	DB	04aH
	DB	048H
	DB	04aH
	DB	049H
	DB	04aH
	DB	049H
	DB	04aH
	DB	049H
	DB	04aH
	DB	049H
	DB	04aH
	DB	049H
	DB	04aH
	DB	049H
	DB	04aH
	DB	049H
	DB	04aH
	DB	049H
	DB	042H
	DB	048H
	DB	04aH
	DB	049H
	DB	04aH
	DB	049H
	DB	04aH
	DB	055H
	DB	0adH
	DB	055H
	DB	0adH
	DB	049H
	DB	04aH
	DB	029H
	DB	04aH
	DB	049H
	DB	04aH
	DB	049H
	DB	04aH
	DB	029H
	DB	04aH
	DB	048H
	DB	04aH
	DB	049H
	DB	04aH
	DB	029H
	DB	04aH
	DB	048H
	DB	04aH
	DB	049H
	DB	04aH
	DB	029H
	DB	04aH
	DB	049H
	DB	042H
	DB	049H
	DB	04aH
	DB	029H
	DB	04aH
	DB	049H
	DB	04aH
	DB	049H
	DB	04aH
	DB	029H
	DB	04aH
	DB	049H
	DB	04aH
	DB	029H
	DB	042H
	DB	049H
	DB	04aH
	DB	029H
	DB	04aH
	DB	049H
	DB	04aH
	DB	049H
	DB	04aH
	DB	049H
	DB	04aH
	DB	049H
	DB	04aH
	DB	029H
	DB	04aH
	DB	049H
	DB	04aH
	DB	049H
	DB	04aH
	DB	049H
	DB	04aH
	DB	029H
	DB	04aH
	DB	049H
	DB	04aH
	DB	048H
	DB	042H
	DB	029H
	DB	04aH
	DB	049H
	DB	04aH
	DB	049H
	DB	042H
	DB	029H
	DB	04aH
	DB	048H
	DB	04aH
	DB	049H
	DB	042H
	DB	049H
	DB	04aH
	DB	049H
	DB	04aH
	DB	048H
	DB	042H
	DB	049H
	DB	04aH
	DB	029H
	DB	04aH
	DB	048H
	DB	04aH
	DB	049H
	DB	04aH
	DB	049H
	DB	04aH
	DB	049H
	DB	04aH
	DB	049H
	DB	042H
	DB	049H
	DB	04aH
	DB	049H
	DB	04aH
	DB	048H
	DB	04aH
	DB	029H
	DB	04aH
	DB	049H
	DB	04aH
	DB	049H
	DB	04aH
	DB	049H
	DB	042H
	DB	049H
	DB	04aH
	DB	049H
	DB	04aH
	DB	028H
	DB	042H
	DB	049H
	DB	04aH
	DB	049H
	DB	04aH
	DB	048H
	DB	04aH
	DB	049H
	DB	04aH
	DB	049H
	DB	042H
	DB	049H
	DB	04aH
	DB	049H
	DB	04aH
	DB	048H
	DB	04aH
	DB	049H
	DB	04aH
	DB	029H
	DB	04aH
	DB	049H
	DB	04aH
	DB	049H
	DB	042H
	DB	029H
	DB	04aH
	DB	049H
	DB	04aH
	DB	048H
	DB	042H
	DB	049H
	DB	04aH
	DB	049H
	DB	04aH
	DB	048H
	DB	04aH
	DB	029H
	DB	04aH
	DB	049H
	DB	042H
	DB	049H
	DB	04aH
	DB	049H
	DB	04aH
	DB	048H
	DB	04aH
	DB	049H
	DB	04aH
	DB	049H
	DB	04aH
	DB	049H
	DB	04aH
	DB	049H
	DB	042H
	DB	049H
	DB	04aH
	DB	029H
	DB	04aH
	DB	048H
	DB	042H
	DB	049H
	DB	04aH
	DB	049H
	DB	04aH
	DB	048H
	DB	04aH
	DB	029H
	DB	04aH
	DB	049H
	DB	042H
	DB	049H
	DB	04aH
	DB	049H
	DB	04aH
	DB	048H
	DB	04aH
	DB	029H
	DB	04aH
	DB	049H
	DB	04aH
	DB	029H
	DB	04aH
	DB	049H
	DB	042H
	DB	049H
	DB	04aH
	DB	049H
	DB	04aH
	DB	048H
	DB	042H
	DB	049H
	DB	04aH
	DB	049H
	DB	04aH
	DB	048H
	DB	04aH
	DB	049H
	DB	04aH
	DB	049H
	DB	042H
	DB	029H
	DB	04aH
	DB	049H
	DB	04aH
	DB	048H
	DB	04aH
	DB	049H
	DB	04aH
	DB	029H
	DB	04aH
	DB	049H
	DB	04aH
	DB	029H
	DB	042H
	DB	029H
	DB	04aH
	DB	049H
	DB	04aH
	DB	028H
	DB	042H
	DB	049H
	DB	04aH
	DB	029H
	DB	04aH
	DB	048H
	DB	04aH
	DB	049H
	DB	04aH
	DB	049H
	DB	042H
	DB	049H
	DB	04aH
	DB	049H
	DB	04aH
	DB	048H
	DB	04aH
	DB	049H
	DB	04aH
	DB	049H
	DB	04aH
	DB	049H
	DB	04aH
	DB	029H
	DB	042H
	DB	049H
	DB	04aH
	DB	049H
	DB	04aH
	DB	028H
	DB	042H
	DB	049H
	DB	04aH
	DB	049H
	DB	04aH
	DB	028H
	DB	04aH
	DB	049H
	DB	04aH
	DB	049H
	DB	042H
	DB	049H
	DB	04aH
	DB	049H
	DB	04aH
	DB	028H
	DB	04aH
	DB	049H
	DB	04aH
	DB	049H
	DB	04aH
	DB	029H
	DB	04aH
	DB	049H
	DB	042H
	DB	049H
	DB	04aH
	DB	029H
	DB	04aH
	DB	048H
	DB	042H
	DB	049H
	DB	04aH
	DB	029H
	DB	04aH
	DB	029H
	DB	04aH
	DB	049H
	DB	04aH
	DB	049H
	DB	04aH
	DB	029H
	DB	04aH
	DB	048H
	DB	04aH
	DB	029H
	DB	042H
	DB	049H
	DB	04aH
	DB	029H
	DB	04aH
	DB	029H
	DB	04aH
	DB	049H
	DB	04aH
	DB	029H
	DB	04aH
	DB	049H
	DB	04aH
	DB	049H
	DB	04aH
	DB	035H
	DB	0adH
	DB	055H
	DB	0adH
	DB	049H
	DB	04aH
	DB	049H
	DB	04aH
	DB	028H
	DB	04aH
	DB	049H
	DB	04aH
	DB	049H
	DB	04aH
	DB	049H
	DB	04aH
	DB	049H
	DB	04aH
	DB	029H
	DB	04aH
	DB	049H
	DB	042H
	DB	049H
	DB	04aH
	DB	049H
	DB	04aH
	DB	049H
	DB	04aH
	DB	049H
	DB	04aH
	DB	049H
	DB	04aH
	DB	049H
	DB	04aH
	DB	029H
	DB	04aH
	DB	048H
	DB	04aH
	DB	049H
	DB	04aH
	DB	049H
	DB	04aH
	DB	029H
	DB	04aH
	DB	049H
	DB	04aH
	DB	049H
	DB	042H
	DB	029H
	DB	04aH
	DB	049H
	DB	04aH
	DB	049H
	DB	042H
	DB	029H
	DB	04aH
	DB	049H
	DB	04aH
	DB	049H
	DB	04aH
	DB	029H
	DB	04aH
	DB	049H
	DB	04aH
	DB	049H
	DB	04aH
	DB	049H
	DB	04aH
	DB	049H
	DB	04aH
	DB	049H
	DB	04aH
	DB	049H
	DB	04aH
	DB	029H
	DB	04aH
	DB	049H
	DB	04aH
	DB	049H
	DB	04aH
	DB	029H
	DB	04aH
	DB	029H
	DB	04aH
	DB	049H
	DB	04aH
	DB	049H
	DB	04aH
	DB	049H
	DB	042H
	DB	029H
	DB	04aH
	DB	049H
	DB	04aH
	DB	048H
	DB	042H
	DB	029H
	DB	04aH
	DB	029H
	DB	04aH
	DB	048H
	DB	04aH
	DB	049H
	DB	04aH
	DB	049H
	DB	042H
	DB	029H
	DB	04aH
	DB	049H
	DB	04aH
	DB	048H
	DB	04aH
	DB	029H
	DB	04aH
	DB	049H
	DB	04aH
	DB	049H
	DB	04aH
	DB	049H
	DB	04aH
	DB	029H
	DB	04aH
	DB	049H
	DB	04aH
	DB	029H
	DB	04aH
	DB	049H
	DB	04aH
	DB	029H
	DB	04aH
	DB	049H
	DB	04aH
	DB	029H
	DB	04aH
	DB	049H
	DB	042H
	DB	049H
	DB	04aH
	DB	049H
	DB	04aH
	DB	028H
	DB	04aH
	DB	049H
	DB	04aH
	DB	049H
	DB	04aH
	DB	049H
	DB	04aH
	DB	029H
	DB	04aH
	DB	049H
	DB	04aH
	DB	049H
	DB	04aH
	DB	029H
	DB	04aH
	DB	049H
	DB	04aH
	DB	049H
	DB	04aH
	DB	029H
	DB	04aH
	DB	049H
	DB	04aH
	DB	029H
	DB	042H
	DB	049H
	DB	04aH
	DB	029H
	DB	04aH
	DB	028H
	DB	04aH
	DB	049H
	DB	04aH
	DB	049H
	DB	04aH
	DB	049H
	DB	04aH
	DB	029H
	DB	04aH
	DB	049H
	DB	04aH
	DB	049H
	DB	04aH
	DB	029H
	DB	04aH
	DB	049H
	DB	04aH
	DB	049H
	DB	04aH
	DB	029H
	DB	04aH
	DB	049H
	DB	04aH
	DB	049H
	DB	042H
	DB	049H
	DB	04aH
	DB	029H
	DB	04aH
	DB	048H
	DB	04aH
	DB	049H
	DB	04aH
	DB	029H
	DB	04aH
	DB	049H
	DB	04aH
	DB	029H
	DB	04aH
	DB	049H
	DB	04aH
	DB	029H
	DB	04aH
	DB	049H
	DB	04aH
	DB	029H
	DB	04aH
	DB	049H
	DB	04aH
	DB	049H
	DB	04aH
	DB	029H
	DB	04aH
	DB	049H
	DB	042H
	DB	049H
	DB	04aH
	DB	049H
	DB	04aH
	DB	048H
	DB	04aH
	DB	049H
	DB	04aH
	DB	049H
	DB	04aH
	DB	049H
	DB	04aH
	DB	049H
	DB	04aH
	DB	029H
	DB	04aH
	DB	049H
	DB	04aH
	DB	049H
	DB	04aH
	DB	029H
	DB	04aH
	DB	049H
	DB	04aH
	DB	029H
	DB	04aH
	DB	029H
	DB	04aH
	DB	049H
	DB	042H
	DB	049H
	DB	04aH
	DB	029H
	DB	04aH
	DB	048H
	DB	04aH
	DB	049H
	DB	04aH
	DB	049H
	DB	04aH
	DB	029H
	DB	04aH
	DB	049H
	DB	04aH
	DB	049H
	DB	04aH
	DB	049H
	DB	04aH
	DB	049H
	DB	04aH
	DB	029H
	DB	04aH
	DB	049H
	DB	04aH
	DB	049H
	DB	04aH
	DB	029H
	DB	04aH
	DB	049H
	DB	042H
	DB	049H
	DB	04aH
	DB	029H
	DB	04aH
	DB	048H
	DB	04aH
	DB	049H
	DB	04aH
	DB	049H
	DB	04aH
	DB	029H
	DB	04aH
	DB	049H
	DB	04aH
	DB	049H
	DB	04aH
	DB	049H
	DB	04aH
	DB	048H
	DB	042H
	DB	049H
	DB	04aH
	DB	029H
	DB	04aH
	DB	049H
	DB	042H
	DB	049H
	DB	04aH
	DB	049H
	DB	04aH
	DB	048H
	DB	04aH
	DB	049H
	DB	04aH
	DB	049H
	DB	042H
	DB	049H
	DB	04aH
	DB	049H
	DB	04aH
	DB	029H
	DB	04aH
	DB	049H
	DB	04aH
	DB	055H
	DB	0adH
	DB	055H
	DB	0adH
	DB	049H
	DB	04aH
	DB	049H
	DB	04aH
	DB	049H
	DB	04aH
	DB	029H
	DB	042H
	DB	049H
	DB	04aH
	DB	049H
	DB	04aH
	DB	029H
	DB	042H
	DB	049H
	DB	04aH
	DB	049H
	DB	04aH
	DB	028H
	DB	04aH
	DB	049H
	DB	04aH
	DB	029H
	DB	04aH
	DB	048H
	DB	04aH
	DB	049H
	DB	042H
	DB	029H
	DB	04aH
	DB	049H
	DB	04aH
	DB	049H
	DB	042H
	DB	049H
	DB	04aH
	DB	049H
	DB	04aH
	DB	048H
	DB	04aH
	DB	049H
	DB	04aH
	DB	049H
	DB	04aH
	DB	028H
	DB	04aH
	DB	049H
	DB	04aH
	DB	048H
	DB	04aH
	DB	049H
	DB	04aH
	DB	049H
	DB	04aH
	DB	048H
	DB	042H
	DB	049H
	DB	04aH
	DB	049H
	DB	04aH
	DB	028H
	DB	04aH
	DB	049H
	DB	04aH
	DB	049H
	DB	04aH
	DB	029H
	DB	04aH
	DB	048H
	DB	04aH
	DB	049H
	DB	042H
	DB	049H
	DB	04aH
	DB	049H
	DB	04aH
	DB	048H
	DB	04aH
	DB	049H
	DB	04aH
	DB	029H
	DB	04aH
	DB	049H
	DB	04aH
	DB	049H
	DB	04aH
	DB	049H
	DB	04aH
	DB	029H
	DB	04aH
	DB	049H
	DB	04aH
	DB	049H
	DB	04aH
	DB	049H
	DB	04aH
	DB	029H
	DB	04aH
	DB	049H
	DB	04aH
	DB	049H
	DB	04aH
	DB	049H
	DB	04aH
	DB	049H
	DB	04aH
	DB	029H
	DB	04aH
	DB	049H
	DB	04aH
	DB	029H
	DB	04aH
	DB	049H
	DB	04aH
	DB	049H
	DB	04aH
	DB	049H
	DB	04aH
	DB	049H
	DB	042H
	DB	049H
	DB	04aH
	DB	029H
	DB	04aH
	DB	048H
	DB	04aH
	DB	049H
	DB	04aH
	DB	049H
	DB	04aH
	DB	029H
	DB	04aH
	DB	049H
	DB	04aH
	DB	049H
	DB	04aH
	DB	049H
	DB	04aH
	DB	029H
	DB	04aH
	DB	049H
	DB	04aH
	DB	049H
	DB	04aH
	DB	029H
	DB	04aH
	DB	049H
	DB	04aH
	DB	049H
	DB	042H
	DB	049H
	DB	04aH
	DB	049H
	DB	04aH
	DB	048H
	DB	04aH
	DB	049H
	DB	04aH
	DB	029H
	DB	04aH
	DB	049H
	DB	04aH
	DB	049H
	DB	04aH
	DB	049H
	DB	04aH
	DB	049H
	DB	04aH
	DB	029H
	DB	04aH
	DB	049H
	DB	04aH
	DB	049H
	DB	04aH
	DB	049H
	DB	04aH
	DB	029H
	DB	04aH
	DB	049H
	DB	042H
	DB	049H
	DB	04aH
	DB	049H
	DB	04aH
	DB	048H
	DB	04aH
	DB	049H
	DB	04aH
	DB	029H
	DB	04aH
	DB	049H
	DB	04aH
	DB	049H
	DB	04aH
	DB	049H
	DB	04aH
	DB	049H
	DB	04aH
	DB	049H
	DB	04aH
	DB	049H
	DB	04aH
	DB	029H
	DB	04aH
	DB	049H
	DB	04aH
	DB	049H
	DB	04aH
	DB	049H
	DB	042H
	DB	029H
	DB	04aH
	DB	049H
	DB	04aH
	DB	048H
	DB	04aH
	DB	049H
	DB	04aH
	DB	049H
	DB	04aH
	DB	029H
	DB	04aH
	DB	049H
	DB	04aH
	DB	049H
	DB	04aH
	DB	029H
	DB	04aH
	DB	049H
	DB	04aH
	DB	049H
	DB	04aH
	DB	049H
	DB	04aH
	DB	049H
	DB	04aH
	DB	049H
	DB	04aH
	DB	049H
	DB	042H
	DB	049H
	DB	04aH
	DB	049H
	DB	04aH
	DB	048H
	DB	04aH
	DB	049H
	DB	04aH
	DB	049H
	DB	04aH
	DB	049H
	DB	04aH
	DB	029H
	DB	04aH
	DB	049H
	DB	04aH
	DB	049H
	DB	04aH
	DB	049H
	DB	04aH
	DB	029H
	DB	04aH
	DB	049H
	DB	04aH
	DB	049H
	DB	04aH
	DB	029H
	DB	04aH
	DB	049H
	DB	042H
	DB	049H
	DB	04aH
	DB	049H
	DB	04aH
	DB	028H
	DB	04aH
	DB	049H
	DB	04aH
	DB	049H
	DB	04aH
	DB	049H
	DB	04aH
	DB	049H
	DB	04aH
	DB	049H
	DB	04aH
	DB	029H
	DB	04aH
	DB	049H
	DB	04aH
	DB	049H
	DB	04aH
	DB	049H
	DB	04aH
	DB	029H
	DB	04aH
	DB	049H
	DB	04aH
	DB	049H
	DB	04aH
	DB	049H
	DB	04aH
	DB	029H
	DB	04aH
	DB	049H
	DB	04aH
	DB	049H
	DB	04aH
	DB	029H
	DB	04aH
	DB	049H
	DB	04aH
	DB	049H
	DB	04aH
	DB	029H
	DB	04aH
	DB	048H
	DB	04aH
	DB	049H
	DB	04aH
	DB	049H
	DB	04aH
	DB	048H
	DB	042H
	DB	049H
	DB	04aH
	DB	055H
	DB	0adH
	DB	055H
	DB	0adH
	DB	049H
	DB	04aH
	DB	029H
	DB	04aH
	DB	049H
	DB	04aH
	DB	049H
	DB	04aH
	DB	048H
	DB	04aH
	DB	049H
	DB	04aH
	DB	049H
	DB	04aH
	DB	048H
	DB	04aH
	DB	049H
	DB	04aH
	DB	049H
	DB	04aH
	DB	029H
	DB	042H
	DB	049H
	DB	04aH
	DB	049H
	DB	04aH
	DB	029H
	DB	04aH
	DB	048H
	DB	04aH
	DB	049H
	DB	04aH
	DB	029H
	DB	04aH
	DB	029H
	DB	04aH
	DB	049H
	DB	042H
	DB	049H
	DB	04aH
	DB	029H
	DB	04aH
	DB	049H
	DB	04aH
	DB	049H
	DB	04aH
	DB	049H
	DB	04aH
	DB	029H
	DB	04aH
	DB	049H
	DB	04aH
	DB	029H
	DB	04aH
	DB	049H
	DB	04aH
	DB	049H
	DB	04aH
	DB	029H
	DB	042H
	DB	049H
	DB	04aH
	DB	049H
	DB	04aH
	DB	029H
	DB	042H
	DB	049H
	DB	04aH
	DB	049H
	DB	04aH
	DB	029H
	DB	04aH
	DB	049H
	DB	04aH
	DB	029H
	DB	04aH
	DB	049H
	DB	042H
	DB	049H
	DB	04aH
	DB	049H
	DB	04aH
	DB	028H
	DB	042H
	DB	049H
	DB	04aH
	DB	049H
	DB	04aH
	DB	048H
	DB	04aH
	DB	049H
	DB	04aH
	DB	049H
	DB	04aH
	DB	049H
	DB	042H
	DB	049H
	DB	04aH
	DB	029H
	DB	04aH
	DB	048H
	DB	04aH
	DB	049H
	DB	04aH
	DB	029H
	DB	042H
	DB	049H
	DB	04aH
	DB	049H
	DB	04aH
	DB	048H
	DB	042H
	DB	029H
	DB	04aH
	DB	049H
	DB	04aH
	DB	048H
	DB	04aH
	DB	029H
	DB	04aH
	DB	049H
	DB	04aH
	DB	049H
	DB	042H
	DB	049H
	DB	04aH
	DB	049H
	DB	04aH
	DB	048H
	DB	042H
	DB	029H
	DB	04aH
	DB	049H
	DB	04aH
	DB	048H
	DB	042H
	DB	049H
	DB	04aH
	DB	049H
	DB	04aH
	DB	048H
	DB	042H
	DB	049H
	DB	04aH
	DB	049H
	DB	04aH
	DB	028H
	DB	04aH
	DB	049H
	DB	04aH
	DB	029H
	DB	04aH
	DB	049H
	DB	042H
	DB	049H
	DB	04aH
	DB	049H
	DB	04aH
	DB	048H
	DB	042H
	DB	049H
	DB	04aH
	DB	049H
	DB	04aH
	DB	048H
	DB	042H
	DB	049H
	DB	04aH
	DB	049H
	DB	04aH
	DB	028H
	DB	042H
	DB	049H
	DB	04aH
	DB	049H
	DB	04aH
	DB	048H
	DB	04aH
	DB	049H
	DB	04aH
	DB	029H
	DB	04aH
	DB	049H
	DB	042H
	DB	049H
	DB	04aH
	DB	049H
	DB	04aH
	DB	048H
	DB	042H
	DB	029H
	DB	04aH
	DB	049H
	DB	04aH
	DB	048H
	DB	042H
	DB	029H
	DB	04aH
	DB	049H
	DB	04aH
	DB	048H
	DB	042H
	DB	049H
	DB	04aH
	DB	049H
	DB	04aH
	DB	048H
	DB	04aH
	DB	049H
	DB	04aH
	DB	049H
	DB	04aH
	DB	049H
	DB	042H
	DB	029H
	DB	04aH
	DB	049H
	DB	04aH
	DB	048H
	DB	042H
	DB	049H
	DB	04aH
	DB	029H
	DB	04aH
	DB	048H
	DB	042H
	DB	049H
	DB	04aH
	DB	029H
	DB	04aH
	DB	048H
	DB	042H
	DB	029H
	DB	04aH
	DB	029H
	DB	04aH
	DB	048H
	DB	04aH
	DB	029H
	DB	04aH
	DB	049H
	DB	04aH
	DB	029H
	DB	042H
	DB	049H
	DB	04aH
	DB	049H
	DB	04aH
	DB	048H
	DB	042H
	DB	029H
	DB	04aH
	DB	049H
	DB	04aH
	DB	048H
	DB	042H
	DB	049H
	DB	04aH
	DB	029H
	DB	04aH
	DB	048H
	DB	042H
	DB	049H
	DB	04aH
	DB	049H
	DB	04aH
	DB	048H
	DB	04aH
	DB	029H
	DB	04aH
	DB	049H
	DB	04aH
	DB	049H
	DB	042H
	DB	049H
	DB	04aH
	DB	029H
	DB	04aH
	DB	048H
	DB	042H
	DB	049H
	DB	04aH
	DB	029H
	DB	04aH
	DB	048H
	DB	042H
	DB	049H
	DB	04aH
	DB	029H
	DB	04aH
	DB	048H
	DB	042H
	DB	049H
	DB	04aH
	DB	049H
	DB	04aH
	DB	028H
	DB	042H
	DB	049H
	DB	04aH
	DB	049H
	DB	04aH
	DB	029H
	DB	04aH
	DB	048H
	DB	04aH
	DB	049H
	DB	04aH
	DB	049H
	DB	04aH
	DB	029H
	DB	042H
	DB	049H
	DB	04aH
	DB	049H
	DB	04aH
	DB	029H
	DB	04aH
	DB	049H
	DB	04aH
	DB	029H
	DB	04aH
	DB	049H
	DB	04aH
	DB	049H
	DB	04aH
	DB	055H
	DB	0adH
	DB	055H
	DB	0adH
	DB	049H
	DB	04aH
	DB	049H
	DB	04aH
	DB	049H
	DB	04aH
	DB	029H
	DB	04aH
	DB	049H
	DB	04aH
	DB	029H
	DB	04aH
	DB	049H
	DB	04aH
	DB	029H
	DB	04aH
	DB	049H
	DB	04aH
	DB	049H
	DB	04aH
	DB	049H
	DB	04aH
	DB	049H
	DB	04aH
	DB	049H
	DB	04aH
	DB	049H
	DB	04aH
	DB	049H
	DB	04aH
	DB	049H
	DB	04aH
	DB	049H
	DB	04aH
	DB	048H
	DB	04aH
	DB	049H
	DB	04aH
	DB	029H
	DB	04aH
	DB	049H
	DB	04aH
	DB	049H
	DB	042H
	DB	049H
	DB	04aH
	DB	029H
	DB	04aH
	DB	049H
	DB	042H
	DB	049H
	DB	04aH
	DB	029H
	DB	04aH
	DB	049H
	DB	04aH
	DB	048H
	DB	04aH
	DB	029H
	DB	04aH
	DB	049H
	DB	04aH
	DB	049H
	DB	04aH
	DB	048H
	DB	04aH
	DB	049H
	DB	04aH
	DB	049H
	DB	04aH
	DB	049H
	DB	04aH
	DB	028H
	DB	04aH
	DB	049H
	DB	04aH
	DB	049H
	DB	04aH
	DB	029H
	DB	04aH
	DB	049H
	DB	04aH
	DB	049H
	DB	04aH
	DB	029H
	DB	04aH
	DB	049H
	DB	04aH
	DB	049H
	DB	042H
	DB	029H
	DB	04aH
	DB	029H
	DB	04aH
	DB	048H
	DB	04aH
	DB	049H
	DB	04aH
	DB	049H
	DB	04aH
	DB	029H
	DB	042H
	DB	049H
	DB	04aH
	DB	049H
	DB	04aH
	DB	048H
	DB	04aH
	DB	049H
	DB	04aH
	DB	049H
	DB	04aH
	DB	049H
	DB	04aH
	DB	029H
	DB	042H
	DB	049H
	DB	04aH
	DB	049H
	DB	04aH
	DB	028H
	DB	04aH
	DB	049H
	DB	04aH
	DB	029H
	DB	04aH
	DB	049H
	DB	04aH
	DB	049H
	DB	04aH
	DB	049H
	DB	04aH
	DB	029H
	DB	04aH
	DB	049H
	DB	04aH
	DB	029H
	DB	04aH
	DB	049H
	DB	04aH
	DB	029H
	DB	04aH
	DB	049H
	DB	04aH
	DB	049H
	DB	042H
	DB	049H
	DB	04aH
	DB	049H
	DB	04aH
	DB	028H
	DB	04aH
	DB	049H
	DB	04aH
	DB	029H
	DB	04aH
	DB	029H
	DB	04aH
	DB	049H
	DB	04aH
	DB	029H
	DB	04aH
	DB	029H
	DB	04aH
	DB	049H
	DB	04aH
	DB	049H
	DB	04aH
	DB	049H
	DB	04aH
	DB	049H
	DB	04aH
	DB	029H
	DB	04aH
	DB	049H
	DB	042H
	DB	049H
	DB	04aH
	DB	029H
	DB	04aH
	DB	048H
	DB	04aH
	DB	049H
	DB	04aH
	DB	029H
	DB	04aH
	DB	049H
	DB	04aH
	DB	049H
	DB	04aH
	DB	029H
	DB	04aH
	DB	049H
	DB	04aH
	DB	049H
	DB	04aH
	DB	029H
	DB	04aH
	DB	049H
	DB	04aH
	DB	049H
	DB	04aH
	DB	029H
	DB	04aH
	DB	029H
	DB	042H
	DB	049H
	DB	04aH
	DB	029H
	DB	04aH
	DB	048H
	DB	04aH
	DB	049H
	DB	04aH
	DB	029H
	DB	04aH
	DB	049H
	DB	04aH
	DB	049H
	DB	04aH
	DB	049H
	DB	04aH
	DB	049H
	DB	04aH
	DB	049H
	DB	04aH
	DB	049H
	DB	04aH
	DB	049H
	DB	04aH
	DB	049H
	DB	04aH
	DB	049H
	DB	04aH
	DB	049H
	DB	042H
	DB	049H
	DB	04aH
	DB	049H
	DB	04aH
	DB	028H
	DB	04aH
	DB	049H
	DB	04aH
	DB	049H
	DB	04aH
	DB	029H
	DB	04aH
	DB	049H
	DB	04aH
	DB	049H
	DB	04aH
	DB	049H
	DB	04aH
	DB	029H
	DB	04aH
	DB	049H
	DB	04aH
	DB	049H
	DB	04aH
	DB	049H
	DB	04aH
	DB	029H
	DB	04aH
	DB	049H
	DB	042H
	DB	049H
	DB	04aH
	DB	049H
	DB	04aH
	DB	028H
	DB	04aH
	DB	049H
	DB	04aH
	DB	049H
	DB	04aH
	DB	049H
	DB	04aH
	DB	029H
	DB	04aH
	DB	049H
	DB	04aH
	DB	049H
	DB	04aH
	DB	049H
	DB	04aH
	DB	049H
	DB	04aH
	DB	049H
	DB	04aH
	DB	029H
	DB	04aH
	DB	049H
	DB	04aH
	DB	049H
	DB	04aH
	DB	049H
	DB	04aH
	DB	029H
	DB	04aH
	DB	049H
	DB	042H
	DB	049H
	DB	04aH
	DB	049H
	DB	04aH
	DB	049H
	DB	042H
	DB	048H
	DB	04aH
	DB	049H
	DB	04aH
	DB	049H
	DB	04aH
	DB	049H
	DB	04aH
	DB	049H
	DB	042H
	DB	049H
	DB	04aH
	DB	049H
	DB	04aH
	DB	029H
	DB	04aH
	DB	049H
	DB	04aH
	DB	055H
	DB	0adH
	DB	055H
	DB	0adH
	DB	049H
	DB	04aH
	DB	048H
	DB	04aH
	DB	029H
	DB	042H
	DB	049H
	DB	04aH
	DB	049H
	DB	04aH
	DB	049H
	DB	042H
	DB	029H
	DB	04aH
	DB	049H
	DB	04aH
	DB	049H
	DB	042H
	DB	028H
	DB	04aH
	DB	049H
	DB	04aH
	DB	029H
	DB	04aH
	DB	048H
	DB	042H
	DB	049H
	DB	04aH
	DB	029H
	DB	04aH
	DB	049H
	DB	042H
	DB	049H
	DB	04aH
	DB	049H
	DB	04aH
	DB	029H
	DB	04aH
	DB	048H
	DB	04aH
	DB	049H
	DB	04aH
	DB	029H
	DB	04aH
	DB	048H
	DB	04aH
	DB	049H
	DB	04aH
	DB	049H
	DB	04aH
	DB	048H
	DB	04aH
	DB	049H
	DB	042H
	DB	049H
	DB	04aH
	DB	049H
	DB	04aH
	DB	049H
	DB	04aH
	DB	049H
	DB	04aH
	DB	029H
	DB	04aH
	DB	049H
	DB	04aH
	DB	029H
	DB	042H
	DB	049H
	DB	04aH
	DB	049H
	DB	04aH
	DB	049H
	DB	042H
	DB	049H
	DB	04aH
	DB	049H
	DB	04aH
	DB	048H
	DB	04aH
	DB	049H
	DB	04aH
	DB	049H
	DB	04aH
	DB	049H
	DB	04aH
	DB	029H
	DB	04aH
	DB	049H
	DB	04aH
	DB	049H
	DB	04aH
	DB	049H
	DB	04aH
	DB	029H
	DB	04aH
	DB	049H
	DB	04aH
	DB	049H
	DB	04aH
	DB	049H
	DB	04aH
	DB	029H
	DB	04aH
	DB	049H
	DB	04aH
	DB	029H
	DB	04aH
	DB	049H
	DB	04aH
	DB	049H
	DB	04aH
	DB	029H
	DB	04aH
	DB	049H
	DB	04aH
	DB	049H
	DB	04aH
	DB	049H
	DB	04aH
	DB	049H
	DB	04aH
	DB	049H
	DB	04aH
	DB	049H
	DB	04aH
	DB	029H
	DB	04aH
	DB	049H
	DB	04aH
	DB	049H
	DB	04aH
	DB	049H
	DB	04aH
	DB	049H
	DB	04aH
	DB	049H
	DB	04aH
	DB	029H
	DB	04aH
	DB	049H
	DB	04aH
	DB	049H
	DB	04aH
	DB	029H
	DB	04aH
	DB	049H
	DB	04aH
	DB	049H
	DB	04aH
	DB	049H
	DB	04aH
	DB	049H
	DB	04aH
	DB	049H
	DB	04aH
	DB	049H
	DB	04aH
	DB	049H
	DB	04aH
	DB	049H
	DB	04aH
	DB	049H
	DB	04aH
	DB	029H
	DB	04aH
	DB	049H
	DB	04aH
	DB	029H
	DB	04aH
	DB	049H
	DB	04aH
	DB	049H
	DB	04aH
	DB	029H
	DB	04aH
	DB	049H
	DB	04aH
	DB	049H
	DB	04aH
	DB	049H
	DB	04aH
	DB	049H
	DB	04aH
	DB	029H
	DB	04aH
	DB	049H
	DB	04aH
	DB	049H
	DB	04aH
	DB	049H
	DB	04aH
	DB	049H
	DB	04aH
	DB	049H
	DB	04aH
	DB	049H
	DB	04aH
	DB	029H
	DB	04aH
	DB	049H
	DB	04aH
	DB	049H
	DB	04aH
	DB	049H
	DB	04aH
	DB	049H
	DB	04aH
	DB	049H
	DB	04aH
	DB	029H
	DB	04aH
	DB	049H
	DB	04aH
	DB	049H
	DB	04aH
	DB	049H
	DB	04aH
	DB	029H
	DB	04aH
	DB	029H
	DB	04aH
	DB	049H
	DB	04aH
	DB	029H
	DB	04aH
	DB	049H
	DB	04aH
	DB	029H
	DB	04aH
	DB	049H
	DB	04aH
	DB	049H
	DB	04aH
	DB	029H
	DB	04aH
	DB	049H
	DB	04aH
	DB	049H
	DB	04aH
	DB	049H
	DB	04aH
	DB	049H
	DB	04aH
	DB	049H
	DB	04aH
	DB	029H
	DB	04aH
	DB	049H
	DB	04aH
	DB	049H
	DB	04aH
	DB	029H
	DB	04aH
	DB	049H
	DB	04aH
	DB	049H
	DB	04aH
	DB	049H
	DB	04aH
	DB	029H
	DB	04aH
	DB	049H
	DB	04aH
	DB	049H
	DB	04aH
	DB	029H
	DB	04aH
	DB	049H
	DB	04aH
	DB	049H
	DB	04aH
	DB	029H
	DB	04aH
	DB	049H
	DB	04aH
	DB	049H
	DB	04aH
	DB	049H
	DB	04aH
	DB	029H
	DB	04aH
	DB	049H
	DB	04aH
	DB	029H
	DB	04aH
	DB	049H
	DB	04aH
	DB	049H
	DB	04aH
	DB	049H
	DB	04aH
	DB	029H
	DB	042H
	DB	049H
	DB	04aH
	DB	049H
	DB	04aH
	DB	048H
	DB	04aH
	DB	029H
	DB	04aH
	DB	049H
	DB	04aH
	DB	049H
	DB	04aH
	DB	029H
	DB	04aH
	DB	029H
	DB	04aH
	DB	049H
	DB	04aH
	DB	028H
	DB	04aH
	DB	049H
	DB	04aH
	DB	029H
	DB	04aH
	DB	048H
	DB	04aH
	DB	049H
	DB	04aH
	DB	049H
	DB	04aH
	DB	049H
	DB	04aH
	DB	055H
	DB	0adH
	DB	035H
	DB	0adH
	DB	049H
	DB	04aH
	DB	049H
	DB	04aH
	DB	049H
	DB	04aH
	DB	048H
	DB	04aH
	DB	049H
	DB	04aH
	DB	049H
	DB	04aH
	DB	048H
	DB	04aH
	DB	049H
	DB	04aH
	DB	049H
	DB	04aH
	DB	049H
	DB	04aH
	DB	029H
	DB	04aH
	DB	049H
	DB	04aH
	DB	049H
	DB	04aH
	DB	029H
	DB	04aH
	DB	049H
	DB	04aH
	DB	028H
	DB	04aH
	DB	049H
	DB	04aH
	DB	049H
	DB	042H
	DB	029H
	DB	04aH
	DB	049H
	DB	04aH
	DB	049H
	DB	042H
	DB	049H
	DB	04aH
	DB	029H
	DB	04aH
	DB	049H
	DB	04aH
	DB	049H
	DB	04aH
	DB	029H
	DB	04aH
	DB	049H
	DB	04aH
	DB	029H
	DB	04aH
	DB	049H
	DB	04aH
	DB	049H
	DB	042H
	DB	028H
	DB	04aH
	DB	049H
	DB	04aH
	DB	049H
	DB	04aH
	DB	049H
	DB	04aH
	DB	028H
	DB	04aH
	DB	049H
	DB	04aH
	DB	049H
	DB	04aH
	DB	029H
	DB	04aH
	DB	029H
	DB	042H
	DB	049H
	DB	04aH
	DB	029H
	DB	04aH
	DB	048H
	DB	042H
	DB	049H
	DB	04aH
	DB	049H
	DB	04aH
	DB	048H
	DB	04aH
	DB	049H
	DB	04aH
	DB	049H
	DB	042H
	DB	049H
	DB	04aH
	DB	029H
	DB	04aH
	DB	048H
	DB	04aH
	DB	049H
	DB	04aH
	DB	049H
	DB	04aH
	DB	049H
	DB	042H
	DB	049H
	DB	04aH
	DB	029H
	DB	04aH
	DB	048H
	DB	042H
	DB	049H
	DB	04aH
	DB	049H
	DB	04aH
	DB	028H
	DB	04aH
	DB	049H
	DB	042H
	DB	049H
	DB	04aH
	DB	029H
	DB	04aH
	DB	048H
	DB	042H
	DB	049H
	DB	04aH
	DB	029H
	DB	04aH
	DB	048H
	DB	042H
	DB	049H
	DB	04aH
	DB	029H
	DB	04aH
	DB	048H
	DB	042H
	DB	049H
	DB	04aH
	DB	049H
	DB	04aH
	DB	048H
	DB	042H
	DB	029H
	DB	04aH
	DB	049H
	DB	04aH
	DB	048H
	DB	042H
	DB	029H
	DB	04aH
	DB	049H
	DB	04aH
	DB	048H
	DB	042H
	DB	049H
	DB	04aH
	DB	029H
	DB	04aH
	DB	048H
	DB	042H
	DB	049H
	DB	04aH
	DB	049H
	DB	04aH
	DB	048H
	DB	042H
	DB	049H
	DB	04aH
	DB	049H
	DB	04aH
	DB	048H
	DB	042H
	DB	049H
	DB	04aH
	DB	029H
	DB	04aH
	DB	048H
	DB	042H
	DB	049H
	DB	04aH
	DB	029H
	DB	04aH
	DB	048H
	DB	042H
	DB	049H
	DB	04aH
	DB	029H
	DB	04aH
	DB	048H
	DB	042H
	DB	029H
	DB	04aH
	DB	049H
	DB	04aH
	DB	048H
	DB	042H
	DB	049H
	DB	04aH
	DB	049H
	DB	04aH
	DB	048H
	DB	042H
	DB	029H
	DB	04aH
	DB	049H
	DB	04aH
	DB	048H
	DB	042H
	DB	049H
	DB	04aH
	DB	049H
	DB	04aH
	DB	048H
	DB	042H
	DB	049H
	DB	04aH
	DB	049H
	DB	04aH
	DB	048H
	DB	042H
	DB	049H
	DB	04aH
	DB	049H
	DB	04aH
	DB	028H
	DB	042H
	DB	049H
	DB	04aH
	DB	049H
	DB	04aH
	DB	028H
	DB	042H
	DB	049H
	DB	04aH
	DB	049H
	DB	04aH
	DB	028H
	DB	042H
	DB	049H
	DB	04aH
	DB	049H
	DB	04aH
	DB	028H
	DB	042H
	DB	049H
	DB	04aH
	DB	049H
	DB	04aH
	DB	048H
	DB	042H
	DB	049H
	DB	04aH
	DB	049H
	DB	04aH
	DB	028H
	DB	042H
	DB	049H
	DB	04aH
	DB	049H
	DB	04aH
	DB	048H
	DB	042H
	DB	049H
	DB	04aH
	DB	049H
	DB	04aH
	DB	048H
	DB	042H
	DB	049H
	DB	04aH
	DB	049H
	DB	04aH
	DB	028H
	DB	042H
	DB	049H
	DB	04aH
	DB	049H
	DB	04aH
	DB	048H
	DB	042H
	DB	049H
	DB	04aH
	DB	049H
	DB	04aH
	DB	028H
	DB	042H
	DB	049H
	DB	04aH
	DB	049H
	DB	04aH
	DB	048H
	DB	04aH
	DB	029H
	DB	04aH
	DB	049H
	DB	04aH
	DB	049H
	DB	04aH
	DB	049H
	DB	04aH
	DB	029H
	DB	04aH
	DB	048H
	DB	04aH
	DB	049H
	DB	04aH
	DB	049H
	DB	04aH
	DB	049H
	DB	042H
	DB	049H
	DB	04aH
	DB	029H
	DB	04aH
	DB	049H
	DB	04aH
	DB	049H
	DB	042H
	DB	029H
	DB	04aH
	DB	049H
	DB	04aH
	DB	049H
	DB	04aH
	DB	035H
	DB	0adH
	DB	055H
	DB	0adH
	DB	049H
	DB	04aH
	DB	029H
	DB	04aH
	DB	049H
	DB	04aH
	DB	029H
	DB	04aH
	DB	029H
	DB	04aH
	DB	049H
	DB	04aH
	DB	049H
	DB	042H
	DB	029H
	DB	04aH
	DB	049H
	DB	04aH
	DB	049H
	DB	04aH
	DB	049H
	DB	042H
	DB	049H
	DB	04aH
	DB	049H
	DB	04aH
	DB	049H
	DB	04aH
	DB	049H
	DB	04aH
	DB	049H
	DB	04aH
	DB	029H
	DB	04aH
	DB	049H
	DB	04aH
	DB	049H
	DB	04aH
	DB	049H
	DB	04aH
	DB	049H
	DB	04aH
	DB	049H
	DB	04aH
	DB	049H
	DB	04aH
	DB	028H
	DB	042H
	DB	049H
	DB	04aH
	DB	049H
	DB	04aH
	DB	029H
	DB	04aH
	DB	048H
	DB	04aH
	DB	049H
	DB	04aH
	DB	029H
	DB	04aH
	DB	049H
	DB	04aH
	DB	049H
	DB	042H
	DB	049H
	DB	04aH
	DB	049H
	DB	04aH
	DB	029H
	DB	04aH
	DB	049H
	DB	04aH
	DB	049H
	DB	04aH
	DB	048H
	DB	04aH
	DB	049H
	DB	04aH
	DB	049H
	DB	04aH
	DB	049H
	DB	04aH
	DB	029H
	DB	04aH
	DB	049H
	DB	04aH
	DB	049H
	DB	042H
	DB	029H
	DB	04aH
	DB	029H
	DB	04aH
	DB	048H
	DB	04aH
	DB	049H
	DB	04aH
	DB	049H
	DB	042H
	DB	029H
	DB	04aH
	DB	049H
	DB	04aH
	DB	048H
	DB	04aH
	DB	029H
	DB	04aH
	DB	049H
	DB	04aH
	DB	049H
	DB	04aH
	DB	029H
	DB	04aH
	DB	049H
	DB	04aH
	DB	049H
	DB	04aH
	DB	029H
	DB	04aH
	DB	049H
	DB	04aH
	DB	049H
	DB	04aH
	DB	029H
	DB	04aH
	DB	049H
	DB	04aH
	DB	049H
	DB	04aH
	DB	049H
	DB	04aH
	DB	029H
	DB	04aH
	DB	049H
	DB	04aH
	DB	049H
	DB	04aH
	DB	029H
	DB	04aH
	DB	049H
	DB	04aH
	DB	049H
	DB	04aH
	DB	029H
	DB	04aH
	DB	049H
	DB	04aH
	DB	049H
	DB	04aH
	DB	049H
	DB	04aH
	DB	029H
	DB	04aH
	DB	049H
	DB	04aH
	DB	049H
	DB	04aH
	DB	029H
	DB	04aH
	DB	049H
	DB	04aH
	DB	049H
	DB	04aH
	DB	029H
	DB	04aH
	DB	049H
	DB	04aH
	DB	049H
	DB	04aH
	DB	029H
	DB	04aH
	DB	029H
	DB	04aH
	DB	049H
	DB	04aH
	DB	049H
	DB	04aH
	DB	049H
	DB	04aH
	DB	029H
	DB	04aH
	DB	049H
	DB	04aH
	DB	049H
	DB	04aH
	DB	049H
	DB	04aH
	DB	049H
	DB	04aH
	DB	049H
	DB	04aH
	DB	029H
	DB	04aH
	DB	049H
	DB	04aH
	DB	049H
	DB	04aH
	DB	029H
	DB	04aH
	DB	049H
	DB	04aH
	DB	049H
	DB	04aH
	DB	029H
	DB	04aH
	DB	049H
	DB	04aH
	DB	049H
	DB	04aH
	DB	029H
	DB	04aH
	DB	049H
	DB	04aH
	DB	029H
	DB	04aH
	DB	029H
	DB	04aH
	DB	049H
	DB	04aH
	DB	049H
	DB	04aH
	DB	029H
	DB	04aH
	DB	049H
	DB	04aH
	DB	049H
	DB	04aH
	DB	049H
	DB	04aH
	DB	049H
	DB	04aH
	DB	049H
	DB	04aH
	DB	049H
	DB	04aH
	DB	049H
	DB	04aH
	DB	049H
	DB	04aH
	DB	029H
	DB	04aH
	DB	049H
	DB	04aH
	DB	049H
	DB	04aH
	DB	049H
	DB	04aH
	DB	049H
	DB	04aH
	DB	029H
	DB	04aH
	DB	049H
	DB	04aH
	DB	049H
	DB	04aH
	DB	029H
	DB	04aH
	DB	049H
	DB	04aH
	DB	049H
	DB	04aH
	DB	029H
	DB	04aH
	DB	049H
	DB	04aH
	DB	029H
	DB	04aH
	DB	049H
	DB	04aH
	DB	029H
	DB	04aH
	DB	049H
	DB	04aH
	DB	049H
	DB	04aH
	DB	049H
	DB	04aH
	DB	029H
	DB	04aH
	DB	049H
	DB	04aH
	DB	049H
	DB	04aH
	DB	029H
	DB	04aH
	DB	049H
	DB	04aH
	DB	049H
	DB	04aH
	DB	029H
	DB	04aH
	DB	049H
	DB	04aH
	DB	049H
	DB	04aH
	DB	049H
	DB	04aH
	DB	029H
	DB	042H
	DB	049H
	DB	04aH
	DB	049H
	DB	04aH
	DB	049H
	DB	042H
	DB	049H
	DB	04aH
	DB	049H
	DB	04aH
	DB	029H
	DB	04aH
	DB	049H
	DB	04aH
	DB	049H
	DB	04aH
	DB	049H
	DB	04aH
	DB	049H
	DB	04aH
	DB	049H
	DB	04aH
	DB	028H
	DB	04aH
	DB	049H
	DB	04aH
	DB	049H
	DB	04aH
	DB	055H
	DB	0adH
	DB	055H
	DB	0adH
	DB	049H
	DB	04aH
	DB	049H
	DB	04aH
	DB	049H
	DB	04aH
	DB	049H
	DB	042H
	DB	049H
	DB	04aH
	DB	049H
	DB	04aH
	DB	029H
	DB	04aH
	DB	048H
	DB	04aH
	DB	049H
	DB	04aH
	DB	029H
	DB	04aH
	DB	048H
	DB	04aH
	DB	029H
	DB	04aH
	DB	049H
	DB	04aH
	DB	048H
	DB	042H
	DB	029H
	DB	04aH
	DB	049H
	DB	04aH
	DB	049H
	DB	042H
	DB	048H
	DB	04aH
	DB	049H
	DB	04aH
	DB	029H
	DB	04aH
	DB	028H
	DB	04aH
	DB	049H
	DB	04aH
	DB	049H
	DB	04aH
	DB	049H
	DB	04aH
	DB	049H
	DB	04aH
	DB	049H
	DB	04aH
	DB	049H
	DB	042H
	DB	049H
	DB	04aH
	DB	049H
	DB	04aH
	DB	049H
	DB	04aH
	DB	049H
	DB	04aH
	DB	029H
	DB	04aH
	DB	048H
	DB	04aH
	DB	049H
	DB	04aH
	DB	049H
	DB	042H
	DB	029H
	DB	04aH
	DB	049H
	DB	04aH
	DB	049H
	DB	04aH
	DB	029H
	DB	04aH
	DB	049H
	DB	04aH
	DB	049H
	DB	04aH
	DB	049H
	DB	04aH
	DB	029H
	DB	04aH
	DB	049H
	DB	04aH
	DB	049H
	DB	04aH
	DB	049H
	DB	04aH
	DB	029H
	DB	04aH
	DB	049H
	DB	04aH
	DB	049H
	DB	04aH
	DB	049H
	DB	04aH
	DB	029H
	DB	04aH
	DB	049H
	DB	042H
	DB	049H
	DB	04aH
	DB	049H
	DB	04aH
	DB	048H
	DB	04aH
	DB	049H
	DB	04aH
	DB	049H
	DB	042H
	DB	049H
	DB	04aH
	DB	049H
	DB	04aH
	DB	048H
	DB	04aH
	DB	049H
	DB	04aH
	DB	049H
	DB	042H
	DB	049H
	DB	04aH
	DB	049H
	DB	04aH
	DB	048H
	DB	04aH
	DB	049H
	DB	04aH
	DB	049H
	DB	042H
	DB	049H
	DB	04aH
	DB	049H
	DB	04aH
	DB	028H
	DB	04aH
	DB	049H
	DB	04aH
	DB	049H
	DB	04aH
	DB	049H
	DB	04aH
	DB	049H
	DB	04aH
	DB	029H
	DB	04aH
	DB	049H
	DB	04aH
	DB	049H
	DB	04aH
	DB	049H
	DB	04aH
	DB	029H
	DB	042H
	DB	049H
	DB	04aH
	DB	049H
	DB	04aH
	DB	048H
	DB	04aH
	DB	029H
	DB	04aH
	DB	049H
	DB	04aH
	DB	049H
	DB	042H
	DB	049H
	DB	04aH
	DB	049H
	DB	04aH
	DB	028H
	DB	04aH
	DB	049H
	DB	04aH
	DB	049H
	DB	04aH
	DB	049H
	DB	04aH
	DB	029H
	DB	04aH
	DB	049H
	DB	04aH
	DB	049H
	DB	042H
	DB	049H
	DB	04aH
	DB	049H
	DB	04aH
	DB	048H
	DB	04aH
	DB	049H
	DB	04aH
	DB	029H
	DB	04aH
	DB	049H
	DB	042H
	DB	049H
	DB	04aH
	DB	029H
	DB	04aH
	DB	048H
	DB	04aH
	DB	049H
	DB	04aH
	DB	049H
	DB	04aH
	DB	049H
	DB	04aH
	DB	049H
	DB	04aH
	DB	049H
	DB	04aH
	DB	049H
	DB	042H
	DB	029H
	DB	04aH
	DB	049H
	DB	04aH
	DB	048H
	DB	04aH
	DB	029H
	DB	04aH
	DB	049H
	DB	04aH
	DB	049H
	DB	042H
	DB	029H
	DB	04aH
	DB	049H
	DB	04aH
	DB	048H
	DB	04aH
	DB	029H
	DB	04aH
	DB	049H
	DB	04aH
	DB	049H
	DB	04aH
	DB	029H
	DB	04aH
	DB	049H
	DB	04aH
	DB	049H
	DB	042H
	DB	029H
	DB	04aH
	DB	049H
	DB	04aH
	DB	048H
	DB	04aH
	DB	029H
	DB	04aH
	DB	049H
	DB	04aH
	DB	049H
	DB	042H
	DB	049H
	DB	04aH
	DB	049H
	DB	04aH
	DB	048H
	DB	04aH
	DB	029H
	DB	04aH
	DB	049H
	DB	04aH
	DB	049H
	DB	04aH
	DB	029H
	DB	04aH
	DB	049H
	DB	04aH
	DB	049H
	DB	042H
	DB	049H
	DB	04aH
	DB	029H
	DB	04aH
	DB	048H
	DB	04aH
	DB	049H
	DB	04aH
	DB	049H
	DB	04aH
	DB	049H
	DB	042H
	DB	029H
	DB	04aH
	DB	049H
	DB	04aH
	DB	048H
	DB	04aH
	DB	049H
	DB	04aH
	DB	029H
	DB	04aH
	DB	048H
	DB	04aH
	DB	049H
	DB	04aH
	DB	029H
	DB	04aH
	DB	049H
	DB	04aH
	DB	048H
	DB	042H
	DB	029H
	DB	04aH
	DB	049H
	DB	04aH
	DB	048H
	DB	04aH
	DB	029H
	DB	042H
	DB	049H
	DB	04aH
	DB	049H
	DB	04aH
	DB	049H
	DB	04aH
	DB	049H
	DB	04aH
	DB	055H
	DB	0adH
	DB	055H
	DB	0adH
	DB	049H
	DB	04aH
	DB	049H
	DB	04aH
	DB	049H
	DB	04aH
	DB	028H
	DB	04aH
	DB	049H
	DB	04aH
	DB	049H
	DB	04aH
	DB	049H
	DB	04aH
	DB	049H
	DB	04aH
	DB	029H
	DB	042H
	DB	049H
	DB	04aH
	DB	049H
	DB	04aH
	DB	049H
	DB	04aH
	DB	029H
	DB	04aH
	DB	049H
	DB	04aH
	DB	049H
	DB	04aH
	DB	029H
	DB	04aH
	DB	049H
	DB	04aH
	DB	049H
	DB	04aH
	DB	029H
	DB	04aH
	DB	049H
	DB	042H
	DB	049H
	DB	04aH
	DB	049H
	DB	04aH
	DB	029H
	DB	042H
	DB	049H
	DB	04aH
	DB	029H
	DB	04aH
	DB	048H
	DB	04aH
	DB	049H
	DB	04aH
	DB	029H
	DB	04aH
	DB	049H
	DB	042H
	DB	048H
	DB	04aH
	DB	029H
	DB	04aH
	DB	049H
	DB	04aH
	DB	049H
	DB	04aH
	DB	029H
	DB	04aH
	DB	049H
	DB	04aH
	DB	048H
	DB	04aH
	DB	049H
	DB	042H
	DB	029H
	DB	04aH
	DB	049H
	DB	04aH
	DB	048H
	DB	042H
	DB	029H
	DB	04aH
	DB	049H
	DB	04aH
	DB	048H
	DB	042H
	DB	049H
	DB	04aH
	DB	049H
	DB	04aH
	DB	048H
	DB	04aH
	DB	049H
	DB	042H
	DB	029H
	DB	04aH
	DB	049H
	DB	04aH
	DB	048H
	DB	04aH
	DB	049H
	DB	04aH
	DB	029H
	DB	04aH
	DB	049H
	DB	04aH
	DB	049H
	DB	04aH
	DB	029H
	DB	04aH
	DB	049H
	DB	04aH
	DB	029H
	DB	04aH
	DB	049H
	DB	04aH
	DB	029H
	DB	042H
	DB	049H
	DB	04aH
	DB	029H
	DB	04aH
	DB	048H
	DB	04aH
	DB	029H
	DB	04aH
	DB	029H
	DB	04aH
	DB	049H
	DB	042H
	DB	029H
	DB	04aH
	DB	049H
	DB	04aH
	DB	048H
	DB	04aH
	DB	029H
	DB	04aH
	DB	049H
	DB	042H
	DB	049H
	DB	04aH
	DB	049H
	DB	04aH
	DB	028H
	DB	042H
	DB	049H
	DB	04aH
	DB	049H
	DB	04aH
	DB	048H
	DB	042H
	DB	049H
	DB	04aH
	DB	029H
	DB	04aH
	DB	048H
	DB	04aH
	DB	049H
	DB	04aH
	DB	049H
	DB	04aH
	DB	049H
	DB	042H
	DB	049H
	DB	04aH
	DB	029H
	DB	04aH
	DB	048H
	DB	04aH
	DB	049H
	DB	04aH
	DB	049H
	DB	04aH
	DB	049H
	DB	042H
	DB	029H
	DB	04aH
	DB	049H
	DB	04aH
	DB	048H
	DB	042H
	DB	029H
	DB	04aH
	DB	049H
	DB	04aH
	DB	028H
	DB	04aH
	DB	029H
	DB	04aH
	DB	049H
	DB	04aH
	DB	049H
	DB	042H
	DB	029H
	DB	04aH
	DB	049H
	DB	04aH
	DB	048H
	DB	04aH
	DB	049H
	DB	04aH
	DB	049H
	DB	04aH
	DB	029H
	DB	042H
	DB	049H
	DB	04aH
	DB	049H
	DB	04aH
	DB	028H
	DB	042H
	DB	049H
	DB	04aH
	DB	049H
	DB	04aH
	DB	048H
	DB	04aH
	DB	049H
	DB	04aH
	DB	049H
	DB	04aH
	DB	049H
	DB	042H
	DB	029H
	DB	04aH
	DB	049H
	DB	04aH
	DB	048H
	DB	04aH
	DB	029H
	DB	04aH
	DB	049H
	DB	04aH
	DB	049H
	DB	042H
	DB	049H
	DB	04aH
	DB	049H
	DB	04aH
	DB	048H
	DB	042H
	DB	029H
	DB	04aH
	DB	049H
	DB	04aH
	DB	048H
	DB	04aH
	DB	049H
	DB	04aH
	DB	049H
	DB	04aH
	DB	049H
	DB	042H
	DB	049H
	DB	04aH
	DB	049H
	DB	04aH
	DB	028H
	DB	04aH
	DB	049H
	DB	04aH
	DB	049H
	DB	04aH
	DB	049H
	DB	042H
	DB	049H
	DB	04aH
	DB	049H
	DB	04aH
	DB	048H
	DB	042H
	DB	029H
	DB	04aH
	DB	049H
	DB	04aH
	DB	048H
	DB	04aH
	DB	029H
	DB	04aH
	DB	049H
	DB	04aH
	DB	049H
	DB	042H
	DB	029H
	DB	04aH
	DB	049H
	DB	04aH
	DB	048H
	DB	04aH
	DB	049H
	DB	04aH
	DB	029H
	DB	04aH
	DB	049H
	DB	042H
	DB	049H
	DB	04aH
	DB	049H
	DB	04aH
	DB	029H
	DB	04aH
	DB	049H
	DB	04aH
	DB	049H
	DB	04aH
	DB	049H
	DB	04aH
	DB	049H
	DB	04aH
	DB	049H
	DB	04aH
	DB	029H
	DB	04aH
	DB	049H
	DB	04aH
	DB	049H
	DB	04aH
	DB	029H
	DB	04aH
	DB	049H
	DB	04aH
	DB	049H
	DB	042H
	DB	049H
	DB	04aH
	DB	035H
	DB	0adH
	DB	055H
	DB	0adH
	DB	049H
	DB	04aH
	DB	029H
	DB	04aH
	DB	049H
	DB	04aH
	DB	049H
	DB	04aH
	DB	029H
	DB	04aH
	DB	048H
	DB	042H
	DB	049H
	DB	04aH
	DB	029H
	DB	04aH
	DB	049H
	DB	04aH
	DB	049H
	DB	04aH
	DB	049H
	DB	04aH
	DB	049H
	DB	042H
	DB	029H
	DB	04aH
	DB	049H
	DB	04aH
	DB	048H
	DB	04aH
	DB	049H
	DB	04aH
	DB	049H
	DB	04aH
	DB	029H
	DB	04aH
	DB	049H
	DB	04aH
	DB	049H
	DB	04aH
	DB	049H
	DB	04aH
	DB	048H
	DB	04aH
	DB	049H
	DB	04aH
	DB	029H
	DB	04aH
	DB	049H
	DB	04aH
	DB	049H
	DB	042H
	DB	029H
	DB	04aH
	DB	049H
	DB	04aH
	DB	049H
	DB	04aH
	DB	029H
	DB	04aH
	DB	049H
	DB	04aH
	DB	049H
	DB	042H
	DB	049H
	DB	04aH
	DB	029H
	DB	04aH
	DB	049H
	DB	04aH
	DB	049H
	DB	04aH
	DB	049H
	DB	04aH
	DB	049H
	DB	04aH
	DB	049H
	DB	04aH
	DB	049H
	DB	04aH
	DB	049H
	DB	04aH
	DB	029H
	DB	04aH
	DB	049H
	DB	04aH
	DB	029H
	DB	04aH
	DB	049H
	DB	04aH
	DB	049H
	DB	04aH
	DB	049H
	DB	04aH
	DB	049H
	DB	04aH
	DB	029H
	DB	04aH
	DB	049H
	DB	042H
	DB	049H
	DB	04aH
	DB	049H
	DB	04aH
	DB	028H
	DB	04aH
	DB	049H
	DB	042H
	DB	049H
	DB	04aH
	DB	029H
	DB	04aH
	DB	048H
	DB	04aH
	DB	049H
	DB	04aH
	DB	049H
	DB	04aH
	DB	029H
	DB	04aH
	DB	049H
	DB	04aH
	DB	049H
	DB	04aH
	DB	049H
	DB	04aH
	DB	049H
	DB	04aH
	DB	049H
	DB	04aH
	DB	029H
	DB	04aH
	DB	049H
	DB	04aH
	DB	049H
	DB	04aH
	DB	049H
	DB	04aH
	DB	049H
	DB	04aH
	DB	029H
	DB	04aH
	DB	049H
	DB	04aH
	DB	049H
	DB	04aH
	DB	029H
	DB	04aH
	DB	049H
	DB	04aH
	DB	049H
	DB	04aH
	DB	029H
	DB	04aH
	DB	049H
	DB	04aH
	DB	049H
	DB	04aH
	DB	029H
	DB	04aH
	DB	049H
	DB	04aH
	DB	049H
	DB	04aH
	DB	029H
	DB	04aH
	DB	049H
	DB	04aH
	DB	049H
	DB	04aH
	DB	029H
	DB	04aH
	DB	049H
	DB	04aH
	DB	049H
	DB	04aH
	DB	049H
	DB	04aH
	DB	049H
	DB	04aH
	DB	049H
	DB	04aH
	DB	049H
	DB	04aH
	DB	049H
	DB	04aH
	DB	049H
	DB	04aH
	DB	049H
	DB	04aH
	DB	049H
	DB	04aH
	DB	029H
	DB	04aH
	DB	049H
	DB	04aH
	DB	049H
	DB	04aH
	DB	029H
	DB	04aH
	DB	049H
	DB	04aH
	DB	049H
	DB	04aH
	DB	049H
	DB	04aH
	DB	049H
	DB	04aH
	DB	029H
	DB	04aH
	DB	049H
	DB	04aH
	DB	049H
	DB	04aH
	DB	029H
	DB	04aH
	DB	029H
	DB	04aH
	DB	049H
	DB	04aH
	DB	049H
	DB	04aH
	DB	029H
	DB	04aH
	DB	049H
	DB	04aH
	DB	049H
	DB	04aH
	DB	049H
	DB	04aH
	DB	049H
	DB	04aH
	DB	029H
	DB	04aH
	DB	049H
	DB	04aH
	DB	049H
	DB	04aH
	DB	029H
	DB	04aH
	DB	049H
	DB	04aH
	DB	049H
	DB	04aH
	DB	049H
	DB	04aH
	DB	029H
	DB	04aH
	DB	049H
	DB	04aH
	DB	029H
	DB	04aH
	DB	049H
	DB	04aH
	DB	049H
	DB	04aH
	DB	029H
	DB	04aH
	DB	049H
	DB	04aH
	DB	049H
	DB	04aH
	DB	029H
	DB	04aH
	DB	029H
	DB	04aH
	DB	049H
	DB	04aH
	DB	049H
	DB	04aH
	DB	029H
	DB	04aH
	DB	049H
	DB	04aH
	DB	049H
	DB	04aH
	DB	049H
	DB	04aH
	DB	049H
	DB	04aH
	DB	049H
	DB	04aH
	DB	049H
	DB	04aH
	DB	049H
	DB	04aH
	DB	029H
	DB	04aH
	DB	049H
	DB	04aH
	DB	049H
	DB	04aH
	DB	049H
	DB	04aH
	DB	029H
	DB	04aH
	DB	049H
	DB	04aH
	DB	049H
	DB	04aH
	DB	049H
	DB	042H
	DB	028H
	DB	04aH
	DB	049H
	DB	04aH
	DB	029H
	DB	042H
	DB	049H
	DB	04aH
	DB	049H
	DB	04aH
	DB	048H
	DB	04aH
	DB	049H
	DB	042H
	DB	049H
	DB	04aH
	DB	048H
	DB	04aH
	DB	029H
	DB	04aH
	DB	049H
	DB	04aH
	DB	049H
	DB	04aH
	DB	055H
	DB	0adH
	DB	055H
	DB	0adH
	DB	049H
	DB	04aH
	DB	049H
	DB	04aH
	DB	049H
	DB	04aH
	DB	049H
	DB	042H
	DB	049H
	DB	04aH
	DB	029H
	DB	04aH
	DB	049H
	DB	04aH
	DB	049H
	DB	04aH
	DB	048H
	DB	04aH
	DB	029H
	DB	04aH
	DB	049H
	DB	04aH
	DB	048H
	DB	04aH
	DB	049H
	DB	04aH
	DB	049H
	DB	04aH
	DB	029H
	DB	042H
	DB	049H
	DB	04aH
	DB	049H
	DB	04aH
	DB	048H
	DB	042H
	DB	049H
	DB	04aH
	DB	029H
	DB	04aH
	DB	049H
	DB	04aH
	DB	049H
	DB	04aH
	DB	029H
	DB	04aH
	DB	049H
	DB	04aH
	DB	048H
	DB	04aH
	DB	049H
	DB	04aH
	DB	049H
	DB	04aH
	DB	048H
	DB	04aH
	DB	049H
	DB	04aH
	DB	049H
	DB	04aH
	DB	029H
	DB	04aH
	DB	048H
	DB	04aH
	DB	049H
	DB	04aH
	DB	049H
	DB	042H
	DB	028H
	DB	04aH
	DB	049H
	DB	04aH
	DB	029H
	DB	04aH
	DB	049H
	DB	04aH
	DB	028H
	DB	042H
	DB	049H
	DB	04aH
	DB	049H
	DB	04aH
	DB	049H
	DB	04aH
	DB	049H
	DB	04aH
	DB	029H
	DB	04aH
	DB	049H
	DB	042H
	DB	029H
	DB	04aH
	DB	049H
	DB	04aH
	DB	048H
	DB	04aH
	DB	049H
	DB	04aH
	DB	029H
	DB	04aH
	DB	049H
	DB	04aH
	DB	049H
	DB	04aH
	DB	049H
	DB	04aH
	DB	049H
	DB	04aH
	DB	049H
	DB	04aH
	DB	049H
	DB	042H
	DB	049H
	DB	04aH
	DB	049H
	DB	04aH
	DB	048H
	DB	04aH
	DB	049H
	DB	04aH
	DB	049H
	DB	042H
	DB	049H
	DB	04aH
	DB	049H
	DB	04aH
	DB	048H
	DB	042H
	DB	049H
	DB	04aH
	DB	049H
	DB	04aH
	DB	028H
	DB	04aH
	DB	049H
	DB	042H
	DB	049H
	DB	04aH
	DB	029H
	DB	04aH
	DB	048H
	DB	04aH
	DB	049H
	DB	04aH
	DB	049H
	DB	04aH
	DB	049H
	DB	042H
	DB	029H
	DB	04aH
	DB	049H
	DB	04aH
	DB	048H
	DB	04aH
	DB	049H
	DB	042H
	DB	049H
	DB	04aH
	DB	029H
	DB	04aH
	DB	048H
	DB	042H
	DB	049H
	DB	04aH
	DB	049H
	DB	04aH
	DB	048H
	DB	042H
	DB	049H
	DB	04aH
	DB	029H
	DB	04aH
	DB	048H
	DB	042H
	DB	049H
	DB	04aH
	DB	029H
	DB	04aH
	DB	048H
	DB	04aH
	DB	029H
	DB	04aH
	DB	049H
	DB	042H
	DB	049H
	DB	04aH
	DB	029H
	DB	04aH
	DB	048H
	DB	042H
	DB	049H
	DB	04aH
	DB	049H
	DB	04aH
	DB	048H
	DB	04aH
	DB	049H
	DB	042H
	DB	029H
	DB	04aH
	DB	049H
	DB	04aH
	DB	048H
	DB	042H
	DB	029H
	DB	04aH
	DB	049H
	DB	04aH
	DB	048H
	DB	04aH
	DB	049H
	DB	04aH
	DB	049H
	DB	042H
	DB	049H
	DB	04aH
	DB	049H
	DB	04aH
	DB	048H
	DB	042H
	DB	029H
	DB	04aH
	DB	049H
	DB	04aH
	DB	048H
	DB	04aH
	DB	029H
	DB	042H
	DB	049H
	DB	04aH
	DB	049H
	DB	04aH
	DB	028H
	DB	042H
	DB	049H
	DB	04aH
	DB	049H
	DB	04aH
	DB	028H
	DB	04aH
	DB	049H
	DB	04aH
	DB	049H
	DB	042H
	DB	029H
	DB	04aH
	DB	049H
	DB	04aH
	DB	048H
	DB	042H
	DB	049H
	DB	04aH
	DB	029H
	DB	04aH
	DB	048H
	DB	04aH
	DB	049H
	DB	042H
	DB	049H
	DB	04aH
	DB	049H
	DB	04aH
	DB	048H
	DB	042H
	DB	049H
	DB	04aH
	DB	049H
	DB	04aH
	DB	028H
	DB	04aH
	DB	049H
	DB	04aH
	DB	049H
	DB	042H
	DB	049H
	DB	04aH
	DB	029H
	DB	04aH
	DB	048H
	DB	042H
	DB	029H
	DB	04aH
	DB	049H
	DB	04aH
	DB	048H
	DB	04aH
	DB	049H
	DB	042H
	DB	029H
	DB	04aH
	DB	049H
	DB	04aH
	DB	048H
	DB	042H
	DB	049H
	DB	04aH
	DB	029H
	DB	04aH
	DB	048H
	DB	04aH
	DB	049H
	DB	04aH
	DB	049H
	DB	04aH
	DB	049H
	DB	04aH
	DB	029H
	DB	04aH
	DB	048H
	DB	04aH
	DB	049H
	DB	04aH
	DB	029H
	DB	04aH
	DB	049H
	DB	04aH
	DB	049H
	DB	04aH
	DB	029H
	DB	04aH
	DB	049H
	DB	04aH
	DB	048H
	DB	04aH
	DB	049H
	DB	04aH
	DB	055H
	DB	0adH
	DB	055H
	DB	0adH
	DB	049H
	DB	04aH
	DB	029H
	DB	04aH
	DB	048H
	DB	04aH
	DB	049H
	DB	04aH
	DB	029H
	DB	04aH
	DB	049H
	DB	04aH
	DB	049H
	DB	04aH
	DB	049H
	DB	042H
	DB	029H
	DB	04aH
	DB	049H
	DB	04aH
	DB	049H
	DB	042H
	DB	029H
	DB	04aH
	DB	049H
	DB	04aH
	DB	049H
	DB	04aH
	DB	029H
	DB	04aH
	DB	049H
	DB	04aH
	DB	049H
	DB	04aH
	DB	029H
	DB	04aH
	DB	049H
	DB	04aH
	DB	048H
	DB	04aH
	DB	029H
	DB	042H
	DB	049H
	DB	04aH
	DB	049H
	DB	04aH
	DB	049H
	DB	042H
	DB	029H
	DB	04aH
	DB	049H
	DB	04aH
	DB	029H
	DB	04aH
	DB	029H
	DB	04aH
	DB	049H
	DB	042H
	DB	049H
	DB	04aH
	DB	049H
	DB	04aH
	DB	029H
	DB	04aH
	DB	049H
	DB	04aH
	DB	049H
	DB	04aH
	DB	049H
	DB	04aH
	DB	049H
	DB	04aH
	DB	049H
	DB	042H
	DB	029H
	DB	04aH
	DB	049H
	DB	04aH
	DB	049H
	DB	04aH
	DB	029H
	DB	04aH
	DB	048H
	DB	042H
	DB	049H
	DB	04aH
	DB	049H
	DB	04aH
	DB	048H
	DB	04aH
	DB	049H
	DB	04aH
	DB	029H
	DB	04aH
	DB	049H
	DB	042H
	DB	049H
	DB	04aH
	DB	049H
	DB	04aH
	DB	028H
	DB	04aH
	DB	049H
	DB	042H
	DB	049H
	DB	04aH
	DB	029H
	DB	04aH
	DB	048H
	DB	04aH
	DB	029H
	DB	04aH
	DB	049H
	DB	04aH
	DB	029H
	DB	04aH
	DB	049H
	DB	04aH
	DB	049H
	DB	04aH
	DB	029H
	DB	04aH
	DB	029H
	DB	04aH
	DB	049H
	DB	04aH
	DB	029H
	DB	04aH
	DB	049H
	DB	04aH
	DB	049H
	DB	04aH
	DB	049H
	DB	04aH
	DB	029H
	DB	04aH
	DB	049H
	DB	04aH
	DB	049H
	DB	04aH
	DB	049H
	DB	042H
	DB	029H
	DB	04aH
	DB	049H
	DB	04aH
	DB	048H
	DB	04aH
	DB	049H
	DB	04aH
	DB	029H
	DB	04aH
	DB	049H
	DB	04aH
	DB	049H
	DB	04aH
	DB	049H
	DB	04aH
	DB	049H
	DB	04aH
	DB	029H
	DB	04aH
	DB	049H
	DB	04aH
	DB	049H
	DB	04aH
	DB	029H
	DB	04aH
	DB	049H
	DB	04aH
	DB	049H
	DB	04aH
	DB	049H
	DB	04aH
	DB	029H
	DB	04aH
	DB	049H
	DB	04aH
	DB	049H
	DB	04aH
	DB	029H
	DB	04aH
	DB	049H
	DB	04aH
	DB	049H
	DB	04aH
	DB	029H
	DB	04aH
	DB	049H
	DB	04aH
	DB	049H
	DB	04aH
	DB	029H
	DB	04aH
	DB	049H
	DB	04aH
	DB	049H
	DB	04aH
	DB	049H
	DB	04aH
	DB	049H
	DB	04aH
	DB	029H
	DB	04aH
	DB	049H
	DB	04aH
	DB	049H
	DB	04aH
	DB	029H
	DB	04aH
	DB	049H
	DB	04aH
	DB	029H
	DB	04aH
	DB	049H
	DB	04aH
	DB	049H
	DB	04aH
	DB	049H
	DB	04aH
	DB	049H
	DB	04aH
	DB	049H
	DB	04aH
	DB	049H
	DB	04aH
	DB	029H
	DB	04aH
	DB	049H
	DB	04aH
	DB	049H
	DB	04aH
	DB	049H
	DB	04aH
	DB	049H
	DB	04aH
	DB	049H
	DB	04aH
	DB	049H
	DB	04aH
	DB	049H
	DB	04aH
	DB	049H
	DB	04aH
	DB	049H
	DB	04aH
	DB	049H
	DB	04aH
	DB	049H
	DB	04aH
	DB	049H
	DB	04aH
	DB	049H
	DB	04aH
	DB	029H
	DB	04aH
	DB	049H
	DB	04aH
	DB	029H
	DB	04aH
	DB	049H
	DB	04aH
	DB	049H
	DB	04aH
	DB	049H
	DB	04aH
	DB	029H
	DB	04aH
	DB	049H
	DB	04aH
	DB	049H
	DB	04aH
	DB	049H
	DB	04aH
	DB	029H
	DB	04aH
	DB	049H
	DB	04aH
	DB	049H
	DB	04aH
	DB	049H
	DB	04aH
	DB	029H
	DB	04aH
	DB	049H
	DB	04aH
	DB	049H
	DB	04aH
	DB	049H
	DB	04aH
	DB	029H
	DB	04aH
	DB	049H
	DB	04aH
	DB	049H
	DB	04aH
	DB	049H
	DB	04aH
	DB	029H
	DB	04aH
	DB	049H
	DB	04aH
	DB	049H
	DB	042H
	DB	049H
	DB	04aH
	DB	049H
	DB	04aH
	DB	049H
	DB	04aH
	DB	029H
	DB	042H
	DB	049H
	DB	04aH
	DB	049H
	DB	04aH
	DB	029H
	DB	04aH
	DB	049H
	DB	042H
	DB	049H
	DB	04aH
	DB	049H
	DB	04aH
	DB	049H
	DB	04aH
	DB	035H
	DB	0adH
	DB	055H
	DB	0adH
	DB	049H
	DB	04aH
	DB	029H
	DB	04aH
	DB	049H
	DB	04aH
	DB	049H
	DB	04aH
	DB	049H
	DB	04aH
	DB	048H
	DB	04aH
	DB	029H
	DB	04aH
	DB	049H
	DB	04aH
	DB	049H
	DB	04aH
	DB	048H
	DB	04aH
	DB	049H
	DB	04aH
	DB	029H
	DB	04aH
	DB	049H
	DB	04aH
	DB	048H
	DB	04aH
	DB	049H
	DB	04aH
	DB	049H
	DB	042H
	DB	028H
	DB	04aH
	DB	049H
	DB	04aH
	DB	049H
	DB	04aH
	DB	049H
	DB	04aH
	DB	049H
	DB	04aH
	DB	029H
	DB	04aH
	DB	048H
	DB	04aH
	DB	049H
	DB	04aH
	DB	049H
	DB	04aH
	DB	049H
	DB	04aH
	DB	049H
	DB	04aH
	DB	049H
	DB	04aH
	DB	029H
	DB	04aH
	DB	048H
	DB	04aH
	DB	049H
	DB	04aH
	DB	049H
	DB	042H
	DB	029H
	DB	04aH
	DB	049H
	DB	04aH
	DB	049H
	DB	04aH
	DB	029H
	DB	04aH
	DB	048H
	DB	04aH
	DB	049H
	DB	04aH
	DB	049H
	DB	04aH
	DB	049H
	DB	04aH
	DB	029H
	DB	04aH
	DB	049H
	DB	04aH
	DB	049H
	DB	04aH
	DB	029H
	DB	04aH
	DB	049H
	DB	04aH
	DB	049H
	DB	04aH
	DB	029H
	DB	04aH
	DB	049H
	DB	04aH
	DB	049H
	DB	04aH
	DB	029H
	DB	04aH
	DB	049H
	DB	04aH
	DB	049H
	DB	04aH
	DB	029H
	DB	04aH
	DB	049H
	DB	04aH
	DB	049H
	DB	04aH
	DB	049H
	DB	04aH
	DB	029H
	DB	042H
	DB	049H
	DB	04aH
	DB	049H
	DB	04aH
	DB	028H
	DB	042H
	DB	049H
	DB	04aH
	DB	049H
	DB	04aH
	DB	048H
	DB	04aH
	DB	029H
	DB	04aH
	DB	049H
	DB	04aH
	DB	049H
	DB	042H
	DB	029H
	DB	04aH
	DB	049H
	DB	04aH
	DB	048H
	DB	04aH
	DB	049H
	DB	04aH
	DB	029H
	DB	04aH
	DB	049H
	DB	04aH
	DB	049H
	DB	04aH
	DB	029H
	DB	04aH
	DB	049H
	DB	04aH
	DB	049H
	DB	042H
	DB	029H
	DB	04aH
	DB	049H
	DB	04aH
	DB	048H
	DB	04aH
	DB	029H
	DB	04aH
	DB	049H
	DB	04aH
	DB	049H
	DB	04aH
	DB	029H
	DB	04aH
	DB	049H
	DB	04aH
	DB	049H
	DB	04aH
	DB	049H
	DB	04aH
	DB	029H
	DB	04aH
	DB	049H
	DB	04aH
	DB	049H
	DB	042H
	DB	049H
	DB	04aH
	DB	049H
	DB	04aH
	DB	048H
	DB	04aH
	DB	049H
	DB	04aH
	DB	049H
	DB	04aH
	DB	049H
	DB	04aH
	DB	029H
	DB	042H
	DB	049H
	DB	04aH
	DB	049H
	DB	04aH
	DB	028H
	DB	04aH
	DB	049H
	DB	04aH
	DB	049H
	DB	04aH
	DB	049H
	DB	04aH
	DB	049H
	DB	04aH
	DB	049H
	DB	042H
	DB	049H
	DB	04aH
	DB	029H
	DB	04aH
	DB	048H
	DB	04aH
	DB	049H
	DB	04aH
	DB	029H
	DB	04aH
	DB	029H
	DB	04aH
	DB	049H
	DB	042H
	DB	049H
	DB	04aH
	DB	049H
	DB	04aH
	DB	048H
	DB	04aH
	DB	049H
	DB	04aH
	DB	029H
	DB	04aH
	DB	049H
	DB	04aH
	DB	029H
	DB	04aH
	DB	049H
	DB	042H
	DB	029H
	DB	04aH
	DB	049H
	DB	04aH
	DB	028H
	DB	04aH
	DB	049H
	DB	04aH
	DB	029H
	DB	04aH
	DB	029H
	DB	04aH
	DB	049H
	DB	042H
	DB	049H
	DB	04aH
	DB	049H
	DB	04aH
	DB	048H
	DB	04aH
	DB	049H
	DB	04aH
	DB	029H
	DB	04aH
	DB	049H
	DB	04aH
	DB	029H
	DB	04aH
	DB	049H
	DB	042H
	DB	049H
	DB	04aH
	DB	049H
	DB	04aH
	DB	028H
	DB	04aH
	DB	049H
	DB	04aH
	DB	049H
	DB	04aH
	DB	049H
	DB	04aH
	DB	049H
	DB	042H
	DB	029H
	DB	04aH
	DB	049H
	DB	04aH
	DB	048H
	DB	04aH
	DB	049H
	DB	04aH
	DB	049H
	DB	04aH
	DB	029H
	DB	04aH
	DB	049H
	DB	042H
	DB	049H
	DB	04aH
	DB	049H
	DB	04aH
	DB	029H
	DB	04aH
	DB	048H
	DB	04aH
	DB	029H
	DB	04aH
	DB	049H
	DB	04aH
	DB	049H
	DB	04aH
	DB	029H
	DB	04aH
	DB	049H
	DB	04aH
	DB	048H
	DB	04aH
	DB	049H
	DB	04aH
	DB	049H
	DB	04aH
	DB	029H
	DB	04aH
	DB	049H
	DB	04aH
	DB	049H
	DB	04aH
	DB	055H
	DB	0adH
	DB	055H
	DB	0adH
	DB	049H
	DB	04aH
	DB	049H
	DB	04aH
	DB	049H
	DB	04aH
	DB	029H
	DB	042H
	DB	049H
	DB	04aH
	DB	049H
	DB	04aH
	DB	029H
	DB	04aH
	DB	049H
	DB	04aH
	DB	049H
	DB	04aH
	DB	029H
	DB	04aH
	DB	049H
	DB	04aH
	DB	049H
	DB	04aH
	DB	029H
	DB	042H
	DB	049H
	DB	04aH
	DB	049H
	DB	04aH
	DB	029H
	DB	04aH
	DB	049H
	DB	04aH
	DB	049H
	DB	04aH
	DB	029H
	DB	042H
	DB	049H
	DB	04aH
	DB	049H
	DB	04aH
	DB	049H
	DB	04aH
	DB	029H
	DB	04aH
	DB	049H
	DB	04aH
	DB	049H
	DB	042H
	DB	028H
	DB	04aH
	DB	049H
	DB	04aH
	DB	049H
	DB	042H
	DB	049H
	DB	04aH
	DB	029H
	DB	04aH
	DB	049H
	DB	04aH
	DB	049H
	DB	04aH
	DB	048H
	DB	04aH
	DB	029H
	DB	04aH
	DB	049H
	DB	042H
	DB	049H
	DB	04aH
	DB	029H
	DB	04aH
	DB	049H
	DB	04aH
	DB	049H
	DB	04aH
	DB	028H
	DB	042H
	DB	049H
	DB	04aH
	DB	049H
	DB	04aH
	DB	049H
	DB	04aH
	DB	029H
	DB	042H
	DB	049H
	DB	04aH
	DB	048H
	DB	04aH
	DB	049H
	DB	042H
	DB	049H
	DB	04aH
	DB	048H
	DB	04aH
	DB	029H
	DB	04aH
	DB	049H
	DB	042H
	DB	049H
	DB	04aH
	DB	048H
	DB	04aH
	DB	049H
	DB	042H
	DB	049H
	DB	04aH
	DB	049H
	DB	04aH
	DB	048H
	DB	04aH
	DB	049H
	DB	04aH
	DB	049H
	DB	04aH
	DB	049H
	DB	04aH
	DB	049H
	DB	04aH
	DB	049H
	DB	04aH
	DB	049H
	DB	042H
	DB	049H
	DB	04aH
	DB	049H
	DB	04aH
	DB	048H
	DB	04aH
	DB	049H
	DB	04aH
	DB	049H
	DB	04aH
	DB	029H
	DB	042H
	DB	049H
	DB	04aH
	DB	049H
	DB	04aH
	DB	048H
	DB	04aH
	DB	049H
	DB	042H
	DB	029H
	DB	04aH
	DB	049H
	DB	04aH
	DB	048H
	DB	04aH
	DB	049H
	DB	04aH
	DB	029H
	DB	04aH
	DB	049H
	DB	042H
	DB	049H
	DB	04aH
	DB	049H
	DB	04aH
	DB	048H
	DB	042H
	DB	049H
	DB	04aH
	DB	029H
	DB	04aH
	DB	048H
	DB	042H
	DB	049H
	DB	04aH
	DB	049H
	DB	04aH
	DB	048H
	DB	04aH
	DB	029H
	DB	04aH
	DB	049H
	DB	04aH
	DB	049H
	DB	042H
	DB	029H
	DB	04aH
	DB	049H
	DB	04aH
	DB	048H
	DB	042H
	DB	029H
	DB	04aH
	DB	049H
	DB	04aH
	DB	048H
	DB	04aH
	DB	049H
	DB	04aH
	DB	029H
	DB	042H
	DB	049H
	DB	04aH
	DB	049H
	DB	04aH
	DB	028H
	DB	042H
	DB	029H
	DB	04aH
	DB	049H
	DB	04aH
	DB	048H
	DB	04aH
	DB	049H
	DB	042H
	DB	049H
	DB	04aH
	DB	049H
	DB	04aH
	DB	048H
	DB	042H
	DB	049H
	DB	04aH
	DB	029H
	DB	04aH
	DB	048H
	DB	04aH
	DB	029H
	DB	04aH
	DB	049H
	DB	042H
	DB	049H
	DB	04aH
	DB	049H
	DB	04aH
	DB	028H
	DB	042H
	DB	049H
	DB	04aH
	DB	049H
	DB	04aH
	DB	048H
	DB	04aH
	DB	029H
	DB	042H
	DB	049H
	DB	04aH
	DB	049H
	DB	04aH
	DB	048H
	DB	042H
	DB	049H
	DB	04aH
	DB	029H
	DB	04aH
	DB	048H
	DB	04aH
	DB	049H
	DB	04aH
	DB	029H
	DB	042H
	DB	049H
	DB	04aH
	DB	049H
	DB	04aH
	DB	048H
	DB	042H
	DB	049H
	DB	04aH
	DB	049H
	DB	04aH
	DB	048H
	DB	04aH
	DB	029H
	DB	042H
	DB	049H
	DB	04aH
	DB	049H
	DB	04aH
	DB	028H
	DB	042H
	DB	049H
	DB	04aH
	DB	049H
	DB	04aH
	DB	048H
	DB	04aH
	DB	029H
	DB	04aH
	DB	049H
	DB	042H
	DB	049H
	DB	04aH
	DB	029H
	DB	04aH
	DB	048H
	DB	04aH
	DB	049H
	DB	04aH
	DB	029H
	DB	04aH
	DB	048H
	DB	04aH
	DB	049H
	DB	042H
	DB	049H
	DB	04aH
	DB	029H
	DB	04aH
	DB	049H
	DB	04aH
	DB	048H
	DB	042H
	DB	049H
	DB	04aH
	DB	049H
	DB	04aH
	DB	029H
	DB	04aH
	DB	049H
	DB	042H
	DB	049H
	DB	04aH
	DB	028H
	DB	04aH
	DB	049H
	DB	04aH
	DB	049H
	DB	04aH
	DB	055H
	DB	0adH
	DB	055H
	DB	0adH
	DB	049H
	DB	04aH
	DB	049H
	DB	04aH
	DB	028H
	DB	04aH
	DB	049H
	DB	04aH
	DB	049H
	DB	04aH
	DB	049H
	DB	042H
	DB	048H
	DB	04aH
	DB	049H
	DB	04aH
	DB	029H
	DB	042H
	DB	049H
	DB	04aH
	DB	048H
	DB	04aH
	DB	049H
	DB	04aH
	DB	049H
	DB	04aH
	DB	049H
	DB	04aH
	DB	029H
	DB	04aH
	DB	049H
	DB	04aH
	DB	049H
	DB	04aH
	DB	049H
	DB	04aH
	DB	048H
	DB	04aH
	DB	029H
	DB	04aH
	DB	049H
	DB	04aH
	DB	048H
	DB	042H
	DB	049H
	DB	04aH
	DB	029H
	DB	04aH
	DB	049H
	DB	04aH
	DB	049H
	DB	04aH
	DB	029H
	DB	04aH
	DB	049H
	DB	04aH
	DB	048H
	DB	04aH
	DB	049H
	DB	04aH
	DB	029H
	DB	042H
	DB	049H
	DB	04aH
	DB	049H
	DB	04aH
	DB	049H
	DB	04aH
	DB	049H
	DB	04aH
	DB	048H
	DB	04aH
	DB	049H
	DB	04aH
	DB	049H
	DB	04aH
	DB	049H
	DB	04aH
	DB	049H
	DB	04aH
	DB	049H
	DB	04aH
	DB	049H
	DB	04aH
	DB	028H
	DB	04aH
	DB	049H
	DB	04aH
	DB	049H
	DB	04aH
	DB	029H
	DB	04aH
	DB	049H
	DB	04aH
	DB	049H
	DB	04aH
	DB	029H
	DB	04aH
	DB	049H
	DB	04aH
	DB	049H
	DB	04aH
	DB	049H
	DB	04aH
	DB	029H
	DB	04aH
	DB	029H
	DB	04aH
	DB	049H
	DB	04aH
	DB	029H
	DB	04aH
	DB	049H
	DB	04aH
	DB	029H
	DB	04aH
	DB	049H
	DB	04aH
	DB	049H
	DB	04aH
	DB	029H
	DB	04aH
	DB	029H
	DB	04aH
	DB	049H
	DB	04aH
	DB	049H
	DB	04aH
	DB	029H
	DB	04aH
	DB	029H
	DB	04aH
	DB	049H
	DB	04aH
	DB	049H
	DB	04aH
	DB	049H
	DB	04aH
	DB	029H
	DB	04aH
	DB	049H
	DB	04aH
	DB	049H
	DB	04aH
	DB	029H
	DB	04aH
	DB	049H
	DB	04aH
	DB	049H
	DB	04aH
	DB	049H
	DB	04aH
	DB	049H
	DB	04aH
	DB	049H
	DB	04aH
	DB	029H
	DB	04aH
	DB	049H
	DB	04aH
	DB	049H
	DB	04aH
	DB	029H
	DB	04aH
	DB	049H
	DB	04aH
	DB	049H
	DB	04aH
	DB	029H
	DB	04aH
	DB	049H
	DB	04aH
	DB	049H
	DB	042H
	DB	029H
	DB	04aH
	DB	049H
	DB	04aH
	DB	048H
	DB	04aH
	DB	029H
	DB	04aH
	DB	049H
	DB	04aH
	DB	049H
	DB	04aH
	DB	029H
	DB	04aH
	DB	049H
	DB	04aH
	DB	049H
	DB	04aH
	DB	049H
	DB	04aH
	DB	029H
	DB	04aH
	DB	049H
	DB	04aH
	DB	049H
	DB	04aH
	DB	049H
	DB	04aH
	DB	049H
	DB	04aH
	DB	049H
	DB	04aH
	DB	029H
	DB	04aH
	DB	049H
	DB	04aH
	DB	049H
	DB	04aH
	DB	029H
	DB	04aH
	DB	049H
	DB	04aH
	DB	049H
	DB	04aH
	DB	049H
	DB	04aH
	DB	049H
	DB	04aH
	DB	049H
	DB	04aH
	DB	029H
	DB	04aH
	DB	049H
	DB	04aH
	DB	049H
	DB	04aH
	DB	049H
	DB	04aH
	DB	049H
	DB	04aH
	DB	049H
	DB	04aH
	DB	049H
	DB	04aH
	DB	049H
	DB	04aH
	DB	049H
	DB	04aH
	DB	049H
	DB	04aH
	DB	049H
	DB	04aH
	DB	049H
	DB	04aH
	DB	049H
	DB	04aH
	DB	049H
	DB	04aH
	DB	029H
	DB	04aH
	DB	049H
	DB	04aH
	DB	049H
	DB	04aH
	DB	029H
	DB	04aH
	DB	049H
	DB	04aH
	DB	049H
	DB	04aH
	DB	029H
	DB	04aH
	DB	049H
	DB	04aH
	DB	049H
	DB	04aH
	DB	049H
	DB	04aH
	DB	049H
	DB	04aH
	DB	049H
	DB	04aH
	DB	029H
	DB	04aH
	DB	049H
	DB	04aH
	DB	049H
	DB	04aH
	DB	029H
	DB	04aH
	DB	049H
	DB	04aH
	DB	049H
	DB	04aH
	DB	029H
	DB	04aH
	DB	049H
	DB	042H
	DB	049H
	DB	04aH
	DB	049H
	DB	04aH
	DB	049H
	DB	04aH
	DB	029H
	DB	04aH
	DB	049H
	DB	04aH
	DB	049H
	DB	04aH
	DB	049H
	DB	04aH
	DB	049H
	DB	04aH
	DB	029H
	DB	04aH
	DB	049H
	DB	04aH
	DB	049H
	DB	04aH
	DB	029H
	DB	04aH
	DB	049H
	DB	04aH
	DB	049H
	DB	04aH
	DB	049H
	DB	04aH
	DB	049H
	DB	042H
	DB	049H
	DB	04aH
	DB	035H
	DB	0adH
	DB	035H
	DB	0adH
	DB	049H
	DB	04aH
	DB	049H
	DB	04aH
	DB	049H
	DB	04aH
	DB	029H
	DB	04aH
	DB	049H
	DB	04aH
	DB	029H
	DB	04aH
	DB	049H
	DB	04aH
	DB	049H
	DB	04aH
	DB	049H
	DB	04aH
	DB	049H
	DB	04aH
	DB	029H
	DB	042H
	DB	049H
	DB	04aH
	DB	048H
	DB	04aH
	DB	029H
	DB	04aH
	DB	049H
	DB	042H
	DB	048H
	DB	04aH
	DB	049H
	DB	04aH
	DB	029H
	DB	042H
	DB	049H
	DB	04aH
	DB	049H
	DB	04aH
	DB	029H
	DB	04aH
	DB	049H
	DB	04aH
	DB	049H
	DB	04aH
	DB	049H
	DB	04aH
	DB	049H
	DB	04aH
	DB	049H
	DB	04aH
	DB	049H
	DB	04aH
	DB	029H
	DB	04aH
	DB	049H
	DB	04aH
	DB	049H
	DB	04aH
	DB	049H
	DB	04aH
	DB	028H
	DB	04aH
	DB	049H
	DB	04aH
	DB	049H
	DB	04aH
	DB	029H
	DB	04aH
	DB	049H
	DB	042H
	DB	029H
	DB	04aH
	DB	049H
	DB	04aH
	DB	029H
	DB	042H
	DB	049H
	DB	04aH
	DB	049H
	DB	04aH
	DB	029H
	DB	04aH
	DB	049H
	DB	042H
	DB	049H
	DB	04aH
	DB	049H
	DB	04aH
	DB	029H
	DB	04aH
	DB	049H
	DB	04aH
	DB	049H
	DB	04aH
	DB	049H
	DB	042H
	DB	048H
	DB	04aH
	DB	049H
	DB	04aH
	DB	029H
	DB	04aH
	DB	049H
	DB	04aH
	DB	049H
	DB	04aH
	DB	048H
	DB	04aH
	DB	049H
	DB	042H
	DB	029H
	DB	04aH
	DB	049H
	DB	04aH
	DB	048H
	DB	042H
	DB	029H
	DB	04aH
	DB	049H
	DB	04aH
	DB	048H
	DB	042H
	DB	049H
	DB	04aH
	DB	049H
	DB	04aH
	DB	048H
	DB	042H
	DB	049H
	DB	04aH
	DB	029H
	DB	04aH
	DB	048H
	DB	04aH
	DB	049H
	DB	04aH
	DB	049H
	DB	042H
	DB	029H
	DB	04aH
	DB	049H
	DB	04aH
	DB	048H
	DB	04aH
	DB	049H
	DB	04aH
	DB	029H
	DB	042H
	DB	049H
	DB	04aH
	DB	049H
	DB	04aH
	DB	028H
	DB	042H
	DB	049H
	DB	04aH
	DB	049H
	DB	04aH
	DB	028H
	DB	04aH
	DB	049H
	DB	04aH
	DB	049H
	DB	042H
	DB	049H
	DB	04aH
	DB	049H
	DB	04aH
	DB	028H
	DB	04aH
	DB	049H
	DB	04aH
	DB	049H
	DB	04aH
	DB	049H
	DB	04aH
	DB	049H
	DB	04aH
	DB	049H
	DB	04aH
	DB	049H
	DB	04aH
	DB	049H
	DB	04aH
	DB	049H
	DB	04aH
	DB	049H
	DB	04aH
	DB	029H
	DB	042H
	DB	049H
	DB	04aH
	DB	049H
	DB	04aH
	DB	048H
	DB	04aH
	DB	029H
	DB	04aH
	DB	049H
	DB	04aH
	DB	049H
	DB	04aH
	DB	049H
	DB	04aH
	DB	049H
	DB	04aH
	DB	029H
	DB	04aH
	DB	049H
	DB	04aH
	DB	049H
	DB	04aH
	DB	029H
	DB	04aH
	DB	029H
	DB	04aH
	DB	049H
	DB	04aH
	DB	049H
	DB	042H
	DB	049H
	DB	04aH
	DB	049H
	DB	04aH
	DB	028H
	DB	04aH
	DB	049H
	DB	04aH
	DB	029H
	DB	04aH
	DB	049H
	DB	04aH
	DB	029H
	DB	04aH
	DB	029H
	DB	04aH
	DB	049H
	DB	04aH
	DB	049H
	DB	04aH
	DB	029H
	DB	04aH
	DB	029H
	DB	04aH
	DB	049H
	DB	04aH
	DB	049H
	DB	04aH
	DB	029H
	DB	042H
	DB	049H
	DB	04aH
	DB	049H
	DB	04aH
	DB	048H
	DB	04aH
	DB	049H
	DB	04aH
	DB	029H
	DB	04aH
	DB	049H
	DB	04aH
	DB	049H
	DB	04aH
	DB	029H
	DB	04aH
	DB	049H
	DB	04aH
	DB	029H
	DB	04aH
	DB	049H
	DB	04aH
	DB	049H
	DB	04aH
	DB	049H
	DB	04aH
	DB	049H
	DB	04aH
	DB	049H
	DB	042H
	DB	029H
	DB	04aH
	DB	049H
	DB	04aH
	DB	048H
	DB	04aH
	DB	049H
	DB	04aH
	DB	049H
	DB	04aH
	DB	029H
	DB	04aH
	DB	048H
	DB	04aH
	DB	049H
	DB	042H
	DB	049H
	DB	04aH
	DB	029H
	DB	04aH
	DB	049H
	DB	04aH
	DB	048H
	DB	042H
	DB	029H
	DB	04aH
	DB	049H
	DB	04aH
	DB	049H
	DB	04aH
	DB	048H
	DB	042H
	DB	049H
	DB	04aH
	DB	029H
	DB	04aH
	DB	048H
	DB	04aH
	DB	049H
	DB	04aH
	DB	029H
	DB	04aH
	DB	049H
	DB	04aH
	DB	055H
	DB	0adH
	DB	055H
	DB	0adH
	DB	049H
	DB	04aH
	DB	049H
	DB	04aH
	DB	049H
	DB	042H
	DB	048H
	DB	04aH
	DB	049H
	DB	04aH
	DB	029H
	DB	04aH
	DB	049H
	DB	04aH
	DB	048H
	DB	042H
	DB	029H
	DB	04aH
	DB	049H
	DB	04aH
	DB	049H
	DB	04aH
	DB	029H
	DB	04aH
	DB	049H
	DB	04aH
	DB	049H
	DB	04aH
	DB	049H
	DB	04aH
	DB	049H
	DB	04aH
	DB	029H
	DB	04aH
	DB	049H
	DB	04aH
	DB	049H
	DB	04aH
	DB	049H
	DB	04aH
	DB	049H
	DB	04aH
	DB	029H
	DB	04aH
	DB	049H
	DB	042H
	DB	048H
	DB	04aH
	DB	029H
	DB	04aH
	DB	049H
	DB	042H
	DB	048H
	DB	04aH
	DB	049H
	DB	04aH
	DB	029H
	DB	042H
	DB	049H
	DB	04aH
	DB	049H
	DB	04aH
	DB	049H
	DB	04aH
	DB	029H
	DB	042H
	DB	049H
	DB	04aH
	DB	049H
	DB	04aH
	DB	029H
	DB	04aH
	DB	048H
	DB	04aH
	DB	049H
	DB	04aH
	DB	029H
	DB	04aH
	DB	048H
	DB	04aH
	DB	049H
	DB	04aH
	DB	029H
	DB	04aH
	DB	049H
	DB	04aH
	DB	048H
	DB	04aH
	DB	049H
	DB	04aH
	DB	049H
	DB	042H
	DB	028H
	DB	04aH
	DB	049H
	DB	04aH
	DB	049H
	DB	04aH
	DB	029H
	DB	04aH
	DB	049H
	DB	04aH
	DB	049H
	DB	042H
	DB	048H
	DB	04aH
	DB	049H
	DB	04aH
	DB	049H
	DB	04aH
	DB	049H
	DB	04aH
	DB	049H
	DB	04aH
	DB	049H
	DB	04aH
	DB	049H
	DB	04aH
	DB	049H
	DB	04aH
	DB	049H
	DB	04aH
	DB	049H
	DB	04aH
	DB	029H
	DB	04aH
	DB	049H
	DB	04aH
	DB	049H
	DB	04aH
	DB	049H
	DB	04aH
	DB	049H
	DB	042H
	DB	029H
	DB	04aH
	DB	049H
	DB	04aH
	DB	048H
	DB	04aH
	DB	049H
	DB	04aH
	DB	049H
	DB	042H
	DB	049H
	DB	04aH
	DB	029H
	DB	04aH
	DB	048H
	DB	04aH
	DB	049H
	DB	04aH
	DB	029H
	DB	04aH
	DB	049H
	DB	04aH
	DB	049H
	DB	04aH
	DB	049H
	DB	04aH
	DB	049H
	DB	042H
	DB	049H
	DB	04aH
	DB	029H
	DB	04aH
	DB	048H
	DB	04aH
	DB	049H
	DB	04aH
	DB	049H
	DB	04aH
	DB	029H
	DB	04aH
	DB	049H
	DB	04aH
	DB	029H
	DB	042H
	DB	049H
	DB	04aH
	DB	029H
	DB	04aH
	DB	028H
	DB	042H
	DB	049H
	DB	04aH
	DB	049H
	DB	04aH
	DB	028H
	DB	04aH
	DB	049H
	DB	04aH
	DB	049H
	DB	04aH
	DB	049H
	DB	042H
	DB	029H
	DB	04aH
	DB	049H
	DB	04aH
	DB	048H
	DB	042H
	DB	029H
	DB	04aH
	DB	049H
	DB	04aH
	DB	048H
	DB	042H
	DB	049H
	DB	04aH
	DB	049H
	DB	04aH
	DB	048H
	DB	042H
	DB	049H
	DB	04aH
	DB	049H
	DB	04aH
	DB	028H
	DB	04aH
	DB	049H
	DB	04aH
	DB	029H
	DB	04aH
	DB	049H
	DB	042H
	DB	049H
	DB	04aH
	DB	049H
	DB	04aH
	DB	048H
	DB	042H
	DB	049H
	DB	04aH
	DB	049H
	DB	04aH
	DB	048H
	DB	042H
	DB	049H
	DB	04aH
	DB	049H
	DB	04aH
	DB	048H
	DB	042H
	DB	049H
	DB	04aH
	DB	029H
	DB	04aH
	DB	048H
	DB	04aH
	DB	049H
	DB	04aH
	DB	049H
	DB	04aH
	DB	029H
	DB	042H
	DB	049H
	DB	04aH
	DB	049H
	DB	04aH
	DB	048H
	DB	042H
	DB	049H
	DB	04aH
	DB	049H
	DB	04aH
	DB	048H
	DB	042H
	DB	029H
	DB	04aH
	DB	049H
	DB	04aH
	DB	048H
	DB	042H
	DB	029H
	DB	04aH
	DB	049H
	DB	04aH
	DB	048H
	DB	04aH
	DB	029H
	DB	04aH
	DB	049H
	DB	04aH
	DB	049H
	DB	04aH
	DB	049H
	DB	042H
	DB	029H
	DB	04aH
	DB	049H
	DB	04aH
	DB	049H
	DB	04aH
	DB	029H
	DB	04aH
	DB	049H
	DB	04aH
	DB	049H
	DB	04aH
	DB	049H
	DB	04aH
	DB	049H
	DB	04aH
	DB	029H
	DB	04aH
	DB	049H
	DB	04aH
	DB	049H
	DB	04aH
	DB	029H
	DB	04aH
	DB	049H
	DB	04aH
	DB	049H
	DB	04aH
	DB	049H
	DB	04aH
	DB	029H
	DB	042H
	DB	049H
	DB	04aH
	DB	049H
	DB	04aH
	DB	049H
	DB	04aH
	DB	055H
	DB	0adH
	DB	055H
	DB	0adH
	DB	049H
	DB	04aH
	DB	029H
	DB	04aH
	DB	049H
	DB	04aH
	DB	049H
	DB	04aH
	DB	049H
	DB	04aH
	DB	049H
	DB	042H
	DB	049H
	DB	04aH
	DB	029H
	DB	04aH
	DB	049H
	DB	04aH
	DB	048H
	DB	04aH
	DB	049H
	DB	04aH
	DB	049H
	DB	04aH
	DB	029H
	DB	042H
	DB	049H
	DB	04aH
	DB	049H
	DB	04aH
	DB	029H
	DB	04aH
	DB	048H
	DB	04aH
	DB	049H
	DB	04aH
	DB	029H
	DB	04aH
	DB	048H
	DB	042H
	DB	049H
	DB	04aH
	DB	049H
	DB	04aH
	DB	029H
	DB	04aH
	DB	049H
	DB	04aH
	DB	049H
	DB	04aH
	DB	029H
	DB	04aH
	DB	049H
	DB	04aH
	DB	049H
	DB	04aH
	DB	049H
	DB	04aH
	DB	028H
	DB	04aH
	DB	049H
	DB	04aH
	DB	049H
	DB	04aH
	DB	049H
	DB	04aH
	DB	048H
	DB	04aH
	DB	049H
	DB	04aH
	DB	049H
	DB	04aH
	DB	049H
	DB	04aH
	DB	049H
	DB	04aH
	DB	049H
	DB	04aH
	DB	049H
	DB	04aH
	DB	049H
	DB	042H
	DB	049H
	DB	04aH
	DB	029H
	DB	04aH
	DB	049H
	DB	04aH
	DB	049H
	DB	04aH
	DB	049H
	DB	04aH
	DB	029H
	DB	04aH
	DB	049H
	DB	04aH
	DB	049H
	DB	04aH
	DB	029H
	DB	04aH
	DB	049H
	DB	04aH
	DB	049H
	DB	04aH
	DB	029H
	DB	04aH
	DB	029H
	DB	04aH
	DB	049H
	DB	042H
	DB	029H
	DB	04aH
	DB	048H
	DB	04aH
	DB	029H
	DB	04aH
	DB	049H
	DB	04aH
	DB	049H
	DB	04aH
	DB	029H
	DB	04aH
	DB	049H
	DB	04aH
	DB	049H
	DB	04aH
	DB	029H
	DB	04aH
	DB	029H
	DB	04aH
	DB	049H
	DB	04aH
	DB	049H
	DB	04aH
	DB	049H
	DB	04aH
	DB	029H
	DB	04aH
	DB	049H
	DB	04aH
	DB	049H
	DB	04aH
	DB	029H
	DB	04aH
	DB	049H
	DB	04aH
	DB	049H
	DB	04aH
	DB	049H
	DB	04aH
	DB	049H
	DB	04aH
	DB	049H
	DB	04aH
	DB	049H
	DB	04aH
	DB	029H
	DB	04aH
	DB	049H
	DB	04aH
	DB	049H
	DB	04aH
	DB	029H
	DB	04aH
	DB	049H
	DB	04aH
	DB	049H
	DB	04aH
	DB	029H
	DB	042H
	DB	049H
	DB	04aH
	DB	049H
	DB	04aH
	DB	048H
	DB	04aH
	DB	049H
	DB	04aH
	DB	049H
	DB	04aH
	DB	049H
	DB	04aH
	DB	049H
	DB	04aH
	DB	049H
	DB	04aH
	DB	029H
	DB	042H
	DB	049H
	DB	04aH
	DB	049H
	DB	04aH
	DB	048H
	DB	04aH
	DB	029H
	DB	04aH
	DB	049H
	DB	04aH
	DB	049H
	DB	04aH
	DB	049H
	DB	04aH
	DB	029H
	DB	04aH
	DB	049H
	DB	04aH
	DB	049H
	DB	04aH
	DB	029H
	DB	04aH
	DB	029H
	DB	04aH
	DB	049H
	DB	04aH
	DB	049H
	DB	04aH
	DB	049H
	DB	042H
	DB	049H
	DB	04aH
	DB	049H
	DB	04aH
	DB	048H
	DB	04aH
	DB	029H
	DB	04aH
	DB	049H
	DB	04aH
	DB	049H
	DB	04aH
	DB	029H
	DB	04aH
	DB	049H
	DB	04aH
	DB	049H
	DB	04aH
	DB	029H
	DB	04aH
	DB	049H
	DB	04aH
	DB	029H
	DB	04aH
	DB	049H
	DB	04aH
	DB	049H
	DB	04aH
	DB	049H
	DB	042H
	DB	029H
	DB	04aH
	DB	049H
	DB	04aH
	DB	048H
	DB	04aH
	DB	049H
	DB	04aH
	DB	029H
	DB	04aH
	DB	049H
	DB	04aH
	DB	029H
	DB	04aH
	DB	049H
	DB	04aH
	DB	049H
	DB	04aH
	DB	029H
	DB	04aH
	DB	049H
	DB	04aH
	DB	049H
	DB	04aH
	DB	049H
	DB	04aH
	DB	029H
	DB	04aH
	DB	049H
	DB	042H
	DB	049H
	DB	04aH
	DB	049H
	DB	04aH
	DB	048H
	DB	04aH
	DB	049H
	DB	04aH
	DB	029H
	DB	04aH
	DB	049H
	DB	04aH
	DB	048H
	DB	04aH
	DB	049H
	DB	042H
	DB	049H
	DB	04aH
	DB	029H
	DB	04aH
	DB	048H
	DB	04aH
	DB	049H
	DB	042H
	DB	029H
	DB	04aH
	DB	049H
	DB	04aH
	DB	049H
	DB	04aH
	DB	048H
	DB	042H
	DB	029H
	DB	04aH
	DB	049H
	DB	04aH
	DB	049H
	DB	04aH
	DB	049H
	DB	04aH
	DB	049H
	DB	04aH
	DB	049H
	DB	04aH
	DB	048H
	DB	04aH
	DB	049H
	DB	04aH
	DB	055H
	DB	0adH
	DB	055H
	DB	0adH
	DB	049H
	DB	04aH
	DB	049H
	DB	04aH
	DB	029H
	DB	04aH
	DB	029H
	DB	04aH
	DB	048H
	DB	04aH
	DB	049H
	DB	04aH
	DB	029H
	DB	04aH
	DB	049H
	DB	04aH
	DB	049H
	DB	04aH
	DB	029H
	DB	04aH
	DB	049H
	DB	04aH
	DB	049H
	DB	04aH
	DB	048H
	DB	04aH
	DB	029H
	DB	04aH
	DB	049H
	DB	04aH
	DB	049H
	DB	042H
	DB	049H
	DB	04aH
	DB	049H
	DB	04aH
	DB	029H
	DB	04aH
	DB	049H
	DB	04aH
	DB	049H
	DB	04aH
	DB	048H
	DB	04aH
	DB	049H
	DB	04aH
	DB	049H
	DB	04aH
	DB	049H
	DB	04aH
	DB	029H
	DB	04aH
	DB	049H
	DB	042H
	DB	049H
	DB	04aH
	DB	049H
	DB	04aH
	DB	049H
	DB	04aH
	DB	029H
	DB	042H
	DB	049H
	DB	04aH
	DB	049H
	DB	04aH
	DB	029H
	DB	04aH
	DB	049H
	DB	042H
	DB	049H
	DB	04aH
	DB	029H
	DB	04aH
	DB	049H
	DB	042H
	DB	029H
	DB	04aH
	DB	049H
	DB	04aH
	DB	048H
	DB	04aH
	DB	029H
	DB	04aH
	DB	049H
	DB	04aH
	DB	049H
	DB	042H
	DB	029H
	DB	04aH
	DB	048H
	DB	04aH
	DB	049H
	DB	04aH
	DB	049H
	DB	042H
	DB	048H
	DB	04aH
	DB	049H
	DB	04aH
	DB	049H
	DB	042H
	DB	048H
	DB	04aH
	DB	049H
	DB	04aH
	DB	049H
	DB	04aH
	DB	049H
	DB	04aH
	DB	049H
	DB	04aH
	DB	029H
	DB	04aH
	DB	049H
	DB	042H
	DB	049H
	DB	04aH
	DB	028H
	DB	04aH
	DB	049H
	DB	042H
	DB	049H
	DB	04aH
	DB	048H
	DB	04aH
	DB	049H
	DB	042H
	DB	049H
	DB	04aH
	DB	028H
	DB	04aH
	DB	049H
	DB	04aH
	DB	049H
	DB	04aH
	DB	049H
	DB	042H
	DB	029H
	DB	04aH
	DB	049H
	DB	04aH
	DB	048H
	DB	04aH
	DB	029H
	DB	04aH
	DB	049H
	DB	042H
	DB	029H
	DB	04aH
	DB	049H
	DB	04aH
	DB	048H
	DB	042H
	DB	029H
	DB	04aH
	DB	049H
	DB	04aH
	DB	048H
	DB	042H
	DB	029H
	DB	04aH
	DB	049H
	DB	04aH
	DB	048H
	DB	04aH
	DB	049H
	DB	04aH
	DB	049H
	DB	04aH
	DB	029H
	DB	04aH
	DB	049H
	DB	04aH
	DB	049H
	DB	042H
	DB	029H
	DB	04aH
	DB	049H
	DB	04aH
	DB	048H
	DB	04aH
	DB	049H
	DB	04aH
	DB	029H
	DB	04aH
	DB	049H
	DB	04aH
	DB	049H
	DB	04aH
	DB	049H
	DB	04aH
	DB	029H
	DB	04aH
	DB	049H
	DB	04aH
	DB	049H
	DB	04aH
	DB	049H
	DB	04aH
	DB	029H
	DB	04aH
	DB	049H
	DB	042H
	DB	049H
	DB	04aH
	DB	049H
	DB	04aH
	DB	048H
	DB	04aH
	DB	049H
	DB	042H
	DB	029H
	DB	04aH
	DB	049H
	DB	04aH
	DB	028H
	DB	04aH
	DB	049H
	DB	04aH
	DB	049H
	DB	04aH
	DB	049H
	DB	04aH
	DB	029H
	DB	04aH
	DB	049H
	DB	04aH
	DB	049H
	DB	04aH
	DB	029H
	DB	04aH
	DB	049H
	DB	042H
	DB	049H
	DB	04aH
	DB	029H
	DB	04aH
	DB	048H
	DB	04aH
	DB	049H
	DB	042H
	DB	029H
	DB	04aH
	DB	049H
	DB	04aH
	DB	048H
	DB	04aH
	DB	049H
	DB	04aH
	DB	029H
	DB	04aH
	DB	049H
	DB	04aH
	DB	049H
	DB	04aH
	DB	049H
	DB	04aH
	DB	049H
	DB	04aH
	DB	029H
	DB	04aH
	DB	049H
	DB	042H
	DB	049H
	DB	04aH
	DB	049H
	DB	04aH
	DB	048H
	DB	04aH
	DB	049H
	DB	042H
	DB	029H
	DB	04aH
	DB	049H
	DB	04aH
	DB	048H
	DB	04aH
	DB	029H
	DB	04aH
	DB	049H
	DB	04aH
	DB	049H
	DB	042H
	DB	029H
	DB	04aH
	DB	049H
	DB	04aH
	DB	049H
	DB	04aH
	DB	029H
	DB	04aH
	DB	049H
	DB	04aH
	DB	049H
	DB	04aH
	DB	049H
	DB	04aH
	DB	029H
	DB	04aH
	DB	049H
	DB	04aH
	DB	048H
	DB	04aH
	DB	049H
	DB	04aH
	DB	049H
	DB	04aH
	DB	049H
	DB	04aH
	DB	049H
	DB	04aH
	DB	029H
	DB	04aH
	DB	048H
	DB	042H
	DB	029H
	DB	04aH
	DB	049H
	DB	04aH
	DB	029H
	DB	04aH
	DB	029H
	DB	04aH
	DB	049H
	DB	04aH
	DB	055H
	DB	0adH
	DB	055H
	DB	0adH
	DB	049H
	DB	04aH
	DB	049H
	DB	04aH
	DB	049H
	DB	04aH
	DB	049H
	DB	042H
	DB	049H
	DB	04aH
	DB	029H
	DB	04aH
	DB	048H
	DB	04aH
	DB	049H
	DB	04aH
	DB	049H
	DB	042H
	DB	029H
	DB	04aH
	DB	049H
	DB	04aH
	DB	049H
	DB	042H
	DB	049H
	DB	04aH
	DB	049H
	DB	04aH
	DB	028H
	DB	04aH
	DB	049H
	DB	04aH
	DB	049H
	DB	04aH
	DB	049H
	DB	042H
	DB	049H
	DB	04aH
	DB	029H
	DB	04aH
	DB	049H
	DB	04aH
	DB	029H
	DB	042H
	DB	049H
	DB	04aH
	DB	048H
	DB	04aH
	DB	029H
	DB	042H
	DB	049H
	DB	04aH
	DB	048H
	DB	04aH
	DB	029H
	DB	04aH
	DB	049H
	DB	04aH
	DB	049H
	DB	04aH
	DB	028H
	DB	04aH
	DB	049H
	DB	04aH
	DB	049H
	DB	04aH
	DB	029H
	DB	04aH
	DB	049H
	DB	04aH
	DB	048H
	DB	04aH
	DB	029H
	DB	04aH
	DB	049H
	DB	04aH
	DB	048H
	DB	04aH
	DB	029H
	DB	04aH
	DB	049H
	DB	04aH
	DB	049H
	DB	04aH
	DB	048H
	DB	04aH
	DB	049H
	DB	04aH
	DB	029H
	DB	04aH
	DB	049H
	DB	04aH
	DB	049H
	DB	04aH
	DB	029H
	DB	04aH
	DB	049H
	DB	04aH
	DB	029H
	DB	04aH
	DB	049H
	DB	04aH
	DB	029H
	DB	04aH
	DB	049H
	DB	04aH
	DB	049H
	DB	04aH
	DB	048H
	DB	04aH
	DB	049H
	DB	04aH
	DB	049H
	DB	04aH
	DB	049H
	DB	04aH
	DB	049H
	DB	04aH
	DB	049H
	DB	04aH
	DB	029H
	DB	04aH
	DB	049H
	DB	04aH
	DB	029H
	DB	04aH
	DB	049H
	DB	04aH
	DB	049H
	DB	04aH
	DB	049H
	DB	04aH
	DB	029H
	DB	04aH
	DB	048H
	DB	04aH
	DB	049H
	DB	04aH
	DB	049H
	DB	04aH
	DB	049H
	DB	04aH
	DB	049H
	DB	04aH
	DB	049H
	DB	04aH
	DB	049H
	DB	04aH
	DB	029H
	DB	04aH
	DB	049H
	DB	04aH
	DB	049H
	DB	04aH
	DB	049H
	DB	04aH
	DB	049H
	DB	04aH
	DB	049H
	DB	04aH
	DB	049H
	DB	04aH
	DB	049H
	DB	04aH
	DB	029H
	DB	042H
	DB	049H
	DB	04aH
	DB	049H
	DB	04aH
	DB	048H
	DB	04aH
	DB	049H
	DB	04aH
	DB	029H
	DB	04aH
	DB	049H
	DB	04aH
	DB	049H
	DB	04aH
	DB	029H
	DB	042H
	DB	049H
	DB	04aH
	DB	049H
	DB	04aH
	DB	048H
	DB	04aH
	DB	049H
	DB	04aH
	DB	029H
	DB	042H
	DB	049H
	DB	04aH
	DB	049H
	DB	04aH
	DB	048H
	DB	042H
	DB	029H
	DB	04aH
	DB	049H
	DB	04aH
	DB	048H
	DB	04aH
	DB	029H
	DB	04aH
	DB	049H
	DB	04aH
	DB	049H
	DB	04aH
	DB	049H
	DB	04aH
	DB	049H
	DB	04aH
	DB	049H
	DB	04aH
	DB	029H
	DB	04aH
	DB	049H
	DB	04aH
	DB	049H
	DB	042H
	DB	029H
	DB	04aH
	DB	049H
	DB	04aH
	DB	048H
	DB	042H
	DB	049H
	DB	04aH
	DB	049H
	DB	04aH
	DB	048H
	DB	04aH
	DB	049H
	DB	04aH
	DB	049H
	DB	04aH
	DB	049H
	DB	04aH
	DB	049H
	DB	04aH
	DB	049H
	DB	04aH
	DB	029H
	DB	04aH
	DB	049H
	DB	04aH
	DB	049H
	DB	04aH
	DB	049H
	DB	042H
	DB	029H
	DB	04aH
	DB	049H
	DB	04aH
	DB	048H
	DB	042H
	DB	049H
	DB	04aH
	DB	049H
	DB	04aH
	DB	028H
	DB	04aH
	DB	049H
	DB	04aH
	DB	049H
	DB	04aH
	DB	029H
	DB	04aH
	DB	049H
	DB	04aH
	DB	049H
	DB	04aH
	DB	049H
	DB	04aH
	DB	049H
	DB	04aH
	DB	029H
	DB	04aH
	DB	049H
	DB	04aH
	DB	049H
	DB	04aH
	DB	029H
	DB	04aH
	DB	048H
	DB	04aH
	DB	049H
	DB	042H
	DB	049H
	DB	04aH
	DB	029H
	DB	04aH
	DB	048H
	DB	04aH
	DB	049H
	DB	042H
	DB	049H
	DB	04aH
	DB	029H
	DB	04aH
	DB	049H
	DB	04aH
	DB	029H
	DB	042H
	DB	049H
	DB	04aH
	DB	049H
	DB	04aH
	DB	029H
	DB	04aH
	DB	049H
	DB	04aH
	DB	049H
	DB	04aH
	DB	049H
	DB	04aH
	DB	049H
	DB	04aH
	DB	048H
	DB	042H
	DB	049H
	DB	04aH
	DB	049H
	DB	04aH
	DB	055H
	DB	0adH
	DB	055H
	DB	0adH
	DB	049H
	DB	04aH
	DB	028H
	DB	04aH
	DB	049H
	DB	04aH
	DB	049H
	DB	04aH
	DB	049H
	DB	04aH
	DB	049H
	DB	04aH
	DB	049H
	DB	04aH
	DB	049H
	DB	04aH
	DB	049H
	DB	04aH
	DB	048H
	DB	04aH
	DB	029H
	DB	04aH
	DB	049H
	DB	04aH
	DB	049H
	DB	04aH
	DB	029H
	DB	04aH
	DB	049H
	DB	042H
	DB	049H
	DB	04aH
	DB	029H
	DB	04aH
	DB	048H
	DB	04aH
	DB	049H
	DB	04aH
	DB	049H
	DB	04aH
	DB	048H
	DB	04aH
	DB	029H
	DB	04aH
	DB	049H
	DB	04aH
	DB	049H
	DB	04aH
	DB	029H
	DB	04aH
	DB	049H
	DB	04aH
	DB	049H
	DB	04aH
	DB	029H
	DB	04aH
	DB	049H
	DB	04aH
	DB	049H
	DB	042H
	DB	049H
	DB	04aH
	DB	049H
	DB	04aH
	DB	049H
	DB	04aH
	DB	048H
	DB	042H
	DB	029H
	DB	04aH
	DB	049H
	DB	04aH
	DB	049H
	DB	04aH
	DB	049H
	DB	04aH
	DB	049H
	DB	042H
	DB	049H
	DB	04aH
	DB	029H
	DB	04aH
	DB	049H
	DB	042H
	DB	049H
	DB	04aH
	DB	049H
	DB	04aH
	DB	049H
	DB	04aH
	DB	049H
	DB	042H
	DB	029H
	DB	04aH
	DB	049H
	DB	04aH
	DB	049H
	DB	04aH
	DB	049H
	DB	04aH
	DB	029H
	DB	04aH
	DB	049H
	DB	04aH
	DB	049H
	DB	042H
	DB	029H
	DB	04aH
	DB	029H
	DB	04aH
	DB	049H
	DB	042H
	DB	029H
	DB	04aH
	DB	048H
	DB	04aH
	DB	049H
	DB	04aH
	DB	029H
	DB	042H
	DB	049H
	DB	04aH
	DB	048H
	DB	04aH
	DB	049H
	DB	04aH
	DB	029H
	DB	04aH
	DB	049H
	DB	042H
	DB	049H
	DB	04aH
	DB	049H
	DB	04aH
	DB	029H
	DB	042H
	DB	049H
	DB	04aH
	DB	029H
	DB	04aH
	DB	048H
	DB	042H
	DB	029H
	DB	04aH
	DB	049H
	DB	04aH
	DB	048H
	DB	04aH
	DB	049H
	DB	04aH
	DB	029H
	DB	042H
	DB	049H
	DB	04aH
	DB	049H
	DB	04aH
	DB	028H
	DB	04aH
	DB	029H
	DB	04aH
	DB	049H
	DB	04aH
	DB	049H
	DB	04aH
	DB	029H
	DB	04aH
	DB	049H
	DB	04aH
	DB	049H
	DB	04aH
	DB	029H
	DB	042H
	DB	049H
	DB	04aH
	DB	049H
	DB	04aH
	DB	048H
	DB	04aH
	DB	049H
	DB	04aH
	DB	029H
	DB	04aH
	DB	049H
	DB	04aH
	DB	049H
	DB	042H
	DB	029H
	DB	04aH
	DB	049H
	DB	04aH
	DB	048H
	DB	04aH
	DB	049H
	DB	04aH
	DB	049H
	DB	04aH
	DB	029H
	DB	04aH
	DB	049H
	DB	04aH
	DB	049H
	DB	04aH
	DB	049H
	DB	04aH
	DB	029H
	DB	042H
	DB	049H
	DB	04aH
	DB	029H
	DB	04aH
	DB	028H
	DB	04aH
	DB	049H
	DB	04aH
	DB	049H
	DB	042H
	DB	049H
	DB	04aH
	DB	049H
	DB	04aH
	DB	028H
	DB	04aH
	DB	049H
	DB	04aH
	DB	049H
	DB	04aH
	DB	029H
	DB	04aH
	DB	049H
	DB	04aH
	DB	029H
	DB	04aH
	DB	049H
	DB	04aH
	DB	029H
	DB	042H
	DB	049H
	DB	04aH
	DB	029H
	DB	04aH
	DB	048H
	DB	04aH
	DB	049H
	DB	04aH
	DB	049H
	DB	042H
	DB	029H
	DB	04aH
	DB	049H
	DB	04aH
	DB	048H
	DB	04aH
	DB	049H
	DB	04aH
	DB	029H
	DB	04aH
	DB	049H
	DB	04aH
	DB	049H
	DB	04aH
	DB	029H
	DB	04aH
	DB	049H
	DB	04aH
	DB	049H
	DB	042H
	DB	029H
	DB	04aH
	DB	049H
	DB	04aH
	DB	048H
	DB	04aH
	DB	029H
	DB	04aH
	DB	049H
	DB	042H
	DB	049H
	DB	04aH
	DB	049H
	DB	04aH
	DB	048H
	DB	042H
	DB	049H
	DB	04aH
	DB	049H
	DB	04aH
	DB	049H
	DB	04aH
	DB	049H
	DB	04aH
	DB	049H
	DB	04aH
	DB	049H
	DB	04aH
	DB	029H
	DB	04aH
	DB	049H
	DB	04aH
	DB	049H
	DB	04aH
	DB	049H
	DB	04aH
	DB	049H
	DB	04aH
	DB	049H
	DB	04aH
	DB	028H
	DB	04aH
	DB	049H
	DB	04aH
	DB	049H
	DB	042H
	DB	048H
	DB	04aH
	DB	049H
	DB	04aH
	DB	029H
	DB	04aH
	DB	049H
	DB	04aH
	DB	049H
	DB	04aH
	DB	049H
	DB	04aH
	DB	049H
	DB	04aH
	DB	035H
	DB	0adH
	DB	055H
	DB	0adH
	DB	049H
	DB	04aH
	DB	049H
	DB	04aH
	DB	029H
	DB	04aH
	DB	049H
	DB	04aH
	DB	028H
	DB	04aH
	DB	049H
	DB	042H
	DB	029H
	DB	04aH
	DB	029H
	DB	04aH
	DB	049H
	DB	04aH
	DB	049H
	DB	04aH
	DB	049H
	DB	04aH
	DB	028H
	DB	04aH
	DB	049H
	DB	04aH
	DB	049H
	DB	04aH
	DB	049H
	DB	04aH
	DB	049H
	DB	04aH
	DB	029H
	DB	04aH
	DB	049H
	DB	04aH
	DB	049H
	DB	04aH
	DB	029H
	DB	042H
	DB	049H
	DB	04aH
	DB	049H
	DB	04aH
	DB	049H
	DB	04aH
	DB	049H
	DB	04aH
	DB	049H
	DB	04aH
	DB	049H
	DB	04aH
	DB	049H
	DB	042H
	DB	048H
	DB	04aH
	DB	049H
	DB	04aH
	DB	029H
	DB	04aH
	DB	049H
	DB	04aH
	DB	029H
	DB	04aH
	DB	049H
	DB	04aH
	DB	049H
	DB	04aH
	DB	049H
	DB	04aH
	DB	049H
	DB	04aH
	DB	029H
	DB	042H
	DB	049H
	DB	04aH
	DB	049H
	DB	04aH
	DB	049H
	DB	04aH
	DB	049H
	DB	04aH
	DB	029H
	DB	04aH
	DB	049H
	DB	04aH
	DB	029H
	DB	04aH
	DB	048H
	DB	04aH
	DB	049H
	DB	04aH
	DB	049H
	DB	04aH
	DB	048H
	DB	04aH
	DB	049H
	DB	042H
	DB	049H
	DB	04aH
	DB	048H
	DB	04aH
	DB	049H
	DB	04aH
	DB	049H
	DB	04aH
	DB	049H
	DB	04aH
	DB	049H
	DB	04aH
	DB	049H
	DB	04aH
	DB	029H
	DB	04aH
	DB	049H
	DB	04aH
	DB	049H
	DB	04aH
	DB	049H
	DB	04aH
	DB	049H
	DB	04aH
	DB	049H
	DB	04aH
	DB	049H
	DB	042H
	DB	048H
	DB	04aH
	DB	029H
	DB	04aH
	DB	049H
	DB	04aH
	DB	048H
	DB	04aH
	DB	049H
	DB	04aH
	DB	049H
	DB	04aH
	DB	049H
	DB	04aH
	DB	029H
	DB	04aH
	DB	049H
	DB	04aH
	DB	049H
	DB	042H
	DB	029H
	DB	04aH
	DB	049H
	DB	04aH
	DB	048H
	DB	04aH
	DB	029H
	DB	04aH
	DB	049H
	DB	04aH
	DB	049H
	DB	042H
	DB	049H
	DB	04aH
	DB	049H
	DB	04aH
	DB	048H
	DB	042H
	DB	049H
	DB	04aH
	DB	049H
	DB	04aH
	DB	028H
	DB	04aH
	DB	049H
	DB	04aH
	DB	049H
	DB	04aH
	DB	029H
	DB	04aH
	DB	049H
	DB	042H
	DB	049H
	DB	04aH
	DB	049H
	DB	04aH
	DB	048H
	DB	04aH
	DB	029H
	DB	04aH
	DB	049H
	DB	04aH
	DB	049H
	DB	04aH
	DB	029H
	DB	04aH
	DB	049H
	DB	04aH
	DB	049H
	DB	04aH
	DB	049H
	DB	04aH
	DB	049H
	DB	042H
	DB	049H
	DB	04aH
	DB	049H
	DB	04aH
	DB	048H
	DB	04aH
	DB	049H
	DB	04aH
	DB	049H
	DB	04aH
	DB	049H
	DB	042H
	DB	049H
	DB	04aH
	DB	029H
	DB	04aH
	DB	048H
	DB	04aH
	DB	049H
	DB	04aH
	DB	049H
	DB	04aH
	DB	049H
	DB	04aH
	DB	049H
	DB	04aH
	DB	049H
	DB	04aH
	DB	049H
	DB	042H
	DB	049H
	DB	04aH
	DB	029H
	DB	04aH
	DB	048H
	DB	04aH
	DB	049H
	DB	04aH
	DB	049H
	DB	04aH
	DB	029H
	DB	042H
	DB	049H
	DB	04aH
	DB	049H
	DB	04aH
	DB	048H
	DB	04aH
	DB	029H
	DB	04aH
	DB	049H
	DB	04aH
	DB	049H
	DB	04aH
	DB	049H
	DB	04aH
	DB	029H
	DB	04aH
	DB	049H
	DB	042H
	DB	049H
	DB	04aH
	DB	049H
	DB	04aH
	DB	048H
	DB	04aH
	DB	049H
	DB	04aH
	DB	049H
	DB	04aH
	DB	049H
	DB	042H
	DB	029H
	DB	04aH
	DB	049H
	DB	04aH
	DB	048H
	DB	04aH
	DB	029H
	DB	04aH
	DB	029H
	DB	04aH
	DB	049H
	DB	04aH
	DB	049H
	DB	04aH
	DB	029H
	DB	04aH
	DB	029H
	DB	04aH
	DB	048H
	DB	042H
	DB	049H
	DB	04aH
	DB	049H
	DB	04aH
	DB	029H
	DB	04aH
	DB	048H
	DB	042H
	DB	049H
	DB	04aH
	DB	029H
	DB	04aH
	DB	049H
	DB	04aH
	DB	049H
	DB	04aH
	DB	029H
	DB	04aH
	DB	049H
	DB	04aH
	DB	049H
	DB	04aH
	DB	029H
	DB	04aH
	DB	049H
	DB	042H
	DB	029H
	DB	04aH
	DB	049H
	DB	04aH
	DB	029H
	DB	04aH
	DB	049H
	DB	04aH
	DB	055H
	DB	0adH
	DB	055H
	DB	0adH
	DB	049H
	DB	04aH
	DB	049H
	DB	04aH
	DB	049H
	DB	04aH
	DB	049H
	DB	04aH
	DB	049H
	DB	04aH
	DB	049H
	DB	04aH
	DB	049H
	DB	04aH
	DB	048H
	DB	042H
	DB	029H
	DB	04aH
	DB	049H
	DB	04aH
	DB	049H
	DB	042H
	DB	049H
	DB	04aH
	DB	029H
	DB	04aH
	DB	049H
	DB	042H
	DB	048H
	DB	04aH
	DB	029H
	DB	04aH
	DB	049H
	DB	04aH
	DB	049H
	DB	04aH
	DB	029H
	DB	04aH
	DB	049H
	DB	04aH
	DB	049H
	DB	04aH
	DB	029H
	DB	04aH
	DB	049H
	DB	042H
	DB	028H
	DB	04aH
	DB	049H
	DB	04aH
	DB	049H
	DB	04aH
	DB	029H
	DB	04aH
	DB	049H
	DB	04aH
	DB	049H
	DB	04aH
	DB	048H
	DB	04aH
	DB	029H
	DB	04aH
	DB	049H
	DB	042H
	DB	048H
	DB	04aH
	DB	029H
	DB	04aH
	DB	049H
	DB	04aH
	DB	049H
	DB	04aH
	DB	028H
	DB	04aH
	DB	049H
	DB	04aH
	DB	029H
	DB	04aH
	DB	048H
	DB	04aH
	DB	049H
	DB	04aH
	DB	049H
	DB	04aH
	DB	048H
	DB	04aH
	DB	029H
	DB	042H
	DB	049H
	DB	04aH
	DB	049H
	DB	04aH
	DB	029H
	DB	04aH
	DB	029H
	DB	04aH
	DB	049H
	DB	04aH
	DB	029H
	DB	04aH
	DB	049H
	DB	042H
	DB	029H
	DB	04aH
	DB	048H
	DB	04aH
	DB	049H
	DB	04aH
	DB	049H
	DB	04aH
	DB	048H
	DB	04aH
	DB	049H
	DB	042H
	DB	029H
	DB	04aH
	DB	049H
	DB	04aH
	DB	048H
	DB	04aH
	DB	029H
	DB	04aH
	DB	029H
	DB	04aH
	DB	049H
	DB	04aH
	DB	049H
	DB	04aH
	DB	049H
	DB	04aH
	DB	029H
	DB	04aH
	DB	049H
	DB	04aH
	DB	049H
	DB	04aH
	DB	029H
	DB	04aH
	DB	049H
	DB	04aH
	DB	049H
	DB	04aH
	DB	049H
	DB	04aH
	DB	049H
	DB	04aH
	DB	049H
	DB	04aH
	DB	049H
	DB	04aH
	DB	049H
	DB	04aH
	DB	049H
	DB	04aH
	DB	049H
	DB	04aH
	DB	049H
	DB	04aH
	DB	029H
	DB	04aH
	DB	049H
	DB	04aH
	DB	029H
	DB	04aH
	DB	049H
	DB	04aH
	DB	049H
	DB	04aH
	DB	049H
	DB	04aH
	DB	049H
	DB	04aH
	DB	049H
	DB	04aH
	DB	029H
	DB	04aH
	DB	049H
	DB	04aH
	DB	049H
	DB	04aH
	DB	029H
	DB	04aH
	DB	049H
	DB	04aH
	DB	049H
	DB	04aH
	DB	049H
	DB	04aH
	DB	049H
	DB	042H
	DB	029H
	DB	04aH
	DB	049H
	DB	04aH
	DB	028H
	DB	042H
	DB	049H
	DB	04aH
	DB	029H
	DB	04aH
	DB	028H
	DB	04aH
	DB	049H
	DB	04aH
	DB	049H
	DB	04aH
	DB	029H
	DB	04aH
	DB	049H
	DB	04aH
	DB	049H
	DB	04aH
	DB	049H
	DB	04aH
	DB	029H
	DB	04aH
	DB	049H
	DB	04aH
	DB	049H
	DB	04aH
	DB	029H
	DB	042H
	DB	049H
	DB	04aH
	DB	029H
	DB	04aH
	DB	048H
	DB	04aH
	DB	049H
	DB	04aH
	DB	049H
	DB	04aH
	DB	049H
	DB	04aH
	DB	049H
	DB	04aH
	DB	049H
	DB	04aH
	DB	049H
	DB	04aH
	DB	049H
	DB	04aH
	DB	029H
	DB	04aH
	DB	049H
	DB	04aH
	DB	049H
	DB	04aH
	DB	049H
	DB	04aH
	DB	029H
	DB	042H
	DB	049H
	DB	04aH
	DB	049H
	DB	04aH
	DB	048H
	DB	04aH
	DB	029H
	DB	04aH
	DB	049H
	DB	04aH
	DB	049H
	DB	04aH
	DB	029H
	DB	04aH
	DB	049H
	DB	04aH
	DB	049H
	DB	04aH
	DB	029H
	DB	04aH
	DB	049H
	DB	04aH
	DB	049H
	DB	04aH
	DB	049H
	DB	04aH
	DB	049H
	DB	04aH
	DB	049H
	DB	04aH
	DB	029H
	DB	04aH
	DB	049H
	DB	042H
	DB	048H
	DB	04aH
	DB	049H
	DB	04aH
	DB	029H
	DB	04aH
	DB	049H
	DB	04aH
	DB	049H
	DB	04aH
	DB	049H
	DB	04aH
	DB	029H
	DB	04aH
	DB	049H
	DB	04aH
	DB	048H
	DB	04aH
	DB	049H
	DB	042H
	DB	049H
	DB	04aH
	DB	049H
	DB	04aH
	DB	029H
	DB	04aH
	DB	049H
	DB	04aH
	DB	048H
	DB	04aH
	DB	049H
	DB	04aH
	DB	049H
	DB	04aH
	DB	048H
	DB	04aH
	DB	049H
	DB	042H
	DB	049H
	DB	04aH
	DB	055H
	DB	0adH
	DB	035H
	DB	0adH
	DB	049H
	DB	04aH
	DB	049H
	DB	04aH
	DB	029H
	DB	042H
	DB	048H
	DB	04aH
	DB	049H
	DB	04aH
	DB	029H
	DB	04aH
	DB	049H
	DB	04aH
	DB	049H
	DB	04aH
	DB	049H
	DB	04aH
	DB	029H
	DB	04aH
	DB	049H
	DB	04aH
	DB	049H
	DB	04aH
	DB	049H
	DB	04aH
	DB	029H
	DB	04aH
	DB	049H
	DB	04aH
	DB	049H
	DB	04aH
	DB	048H
	DB	042H
	DB	049H
	DB	04aH
	DB	049H
	DB	04aH
	DB	048H
	DB	04aH
	DB	049H
	DB	04aH
	DB	049H
	DB	04aH
	DB	049H
	DB	04aH
	DB	029H
	DB	04aH
	DB	049H
	DB	042H
	DB	048H
	DB	04aH
	DB	029H
	DB	04aH
	DB	049H
	DB	04aH
	DB	049H
	DB	042H
	DB	049H
	DB	04aH
	DB	049H
	DB	04aH
	DB	049H
	DB	04aH
	DB	049H
	DB	04aH
	DB	029H
	DB	04aH
	DB	049H
	DB	042H
	DB	049H
	DB	04aH
	DB	049H
	DB	04aH
	DB	049H
	DB	04aH
	DB	049H
	DB	04aH
	DB	029H
	DB	042H
	DB	049H
	DB	04aH
	DB	049H
	DB	04aH
	DB	029H
	DB	04aH
	DB	049H
	DB	04aH
	DB	049H
	DB	04aH
	DB	049H
	DB	04aH
	DB	049H
	DB	042H
	DB	049H
	DB	04aH
	DB	049H
	DB	04aH
	DB	049H
	DB	04aH
	DB	029H
	DB	04aH
	DB	049H
	DB	04aH
	DB	029H
	DB	04aH
	DB	029H
	DB	042H
	DB	049H
	DB	04aH
	DB	049H
	DB	04aH
	DB	029H
	DB	04aH
	DB	049H
	DB	04aH
	DB	049H
	DB	042H
	DB	049H
	DB	04aH
	DB	049H
	DB	04aH
	DB	049H
	DB	042H
	DB	029H
	DB	04aH
	DB	049H
	DB	04aH
	DB	049H
	DB	04aH
	DB	049H
	DB	042H
	DB	029H
	DB	04aH
	DB	049H
	DB	04aH
	DB	048H
	DB	042H
	DB	029H
	DB	04aH
	DB	049H
	DB	04aH
	DB	048H
	DB	04aH
	DB	029H
	DB	04aH
	DB	049H
	DB	04aH
	DB	029H
	DB	042H
	DB	049H
	DB	04aH
	DB	049H
	DB	04aH
	DB	028H
	DB	042H
	DB	049H
	DB	04aH
	DB	049H
	DB	04aH
	DB	028H
	DB	04aH
	DB	049H
	DB	04aH
	DB	049H
	DB	04aH
	DB	029H
	DB	042H
	DB	049H
	DB	04aH
	DB	049H
	DB	04aH
	DB	028H
	DB	042H
	DB	049H
	DB	04aH
	DB	049H
	DB	04aH
	DB	028H
	DB	04aH
	DB	049H
	DB	042H
	DB	049H
	DB	04aH
	DB	029H
	DB	04aH
	DB	048H
	DB	04aH
	DB	049H
	DB	04aH
	DB	049H
	DB	04aH
	DB	049H
	DB	04aH
	DB	049H
	DB	04aH
	DB	049H
	DB	04aH
	DB	049H
	DB	04aH
	DB	049H
	DB	04aH
	DB	049H
	DB	042H
	DB	029H
	DB	04aH
	DB	049H
	DB	04aH
	DB	048H
	DB	04aH
	DB	029H
	DB	04aH
	DB	049H
	DB	04aH
	DB	049H
	DB	042H
	DB	049H
	DB	04aH
	DB	029H
	DB	04aH
	DB	048H
	DB	04aH
	DB	049H
	DB	04aH
	DB	049H
	DB	042H
	DB	029H
	DB	04aH
	DB	029H
	DB	04aH
	DB	048H
	DB	04aH
	DB	049H
	DB	042H
	DB	029H
	DB	04aH
	DB	029H
	DB	04aH
	DB	048H
	DB	04aH
	DB	049H
	DB	04aH
	DB	049H
	DB	04aH
	DB	029H
	DB	042H
	DB	049H
	DB	04aH
	DB	049H
	DB	04aH
	DB	048H
	DB	04aH
	DB	029H
	DB	04aH
	DB	049H
	DB	042H
	DB	049H
	DB	04aH
	DB	049H
	DB	04aH
	DB	028H
	DB	04aH
	DB	049H
	DB	042H
	DB	049H
	DB	04aH
	DB	029H
	DB	04aH
	DB	048H
	DB	04aH
	DB	049H
	DB	04aH
	DB	049H
	DB	04aH
	DB	029H
	DB	04aH
	DB	049H
	DB	042H
	DB	049H
	DB	04aH
	DB	048H
	DB	04aH
	DB	049H
	DB	04aH
	DB	049H
	DB	04aH
	DB	049H
	DB	04aH
	DB	049H
	DB	04aH
	DB	049H
	DB	04aH
	DB	029H
	DB	04aH
	DB	048H
	DB	042H
	DB	049H
	DB	04aH
	DB	049H
	DB	04aH
	DB	029H
	DB	04aH
	DB	049H
	DB	04aH
	DB	049H
	DB	04aH
	DB	029H
	DB	04aH
	DB	048H
	DB	042H
	DB	049H
	DB	04aH
	DB	049H
	DB	04aH
	DB	049H
	DB	042H
	DB	029H
	DB	04aH
	DB	049H
	DB	04aH
	DB	049H
	DB	04aH
	DB	029H
	DB	04aH
	DB	049H
	DB	04aH
	DB	055H
	DB	0adH
	DB	055H
	DB	0adH
	DB	049H
	DB	04aH
	DB	049H
	DB	04aH
	DB	029H
	DB	04aH
	DB	049H
	DB	04aH
	DB	049H
	DB	042H
	DB	029H
	DB	04aH
	DB	049H
	DB	04aH
	DB	049H
	DB	04aH
	DB	049H
	DB	04aH
	DB	048H
	DB	042H
	DB	029H
	DB	04aH
	DB	049H
	DB	04aH
	DB	048H
	DB	04aH
	DB	049H
	DB	04aH
	DB	049H
	DB	04aH
	DB	029H
	DB	04aH
	DB	049H
	DB	04aH
	DB	049H
	DB	04aH
	DB	029H
	DB	042H
	DB	049H
	DB	04aH
	DB	029H
	DB	04aH
	DB	048H
	DB	042H
	DB	049H
	DB	04aH
	DB	049H
	DB	04aH
	DB	049H
	DB	04aH
	DB	049H
	DB	04aH
	DB	049H
	DB	04aH
	DB	029H
	DB	04aH
	DB	049H
	DB	04aH
	DB	029H
	DB	04aH
	DB	049H
	DB	04aH
	DB	049H
	DB	04aH
	DB	029H
	DB	04aH
	DB	049H
	DB	04aH
	DB	048H
	DB	04aH
	DB	029H
	DB	04aH
	DB	049H
	DB	04aH
	DB	049H
	DB	04aH
	DB	049H
	DB	04aH
	DB	029H
	DB	04aH
	DB	049H
	DB	04aH
	DB	049H
	DB	04aH
	DB	049H
	DB	042H
	DB	049H
	DB	04aH
	DB	028H
	DB	04aH
	DB	049H
	DB	04aH
	DB	049H
	DB	04aH
	DB	028H
	DB	04aH
	DB	049H
	DB	04aH
	DB	049H
	DB	04aH
	DB	048H
	DB	04aH
	DB	049H
	DB	04aH
	DB	049H
	DB	04aH
	DB	049H
	DB	04aH
	DB	049H
	DB	04aH
	DB	029H
	DB	04aH
	DB	048H
	DB	04aH
	DB	049H
	DB	04aH
	DB	029H
	DB	04aH
	DB	049H
	DB	04aH
	DB	049H
	DB	04aH
	DB	048H
	DB	04aH
	DB	049H
	DB	04aH
	DB	029H
	DB	04aH
	DB	048H
	DB	04aH
	DB	049H
	DB	04aH
	DB	049H
	DB	04aH
	DB	049H
	DB	04aH
	DB	049H
	DB	04aH
	DB	049H
	DB	04aH
	DB	049H
	DB	042H
	DB	029H
	DB	04aH
	DB	049H
	DB	04aH
	DB	048H
	DB	04aH
	DB	029H
	DB	04aH
	DB	049H
	DB	04aH
	DB	049H
	DB	04aH
	DB	029H
	DB	04aH
	DB	049H
	DB	04aH
	DB	049H
	DB	04aH
	DB	049H
	DB	042H
	DB	049H
	DB	04aH
	DB	049H
	DB	04aH
	DB	028H
	DB	04aH
	DB	049H
	DB	04aH
	DB	049H
	DB	04aH
	DB	049H
	DB	04aH
	DB	049H
	DB	04aH
	DB	049H
	DB	04aH
	DB	049H
	DB	04aH
	DB	049H
	DB	04aH
	DB	049H
	DB	04aH
	DB	029H
	DB	042H
	DB	049H
	DB	04aH
	DB	049H
	DB	04aH
	DB	028H
	DB	04aH
	DB	049H
	DB	04aH
	DB	049H
	DB	04aH
	DB	029H
	DB	04aH
	DB	049H
	DB	04aH
	DB	049H
	DB	04aH
	DB	049H
	DB	04aH
	DB	049H
	DB	04aH
	DB	049H
	DB	042H
	DB	049H
	DB	04aH
	DB	029H
	DB	04aH
	DB	048H
	DB	04aH
	DB	049H
	DB	04aH
	DB	049H
	DB	04aH
	DB	049H
	DB	04aH
	DB	049H
	DB	04aH
	DB	049H
	DB	04aH
	DB	049H
	DB	04aH
	DB	049H
	DB	04aH
	DB	049H
	DB	04aH
	DB	049H
	DB	04aH
	DB	029H
	DB	04aH
	DB	049H
	DB	04aH
	DB	049H
	DB	042H
	DB	029H
	DB	04aH
	DB	049H
	DB	04aH
	DB	048H
	DB	04aH
	DB	049H
	DB	04aH
	DB	029H
	DB	04aH
	DB	049H
	DB	04aH
	DB	049H
	DB	04aH
	DB	049H
	DB	04aH
	DB	029H
	DB	04aH
	DB	049H
	DB	04aH
	DB	049H
	DB	04aH
	DB	049H
	DB	04aH
	DB	049H
	DB	04aH
	DB	049H
	DB	04aH
	DB	029H
	DB	042H
	DB	049H
	DB	04aH
	DB	049H
	DB	04aH
	DB	028H
	DB	042H
	DB	049H
	DB	04aH
	DB	049H
	DB	04aH
	DB	029H
	DB	04aH
	DB	029H
	DB	04aH
	DB	049H
	DB	042H
	DB	029H
	DB	04aH
	DB	029H
	DB	04aH
	DB	049H
	DB	042H
	DB	049H
	DB	04aH
	DB	049H
	DB	04aH
	DB	029H
	DB	04aH
	DB	049H
	DB	04aH
	DB	049H
	DB	04aH
	DB	049H
	DB	042H
	DB	029H
	DB	04aH
	DB	049H
	DB	04aH
	DB	049H
	DB	04aH
	DB	029H
	DB	04aH
	DB	049H
	DB	04aH
	DB	049H
	DB	04aH
	DB	029H
	DB	04aH
	DB	049H
	DB	04aH
	DB	049H
	DB	04aH
	DB	029H
	DB	04aH
	DB	049H
	DB	04aH
	DB	049H
	DB	04aH
	DB	055H
	DB	0adH
	DB	055H
	DB	0adH
	DB	049H
	DB	04aH
	DB	049H
	DB	04aH
	DB	049H
	DB	04aH
	DB	049H
	DB	04aH
	DB	049H
	DB	04aH
	DB	048H
	DB	04aH
	DB	029H
	DB	04aH
	DB	049H
	DB	042H
	DB	049H
	DB	04aH
	DB	029H
	DB	04aH
	DB	049H
	DB	04aH
	DB	049H
	DB	04aH
	DB	029H
	DB	042H
	DB	049H
	DB	04aH
	DB	049H
	DB	04aH
	DB	029H
	DB	042H
	DB	049H
	DB	04aH
	DB	049H
	DB	04aH
	DB	028H
	DB	04aH
	DB	049H
	DB	04aH
	DB	049H
	DB	04aH
	DB	029H
	DB	04aH
	DB	049H
	DB	04aH
	DB	029H
	DB	04aH
	DB	049H
	DB	04aH
	DB	049H
	DB	04aH
	DB	029H
	DB	042H
	DB	048H
	DB	04aH
	DB	049H
	DB	04aH
	DB	029H
	DB	04aH
	DB	048H
	DB	042H
	DB	049H
	DB	04aH
	DB	049H
	DB	04aH
	DB	049H
	DB	042H
	DB	049H
	DB	04aH
	DB	029H
	DB	04aH
	DB	049H
	DB	042H
	DB	048H
	DB	04aH
	DB	029H
	DB	04aH
	DB	049H
	DB	04aH
	DB	048H
	DB	04aH
	DB	029H
	DB	04aH
	DB	049H
	DB	04aH
	DB	049H
	DB	04aH
	DB	029H
	DB	04aH
	DB	049H
	DB	04aH
	DB	049H
	DB	04aH
	DB	029H
	DB	042H
	DB	049H
	DB	04aH
	DB	049H
	DB	04aH
	DB	029H
	DB	042H
	DB	049H
	DB	04aH
	DB	049H
	DB	04aH
	DB	048H
	DB	04aH
	DB	049H
	DB	042H
	DB	049H
	DB	04aH
	DB	049H
	DB	04aH
	DB	049H
	DB	04aH
	DB	028H
	DB	04aH
	DB	049H
	DB	04aH
	DB	029H
	DB	04aH
	DB	049H
	DB	04aH
	DB	049H
	DB	04aH
	DB	049H
	DB	042H
	DB	029H
	DB	04aH
	DB	049H
	DB	04aH
	DB	048H
	DB	04aH
	DB	029H
	DB	04aH
	DB	049H
	DB	04aH
	DB	049H
	DB	04aH
	DB	029H
	DB	04aH
	DB	049H
	DB	04aH
	DB	049H
	DB	04aH
	DB	049H
	DB	042H
	DB	049H
	DB	04aH
	DB	049H
	DB	04aH
	DB	048H
	DB	04aH
	DB	049H
	DB	04aH
	DB	029H
	DB	04aH
	DB	049H
	DB	04aH
	DB	049H
	DB	04aH
	DB	029H
	DB	04aH
	DB	049H
	DB	04aH
	DB	049H
	DB	04aH
	DB	029H
	DB	04aH
	DB	049H
	DB	04aH
	DB	049H
	DB	04aH
	DB	029H
	DB	042H
	DB	049H
	DB	04aH
	DB	029H
	DB	04aH
	DB	048H
	DB	04aH
	DB	049H
	DB	04aH
	DB	049H
	DB	04aH
	DB	049H
	DB	04aH
	DB	029H
	DB	04aH
	DB	049H
	DB	042H
	DB	049H
	DB	04aH
	DB	029H
	DB	04aH
	DB	048H
	DB	042H
	DB	029H
	DB	04aH
	DB	049H
	DB	04aH
	DB	028H
	DB	04aH
	DB	049H
	DB	04aH
	DB	049H
	DB	04aH
	DB	029H
	DB	04aH
	DB	049H
	DB	04aH
	DB	049H
	DB	042H
	DB	029H
	DB	04aH
	DB	029H
	DB	04aH
	DB	048H
	DB	04aH
	DB	029H
	DB	042H
	DB	029H
	DB	04aH
	DB	049H
	DB	04aH
	DB	048H
	DB	04aH
	DB	049H
	DB	042H
	DB	029H
	DB	04aH
	DB	049H
	DB	04aH
	DB	048H
	DB	04aH
	DB	049H
	DB	04aH
	DB	049H
	DB	04aH
	DB	029H
	DB	04aH
	DB	049H
	DB	042H
	DB	049H
	DB	04aH
	DB	049H
	DB	04aH
	DB	028H
	DB	04aH
	DB	049H
	DB	042H
	DB	049H
	DB	04aH
	DB	049H
	DB	04aH
	DB	028H
	DB	04aH
	DB	049H
	DB	042H
	DB	029H
	DB	04aH
	DB	049H
	DB	04aH
	DB	048H
	DB	04aH
	DB	049H
	DB	04aH
	DB	049H
	DB	04aH
	DB	049H
	DB	04aH
	DB	049H
	DB	04aH
	DB	049H
	DB	04aH
	DB	049H
	DB	04aH
	DB	048H
	DB	04aH
	DB	049H
	DB	04aH
	DB	049H
	DB	04aH
	DB	049H
	DB	04aH
	DB	048H
	DB	04aH
	DB	049H
	DB	04aH
	DB	029H
	DB	04aH
	DB	049H
	DB	04aH
	DB	049H
	DB	04aH
	DB	028H
	DB	04aH
	DB	049H
	DB	04aH
	DB	049H
	DB	04aH
	DB	048H
	DB	04aH
	DB	049H
	DB	04aH
	DB	049H
	DB	04aH
	DB	049H
	DB	04aH
	DB	028H
	DB	04aH
	DB	049H
	DB	04aH
	DB	049H
	DB	04aH
	DB	048H
	DB	04aH
	DB	049H
	DB	042H
	DB	049H
	DB	04aH
	DB	048H
	DB	04aH
	DB	049H
	DB	04aH
	DB	055H
	DB	0adH
	DB	055H
	DB	0adH
	DB	049H
	DB	04aH
	DB	029H
	DB	04aH
	DB	048H
	DB	04aH
	DB	029H
	DB	04aH
	DB	049H
	DB	04aH
	DB	049H
	DB	04aH
	DB	029H
	DB	04aH
	DB	048H
	DB	04aH
	DB	049H
	DB	04aH
	DB	049H
	DB	04aH
	DB	049H
	DB	04aH
	DB	049H
	DB	04aH
	DB	029H
	DB	04aH
	DB	048H
	DB	04aH
	DB	049H
	DB	04aH
	DB	049H
	DB	04aH
	DB	048H
	DB	04aH
	DB	049H
	DB	04aH
	DB	049H
	DB	04aH
	DB	049H
	DB	04aH
	DB	049H
	DB	04aH
	DB	049H
	DB	04aH
	DB	049H
	DB	04aH
	DB	028H
	DB	042H
	DB	049H
	DB	04aH
	DB	049H
	DB	04aH
	DB	029H
	DB	04aH
	DB	049H
	DB	04aH
	DB	049H
	DB	04aH
	DB	049H
	DB	04aH
	DB	029H
	DB	04aH
	DB	049H
	DB	04aH
	DB	048H
	DB	04aH
	DB	029H
	DB	04aH
	DB	049H
	DB	04aH
	DB	049H
	DB	04aH
	DB	049H
	DB	04aH
	DB	049H
	DB	04aH
	DB	029H
	DB	042H
	DB	049H
	DB	04aH
	DB	049H
	DB	04aH
	DB	049H
	DB	042H
	DB	028H
	DB	04aH
	DB	049H
	DB	04aH
	DB	049H
	DB	042H
	DB	049H
	DB	04aH
	DB	049H
	DB	04aH
	DB	049H
	DB	04aH
	DB	048H
	DB	04aH
	DB	029H
	DB	04aH
	DB	049H
	DB	04aH
	DB	049H
	DB	04aH
	DB	029H
	DB	04aH
	DB	029H
	DB	04aH
	DB	049H
	DB	04aH
	DB	029H
	DB	04aH
	DB	049H
	DB	042H
	DB	049H
	DB	04aH
	DB	049H
	DB	04aH
	DB	049H
	DB	042H
	DB	049H
	DB	04aH
	DB	029H
	DB	04aH
	DB	049H
	DB	04aH
	DB	049H
	DB	04aH
	DB	049H
	DB	04aH
	DB	029H
	DB	04aH
	DB	049H
	DB	042H
	DB	049H
	DB	04aH
	DB	029H
	DB	04aH
	DB	048H
	DB	042H
	DB	049H
	DB	04aH
	DB	049H
	DB	04aH
	DB	028H
	DB	04aH
	DB	049H
	DB	04aH
	DB	049H
	DB	04aH
	DB	029H
	DB	04aH
	DB	049H
	DB	042H
	DB	049H
	DB	04aH
	DB	049H
	DB	04aH
	DB	048H
	DB	042H
	DB	029H
	DB	04aH
	DB	049H
	DB	04aH
	DB	048H
	DB	042H
	DB	049H
	DB	04aH
	DB	049H
	DB	04aH
	DB	028H
	DB	042H
	DB	049H
	DB	04aH
	DB	049H
	DB	04aH
	DB	028H
	DB	04aH
	DB	049H
	DB	04aH
	DB	049H
	DB	042H
	DB	029H
	DB	04aH
	DB	049H
	DB	04aH
	DB	048H
	DB	04aH
	DB	049H
	DB	04aH
	DB	049H
	DB	04aH
	DB	049H
	DB	04aH
	DB	049H
	DB	04aH
	DB	049H
	DB	04aH
	DB	049H
	DB	04aH
	DB	049H
	DB	042H
	DB	029H
	DB	04aH
	DB	049H
	DB	04aH
	DB	048H
	DB	04aH
	DB	029H
	DB	04aH
	DB	049H
	DB	04aH
	DB	049H
	DB	04aH
	DB	049H
	DB	04aH
	DB	049H
	DB	04aH
	DB	049H
	DB	04aH
	DB	049H
	DB	04aH
	DB	049H
	DB	04aH
	DB	029H
	DB	04aH
	DB	049H
	DB	04aH
	DB	049H
	DB	04aH
	DB	049H
	DB	04aH
	DB	049H
	DB	04aH
	DB	049H
	DB	04aH
	DB	029H
	DB	04aH
	DB	049H
	DB	04aH
	DB	049H
	DB	04aH
	DB	029H
	DB	04aH
	DB	049H
	DB	04aH
	DB	049H
	DB	04aH
	DB	049H
	DB	04aH
	DB	029H
	DB	04aH
	DB	049H
	DB	04aH
	DB	049H
	DB	04aH
	DB	049H
	DB	04aH
	DB	049H
	DB	04aH
	DB	029H
	DB	04aH
	DB	049H
	DB	04aH
	DB	049H
	DB	04aH
	DB	029H
	DB	04aH
	DB	029H
	DB	04aH
	DB	049H
	DB	04aH
	DB	029H
	DB	04aH
	DB	049H
	DB	04aH
	DB	029H
	DB	042H
	DB	049H
	DB	04aH
	DB	049H
	DB	04aH
	DB	029H
	DB	04aH
	DB	049H
	DB	04aH
	DB	049H
	DB	04aH
	DB	049H
	DB	04aH
	DB	048H
	DB	04aH
	DB	049H
	DB	042H
	DB	049H
	DB	04aH
	DB	049H
	DB	04aH
	DB	029H
	DB	042H
	DB	049H
	DB	04aH
	DB	049H
	DB	04aH
	DB	029H
	DB	042H
	DB	049H
	DB	04aH
	DB	049H
	DB	04aH
	DB	049H
	DB	042H
	DB	029H
	DB	04aH
	DB	049H
	DB	04aH
	DB	029H
	DB	04aH
	DB	049H
	DB	04aH
	DB	049H
	DB	04aH
	DB	029H
	DB	04aH
	DB	049H
	DB	04aH
	DB	055H
	DB	0adH
	DB	055H
	DB	0adH
	DB	049H
	DB	04aH
	DB	049H
	DB	04aH
	DB	049H
	DB	04aH
	DB	029H
	DB	042H
	DB	049H
	DB	04aH
	DB	049H
	DB	04aH
	DB	049H
	DB	04aH
	DB	029H
	DB	04aH
	DB	049H
	DB	04aH
	DB	049H
	DB	042H
	DB	028H
	DB	04aH
	DB	049H
	DB	04aH
	DB	049H
	DB	04aH
	DB	049H
	DB	04aH
	DB	029H
	DB	04aH
	DB	049H
	DB	04aH
	DB	029H
	DB	04aH
	DB	049H
	DB	042H
	DB	029H
	DB	04aH
	DB	049H
	DB	04aH
	DB	029H
	DB	042H
	DB	049H
	DB	04aH
	DB	049H
	DB	04aH
	DB	049H
	DB	04aH
	DB	049H
	DB	04aH
	DB	048H
	DB	04aH
	DB	049H
	DB	04aH
	DB	049H
	DB	04aH
	DB	049H
	DB	042H
	DB	049H
	DB	04aH
	DB	049H
	DB	04aH
	DB	029H
	DB	04aH
	DB	049H
	DB	04aH
	DB	049H
	DB	04aH
	DB	029H
	DB	04aH
	DB	048H
	DB	04aH
	DB	049H
	DB	04aH
	DB	029H
	DB	04aH
	DB	049H
	DB	04aH
	DB	048H
	DB	04aH
	DB	049H
	DB	04aH
	DB	049H
	DB	04aH
	DB	049H
	DB	04aH
	DB	029H
	DB	04aH
	DB	049H
	DB	04aH
	DB	028H
	DB	04aH
	DB	049H
	DB	04aH
	DB	049H
	DB	04aH
	DB	029H
	DB	04aH
	DB	049H
	DB	04aH
	DB	049H
	DB	04aH
	DB	048H
	DB	042H
	DB	049H
	DB	04aH
	DB	049H
	DB	04aH
	DB	049H
	DB	04aH
	DB	048H
	DB	04aH
	DB	029H
	DB	04aH
	DB	049H
	DB	04aH
	DB	049H
	DB	04aH
	DB	029H
	DB	04aH
	DB	048H
	DB	04aH
	DB	049H
	DB	042H
	DB	029H
	DB	04aH
	DB	048H
	DB	04aH
	DB	049H
	DB	04aH
	DB	049H
	DB	04aH
	DB	049H
	DB	04aH
	DB	049H
	DB	04aH
	DB	029H
	DB	04aH
	DB	049H
	DB	04aH
	DB	049H
	DB	04aH
	DB	029H
	DB	04aH
	DB	049H
	DB	04aH
	DB	049H
	DB	04aH
	DB	029H
	DB	04aH
	DB	049H
	DB	04aH
	DB	029H
	DB	04aH
	DB	049H
	DB	04aH
	DB	049H
	DB	04aH
	DB	029H
	DB	04aH
	DB	049H
	DB	04aH
	DB	049H
	DB	04aH
	DB	029H
	DB	04aH
	DB	049H
	DB	04aH
	DB	049H
	DB	04aH
	DB	049H
	DB	04aH
	DB	049H
	DB	04aH
	DB	049H
	DB	04aH
	DB	049H
	DB	04aH
	DB	049H
	DB	04aH
	DB	049H
	DB	04aH
	DB	029H
	DB	04aH
	DB	049H
	DB	04aH
	DB	029H
	DB	042H
	DB	049H
	DB	04aH
	DB	029H
	DB	04aH
	DB	028H
	DB	04aH
	DB	049H
	DB	04aH
	DB	049H
	DB	04aH
	DB	049H
	DB	04aH
	DB	049H
	DB	04aH
	DB	049H
	DB	04aH
	DB	049H
	DB	04aH
	DB	049H
	DB	042H
	DB	049H
	DB	04aH
	DB	049H
	DB	04aH
	DB	048H
	DB	04aH
	DB	029H
	DB	04aH
	DB	049H
	DB	042H
	DB	049H
	DB	04aH
	DB	049H
	DB	04aH
	DB	048H
	DB	04aH
	DB	049H
	DB	042H
	DB	029H
	DB	04aH
	DB	049H
	DB	04aH
	DB	028H
	DB	04aH
	DB	049H
	DB	042H
	DB	049H
	DB	04aH
	DB	049H
	DB	04aH
	DB	048H
	DB	042H
	DB	049H
	DB	04aH
	DB	049H
	DB	04aH
	DB	028H
	DB	04aH
	DB	049H
	DB	042H
	DB	049H
	DB	04aH
	DB	049H
	DB	04aH
	DB	028H
	DB	04aH
	DB	049H
	DB	042H
	DB	049H
	DB	04aH
	DB	049H
	DB	04aH
	DB	048H
	DB	04aH
	DB	049H
	DB	042H
	DB	049H
	DB	04aH
	DB	049H
	DB	04aH
	DB	048H
	DB	042H
	DB	049H
	DB	04aH
	DB	049H
	DB	04aH
	DB	028H
	DB	04aH
	DB	049H
	DB	04aH
	DB	049H
	DB	04aH
	DB	029H
	DB	04aH
	DB	048H
	DB	042H
	DB	049H
	DB	04aH
	DB	029H
	DB	04aH
	DB	029H
	DB	042H
	DB	049H
	DB	04aH
	DB	029H
	DB	04aH
	DB	049H
	DB	04aH
	DB	049H
	DB	04aH
	DB	049H
	DB	04aH
	DB	029H
	DB	04aH
	DB	049H
	DB	04aH
	DB	048H
	DB	04aH
	DB	029H
	DB	04aH
	DB	049H
	DB	04aH
	DB	049H
	DB	04aH
	DB	049H
	DB	04aH
	DB	049H
	DB	042H
	DB	049H
	DB	04aH
	DB	029H
	DB	04aH
	DB	049H
	DB	04aH
	DB	049H
	DB	04aH
	DB	049H
	DB	04aH
	DB	035H
	DB	0adH
	DB	055H
	DB	0adH
	DB	049H
	DB	04aH
	DB	049H
	DB	04aH
	DB	049H
	DB	04aH
	DB	049H
	DB	04aH
	DB	028H
	DB	04aH
	DB	049H
	DB	042H
	DB	049H
	DB	04aH
	DB	049H
	DB	04aH
	DB	029H
	DB	04aH
	DB	049H
	DB	04aH
	DB	049H
	DB	04aH
	DB	029H
	DB	04aH
	DB	049H
	DB	042H
	DB	049H
	DB	04aH
	DB	049H
	DB	04aH
	DB	029H
	DB	042H
	DB	049H
	DB	04aH
	DB	049H
	DB	04aH
	DB	048H
	DB	04aH
	DB	049H
	DB	04aH
	DB	049H
	DB	04aH
	DB	028H
	DB	04aH
	DB	049H
	DB	04aH
	DB	049H
	DB	04aH
	DB	029H
	DB	04aH
	DB	049H
	DB	042H
	DB	029H
	DB	04aH
	DB	049H
	DB	04aH
	DB	028H
	DB	04aH
	DB	049H
	DB	04aH
	DB	049H
	DB	04aH
	DB	048H
	DB	042H
	DB	049H
	DB	04aH
	DB	049H
	DB	04aH
	DB	049H
	DB	042H
	DB	029H
	DB	04aH
	DB	049H
	DB	04aH
	DB	049H
	DB	04aH
	DB	049H
	DB	04aH
	DB	029H
	DB	04aH
	DB	049H
	DB	04aH
	DB	049H
	DB	04aH
	DB	029H
	DB	04aH
	DB	049H
	DB	04aH
	DB	049H
	DB	04aH
	DB	049H
	DB	04aH
	DB	029H
	DB	042H
	DB	049H
	DB	04aH
	DB	049H
	DB	04aH
	DB	049H
	DB	042H
	DB	029H
	DB	04aH
	DB	049H
	DB	04aH
	DB	049H
	DB	04aH
	DB	029H
	DB	04aH
	DB	049H
	DB	042H
	DB	049H
	DB	04aH
	DB	049H
	DB	04aH
	DB	029H
	DB	04aH
	DB	049H
	DB	04aH
	DB	049H
	DB	04aH
	DB	049H
	DB	04aH
	DB	049H
	DB	04aH
	DB	049H
	DB	04aH
	DB	029H
	DB	04aH
	DB	049H
	DB	042H
	DB	028H
	DB	04aH
	DB	049H
	DB	04aH
	DB	049H
	DB	04aH
	DB	048H
	DB	04aH
	DB	049H
	DB	04aH
	DB	049H
	DB	04aH
	DB	049H
	DB	042H
	DB	049H
	DB	04aH
	DB	049H
	DB	04aH
	DB	048H
	DB	042H
	DB	049H
	DB	04aH
	DB	049H
	DB	04aH
	DB	028H
	DB	04aH
	DB	049H
	DB	04aH
	DB	049H
	DB	04aH
	DB	049H
	DB	04aH
	DB	049H
	DB	04aH
	DB	029H
	DB	04aH
	DB	049H
	DB	04aH
	DB	049H
	DB	04aH
	DB	029H
	DB	04aH
	DB	049H
	DB	04aH
	DB	029H
	DB	042H
	DB	049H
	DB	04aH
	DB	049H
	DB	04aH
	DB	028H
	DB	04aH
	DB	049H
	DB	04aH
	DB	049H
	DB	04aH
	DB	049H
	DB	04aH
	DB	049H
	DB	04aH
	DB	049H
	DB	042H
	DB	049H
	DB	04aH
	DB	029H
	DB	04aH
	DB	028H
	DB	042H
	DB	049H
	DB	04aH
	DB	029H
	DB	04aH
	DB	048H
	DB	04aH
	DB	029H
	DB	04aH
	DB	049H
	DB	04aH
	DB	029H
	DB	04aH
	DB	049H
	DB	042H
	DB	049H
	DB	04aH
	DB	029H
	DB	04aH
	DB	048H
	DB	04aH
	DB	029H
	DB	04aH
	DB	029H
	DB	04aH
	DB	049H
	DB	04aH
	DB	049H
	DB	04aH
	DB	049H
	DB	04aH
	DB	049H
	DB	04aH
	DB	029H
	DB	04aH
	DB	049H
	DB	04aH
	DB	049H
	DB	04aH
	DB	029H
	DB	04aH
	DB	049H
	DB	04aH
	DB	049H
	DB	04aH
	DB	049H
	DB	04aH
	DB	049H
	DB	04aH
	DB	029H
	DB	04aH
	DB	049H
	DB	04aH
	DB	049H
	DB	04aH
	DB	049H
	DB	04aH
	DB	029H
	DB	04aH
	DB	049H
	DB	04aH
	DB	029H
	DB	04aH
	DB	049H
	DB	04aH
	DB	029H
	DB	04aH
	DB	049H
	DB	04aH
	DB	049H
	DB	04aH
	DB	029H
	DB	04aH
	DB	049H
	DB	04aH
	DB	049H
	DB	04aH
	DB	049H
	DB	042H
	DB	049H
	DB	04aH
	DB	049H
	DB	04aH
	DB	049H
	DB	04aH
	DB	049H
	DB	04aH
	DB	049H
	DB	04aH
	DB	049H
	DB	04aH
	DB	049H
	DB	04aH
	DB	049H
	DB	04aH
	DB	049H
	DB	04aH
	DB	028H
	DB	04aH
	DB	049H
	DB	04aH
	DB	049H
	DB	04aH
	DB	048H
	DB	04aH
	DB	049H
	DB	04aH
	DB	049H
	DB	04aH
	DB	029H
	DB	04aH
	DB	049H
	DB	04aH
	DB	048H
	DB	04aH
	DB	029H
	DB	04aH
	DB	049H
	DB	04aH
	DB	048H
	DB	04aH
	DB	049H
	DB	04aH
	DB	029H
	DB	042H
	DB	048H
	DB	04aH
	DB	049H
	DB	04aH
	DB	055H
	DB	0adH
	DB	035H
	DB	0adH
	DB	049H
	DB	04aH
	DB	029H
	DB	04aH
	DB	049H
	DB	04aH
	DB	049H
	DB	04aH
	DB	049H
	DB	04aH
	DB	029H
	DB	04aH
	DB	049H
	DB	04aH
	DB	048H
	DB	04aH
	DB	049H
	DB	042H
	DB	049H
	DB	04aH
	DB	049H
	DB	04aH
	DB	048H
	DB	04aH
	DB	029H
	DB	04aH
	DB	049H
	DB	04aH
	DB	048H
	DB	04aH
	DB	049H
	DB	04aH
	DB	049H
	DB	04aH
	DB	049H
	DB	04aH
	DB	029H
	DB	04aH
	DB	049H
	DB	04aH
	DB	049H
	DB	04aH
	DB	049H
	DB	04aH
	DB	029H
	DB	042H
	DB	049H
	DB	04aH
	DB	049H
	DB	04aH
	DB	029H
	DB	04aH
	DB	049H
	DB	04aH
	DB	049H
	DB	04aH
	DB	049H
	DB	04aH
	DB	029H
	DB	04aH
	DB	049H
	DB	04aH
	DB	029H
	DB	04aH
	DB	049H
	DB	04aH
	DB	049H
	DB	04aH
	DB	029H
	DB	04aH
	DB	049H
	DB	04aH
	DB	048H
	DB	042H
	DB	049H
	DB	04aH
	DB	029H
	DB	04aH
	DB	049H
	DB	042H
	DB	049H
	DB	04aH
	DB	028H
	DB	04aH
	DB	049H
	DB	042H
	DB	049H
	DB	04aH
	DB	048H
	DB	04aH
	DB	049H
	DB	04aH
	DB	049H
	DB	04aH
	DB	028H
	DB	04aH
	DB	049H
	DB	04aH
	DB	049H
	DB	04aH
	DB	048H
	DB	04aH
	DB	029H
	DB	04aH
	DB	049H
	DB	04aH
	DB	048H
	DB	04aH
	DB	029H
	DB	04aH
	DB	049H
	DB	04aH
	DB	049H
	DB	04aH
	DB	048H
	DB	042H
	DB	029H
	DB	04aH
	DB	049H
	DB	04aH
	DB	029H
	DB	042H
	DB	049H
	DB	04aH
	DB	048H
	DB	04aH
	DB	049H
	DB	04aH
	DB	049H
	DB	04aH
	DB	029H
	DB	04aH
	DB	049H
	DB	04aH
	DB	049H
	DB	042H
	DB	029H
	DB	04aH
	DB	029H
	DB	04aH
	DB	049H
	DB	04aH
	DB	048H
	DB	04aH
	DB	029H
	DB	04aH
	DB	049H
	DB	04aH
	DB	049H
	DB	04aH
	DB	029H
	DB	04aH
	DB	049H
	DB	042H
	DB	049H
	DB	04aH
	DB	049H
	DB	04aH
	DB	028H
	DB	042H
	DB	049H
	DB	04aH
	DB	049H
	DB	04aH
	DB	048H
	DB	042H
	DB	049H
	DB	04aH
	DB	029H
	DB	04aH
	DB	048H
	DB	042H
	DB	049H
	DB	04aH
	DB	029H
	DB	04aH
	DB	048H
	DB	04aH
	DB	049H
	DB	04aH
	DB	049H
	DB	042H
	DB	049H
	DB	04aH
	DB	049H
	DB	04aH
	DB	028H
	DB	04aH
	DB	049H
	DB	04aH
	DB	049H
	DB	04aH
	DB	049H
	DB	04aH
	DB	049H
	DB	04aH
	DB	049H
	DB	04aH
	DB	049H
	DB	04aH
	DB	049H
	DB	04aH
	DB	029H
	DB	042H
	DB	049H
	DB	04aH
	DB	049H
	DB	04aH
	DB	048H
	DB	04aH
	DB	029H
	DB	04aH
	DB	049H
	DB	04aH
	DB	049H
	DB	04aH
	DB	049H
	DB	04aH
	DB	049H
	DB	04aH
	DB	049H
	DB	042H
	DB	049H
	DB	04aH
	DB	029H
	DB	04aH
	DB	048H
	DB	04aH
	DB	049H
	DB	042H
	DB	049H
	DB	04aH
	DB	049H
	DB	04aH
	DB	028H
	DB	04aH
	DB	049H
	DB	04aH
	DB	029H
	DB	04aH
	DB	029H
	DB	042H
	DB	049H
	DB	04aH
	DB	049H
	DB	04aH
	DB	048H
	DB	04aH
	DB	029H
	DB	04aH
	DB	049H
	DB	042H
	DB	049H
	DB	04aH
	DB	049H
	DB	04aH
	DB	048H
	DB	04aH
	DB	049H
	DB	042H
	DB	029H
	DB	04aH
	DB	049H
	DB	04aH
	DB	048H
	DB	04aH
	DB	029H
	DB	04aH
	DB	049H
	DB	04aH
	DB	049H
	DB	04aH
	DB	029H
	DB	04aH
	DB	049H
	DB	04aH
	DB	048H
	DB	04aH
	DB	029H
	DB	04aH
	DB	049H
	DB	04aH
	DB	029H
	DB	04aH
	DB	049H
	DB	04aH
	DB	048H
	DB	04aH
	DB	029H
	DB	04aH
	DB	049H
	DB	04aH
	DB	049H
	DB	042H
	DB	049H
	DB	04aH
	DB	029H
	DB	04aH
	DB	049H
	DB	042H
	DB	029H
	DB	04aH
	DB	049H
	DB	04aH
	DB	049H
	DB	042H
	DB	049H
	DB	04aH
	DB	049H
	DB	04aH
	DB	029H
	DB	042H
	DB	049H
	DB	04aH
	DB	049H
	DB	04aH
	DB	029H
	DB	04aH
	DB	049H
	DB	04aH
	DB	049H
	DB	04aH
	DB	049H
	DB	04aH
	DB	049H
	DB	04aH
	DB	055H
	DB	0adH
	DB	055H
	DB	0adH
	DB	049H
	DB	04aH
	DB	048H
	DB	04aH
	DB	029H
	DB	04aH
	DB	049H
	DB	042H
	DB	049H
	DB	04aH
	DB	049H
	DB	04aH
	DB	029H
	DB	04aH
	DB	049H
	DB	04aH
	DB	049H
	DB	04aH
	DB	029H
	DB	04aH
	DB	049H
	DB	04aH
	DB	049H
	DB	04aH
	DB	049H
	DB	04aH
	DB	029H
	DB	04aH
	DB	049H
	DB	04aH
	DB	049H
	DB	04aH
	DB	029H
	DB	04aH
	DB	048H
	DB	04aH
	DB	049H
	DB	042H
	DB	029H
	DB	04aH
	DB	049H
	DB	04aH
	DB	049H
	DB	04aH
	DB	048H
	DB	04aH
	DB	049H
	DB	04aH
	DB	049H
	DB	04aH
	DB	048H
	DB	04aH
	DB	049H
	DB	04aH
	DB	049H
	DB	042H
	DB	049H
	DB	04aH
	DB	049H
	DB	04aH
	DB	029H
	DB	042H
	DB	049H
	DB	04aH
	DB	049H
	DB	04aH
	DB	028H
	DB	04aH
	DB	049H
	DB	04aH
	DB	049H
	DB	04aH
	DB	049H
	DB	04aH
	DB	029H
	DB	04aH
	DB	049H
	DB	04aH
	DB	048H
	DB	04aH
	DB	049H
	DB	04aH
	DB	049H
	DB	04aH
	DB	049H
	DB	04aH
	DB	029H
	DB	04aH
	DB	049H
	DB	042H
	DB	049H
	DB	04aH
	DB	029H
	DB	04aH
	DB	049H
	DB	04aH
	DB	049H
	DB	04aH
	DB	049H
	DB	04aH
	DB	049H
	DB	04aH
	DB	049H
	DB	042H
	DB	049H
	DB	04aH
	DB	049H
	DB	04aH
	DB	049H
	DB	04aH
	DB	029H
	DB	04aH
	DB	049H
	DB	04aH
	DB	049H
	DB	04aH
	DB	049H
	DB	04aH
	DB	048H
	DB	04aH
	DB	029H
	DB	04aH
	DB	049H
	DB	04aH
	DB	049H
	DB	04aH
	DB	029H
	DB	04aH
	DB	049H
	DB	04aH
	DB	049H
	DB	04aH
	DB	049H
	DB	04aH
	DB	049H
	DB	04aH
	DB	049H
	DB	04aH
	DB	049H
	DB	042H
	DB	029H
	DB	04aH
	DB	049H
	DB	04aH
	DB	049H
	DB	04aH
	DB	029H
	DB	04aH
	DB	049H
	DB	04aH
	DB	049H
	DB	04aH
	DB	028H
	DB	04aH
	DB	049H
	DB	04aH
	DB	049H
	DB	04aH
	DB	029H
	DB	04aH
	DB	049H
	DB	04aH
	DB	049H
	DB	04aH
	DB	029H
	DB	04aH
	DB	049H
	DB	04aH
	DB	049H
	DB	04aH
	DB	049H
	DB	04aH
	DB	049H
	DB	04aH
	DB	049H
	DB	04aH
	DB	029H
	DB	04aH
	DB	049H
	DB	04aH
	DB	049H
	DB	04aH
	DB	029H
	DB	04aH
	DB	049H
	DB	042H
	DB	049H
	DB	04aH
	DB	029H
	DB	04aH
	DB	048H
	DB	04aH
	DB	049H
	DB	04aH
	DB	029H
	DB	04aH
	DB	049H
	DB	04aH
	DB	049H
	DB	04aH
	DB	049H
	DB	04aH
	DB	049H
	DB	04aH
	DB	049H
	DB	04aH
	DB	049H
	DB	04aH
	DB	049H
	DB	04aH
	DB	049H
	DB	04aH
	DB	049H
	DB	04aH
	DB	049H
	DB	042H
	DB	029H
	DB	04aH
	DB	049H
	DB	04aH
	DB	048H
	DB	04aH
	DB	049H
	DB	04aH
	DB	029H
	DB	04aH
	DB	049H
	DB	04aH
	DB	049H
	DB	04aH
	DB	029H
	DB	04aH
	DB	049H
	DB	04aH
	DB	049H
	DB	042H
	DB	049H
	DB	04aH
	DB	049H
	DB	04aH
	DB	048H
	DB	04aH
	DB	049H
	DB	04aH
	DB	029H
	DB	04aH
	DB	049H
	DB	042H
	DB	049H
	DB	04aH
	DB	029H
	DB	04aH
	DB	048H
	DB	04aH
	DB	049H
	DB	04aH
	DB	029H
	DB	04aH
	DB	049H
	DB	04aH
	DB	049H
	DB	04aH
	DB	049H
	DB	04aH
	DB	049H
	DB	042H
	DB	049H
	DB	04aH
	DB	049H
	DB	04aH
	DB	048H
	DB	042H
	DB	029H
	DB	04aH
	DB	049H
	DB	04aH
	DB	049H
	DB	04aH
	DB	029H
	DB	042H
	DB	049H
	DB	04aH
	DB	048H
	DB	04aH
	DB	029H
	DB	042H
	DB	049H
	DB	04aH
	DB	049H
	DB	04aH
	DB	029H
	DB	04aH
	DB	048H
	DB	04aH
	DB	049H
	DB	04aH
	DB	049H
	DB	04aH
	DB	049H
	DB	04aH
	DB	029H
	DB	04aH
	DB	049H
	DB	04aH
	DB	048H
	DB	04aH
	DB	029H
	DB	04aH
	DB	049H
	DB	04aH
	DB	049H
	DB	04aH
	DB	048H
	DB	04aH
	DB	049H
	DB	04aH
	DB	029H
	DB	042H
	DB	049H
	DB	04aH
	DB	049H
	DB	04aH
	DB	029H
	DB	04aH
	DB	049H
	DB	04aH
	DB	055H
	DB	0adH
	DB	055H
	DB	0adH
	DB	049H
	DB	04aH
	DB	049H
	DB	04aH
	DB	049H
	DB	04aH
	DB	029H
	DB	04aH
	DB	048H
	DB	04aH
	DB	049H
	DB	04aH
	DB	049H
	DB	042H
	DB	029H
	DB	04aH
	DB	048H
	DB	04aH
	DB	049H
	DB	04aH
	DB	029H
	DB	042H
	DB	049H
	DB	04aH
	DB	049H
	DB	04aH
	DB	049H
	DB	042H
	DB	029H
	DB	04aH
	DB	049H
	DB	04aH
	DB	049H
	DB	042H
	DB	049H
	DB	04aH
	DB	049H
	DB	04aH
	DB	029H
	DB	04aH
	DB	049H
	DB	04aH
	DB	049H
	DB	042H
	DB	029H
	DB	04aH
	DB	029H
	DB	04aH
	DB	049H
	DB	042H
	DB	049H
	DB	04aH
	DB	029H
	DB	04aH
	DB	028H
	DB	04aH
	DB	049H
	DB	04aH
	DB	049H
	DB	04aH
	DB	048H
	DB	04aH
	DB	049H
	DB	04aH
	DB	049H
	DB	04aH
	DB	049H
	DB	042H
	DB	049H
	DB	04aH
	DB	049H
	DB	04aH
	DB	029H
	DB	04aH
	DB	049H
	DB	04aH
	DB	049H
	DB	04aH
	DB	029H
	DB	04aH
	DB	049H
	DB	042H
	DB	049H
	DB	04aH
	DB	029H
	DB	04aH
	DB	049H
	DB	04aH
	DB	049H
	DB	04aH
	DB	029H
	DB	04aH
	DB	049H
	DB	04aH
	DB	049H
	DB	042H
	DB	029H
	DB	04aH
	DB	029H
	DB	04aH
	DB	049H
	DB	04aH
	DB	029H
	DB	04aH
	DB	049H
	DB	04aH
	DB	049H
	DB	04aH
	DB	029H
	DB	042H
	DB	048H
	DB	04aH
	DB	049H
	DB	04aH
	DB	029H
	DB	04aH
	DB	049H
	DB	04aH
	DB	049H
	DB	04aH
	DB	049H
	DB	04aH
	DB	049H
	DB	04aH
	DB	029H
	DB	042H
	DB	049H
	DB	04aH
	DB	048H
	DB	04aH
	DB	029H
	DB	042H
	DB	049H
	DB	04aH
	DB	028H
	DB	04aH
	DB	049H
	DB	04aH
	DB	049H
	DB	04aH
	DB	048H
	DB	04aH
	DB	049H
	DB	042H
	DB	049H
	DB	04aH
	DB	028H
	DB	04aH
	DB	049H
	DB	042H
	DB	049H
	DB	04aH
	DB	049H
	DB	04aH
	DB	049H
	DB	04aH
	DB	049H
	DB	04aH
	DB	049H
	DB	04aH
	DB	049H
	DB	04aH
	DB	029H
	DB	042H
	DB	049H
	DB	04aH
	DB	049H
	DB	04aH
	DB	029H
	DB	04aH
	DB	049H
	DB	04aH
	DB	049H
	DB	04aH
	DB	049H
	DB	042H
	DB	049H
	DB	04aH
	DB	029H
	DB	04aH
	DB	048H
	DB	04aH
	DB	049H
	DB	04aH
	DB	029H
	DB	04aH
	DB	049H
	DB	04aH
	DB	049H
	DB	04aH
	DB	049H
	DB	042H
	DB	029H
	DB	04aH
	DB	049H
	DB	04aH
	DB	048H
	DB	042H
	DB	029H
	DB	04aH
	DB	049H
	DB	04aH
	DB	028H
	DB	04aH
	DB	049H
	DB	04aH
	DB	029H
	DB	042H
	DB	029H
	DB	04aH
	DB	049H
	DB	04aH
	DB	048H
	DB	04aH
	DB	029H
	DB	04aH
	DB	049H
	DB	04aH
	DB	049H
	DB	04aH
	DB	029H
	DB	04aH
	DB	049H
	DB	04aH
	DB	049H
	DB	042H
	DB	049H
	DB	04aH
	DB	029H
	DB	04aH
	DB	048H
	DB	04aH
	DB	049H
	DB	04aH
	DB	049H
	DB	04aH
	DB	029H
	DB	04aH
	DB	049H
	DB	04aH
	DB	049H
	DB	04aH
	DB	049H
	DB	04aH
	DB	049H
	DB	04aH
	DB	049H
	DB	04aH
	DB	049H
	DB	04aH
	DB	049H
	DB	04aH
	DB	029H
	DB	04aH
	DB	049H
	DB	04aH
	DB	049H
	DB	042H
	DB	029H
	DB	04aH
	DB	049H
	DB	04aH
	DB	048H
	DB	04aH
	DB	029H
	DB	04aH
	DB	049H
	DB	04aH
	DB	049H
	DB	04aH
	DB	029H
	DB	04aH
	DB	049H
	DB	04aH
	DB	049H
	DB	04aH
	DB	049H
	DB	04aH
	DB	049H
	DB	04aH
	DB	049H
	DB	04aH
	DB	049H
	DB	04aH
	DB	049H
	DB	04aH
	DB	049H
	DB	04aH
	DB	049H
	DB	042H
	DB	049H
	DB	04aH
	DB	029H
	DB	04aH
	DB	049H
	DB	04aH
	DB	049H
	DB	04aH
	DB	048H
	DB	04aH
	DB	049H
	DB	04aH
	DB	049H
	DB	04aH
	DB	029H
	DB	04aH
	DB	049H
	DB	042H
	DB	049H
	DB	04aH
	DB	029H
	DB	04aH
	DB	049H
	DB	04aH
	DB	049H
	DB	04aH
	DB	048H
	DB	04aH
	DB	049H
	DB	04aH
	DB	049H
	DB	04aH
	DB	028H
	DB	042H
	DB	049H
	DB	04aH
	DB	055H
	DB	0adH
	DB	055H
	DB	0adH
	DB	049H
	DB	04aH
	DB	049H
	DB	04aH
	DB	049H
	DB	04aH
	DB	049H
	DB	04aH
	DB	029H
	DB	04aH
	DB	049H
	DB	04aH
	DB	049H
	DB	04aH
	DB	049H
	DB	04aH
	DB	049H
	DB	04aH
	DB	049H
	DB	04aH
	DB	028H
	DB	04aH
	DB	049H
	DB	04aH
	DB	049H
	DB	04aH
	DB	048H
	DB	04aH
	DB	049H
	DB	04aH
	DB	029H
	DB	04aH
	DB	048H
	DB	04aH
	DB	049H
	DB	04aH
	DB	029H
	DB	04aH
	DB	048H
	DB	04aH
	DB	049H
	DB	04aH
	DB	049H
	DB	04aH
	DB	049H
	DB	04aH
	DB	049H
	DB	04aH
	DB	029H
	DB	04aH
	DB	049H
	DB	04aH
	DB	049H
	DB	04aH
	DB	049H
	DB	04aH
	DB	029H
	DB	04aH
	DB	049H
	DB	04aH
	DB	049H
	DB	04aH
	DB	029H
	DB	04aH
	DB	049H
	DB	04aH
	DB	029H
	DB	04aH
	DB	049H
	DB	04aH
	DB	048H
	DB	04aH
	DB	049H
	DB	042H
	DB	049H
	DB	04aH
	DB	048H
	DB	04aH
	DB	029H
	DB	04aH
	DB	049H
	DB	04aH
	DB	049H
	DB	04aH
	DB	048H
	DB	04aH
	DB	049H
	DB	04aH
	DB	049H
	DB	04aH
	DB	048H
	DB	04aH
	DB	049H
	DB	04aH
	DB	049H
	DB	04aH
	DB	048H
	DB	04aH
	DB	049H
	DB	042H
	DB	049H
	DB	04aH
	DB	028H
	DB	04aH
	DB	049H
	DB	04aH
	DB	049H
	DB	04aH
	DB	049H
	DB	04aH
	DB	049H
	DB	04aH
	DB	049H
	DB	042H
	DB	029H
	DB	04aH
	DB	049H
	DB	04aH
	DB	049H
	DB	042H
	DB	029H
	DB	04aH
	DB	048H
	DB	04aH
	DB	049H
	DB	04aH
	DB	049H
	DB	04aH
	DB	049H
	DB	04aH
	DB	049H
	DB	04aH
	DB	029H
	DB	04aH
	DB	049H
	DB	04aH
	DB	049H
	DB	04aH
	DB	029H
	DB	04aH
	DB	049H
	DB	04aH
	DB	049H
	DB	04aH
	DB	029H
	DB	04aH
	DB	049H
	DB	04aH
	DB	049H
	DB	04aH
	DB	029H
	DB	04aH
	DB	049H
	DB	04aH
	DB	049H
	DB	042H
	DB	029H
	DB	04aH
	DB	048H
	DB	04aH
	DB	049H
	DB	04aH
	DB	049H
	DB	04aH
	DB	048H
	DB	04aH
	DB	049H
	DB	04aH
	DB	029H
	DB	042H
	DB	048H
	DB	04aH
	DB	029H
	DB	04aH
	DB	049H
	DB	04aH
	DB	048H
	DB	04aH
	DB	049H
	DB	04aH
	DB	049H
	DB	042H
	DB	049H
	DB	04aH
	DB	049H
	DB	04aH
	DB	028H
	DB	04aH
	DB	049H
	DB	04aH
	DB	049H
	DB	04aH
	DB	049H
	DB	04aH
	DB	049H
	DB	04aH
	DB	049H
	DB	04aH
	DB	049H
	DB	04aH
	DB	029H
	DB	042H
	DB	049H
	DB	04aH
	DB	049H
	DB	04aH
	DB	048H
	DB	04aH
	DB	049H
	DB	04aH
	DB	049H
	DB	04aH
	DB	029H
	DB	042H
	DB	049H
	DB	04aH
	DB	049H
	DB	04aH
	DB	048H
	DB	042H
	DB	049H
	DB	04aH
	DB	029H
	DB	04aH
	DB	048H
	DB	04aH
	DB	049H
	DB	04aH
	DB	049H
	DB	04aH
	DB	029H
	DB	042H
	DB	049H
	DB	04aH
	DB	049H
	DB	04aH
	DB	028H
	DB	04aH
	DB	049H
	DB	042H
	DB	049H
	DB	04aH
	DB	029H
	DB	04aH
	DB	048H
	DB	042H
	DB	029H
	DB	04aH
	DB	049H
	DB	04aH
	DB	048H
	DB	04aH
	DB	049H
	DB	04aH
	DB	049H
	DB	04aH
	DB	049H
	DB	04aH
	DB	049H
	DB	04aH
	DB	029H
	DB	04aH
	DB	049H
	DB	04aH
	DB	049H
	DB	04aH
	DB	029H
	DB	042H
	DB	049H
	DB	04aH
	DB	049H
	DB	04aH
	DB	048H
	DB	04aH
	DB	029H
	DB	042H
	DB	049H
	DB	04aH
	DB	048H
	DB	04aH
	DB	029H
	DB	04aH
	DB	049H
	DB	042H
	DB	029H
	DB	04aH
	DB	048H
	DB	04aH
	DB	049H
	DB	04aH
	DB	029H
	DB	04aH
	DB	049H
	DB	04aH
	DB	049H
	DB	042H
	DB	029H
	DB	04aH
	DB	029H
	DB	04aH
	DB	049H
	DB	042H
	DB	049H
	DB	04aH
	DB	049H
	DB	04aH
	DB	049H
	DB	04aH
	DB	048H
	DB	04aH
	DB	029H
	DB	04aH
	DB	049H
	DB	042H
	DB	049H
	DB	04aH
	DB	029H
	DB	04aH
	DB	049H
	DB	04aH
	DB	049H
	DB	04aH
	DB	049H
	DB	04aH
	DB	049H
	DB	04aH
	DB	055H
	DB	0adH
	DB	055H
	DB	0adH
	DB	049H
	DB	04aH
	DB	029H
	DB	04aH
	DB	049H
	DB	042H
	DB	048H
	DB	04aH
	DB	049H
	DB	04aH
	DB	029H
	DB	042H
	DB	048H
	DB	04aH
	DB	049H
	DB	04aH
	DB	029H
	DB	04aH
	DB	049H
	DB	042H
	DB	049H
	DB	04aH
	DB	029H
	DB	04aH
	DB	049H
	DB	04aH
	DB	049H
	DB	04aH
	DB	029H
	DB	042H
	DB	049H
	DB	04aH
	DB	049H
	DB	04aH
	DB	029H
	DB	04aH
	DB	049H
	DB	04aH
	DB	049H
	DB	042H
	DB	029H
	DB	04aH
	DB	048H
	DB	04aH
	DB	049H
	DB	04aH
	DB	049H
	DB	04aH
	DB	048H
	DB	04aH
	DB	049H
	DB	04aH
	DB	049H
	DB	042H
	DB	049H
	DB	04aH
	DB	049H
	DB	04aH
	DB	028H
	DB	042H
	DB	049H
	DB	04aH
	DB	049H
	DB	04aH
	DB	028H
	DB	042H
	DB	049H
	DB	04aH
	DB	049H
	DB	04aH
	DB	029H
	DB	04aH
	DB	049H
	DB	04aH
	DB	049H
	DB	04aH
	DB	029H
	DB	042H
	DB	049H
	DB	04aH
	DB	049H
	DB	04aH
	DB	029H
	DB	04aH
	DB	049H
	DB	042H
	DB	029H
	DB	04aH
	DB	049H
	DB	04aH
	DB	029H
	DB	042H
	DB	049H
	DB	04aH
	DB	049H
	DB	04aH
	DB	029H
	DB	04aH
	DB	049H
	DB	04aH
	DB	049H
	DB	04aH
	DB	049H
	DB	04aH
	DB	029H
	DB	042H
	DB	049H
	DB	04aH
	DB	048H
	DB	04aH
	DB	029H
	DB	04aH
	DB	049H
	DB	04aH
	DB	048H
	DB	04aH
	DB	049H
	DB	04aH
	DB	029H
	DB	04aH
	DB	049H
	DB	04aH
	DB	049H
	DB	04aH
	DB	029H
	DB	04aH
	DB	049H
	DB	04aH
	DB	049H
	DB	04aH
	DB	049H
	DB	04aH
	DB	049H
	DB	042H
	DB	049H
	DB	04aH
	DB	049H
	DB	04aH
	DB	029H
	DB	042H
	DB	049H
	DB	04aH
	DB	049H
	DB	04aH
	DB	049H
	DB	04aH
	DB	049H
	DB	04aH
	DB	049H
	DB	04aH
	DB	028H
	DB	04aH
	DB	049H
	DB	04aH
	DB	049H
	DB	04aH
	DB	029H
	DB	04aH
	DB	049H
	DB	042H
	DB	049H
	DB	04aH
	DB	029H
	DB	04aH
	DB	049H
	DB	04aH
	DB	049H
	DB	04aH
	DB	049H
	DB	04aH
	DB	049H
	DB	04aH
	DB	049H
	DB	04aH
	DB	029H
	DB	04aH
	DB	049H
	DB	04aH
	DB	029H
	DB	04aH
	DB	049H
	DB	04aH
	DB	049H
	DB	04aH
	DB	029H
	DB	04aH
	DB	049H
	DB	042H
	DB	049H
	DB	04aH
	DB	029H
	DB	04aH
	DB	048H
	DB	04aH
	DB	029H
	DB	04aH
	DB	049H
	DB	04aH
	DB	049H
	DB	04aH
	DB	049H
	DB	04aH
	DB	049H
	DB	04aH
	DB	049H
	DB	04aH
	DB	029H
	DB	04aH
	DB	049H
	DB	04aH
	DB	049H
	DB	04aH
	DB	049H
	DB	04aH
	DB	049H
	DB	04aH
	DB	029H
	DB	04aH
	DB	049H
	DB	04aH
	DB	049H
	DB	04aH
	DB	049H
	DB	04aH
	DB	029H
	DB	04aH
	DB	049H
	DB	04aH
	DB	049H
	DB	04aH
	DB	049H
	DB	04aH
	DB	049H
	DB	04aH
	DB	049H
	DB	04aH
	DB	049H
	DB	04aH
	DB	049H
	DB	04aH
	DB	029H
	DB	04aH
	DB	049H
	DB	04aH
	DB	049H
	DB	04aH
	DB	029H
	DB	04aH
	DB	049H
	DB	04aH
	DB	049H
	DB	042H
	DB	029H
	DB	04aH
	DB	029H
	DB	04aH
	DB	048H
	DB	04aH
	DB	049H
	DB	04aH
	DB	049H
	DB	042H
	DB	049H
	DB	04aH
	DB	049H
	DB	04aH
	DB	028H
	DB	04aH
	DB	049H
	DB	04aH
	DB	049H
	DB	04aH
	DB	029H
	DB	04aH
	DB	049H
	DB	04aH
	DB	049H
	DB	04aH
	DB	029H
	DB	04aH
	DB	049H
	DB	04aH
	DB	049H
	DB	04aH
	DB	029H
	DB	04aH
	DB	049H
	DB	04aH
	DB	049H
	DB	04aH
	DB	049H
	DB	04aH
	DB	048H
	DB	04aH
	DB	049H
	DB	04aH
	DB	049H
	DB	04aH
	DB	049H
	DB	04aH
	DB	029H
	DB	04aH
	DB	048H
	DB	04aH
	DB	029H
	DB	04aH
	DB	049H
	DB	04aH
	DB	049H
	DB	04aH
	DB	049H
	DB	04aH
	DB	049H
	DB	04aH
	DB	029H
	DB	04aH
	DB	049H
	DB	04aH
	DB	049H
	DB	042H
	DB	029H
	DB	04aH
	DB	049H
	DB	04aH
	DB	049H
	DB	04aH
	DB	055H
	DB	0adH
	DB	055H
	DB	0adH
	DB	049H
	DB	04aH
	DB	029H
	DB	04aH
	DB	049H
	DB	04aH
	DB	049H
	DB	04aH
	DB	049H
	DB	04aH
	DB	049H
	DB	04aH
	DB	029H
	DB	04aH
	DB	049H
	DB	04aH
	DB	049H
	DB	04aH
	DB	049H
	DB	04aH
	DB	049H
	DB	04aH
	DB	049H
	DB	04aH
	DB	028H
	DB	042H
	DB	049H
	DB	04aH
	DB	049H
	DB	04aH
	DB	049H
	DB	04aH
	DB	049H
	DB	04aH
	DB	049H
	DB	04aH
	DB	049H
	DB	04aH
	DB	049H
	DB	04aH
	DB	029H
	DB	04aH
	DB	049H
	DB	04aH
	DB	029H
	DB	042H
	DB	029H
	DB	04aH
	DB	049H
	DB	04aH
	DB	029H
	DB	04aH
	DB	028H
	DB	04aH
	DB	049H
	DB	04aH
	DB	049H
	DB	04aH
	DB	049H
	DB	04aH
	DB	049H
	DB	04aH
	DB	049H
	DB	04aH
	DB	049H
	DB	04aH
	DB	049H
	DB	04aH
	DB	049H
	DB	04aH
	DB	029H
	DB	042H
	DB	049H
	DB	04aH
	DB	049H
	DB	04aH
	DB	049H
	DB	04aH
	DB	049H
	DB	04aH
	DB	048H
	DB	04aH
	DB	049H
	DB	04aH
	DB	029H
	DB	04aH
	DB	049H
	DB	04aH
	DB	049H
	DB	04aH
	DB	049H
	DB	04aH
	DB	029H
	DB	04aH
	DB	049H
	DB	04aH
	DB	049H
	DB	04aH
	DB	029H
	DB	04aH
	DB	049H
	DB	04aH
	DB	049H
	DB	04aH
	DB	049H
	DB	04aH
	DB	029H
	DB	04aH
	DB	049H
	DB	04aH
	DB	049H
	DB	04aH
	DB	029H
	DB	04aH
	DB	049H
	DB	04aH
	DB	049H
	DB	04aH
	DB	049H
	DB	04aH
	DB	048H
	DB	042H
	DB	049H
	DB	04aH
	DB	029H
	DB	04aH
	DB	048H
	DB	042H
	DB	029H
	DB	04aH
	DB	029H
	DB	04aH
	DB	048H
	DB	04aH
	DB	049H
	DB	04aH
	DB	029H
	DB	04aH
	DB	048H
	DB	04aH
	DB	049H
	DB	04aH
	DB	029H
	DB	04aH
	DB	048H
	DB	042H
	DB	049H
	DB	04aH
	DB	029H
	DB	04aH
	DB	049H
	DB	042H
	DB	049H
	DB	04aH
	DB	049H
	DB	04aH
	DB	048H
	DB	04aH
	DB	029H
	DB	04aH
	DB	049H
	DB	04aH
	DB	049H
	DB	04aH
	DB	029H
	DB	042H
	DB	048H
	DB	04aH
	DB	049H
	DB	04aH
	DB	029H
	DB	04aH
	DB	049H
	DB	042H
	DB	049H
	DB	04aH
	DB	049H
	DB	04aH
	DB	029H
	DB	04aH
	DB	048H
	DB	04aH
	DB	049H
	DB	04aH
	DB	049H
	DB	04aH
	DB	049H
	DB	04aH
	DB	049H
	DB	04aH
	DB	049H
	DB	04aH
	DB	029H
	DB	042H
	DB	049H
	DB	04aH
	DB	049H
	DB	04aH
	DB	028H
	DB	042H
	DB	049H
	DB	04aH
	DB	049H
	DB	04aH
	DB	028H
	DB	042H
	DB	049H
	DB	04aH
	DB	049H
	DB	04aH
	DB	028H
	DB	042H
	DB	049H
	DB	04aH
	DB	049H
	DB	04aH
	DB	028H
	DB	04aH
	DB	049H
	DB	04aH
	DB	049H
	DB	04aH
	DB	049H
	DB	042H
	DB	049H
	DB	04aH
	DB	029H
	DB	04aH
	DB	048H
	DB	042H
	DB	049H
	DB	04aH
	DB	029H
	DB	04aH
	DB	028H
	DB	042H
	DB	049H
	DB	04aH
	DB	049H
	DB	04aH
	DB	048H
	DB	04aH
	DB	049H
	DB	04aH
	DB	049H
	DB	04aH
	DB	049H
	DB	04aH
	DB	049H
	DB	04aH
	DB	049H
	DB	04aH
	DB	049H
	DB	04aH
	DB	049H
	DB	042H
	DB	029H
	DB	04aH
	DB	049H
	DB	04aH
	DB	048H
	DB	04aH
	DB	029H
	DB	04aH
	DB	049H
	DB	04aH
	DB	049H
	DB	04aH
	DB	049H
	DB	04aH
	DB	049H
	DB	042H
	DB	049H
	DB	04aH
	DB	049H
	DB	04aH
	DB	049H
	DB	04aH
	DB	049H
	DB	042H
	DB	049H
	DB	04aH
	DB	048H
	DB	04aH
	DB	049H
	DB	04aH
	DB	029H
	DB	04aH
	DB	049H
	DB	042H
	DB	049H
	DB	04aH
	DB	029H
	DB	04aH
	DB	049H
	DB	04aH
	DB	048H
	DB	04aH
	DB	049H
	DB	042H
	DB	049H
	DB	04aH
	DB	049H
	DB	04aH
	DB	029H
	DB	042H
	DB	049H
	DB	04aH
	DB	049H
	DB	04aH
	DB	029H
	DB	042H
	DB	048H
	DB	04aH
	DB	049H
	DB	04aH
	DB	049H
	DB	04aH
	DB	048H
	DB	04aH
	DB	029H
	DB	04aH
	DB	049H
	DB	04aH
	DB	049H
	DB	04aH
	DB	035H
	DB	0adH
	DB	055H
	DB	0adH
	DB	049H
	DB	04aH
	DB	049H
	DB	04aH
	DB	049H
	DB	04aH
	DB	029H
	DB	04aH
	DB	049H
	DB	04aH
	DB	049H
	DB	04aH
	DB	049H
	DB	04aH
	DB	029H
	DB	042H
	DB	048H
	DB	04aH
	DB	029H
	DB	04aH
	DB	049H
	DB	04aH
	DB	049H
	DB	04aH
	DB	049H
	DB	04aH
	DB	029H
	DB	04aH
	DB	049H
	DB	04aH
	DB	048H
	DB	04aH
	DB	029H
	DB	042H
	DB	049H
	DB	04aH
	DB	048H
	DB	04aH
	DB	029H
	DB	04aH
	DB	049H
	DB	04aH
	DB	049H
	DB	04aH
	DB	049H
	DB	04aH
	DB	049H
	DB	04aH
	DB	049H
	DB	04aH
	DB	049H
	DB	042H
	DB	049H
	DB	04aH
	DB	049H
	DB	04aH
	DB	029H
	DB	04aH
	DB	049H
	DB	04aH
	DB	029H
	DB	04aH
	DB	049H
	DB	04aH
	DB	029H
	DB	04aH
	DB	049H
	DB	04aH
	DB	048H
	DB	04aH
	DB	049H
	DB	04aH
	DB	029H
	DB	04aH
	DB	048H
	DB	04aH
	DB	029H
	DB	04aH
	DB	049H
	DB	04aH
	DB	049H
	DB	042H
	DB	049H
	DB	04aH
	DB	049H
	DB	04aH
	DB	048H
	DB	04aH
	DB	049H
	DB	04aH
	DB	049H
	DB	04aH
	DB	048H
	DB	042H
	DB	049H
	DB	04aH
	DB	049H
	DB	04aH
	DB	048H
	DB	042H
	DB	029H
	DB	04aH
	DB	048H
	DB	04aH
	DB	049H
	DB	04aH
	DB	049H
	DB	042H
	DB	049H
	DB	04aH
	DB	049H
	DB	04aH
	DB	049H
	DB	042H
	DB	029H
	DB	04aH
	DB	049H
	DB	04aH
	DB	049H
	DB	04aH
	DB	029H
	DB	04aH
	DB	049H
	DB	04aH
	DB	049H
	DB	04aH
	DB	049H
	DB	04aH
	DB	049H
	DB	04aH
	DB	049H
	DB	04aH
	DB	049H
	DB	04aH
	DB	029H
	DB	04aH
	DB	049H
	DB	04aH
	DB	049H
	DB	04aH
	DB	049H
	DB	04aH
	DB	029H
	DB	04aH
	DB	049H
	DB	04aH
	DB	049H
	DB	04aH
	DB	049H
	DB	04aH
	DB	049H
	DB	04aH
	DB	029H
	DB	04aH
	DB	049H
	DB	04aH
	DB	049H
	DB	04aH
	DB	049H
	DB	04aH
	DB	049H
	DB	04aH
	DB	048H
	DB	04aH
	DB	029H
	DB	04aH
	DB	049H
	DB	04aH
	DB	049H
	DB	04aH
	DB	029H
	DB	04aH
	DB	048H
	DB	04aH
	DB	049H
	DB	04aH
	DB	049H
	DB	042H
	DB	049H
	DB	04aH
	DB	029H
	DB	04aH
	DB	049H
	DB	042H
	DB	029H
	DB	04aH
	DB	048H
	DB	04aH
	DB	049H
	DB	04aH
	DB	049H
	DB	04aH
	DB	049H
	DB	04aH
	DB	049H
	DB	04aH
	DB	049H
	DB	04aH
	DB	029H
	DB	04aH
	DB	049H
	DB	04aH
	DB	049H
	DB	04aH
	DB	029H
	DB	04aH
	DB	049H
	DB	04aH
	DB	049H
	DB	04aH
	DB	029H
	DB	04aH
	DB	049H
	DB	04aH
	DB	049H
	DB	04aH
	DB	049H
	DB	042H
	DB	029H
	DB	04aH
	DB	049H
	DB	04aH
	DB	048H
	DB	04aH
	DB	029H
	DB	04aH
	DB	049H
	DB	04aH
	DB	049H
	DB	04aH
	DB	049H
	DB	04aH
	DB	049H
	DB	04aH
	DB	049H
	DB	04aH
	DB	029H
	DB	04aH
	DB	049H
	DB	04aH
	DB	029H
	DB	042H
	DB	049H
	DB	04aH
	DB	029H
	DB	04aH
	DB	048H
	DB	042H
	DB	029H
	DB	04aH
	DB	049H
	DB	04aH
	DB	048H
	DB	04aH
	DB	049H
	DB	04aH
	DB	049H
	DB	04aH
	DB	029H
	DB	04aH
	DB	049H
	DB	04aH
	DB	049H
	DB	04aH
	DB	029H
	DB	042H
	DB	049H
	DB	04aH
	DB	029H
	DB	04aH
	DB	048H
	DB	04aH
	DB	029H
	DB	04aH
	DB	049H
	DB	04aH
	DB	028H
	DB	04aH
	DB	049H
	DB	04aH
	DB	029H
	DB	04aH
	DB	049H
	DB	04aH
	DB	049H
	DB	042H
	DB	049H
	DB	04aH
	DB	028H
	DB	04aH
	DB	049H
	DB	04aH
	DB	049H
	DB	04aH
	DB	029H
	DB	042H
	DB	029H
	DB	04aH
	DB	049H
	DB	04aH
	DB	049H
	DB	04aH
	DB	049H
	DB	04aH
	DB	049H
	DB	04aH
	DB	048H
	DB	04aH
	DB	029H
	DB	04aH
	DB	049H
	DB	04aH
	DB	049H
	DB	04aH
	DB	029H
	DB	04aH
	DB	049H
	DB	04aH
	DB	049H
	DB	04aH
	DB	049H
	DB	04aH
	DB	049H
	DB	04aH
	DB	049H
	DB	04aH
	DB	055H
	DB	0adH
	DB	055H
	DB	0adH
	DB	049H
	DB	04aH
	DB	049H
	DB	04aH
	DB	028H
	DB	04aH
	DB	049H
	DB	042H
	DB	029H
	DB	04aH
	DB	048H
	DB	04aH
	DB	049H
	DB	04aH
	DB	049H
	DB	04aH
	DB	049H
	DB	04aH
	DB	029H
	DB	04aH
	DB	048H
	DB	042H
	DB	049H
	DB	04aH
	DB	049H
	DB	04aH
	DB	029H
	DB	04aH
	DB	049H
	DB	04aH
	DB	049H
	DB	04aH
	DB	029H
	DB	04aH
	DB	049H
	DB	04aH
	DB	049H
	DB	042H
	DB	049H
	DB	04aH
	DB	049H
	DB	04aH
	DB	048H
	DB	042H
	DB	049H
	DB	04aH
	DB	049H
	DB	04aH
	DB	048H
	DB	04aH
	DB	049H
	DB	04aH
	DB	049H
	DB	04aH
	DB	029H
	DB	04aH
	DB	048H
	DB	042H
	DB	049H
	DB	04aH
	DB	049H
	DB	04aH
	DB	028H
	DB	042H
	DB	049H
	DB	04aH
	DB	049H
	DB	04aH
	DB	029H
	DB	04aH
	DB	049H
	DB	04aH
	DB	049H
	DB	04aH
	DB	049H
	DB	042H
	DB	029H
	DB	04aH
	DB	049H
	DB	04aH
	DB	029H
	DB	04aH
	DB	029H
	DB	04aH
	DB	049H
	DB	04aH
	DB	029H
	DB	042H
	DB	029H
	DB	04aH
	DB	049H
	DB	04aH
	DB	029H
	DB	04aH
	DB	049H
	DB	04aH
	DB	049H
	DB	04aH
	DB	029H
	DB	04aH
	DB	049H
	DB	04aH
	DB	049H
	DB	04aH
	DB	029H
	DB	04aH
	DB	048H
	DB	04aH
	DB	029H
	DB	04aH
	DB	049H
	DB	04aH
	DB	048H
	DB	04aH
	DB	049H
	DB	04aH
	DB	029H
	DB	042H
	DB	048H
	DB	04aH
	DB	049H
	DB	04aH
	DB	029H
	DB	04aH
	DB	049H
	DB	04aH
	DB	049H
	DB	04aH
	DB	049H
	DB	042H
	DB	049H
	DB	04aH
	DB	049H
	DB	04aH
	DB	048H
	DB	042H
	DB	049H
	DB	04aH
	DB	049H
	DB	04aH
	DB	049H
	DB	042H
	DB	049H
	DB	04aH
	DB	029H
	DB	04aH
	DB	048H
	DB	04aH
	DB	049H
	DB	04aH
	DB	029H
	DB	04aH
	DB	048H
	DB	042H
	DB	049H
	DB	04aH
	DB	029H
	DB	04aH
	DB	049H
	DB	042H
	DB	049H
	DB	04aH
	DB	029H
	DB	04aH
	DB	049H
	DB	04aH
	DB	049H
	DB	04aH
	DB	049H
	DB	042H
	DB	049H
	DB	04aH
	DB	029H
	DB	04aH
	DB	049H
	DB	04aH
	DB	048H
	DB	04aH
	DB	029H
	DB	04aH
	DB	049H
	DB	04aH
	DB	049H
	DB	04aH
	DB	049H
	DB	04aH
	DB	029H
	DB	04aH
	DB	029H
	DB	042H
	DB	049H
	DB	04aH
	DB	028H
	DB	04aH
	DB	049H
	DB	04aH
	DB	049H
	DB	04aH
	DB	049H
	DB	04aH
	DB	049H
	DB	04aH
	DB	049H
	DB	04aH
	DB	049H
	DB	04aH
	DB	049H
	DB	04aH
	DB	049H
	DB	04aH
	DB	049H
	DB	04aH
	DB	049H
	DB	04aH
	DB	049H
	DB	04aH
	DB	029H
	DB	04aH
	DB	049H
	DB	04aH
	DB	049H
	DB	04aH
	DB	029H
	DB	04aH
	DB	049H
	DB	04aH
	DB	049H
	DB	04aH
	DB	029H
	DB	04aH
	DB	049H
	DB	04aH
	DB	049H
	DB	04aH
	DB	049H
	DB	04aH
	DB	049H
	DB	04aH
	DB	049H
	DB	04aH
	DB	049H
	DB	04aH
	DB	029H
	DB	04aH
	DB	049H
	DB	04aH
	DB	049H
	DB	04aH
	DB	029H
	DB	04aH
	DB	049H
	DB	04aH
	DB	029H
	DB	04aH
	DB	049H
	DB	04aH
	DB	049H
	DB	04aH
	DB	049H
	DB	042H
	DB	049H
	DB	04aH
	DB	049H
	DB	04aH
	DB	048H
	DB	04aH
	DB	049H
	DB	04aH
	DB	049H
	DB	04aH
	DB	029H
	DB	04aH
	DB	049H
	DB	042H
	DB	049H
	DB	04aH
	DB	049H
	DB	04aH
	DB	029H
	DB	04aH
	DB	049H
	DB	04aH
	DB	049H
	DB	04aH
	DB	029H
	DB	04aH
	DB	049H
	DB	04aH
	DB	049H
	DB	04aH
	DB	049H
	DB	04aH
	DB	049H
	DB	04aH
	DB	049H
	DB	04aH
	DB	049H
	DB	04aH
	DB	029H
	DB	04aH
	DB	048H
	DB	04aH
	DB	029H
	DB	04aH
	DB	049H
	DB	04aH
	DB	049H
	DB	04aH
	DB	049H
	DB	04aH
	DB	049H
	DB	04aH
	DB	049H
	DB	04aH
	DB	029H
	DB	042H
	DB	049H
	DB	04aH
	DB	049H
	DB	04aH
	DB	028H
	DB	042H
	DB	049H
	DB	04aH
	DB	049H
	DB	04aH
	DB	055H
	DB	0adH
	DB	035H
	DB	0adH
	DB	049H
	DB	04aH
	DB	049H
	DB	04aH
	DB	049H
	DB	04aH
	DB	049H
	DB	04aH
	DB	049H
	DB	04aH
	DB	029H
	DB	04aH
	DB	049H
	DB	042H
	DB	049H
	DB	04aH
	DB	049H
	DB	04aH
	DB	049H
	DB	04aH
	DB	029H
	DB	04aH
	DB	049H
	DB	04aH
	DB	049H
	DB	04aH
	DB	048H
	DB	042H
	DB	049H
	DB	04aH
	DB	049H
	DB	04aH
	DB	049H
	DB	04aH
	DB	029H
	DB	04aH
	DB	049H
	DB	04aH
	DB	049H
	DB	04aH
	DB	029H
	DB	04aH
	DB	029H
	DB	04aH
	DB	049H
	DB	04aH
	DB	029H
	DB	04aH
	DB	029H
	DB	04aH
	DB	049H
	DB	04aH
	DB	049H
	DB	04aH
	DB	029H
	DB	04aH
	DB	049H
	DB	04aH
	DB	049H
	DB	04aH
	DB	049H
	DB	04aH
	DB	049H
	DB	04aH
	DB	049H
	DB	04aH
	DB	049H
	DB	042H
	DB	029H
	DB	04aH
	DB	049H
	DB	04aH
	DB	049H
	DB	04aH
	DB	049H
	DB	04aH
	DB	048H
	DB	04aH
	DB	049H
	DB	04aH
	DB	049H
	DB	04aH
	DB	048H
	DB	04aH
	DB	049H
	DB	04aH
	DB	049H
	DB	04aH
	DB	049H
	DB	04aH
	DB	049H
	DB	04aH
	DB	029H
	DB	04aH
	DB	048H
	DB	04aH
	DB	049H
	DB	04aH
	DB	049H
	DB	04aH
	DB	049H
	DB	042H
	DB	049H
	DB	04aH
	DB	049H
	DB	04aH
	DB	029H
	DB	04aH
	DB	049H
	DB	04aH
	DB	049H
	DB	04aH
	DB	029H
	DB	04aH
	DB	049H
	DB	04aH
	DB	049H
	DB	04aH
	DB	049H
	DB	04aH
	DB	049H
	DB	04aH
	DB	049H
	DB	042H
	DB	028H
	DB	04aH
	DB	049H
	DB	04aH
	DB	029H
	DB	04aH
	DB	028H
	DB	04aH
	DB	049H
	DB	04aH
	DB	029H
	DB	04aH
	DB	049H
	DB	04aH
	DB	029H
	DB	04aH
	DB	048H
	DB	04aH
	DB	049H
	DB	04aH
	DB	049H
	DB	042H
	DB	029H
	DB	04aH
	DB	049H
	DB	04aH
	DB	049H
	DB	04aH
	DB	049H
	DB	04aH
	DB	049H
	DB	04aH
	DB	029H
	DB	04aH
	DB	048H
	DB	04aH
	DB	049H
	DB	04aH
	DB	029H
	DB	042H
	DB	049H
	DB	04aH
	DB	049H
	DB	04aH
	DB	028H
	DB	04aH
	DB	049H
	DB	04aH
	DB	049H
	DB	04aH
	DB	049H
	DB	04aH
	DB	029H
	DB	04aH
	DB	049H
	DB	04aH
	DB	049H
	DB	04aH
	DB	048H
	DB	04aH
	DB	049H
	DB	04aH
	DB	049H
	DB	04aH
	DB	049H
	DB	04aH
	DB	049H
	DB	04aH
	DB	049H
	DB	042H
	DB	029H
	DB	04aH
	DB	048H
	DB	04aH
	DB	029H
	DB	042H
	DB	049H
	DB	04aH
	DB	028H
	DB	04aH
	DB	049H
	DB	042H
	DB	029H
	DB	04aH
	DB	048H
	DB	04aH
	DB	049H
	DB	042H
	DB	029H
	DB	04aH
	DB	048H
	DB	04aH
	DB	049H
	DB	04aH
	DB	049H
	DB	04aH
	DB	048H
	DB	042H
	DB	049H
	DB	04aH
	DB	049H
	DB	04aH
	DB	049H
	DB	042H
	DB	028H
	DB	04aH
	DB	049H
	DB	04aH
	DB	029H
	DB	042H
	DB	028H
	DB	04aH
	DB	049H
	DB	04aH
	DB	049H
	DB	042H
	DB	048H
	DB	04aH
	DB	049H
	DB	04aH
	DB	049H
	DB	04aH
	DB	049H
	DB	04aH
	DB	049H
	DB	042H
	DB	049H
	DB	04aH
	DB	049H
	DB	04aH
	DB	028H
	DB	042H
	DB	049H
	DB	04aH
	DB	029H
	DB	04aH
	DB	048H
	DB	04aH
	DB	029H
	DB	04aH
	DB	049H
	DB	04aH
	DB	049H
	DB	04aH
	DB	049H
	DB	04aH
	DB	049H
	DB	04aH
	DB	049H
	DB	04aH
	DB	049H
	DB	04aH
	DB	049H
	DB	042H
	DB	048H
	DB	04aH
	DB	049H
	DB	04aH
	DB	049H
	DB	042H
	DB	028H
	DB	04aH
	DB	049H
	DB	04aH
	DB	049H
	DB	04aH
	DB	029H
	DB	042H
	DB	048H
	DB	04aH
	DB	049H
	DB	04aH
	DB	049H
	DB	04aH
	DB	049H
	DB	04aH
	DB	049H
	DB	042H
	DB	029H
	DB	04aH
	DB	049H
	DB	04aH
	DB	049H
	DB	042H
	DB	029H
	DB	04aH
	DB	048H
	DB	04aH
	DB	049H
	DB	04aH
	DB	049H
	DB	04aH
	DB	028H
	DB	04aH
	DB	049H
	DB	04aH
	DB	049H
	DB	04aH
	DB	029H
	DB	04aH
	DB	049H
	DB	04aH
	DB	055H
	DB	0adH
	DB	055H
	DB	0adH
	DB	049H
	DB	04aH
	DB	049H
	DB	04aH
	DB	029H
	DB	04aH
	DB	049H
	DB	04aH
	DB	049H
	DB	04aH
	DB	049H
	DB	04aH
	DB	028H
	DB	04aH
	DB	049H
	DB	04aH
	DB	029H
	DB	04aH
	DB	049H
	DB	04aH
	DB	049H
	DB	04aH
	DB	029H
	DB	04aH
	DB	049H
	DB	04aH
	DB	029H
	DB	04aH
	DB	049H
	DB	04aH
	DB	048H
	DB	04aH
	DB	029H
	DB	042H
	DB	049H
	DB	04aH
	DB	048H
	DB	04aH
	DB	049H
	DB	04aH
	DB	049H
	DB	04aH
	DB	049H
	DB	04aH
	DB	048H
	DB	04aH
	DB	049H
	DB	042H
	DB	049H
	DB	04aH
	DB	049H
	DB	04aH
	DB	048H
	DB	042H
	DB	049H
	DB	04aH
	DB	029H
	DB	04aH
	DB	049H
	DB	04aH
	DB	029H
	DB	04aH
	DB	049H
	DB	04aH
	DB	048H
	DB	04aH
	DB	029H
	DB	04aH
	DB	049H
	DB	04aH
	DB	048H
	DB	04aH
	DB	029H
	DB	042H
	DB	049H
	DB	04aH
	DB	049H
	DB	04aH
	DB	029H
	DB	04aH
	DB	049H
	DB	042H
	DB	049H
	DB	04aH
	DB	049H
	DB	04aH
	DB	049H
	DB	04aH
	DB	048H
	DB	042H
	DB	049H
	DB	04aH
	DB	049H
	DB	04aH
	DB	029H
	DB	042H
	DB	049H
	DB	04aH
	DB	049H
	DB	04aH
	DB	028H
	DB	04aH
	DB	049H
	DB	04aH
	DB	049H
	DB	042H
	DB	049H
	DB	04aH
	DB	049H
	DB	04aH
	DB	049H
	DB	042H
	DB	029H
	DB	04aH
	DB	049H
	DB	04aH
	DB	049H
	DB	04aH
	DB	029H
	DB	04aH
	DB	049H
	DB	04aH
	DB	049H
	DB	04aH
	DB	049H
	DB	04aH
	DB	049H
	DB	04aH
	DB	049H
	DB	04aH
	DB	049H
	DB	04aH
	DB	049H
	DB	04aH
	DB	049H
	DB	04aH
	DB	029H
	DB	042H
	DB	049H
	DB	04aH
	DB	049H
	DB	04aH
	DB	029H
	DB	04aH
	DB	049H
	DB	04aH
	DB	049H
	DB	04aH
	DB	049H
	DB	04aH
	DB	029H
	DB	042H
	DB	049H
	DB	04aH
	DB	049H
	DB	04aH
	DB	049H
	DB	04aH
	DB	049H
	DB	04aH
	DB	049H
	DB	04aH
	DB	049H
	DB	04aH
	DB	049H
	DB	04aH
	DB	049H
	DB	04aH
	DB	029H
	DB	04aH
	DB	049H
	DB	04aH
	DB	049H
	DB	042H
	DB	049H
	DB	04aH
	DB	049H
	DB	04aH
	DB	049H
	DB	042H
	DB	029H
	DB	04aH
	DB	049H
	DB	04aH
	DB	029H
	DB	042H
	DB	049H
	DB	04aH
	DB	048H
	DB	04aH
	DB	049H
	DB	04aH
	DB	049H
	DB	04aH
	DB	049H
	DB	04aH
	DB	029H
	DB	04aH
	DB	049H
	DB	04aH
	DB	049H
	DB	04aH
	DB	049H
	DB	04aH
	DB	029H
	DB	04aH
	DB	049H
	DB	04aH
	DB	049H
	DB	04aH
	DB	029H
	DB	04aH
	DB	049H
	DB	04aH
	DB	049H
	DB	042H
	DB	029H
	DB	04aH
	DB	049H
	DB	04aH
	DB	029H
	DB	04aH
	DB	049H
	DB	04aH
	DB	049H
	DB	04aH
	DB	029H
	DB	04aH
	DB	049H
	DB	04aH
	DB	049H
	DB	04aH
	DB	049H
	DB	04aH
	DB	049H
	DB	04aH
	DB	029H
	DB	04aH
	DB	049H
	DB	04aH
	DB	029H
	DB	04aH
	DB	049H
	DB	04aH
	DB	048H
	DB	042H
	DB	029H
	DB	04aH
	DB	049H
	DB	04aH
	DB	048H
	DB	04aH
	DB	049H
	DB	04aH
	DB	049H
	DB	04aH
	DB	029H
	DB	04aH
	DB	049H
	DB	04aH
	DB	049H
	DB	04aH
	DB	049H
	DB	042H
	DB	029H
	DB	04aH
	DB	029H
	DB	04aH
	DB	048H
	DB	042H
	DB	049H
	DB	04aH
	DB	029H
	DB	04aH
	DB	028H
	DB	04aH
	DB	049H
	DB	04aH
	DB	049H
	DB	04aH
	DB	029H
	DB	04aH
	DB	049H
	DB	04aH
	DB	049H
	DB	04aH
	DB	049H
	DB	04aH
	DB	049H
	DB	04aH
	DB	029H
	DB	04aH
	DB	049H
	DB	04aH
	DB	029H
	DB	04aH
	DB	029H
	DB	04aH
	DB	048H
	DB	04aH
	DB	049H
	DB	04aH
	DB	049H
	DB	04aH
	DB	048H
	DB	04aH
	DB	029H
	DB	04aH
	DB	049H
	DB	04aH
	DB	029H
	DB	042H
	DB	049H
	DB	04aH
	DB	049H
	DB	04aH
	DB	049H
	DB	04aH
	DB	049H
	DB	04aH
	DB	049H
	DB	04aH
	DB	049H
	DB	04aH
	DB	049H
	DB	04aH
	DB	055H
	DB	0adH
	DB	055H
	DB	0adH
	DB	049H
	DB	04aH
	DB	049H
	DB	04aH
	DB	048H
	DB	04aH
	DB	029H
	DB	042H
	DB	049H
	DB	04aH
	DB	049H
	DB	04aH
	DB	049H
	DB	04aH
	DB	049H
	DB	04aH
	DB	048H
	DB	042H
	DB	049H
	DB	04aH
	DB	049H
	DB	04aH
	DB	048H
	DB	042H
	DB	049H
	DB	04aH
	DB	029H
	DB	04aH
	DB	049H
	DB	04aH
	DB	049H
	DB	04aH
	DB	029H
	DB	04aH
	DB	049H
	DB	04aH
	DB	049H
	DB	04aH
	DB	029H
	DB	042H
	DB	049H
	DB	04aH
	DB	049H
	DB	04aH
	DB	029H
	DB	04aH
	DB	049H
	DB	04aH
	DB	049H
	DB	04aH
	DB	029H
	DB	04aH
	DB	049H
	DB	04aH
	DB	049H
	DB	04aH
	DB	049H
	DB	042H
	DB	048H
	DB	04aH
	DB	049H
	DB	04aH
	DB	029H
	DB	042H
	DB	049H
	DB	04aH
	DB	049H
	DB	04aH
	DB	049H
	DB	04aH
	DB	049H
	DB	04aH
	DB	029H
	DB	04aH
	DB	049H
	DB	04aH
	DB	049H
	DB	04aH
	DB	029H
	DB	04aH
	DB	049H
	DB	04aH
	DB	029H
	DB	04aH
	DB	029H
	DB	04aH
	DB	049H
	DB	04aH
	DB	029H
	DB	04aH
	DB	049H
	DB	04aH
	DB	049H
	DB	04aH
	DB	049H
	DB	04aH
	DB	029H
	DB	04aH
	DB	049H
	DB	04aH
	DB	049H
	DB	04aH
	DB	029H
	DB	04aH
	DB	049H
	DB	04aH
	DB	048H
	DB	04aH
	DB	029H
	DB	04aH
	DB	049H
	DB	04aH
	DB	048H
	DB	04aH
	DB	049H
	DB	042H
	DB	049H
	DB	04aH
	DB	028H
	DB	04aH
	DB	049H
	DB	042H
	DB	049H
	DB	04aH
	DB	029H
	DB	04aH
	DB	049H
	DB	042H
	DB	049H
	DB	04aH
	DB	029H
	DB	04aH
	DB	049H
	DB	042H
	DB	048H
	DB	04aH
	DB	049H
	DB	04aH
	DB	049H
	DB	04aH
	DB	049H
	DB	04aH
	DB	028H
	DB	04aH
	DB	049H
	DB	04aH
	DB	049H
	DB	04aH
	DB	028H
	DB	04aH
	DB	049H
	DB	04aH
	DB	049H
	DB	04aH
	DB	028H
	DB	04aH
	DB	049H
	DB	042H
	DB	029H
	DB	04aH
	DB	049H
	DB	04aH
	DB	028H
	DB	04aH
	DB	049H
	DB	04aH
	DB	049H
	DB	042H
	DB	049H
	DB	04aH
	DB	028H
	DB	04aH
	DB	049H
	DB	04aH
	DB	029H
	DB	04aH
	DB	048H
	DB	04aH
	DB	049H
	DB	04aH
	DB	049H
	DB	04aH
	DB	049H
	DB	04aH
	DB	049H
	DB	04aH
	DB	029H
	DB	04aH
	DB	029H
	DB	04aH
	DB	049H
	DB	04aH
	DB	029H
	DB	04aH
	DB	049H
	DB	04aH
	DB	049H
	DB	04aH
	DB	049H
	DB	04aH
	DB	048H
	DB	04aH
	DB	049H
	DB	042H
	DB	049H
	DB	04aH
	DB	049H
	DB	04aH
	DB	049H
	DB	04aH
	DB	048H
	DB	04aH
	DB	049H
	DB	04aH
	DB	049H
	DB	04aH
	DB	049H
	DB	04aH
	DB	029H
	DB	04aH
	DB	049H
	DB	04aH
	DB	049H
	DB	04aH
	DB	028H
	DB	04aH
	DB	049H
	DB	04aH
	DB	049H
	DB	04aH
	DB	049H
	DB	04aH
	DB	049H
	DB	04aH
	DB	049H
	DB	04aH
	DB	049H
	DB	04aH
	DB	049H
	DB	04aH
	DB	029H
	DB	04aH
	DB	049H
	DB	04aH
	DB	049H
	DB	04aH
	DB	029H
	DB	04aH
	DB	049H
	DB	04aH
	DB	029H
	DB	04aH
	DB	049H
	DB	04aH
	DB	049H
	DB	04aH
	DB	049H
	DB	04aH
	DB	049H
	DB	04aH
	DB	049H
	DB	04aH
	DB	049H
	DB	04aH
	DB	049H
	DB	04aH
	DB	049H
	DB	04aH
	DB	049H
	DB	04aH
	DB	029H
	DB	04aH
	DB	049H
	DB	04aH
	DB	049H
	DB	04aH
	DB	049H
	DB	04aH
	DB	029H
	DB	04aH
	DB	049H
	DB	04aH
	DB	049H
	DB	04aH
	DB	029H
	DB	04aH
	DB	048H
	DB	042H
	DB	049H
	DB	04aH
	DB	049H
	DB	04aH
	DB	049H
	DB	04aH
	DB	049H
	DB	042H
	DB	049H
	DB	04aH
	DB	049H
	DB	04aH
	DB	029H
	DB	04aH
	DB	049H
	DB	04aH
	DB	049H
	DB	04aH
	DB	049H
	DB	04aH
	DB	049H
	DB	04aH
	DB	049H
	DB	04aH
	DB	029H
	DB	04aH
	DB	049H
	DB	04aH
	DB	029H
	DB	042H
	DB	049H
	DB	04aH
	DB	028H
	DB	04aH
	DB	049H
	DB	042H
	DB	049H
	DB	04aH
	DB	035H
	DB	0adH
	DB	055H
	DB	0adH
	DB	049H
	DB	04aH
	DB	029H
	DB	04aH
	DB	049H
	DB	04aH
	DB	049H
	DB	04aH
	DB	028H
	DB	04aH
	DB	049H
	DB	042H
	DB	049H
	DB	04aH
	DB	029H
	DB	04aH
	DB	049H
	DB	04aH
	DB	029H
	DB	04aH
	DB	049H
	DB	04aH
	DB	049H
	DB	04aH
	DB	049H
	DB	04aH
	DB	049H
	DB	04aH
	DB	049H
	DB	042H
	DB	049H
	DB	04aH
	DB	049H
	DB	04aH
	DB	049H
	DB	04aH
	DB	029H
	DB	04aH
	DB	048H
	DB	04aH
	DB	049H
	DB	04aH
	DB	029H
	DB	042H
	DB	049H
	DB	04aH
	DB	048H
	DB	04aH
	DB	029H
	DB	04aH
	DB	049H
	DB	04aH
	DB	029H
	DB	04aH
	DB	049H
	DB	04aH
	DB	049H
	DB	04aH
	DB	029H
	DB	04aH
	DB	049H
	DB	04aH
	DB	049H
	DB	04aH
	DB	049H
	DB	04aH
	DB	029H
	DB	042H
	DB	049H
	DB	04aH
	DB	049H
	DB	04aH
	DB	048H
	DB	04aH
	DB	049H
	DB	04aH
	DB	049H
	DB	042H
	DB	048H
	DB	04aH
	DB	049H
	DB	04aH
	DB	049H
	DB	042H
	DB	048H
	DB	04aH
	DB	049H
	DB	04aH
	DB	029H
	DB	04aH
	DB	049H
	DB	04aH
	DB	048H
	DB	04aH
	DB	029H
	DB	04aH
	DB	049H
	DB	042H
	DB	048H
	DB	04aH
	DB	049H
	DB	04aH
	DB	029H
	DB	04aH
	DB	049H
	DB	04aH
	DB	049H
	DB	04aH
	DB	029H
	DB	04aH
	DB	049H
	DB	04aH
	DB	049H
	DB	04aH
	DB	029H
	DB	04aH
	DB	049H
	DB	04aH
	DB	049H
	DB	04aH
	DB	049H
	DB	04aH
	DB	028H
	DB	04aH
	DB	049H
	DB	04aH
	DB	049H
	DB	04aH
	DB	028H
	DB	04aH
	DB	049H
	DB	04aH
	DB	049H
	DB	04aH
	DB	029H
	DB	04aH
	DB	049H
	DB	04aH
	DB	049H
	DB	04aH
	DB	029H
	DB	042H
	DB	049H
	DB	04aH
	DB	049H
	DB	04aH
	DB	049H
	DB	042H
	DB	049H
	DB	04aH
	DB	049H
	DB	04aH
	DB	049H
	DB	04aH
	DB	029H
	DB	04aH
	DB	049H
	DB	04aH
	DB	049H
	DB	04aH
	DB	029H
	DB	04aH
	DB	049H
	DB	042H
	DB	049H
	DB	04aH
	DB	029H
	DB	04aH
	DB	049H
	DB	04aH
	DB	049H
	DB	04aH
	DB	049H
	DB	04aH
	DB	049H
	DB	04aH
	DB	029H
	DB	04aH
	DB	049H
	DB	04aH
	DB	028H
	DB	042H
	DB	049H
	DB	04aH
	DB	049H
	DB	04aH
	DB	048H
	DB	04aH
	DB	049H
	DB	042H
	DB	049H
	DB	04aH
	DB	048H
	DB	04aH
	DB	029H
	DB	042H
	DB	049H
	DB	04aH
	DB	049H
	DB	04aH
	DB	029H
	DB	04aH
	DB	029H
	DB	04aH
	DB	049H
	DB	04aH
	DB	048H
	DB	04aH
	DB	029H
	DB	042H
	DB	049H
	DB	04aH
	DB	029H
	DB	04aH
	DB	049H
	DB	04aH
	DB	048H
	DB	04aH
	DB	049H
	DB	042H
	DB	049H
	DB	04aH
	DB	049H
	DB	04aH
	DB	049H
	DB	042H
	DB	049H
	DB	04aH
	DB	029H
	DB	04aH
	DB	048H
	DB	042H
	DB	029H
	DB	04aH
	DB	049H
	DB	04aH
	DB	048H
	DB	042H
	DB	049H
	DB	04aH
	DB	049H
	DB	04aH
	DB	048H
	DB	042H
	DB	049H
	DB	04aH
	DB	049H
	DB	04aH
	DB	049H
	DB	04aH
	DB	049H
	DB	042H
	DB	029H
	DB	04aH
	DB	048H
	DB	04aH
	DB	029H
	DB	042H
	DB	049H
	DB	04aH
	DB	028H
	DB	04aH
	DB	049H
	DB	04aH
	DB	049H
	DB	04aH
	DB	048H
	DB	04aH
	DB	029H
	DB	04aH
	DB	049H
	DB	042H
	DB	049H
	DB	04aH
	DB	049H
	DB	04aH
	DB	049H
	DB	042H
	DB	048H
	DB	04aH
	DB	049H
	DB	04aH
	DB	049H
	DB	042H
	DB	029H
	DB	04aH
	DB	049H
	DB	04aH
	DB	049H
	DB	04aH
	DB	028H
	DB	04aH
	DB	049H
	DB	04aH
	DB	049H
	DB	04aH
	DB	048H
	DB	04aH
	DB	029H
	DB	042H
	DB	049H
	DB	04aH
	DB	049H
	DB	04aH
	DB	029H
	DB	042H
	DB	049H
	DB	04aH
	DB	048H
	DB	04aH
	DB	049H
	DB	04aH
	DB	049H
	DB	04aH
	DB	048H
	DB	04aH
	DB	049H
	DB	04aH
	DB	029H
	DB	04aH
	DB	049H
	DB	04aH
	DB	049H
	DB	04aH
	DB	049H
	DB	04aH
	DB	055H
	DB	0adH
	DB	055H
	DB	0adH
	DB	049H
	DB	04aH
	DB	049H
	DB	04aH
	DB	049H
	DB	04aH
	DB	049H
	DB	04aH
	DB	049H
	DB	04aH
	DB	029H
	DB	04aH
	DB	049H
	DB	04aH
	DB	049H
	DB	04aH
	DB	029H
	DB	04aH
	DB	049H
	DB	04aH
	DB	029H
	DB	042H
	DB	049H
	DB	04aH
	DB	028H
	DB	04aH
	DB	049H
	DB	04aH
	DB	029H
	DB	04aH
	DB	048H
	DB	04aH
	DB	049H
	DB	04aH
	DB	029H
	DB	042H
	DB	049H
	DB	04aH
	DB	049H
	DB	04aH
	DB	049H
	DB	04aH
	DB	049H
	DB	04aH
	DB	049H
	DB	04aH
	DB	049H
	DB	04aH
	DB	049H
	DB	042H
	DB	049H
	DB	04aH
	DB	048H
	DB	04aH
	DB	029H
	DB	042H
	DB	049H
	DB	04aH
	DB	049H
	DB	04aH
	DB	028H
	DB	04aH
	DB	049H
	DB	04aH
	DB	049H
	DB	04aH
	DB	048H
	DB	04aH
	DB	029H
	DB	04aH
	DB	049H
	DB	04aH
	DB	049H
	DB	042H
	DB	029H
	DB	04aH
	DB	049H
	DB	04aH
	DB	049H
	DB	04aH
	DB	029H
	DB	04aH
	DB	049H
	DB	04aH
	DB	049H
	DB	04aH
	DB	049H
	DB	042H
	DB	049H
	DB	04aH
	DB	049H
	DB	04aH
	DB	049H
	DB	042H
	DB	049H
	DB	04aH
	DB	049H
	DB	04aH
	DB	049H
	DB	04aH
	DB	029H
	DB	04aH
	DB	049H
	DB	042H
	DB	049H
	DB	04aH
	DB	049H
	DB	04aH
	DB	048H
	DB	042H
	DB	049H
	DB	04aH
	DB	029H
	DB	04aH
	DB	049H
	DB	04aH
	DB	048H
	DB	04aH
	DB	049H
	DB	04aH
	DB	029H
	DB	04aH
	DB	049H
	DB	04aH
	DB	049H
	DB	04aH
	DB	049H
	DB	04aH
	DB	049H
	DB	04aH
	DB	049H
	DB	04aH
	DB	049H
	DB	04aH
	DB	029H
	DB	04aH
	DB	049H
	DB	04aH
	DB	048H
	DB	04aH
	DB	049H
	DB	04aH
	DB	049H
	DB	04aH
	DB	029H
	DB	04aH
	DB	049H
	DB	04aH
	DB	049H
	DB	04aH
	DB	028H
	DB	04aH
	DB	049H
	DB	042H
	DB	049H
	DB	04aH
	DB	049H
	DB	04aH
	DB	048H
	DB	04aH
	DB	049H
	DB	04aH
	DB	049H
	DB	04aH
	DB	048H
	DB	04aH
	DB	049H
	DB	04aH
	DB	029H
	DB	04aH
	DB	049H
	DB	042H
	DB	049H
	DB	04aH
	DB	049H
	DB	04aH
	DB	049H
	DB	042H
	DB	049H
	DB	04aH
	DB	029H
	DB	04aH
	DB	049H
	DB	04aH
	DB	049H
	DB	04aH
	DB	029H
	DB	04aH
	DB	049H
	DB	04aH
	DB	049H
	DB	04aH
	DB	049H
	DB	04aH
	DB	049H
	DB	04aH
	DB	029H
	DB	04aH
	DB	048H
	DB	042H
	DB	049H
	DB	04aH
	DB	049H
	DB	04aH
	DB	049H
	DB	04aH
	DB	029H
	DB	04aH
	DB	049H
	DB	04aH
	DB	049H
	DB	04aH
	DB	029H
	DB	04aH
	DB	049H
	DB	042H
	DB	049H
	DB	04aH
	DB	029H
	DB	04aH
	DB	048H
	DB	04aH
	DB	029H
	DB	04aH
	DB	049H
	DB	04aH
	DB	049H
	DB	04aH
	DB	049H
	DB	04aH
	DB	029H
	DB	04aH
	DB	049H
	DB	04aH
	DB	049H
	DB	04aH
	DB	029H
	DB	04aH
	DB	029H
	DB	04aH
	DB	049H
	DB	04aH
	DB	029H
	DB	04aH
	DB	049H
	DB	04aH
	DB	029H
	DB	04aH
	DB	048H
	DB	04aH
	DB	049H
	DB	04aH
	DB	049H
	DB	04aH
	DB	049H
	DB	04aH
	DB	049H
	DB	04aH
	DB	029H
	DB	04aH
	DB	049H
	DB	042H
	DB	029H
	DB	04aH
	DB	049H
	DB	04aH
	DB	049H
	DB	042H
	DB	049H
	DB	04aH
	DB	049H
	DB	04aH
	DB	028H
	DB	04aH
	DB	049H
	DB	04aH
	DB	029H
	DB	04aH
	DB	049H
	DB	04aH
	DB	049H
	DB	04aH
	DB	029H
	DB	04aH
	DB	048H
	DB	04aH
	DB	049H
	DB	04aH
	DB	029H
	DB	04aH
	DB	049H
	DB	04aH
	DB	049H
	DB	042H
	DB	029H
	DB	04aH
	DB	049H
	DB	04aH
	DB	049H
	DB	04aH
	DB	049H
	DB	04aH
	DB	048H
	DB	04aH
	DB	029H
	DB	04aH
	DB	049H
	DB	04aH
	DB	029H
	DB	042H
	DB	029H
	DB	04aH
	DB	049H
	DB	04aH
	DB	049H
	DB	042H
	DB	049H
	DB	04aH
	DB	049H
	DB	04aH
	DB	049H
	DB	04aH
	DB	029H
	DB	04aH
	DB	049H
	DB	04aH
	DB	055H
	DB	0adH
	DB	055H
	DB	0adH
	DB	049H
	DB	04aH
	DB	029H
	DB	04aH
	DB	049H
	DB	042H
	DB	049H
	DB	04aH
	DB	029H
	DB	04aH
	DB	049H
	DB	04aH
	DB	048H
	DB	04aH
	DB	049H
	DB	042H
	DB	049H
	DB	04aH
	DB	048H
	DB	04aH
	DB	049H
	DB	04aH
	DB	049H
	DB	04aH
	DB	049H
	DB	04aH
	DB	029H
	DB	04aH
	DB	049H
	DB	04aH
	DB	049H
	DB	04aH
	DB	029H
	DB	04aH
	DB	048H
	DB	04aH
	DB	049H
	DB	04aH
	DB	029H
	DB	04aH
	DB	048H
	DB	04aH
	DB	029H
	DB	04aH
	DB	049H
	DB	04aH
	DB	029H
	DB	04aH
	DB	049H
	DB	04aH
	DB	049H
	DB	04aH
	DB	049H
	DB	04aH
	DB	049H
	DB	04aH
	DB	049H
	DB	04aH
	DB	049H
	DB	04aH
	DB	049H
	DB	042H
	DB	029H
	DB	04aH
	DB	049H
	DB	04aH
	DB	049H
	DB	04aH
	DB	049H
	DB	04aH
	DB	029H
	DB	04aH
	DB	049H
	DB	04aH
	DB	049H
	DB	04aH
	DB	029H
	DB	04aH
	DB	049H
	DB	04aH
	DB	048H
	DB	04aH
	DB	029H
	DB	04aH
	DB	049H
	DB	04aH
	DB	029H
	DB	04aH
	DB	048H
	DB	04aH
	DB	029H
	DB	04aH
	DB	049H
	DB	04aH
	DB	029H
	DB	04aH
	DB	049H
	DB	04aH
	DB	049H
	DB	04aH
	DB	049H
	DB	04aH
	DB	048H
	DB	04aH
	DB	029H
	DB	04aH
	DB	049H
	DB	04aH
	DB	049H
	DB	04aH
	DB	029H
	DB	04aH
	DB	049H
	DB	042H
	DB	049H
	DB	04aH
	DB	049H
	DB	04aH
	DB	029H
	DB	042H
	DB	049H
	DB	04aH
	DB	049H
	DB	04aH
	DB	029H
	DB	042H
	DB	049H
	DB	04aH
	DB	029H
	DB	04aH
	DB	048H
	DB	042H
	DB	049H
	DB	04aH
	DB	049H
	DB	04aH
	DB	029H
	DB	042H
	DB	049H
	DB	04aH
	DB	049H
	DB	04aH
	DB	029H
	DB	04aH
	DB	048H
	DB	04aH
	DB	049H
	DB	04aH
	DB	029H
	DB	04aH
	DB	049H
	DB	04aH
	DB	049H
	DB	04aH
	DB	029H
	DB	04aH
	DB	049H
	DB	04aH
	DB	049H
	DB	042H
	DB	029H
	DB	04aH
	DB	049H
	DB	04aH
	DB	049H
	DB	04aH
	DB	029H
	DB	04aH
	DB	048H
	DB	04aH
	DB	049H
	DB	04aH
	DB	029H
	DB	04aH
	DB	028H
	DB	04aH
	DB	049H
	DB	04aH
	DB	049H
	DB	04aH
	DB	049H
	DB	04aH
	DB	049H
	DB	04aH
	DB	029H
	DB	042H
	DB	049H
	DB	04aH
	DB	049H
	DB	04aH
	DB	029H
	DB	04aH
	DB	049H
	DB	04aH
	DB	049H
	DB	04aH
	DB	049H
	DB	04aH
	DB	049H
	DB	04aH
	DB	049H
	DB	04aH
	DB	049H
	DB	04aH
	DB	029H
	DB	042H
	DB	049H
	DB	04aH
	DB	049H
	DB	04aH
	DB	048H
	DB	04aH
	DB	049H
	DB	04aH
	DB	049H
	DB	04aH
	DB	029H
	DB	04aH
	DB	049H
	DB	04aH
	DB	049H
	DB	04aH
	DB	049H
	DB	04aH
	DB	029H
	DB	04aH
	DB	048H
	DB	042H
	DB	049H
	DB	04aH
	DB	049H
	DB	04aH
	DB	049H
	DB	04aH
	DB	048H
	DB	042H
	DB	049H
	DB	04aH
	DB	049H
	DB	04aH
	DB	049H
	DB	04aH
	DB	049H
	DB	04aH
	DB	029H
	DB	04aH
	DB	049H
	DB	042H
	DB	049H
	DB	04aH
	DB	029H
	DB	04aH
	DB	049H
	DB	04aH
	DB	049H
	DB	04aH
	DB	049H
	DB	04aH
	DB	049H
	DB	04aH
	DB	049H
	DB	04aH
	DB	049H
	DB	04aH
	DB	029H
	DB	04aH
	DB	049H
	DB	04aH
	DB	049H
	DB	04aH
	DB	029H
	DB	04aH
	DB	049H
	DB	04aH
	DB	049H
	DB	04aH
	DB	049H
	DB	04aH
	DB	029H
	DB	04aH
	DB	049H
	DB	04aH
	DB	049H
	DB	04aH
	DB	049H
	DB	04aH
	DB	049H
	DB	042H
	DB	049H
	DB	04aH
	DB	049H
	DB	04aH
	DB	049H
	DB	04aH
	DB	029H
	DB	04aH
	DB	049H
	DB	04aH
	DB	049H
	DB	04aH
	DB	029H
	DB	04aH
	DB	049H
	DB	04aH
	DB	049H
	DB	04aH
	DB	049H
	DB	04aH
	DB	049H
	DB	04aH
	DB	049H
	DB	04aH
	DB	029H
	DB	04aH
	DB	049H
	DB	04aH
	DB	028H
	DB	04aH
	DB	049H
	DB	04aH
	DB	049H
	DB	042H
	DB	048H
	DB	04aH
	DB	049H
	DB	04aH
	DB	055H
	DB	0adH
	DB	055H
	DB	0adH
	DB	049H
	DB	04aH
	DB	029H
	DB	04aH
	DB	048H
	DB	04aH
	DB	049H
	DB	04aH
	DB	049H
	DB	04aH
	DB	049H
	DB	042H
	DB	029H
	DB	04aH
	DB	049H
	DB	04aH
	DB	049H
	DB	04aH
	DB	029H
	DB	04aH
	DB	049H
	DB	04aH
	DB	049H
	DB	04aH
	DB	049H
	DB	042H
	DB	049H
	DB	04aH
	DB	049H
	DB	04aH
	DB	049H
	DB	042H
	DB	049H
	DB	04aH
	DB	049H
	DB	04aH
	DB	049H
	DB	04aH
	DB	049H
	DB	042H
	DB	029H
	DB	04aH
	DB	049H
	DB	04aH
	DB	048H
	DB	042H
	DB	049H
	DB	04aH
	DB	029H
	DB	04aH
	DB	028H
	DB	04aH
	DB	049H
	DB	04aH
	DB	029H
	DB	04aH
	DB	048H
	DB	04aH
	DB	049H
	DB	04aH
	DB	049H
	DB	04aH
	DB	049H
	DB	04aH
	DB	029H
	DB	04aH
	DB	049H
	DB	042H
	DB	048H
	DB	04aH
	DB	049H
	DB	04aH
	DB	049H
	DB	04aH
	DB	048H
	DB	04aH
	DB	029H
	DB	042H
	DB	049H
	DB	04aH
	DB	049H
	DB	04aH
	DB	049H
	DB	042H
	DB	049H
	DB	04aH
	DB	049H
	DB	04aH
	DB	029H
	DB	04aH
	DB	049H
	DB	04aH
	DB	048H
	DB	04aH
	DB	029H
	DB	04aH
	DB	049H
	DB	042H
	DB	028H
	DB	04aH
	DB	049H
	DB	04aH
	DB	049H
	DB	04aH
	DB	029H
	DB	042H
	DB	049H
	DB	04aH
	DB	049H
	DB	04aH
	DB	049H
	DB	04aH
	DB	048H
	DB	04aH
	DB	029H
	DB	04aH
	DB	049H
	DB	04aH
	DB	049H
	DB	04aH
	DB	048H
	DB	04aH
	DB	049H
	DB	04aH
	DB	049H
	DB	04aH
	DB	048H
	DB	04aH
	DB	029H
	DB	04aH
	DB	049H
	DB	04aH
	DB	049H
	DB	04aH
	DB	029H
	DB	04aH
	DB	048H
	DB	04aH
	DB	049H
	DB	04aH
	DB	029H
	DB	04aH
	DB	049H
	DB	042H
	DB	049H
	DB	04aH
	DB	049H
	DB	04aH
	DB	049H
	DB	042H
	DB	049H
	DB	04aH
	DB	049H
	DB	04aH
	DB	028H
	DB	04aH
	DB	049H
	DB	04aH
	DB	049H
	DB	04aH
	DB	029H
	DB	04aH
	DB	049H
	DB	04aH
	DB	049H
	DB	042H
	DB	049H
	DB	04aH
	DB	049H
	DB	04aH
	DB	049H
	DB	04aH
	DB	049H
	DB	04aH
	DB	049H
	DB	04aH
	DB	029H
	DB	04aH
	DB	048H
	DB	04aH
	DB	049H
	DB	04aH
	DB	029H
	DB	04aH
	DB	048H
	DB	04aH
	DB	049H
	DB	04aH
	DB	049H
	DB	04aH
	DB	028H
	DB	042H
	DB	049H
	DB	04aH
	DB	049H
	DB	04aH
	DB	028H
	DB	042H
	DB	029H
	DB	04aH
	DB	049H
	DB	04aH
	DB	048H
	DB	04aH
	DB	049H
	DB	04aH
	DB	049H
	DB	04aH
	DB	029H
	DB	04aH
	DB	049H
	DB	042H
	DB	049H
	DB	04aH
	DB	029H
	DB	04aH
	DB	048H
	DB	04aH
	DB	049H
	DB	04aH
	DB	049H
	DB	042H
	DB	049H
	DB	04aH
	DB	029H
	DB	04aH
	DB	049H
	DB	04aH
	DB	049H
	DB	04aH
	DB	029H
	DB	04aH
	DB	049H
	DB	04aH
	DB	029H
	DB	04aH
	DB	049H
	DB	04aH
	DB	049H
	DB	04aH
	DB	048H
	DB	042H
	DB	049H
	DB	04aH
	DB	049H
	DB	04aH
	DB	048H
	DB	04aH
	DB	049H
	DB	04aH
	DB	029H
	DB	04aH
	DB	048H
	DB	042H
	DB	029H
	DB	04aH
	DB	029H
	DB	04aH
	DB	048H
	DB	04aH
	DB	049H
	DB	04aH
	DB	049H
	DB	04aH
	DB	028H
	DB	04aH
	DB	049H
	DB	04aH
	DB	049H
	DB	04aH
	DB	048H
	DB	042H
	DB	049H
	DB	04aH
	DB	049H
	DB	04aH
	DB	048H
	DB	042H
	DB	029H
	DB	04aH
	DB	049H
	DB	04aH
	DB	049H
	DB	042H
	DB	029H
	DB	04aH
	DB	049H
	DB	04aH
	DB	029H
	DB	04aH
	DB	048H
	DB	04aH
	DB	049H
	DB	04aH
	DB	049H
	DB	04aH
	DB	048H
	DB	04aH
	DB	029H
	DB	042H
	DB	049H
	DB	04aH
	DB	049H
	DB	04aH
	DB	049H
	DB	042H
	DB	028H
	DB	04aH
	DB	049H
	DB	04aH
	DB	049H
	DB	04aH
	DB	048H
	DB	04aH
	DB	049H
	DB	04aH
	DB	049H
	DB	04aH
	DB	029H
	DB	04aH
	DB	049H
	DB	04aH
	DB	049H
	DB	04aH
	DB	049H
	DB	04aH
	DB	035H
	DB	0adH
	DB	055H
	DB	0adH
	DB	049H
	DB	04aH
	DB	049H
	DB	04aH
	DB	049H
	DB	04aH
	DB	029H
	DB	04aH
	DB	048H
	DB	04aH
	DB	049H
	DB	04aH
	DB	029H
	DB	04aH
	DB	049H
	DB	04aH
	DB	049H
	DB	04aH
	DB	029H
	DB	042H
	DB	048H
	DB	04aH
	DB	029H
	DB	04aH
	DB	029H
	DB	04aH
	DB	048H
	DB	04aH
	DB	029H
	DB	04aH
	DB	049H
	DB	04aH
	DB	028H
	DB	04aH
	DB	049H
	DB	04aH
	DB	049H
	DB	04aH
	DB	049H
	DB	04aH
	DB	049H
	DB	04aH
	DB	049H
	DB	04aH
	DB	049H
	DB	04aH
	DB	049H
	DB	04aH
	DB	049H
	DB	042H
	DB	049H
	DB	04aH
	DB	049H
	DB	04aH
	DB	049H
	DB	042H
	DB	029H
	DB	04aH
	DB	029H
	DB	04aH
	DB	049H
	DB	04aH
	DB	048H
	DB	04aH
	DB	049H
	DB	04aH
	DB	029H
	DB	04aH
	DB	049H
	DB	04aH
	DB	029H
	DB	042H
	DB	049H
	DB	04aH
	DB	049H
	DB	04aH
	DB	049H
	DB	04aH
	DB	049H
	DB	04aH
	DB	029H
	DB	04aH
	DB	049H
	DB	04aH
	DB	048H
	DB	04aH
	DB	049H
	DB	04aH
	DB	049H
	DB	042H
	DB	049H
	DB	04aH
	DB	049H
	DB	04aH
	DB	049H
	DB	04aH
	DB	049H
	DB	04aH
	DB	049H
	DB	04aH
	DB	029H
	DB	04aH
	DB	049H
	DB	04aH
	DB	049H
	DB	04aH
	DB	048H
	DB	04aH
	DB	029H
	DB	04aH
	DB	049H
	DB	04aH
	DB	049H
	DB	04aH
	DB	029H
	DB	04aH
	DB	049H
	DB	04aH
	DB	049H
	DB	04aH
	DB	029H
	DB	042H
	DB	049H
	DB	04aH
	DB	049H
	DB	04aH
	DB	049H
	DB	04aH
	DB	049H
	DB	04aH
	DB	049H
	DB	04aH
	DB	049H
	DB	042H
	DB	049H
	DB	04aH
	DB	049H
	DB	04aH
	DB	049H
	DB	04aH
	DB	049H
	DB	04aH
	DB	049H
	DB	04aH
	DB	029H
	DB	04aH
	DB	048H
	DB	04aH
	DB	029H
	DB	04aH
	DB	049H
	DB	04aH
	DB	049H
	DB	042H
	DB	049H
	DB	04aH
	DB	049H
	DB	04aH
	DB	049H
	DB	04aH
	DB	048H
	DB	04aH
	DB	029H
	DB	04aH
	DB	049H
	DB	04aH
	DB	049H
	DB	04aH
	DB	029H
	DB	042H
	DB	049H
	DB	04aH
	DB	049H
	DB	04aH
	DB	049H
	DB	042H
	DB	049H
	DB	04aH
	DB	049H
	DB	04aH
	DB	029H
	DB	042H
	DB	049H
	DB	04aH
	DB	049H
	DB	04aH
	DB	049H
	DB	04aH
	DB	029H
	DB	04aH
	DB	049H
	DB	04aH
	DB	049H
	DB	04aH
	DB	049H
	DB	04aH
	DB	049H
	DB	04aH
	DB	049H
	DB	04aH
	DB	029H
	DB	04aH
	DB	049H
	DB	04aH
	DB	049H
	DB	04aH
	DB	029H
	DB	04aH
	DB	048H
	DB	04aH
	DB	049H
	DB	04aH
	DB	029H
	DB	04aH
	DB	049H
	DB	04aH
	DB	049H
	DB	04aH
	DB	029H
	DB	04aH
	DB	049H
	DB	04aH
	DB	048H
	DB	04aH
	DB	049H
	DB	04aH
	DB	049H
	DB	04aH
	DB	029H
	DB	04aH
	DB	048H
	DB	042H
	DB	049H
	DB	04aH
	DB	049H
	DB	04aH
	DB	029H
	DB	04aH
	DB	029H
	DB	04aH
	DB	049H
	DB	04aH
	DB	029H
	DB	04aH
	DB	049H
	DB	04aH
	DB	049H
	DB	04aH
	DB	029H
	DB	04aH
	DB	049H
	DB	04aH
	DB	049H
	DB	04aH
	DB	049H
	DB	04aH
	DB	049H
	DB	042H
	DB	049H
	DB	04aH
	DB	029H
	DB	04aH
	DB	049H
	DB	042H
	DB	049H
	DB	04aH
	DB	029H
	DB	04aH
	DB	049H
	DB	04aH
	DB	029H
	DB	04aH
	DB	029H
	DB	04aH
	DB	049H
	DB	04aH
	DB	049H
	DB	04aH
	DB	049H
	DB	04aH
	DB	048H
	DB	04aH
	DB	029H
	DB	04aH
	DB	049H
	DB	04aH
	DB	048H
	DB	04aH
	DB	049H
	DB	04aH
	DB	029H
	DB	04aH
	DB	049H
	DB	042H
	DB	049H
	DB	04aH
	DB	029H
	DB	04aH
	DB	049H
	DB	04aH
	DB	048H
	DB	04aH
	DB	049H
	DB	04aH
	DB	029H
	DB	04aH
	DB	049H
	DB	04aH
	DB	049H
	DB	04aH
	DB	029H
	DB	042H
	DB	049H
	DB	04aH
	DB	049H
	DB	04aH
	DB	049H
	DB	042H
	DB	029H
	DB	04aH
	DB	049H
	DB	04aH
	DB	049H
	DB	04aH
	DB	049H
	DB	04aH
	DB	055H
	DB	0adH
	DB	055H
	DB	0adH
	DB	049H
	DB	04aH
	DB	049H
	DB	04aH
	DB	049H
	DB	04aH
	DB	029H
	DB	042H
	DB	049H
	DB	04aH
	DB	049H
	DB	04aH
	DB	049H
	DB	04aH
	DB	048H
	DB	04aH
	DB	049H
	DB	04aH
	DB	049H
	DB	04aH
	DB	049H
	DB	04aH
	DB	049H
	DB	04aH
	DB	049H
	DB	04aH
	DB	049H
	DB	04aH
	DB	049H
	DB	04aH
	DB	049H
	DB	04aH
	DB	029H
	DB	042H
	DB	049H
	DB	04aH
	DB	029H
	DB	04aH
	DB	028H
	DB	04aH
	DB	049H
	DB	04aH
	DB	029H
	DB	04aH
	DB	029H
	DB	04aH
	DB	049H
	DB	04aH
	DB	049H
	DB	04aH
	DB	029H
	DB	04aH
	DB	049H
	DB	04aH
	DB	049H
	DB	04aH
	DB	049H
	DB	04aH
	DB	049H
	DB	042H
	DB	029H
	DB	04aH
	DB	049H
	DB	04aH
	DB	049H
	DB	042H
	DB	049H
	DB	04aH
	DB	049H
	DB	04aH
	DB	029H
	DB	04aH
	DB	049H
	DB	04aH
	DB	049H
	DB	04aH
	DB	028H
	DB	04aH
	DB	049H
	DB	04aH
	DB	049H
	DB	04aH
	DB	029H
	DB	04aH
	DB	049H
	DB	04aH
	DB	029H
	DB	04aH
	DB	049H
	DB	04aH
	DB	049H
	DB	04aH
	DB	029H
	DB	04aH
	DB	049H
	DB	042H
	DB	049H
	DB	04aH
	DB	049H
	DB	04aH
	DB	049H
	DB	042H
	DB	029H
	DB	04aH
	DB	049H
	DB	04aH
	DB	049H
	DB	04aH
	DB	029H
	DB	042H
	DB	049H
	DB	04aH
	DB	049H
	DB	04aH
	DB	049H
	DB	042H
	DB	048H
	DB	04aH
	DB	029H
	DB	04aH
	DB	049H
	DB	04aH
	DB	029H
	DB	04aH
	DB	049H
	DB	04aH
	DB	029H
	DB	042H
	DB	049H
	DB	04aH
	DB	028H
	DB	04aH
	DB	029H
	DB	04aH
	DB	049H
	DB	04aH
	DB	029H
	DB	04aH
	DB	049H
	DB	042H
	DB	048H
	DB	04aH
	DB	029H
	DB	04aH
	DB	049H
	DB	04aH
	DB	049H
	DB	04aH
	DB	049H
	DB	04aH
	DB	029H
	DB	04aH
	DB	048H
	DB	04aH
	DB	029H
	DB	04aH
	DB	049H
	DB	04aH
	DB	049H
	DB	042H
	DB	029H
	DB	04aH
	DB	049H
	DB	04aH
	DB	048H
	DB	04aH
	DB	029H
	DB	04aH
	DB	049H
	DB	04aH
	DB	028H
	DB	04aH
	DB	049H
	DB	04aH
	DB	029H
	DB	04aH
	DB	048H
	DB	04aH
	DB	049H
	DB	04aH
	DB	049H
	DB	04aH
	DB	049H
	DB	04aH
	DB	049H
	DB	04aH
	DB	029H
	DB	042H
	DB	048H
	DB	04aH
	DB	049H
	DB	04aH
	DB	029H
	DB	04aH
	DB	049H
	DB	04aH
	DB	049H
	DB	04aH
	DB	049H
	DB	04aH
	DB	049H
	DB	042H
	DB	029H
	DB	04aH
	DB	049H
	DB	04aH
	DB	049H
	DB	042H
	DB	049H
	DB	04aH
	DB	049H
	DB	04aH
	DB	049H
	DB	04aH
	DB	049H
	DB	042H
	DB	049H
	DB	04aH
	DB	029H
	DB	04aH
	DB	049H
	DB	04aH
	DB	049H
	DB	042H
	DB	029H
	DB	04aH
	DB	049H
	DB	04aH
	DB	049H
	DB	04aH
	DB	049H
	DB	04aH
	DB	049H
	DB	04aH
	DB	049H
	DB	04aH
	DB	048H
	DB	042H
	DB	049H
	DB	04aH
	DB	049H
	DB	04aH
	DB	029H
	DB	04aH
	DB	049H
	DB	042H
	DB	049H
	DB	04aH
	DB	049H
	DB	04aH
	DB	049H
	DB	042H
	DB	049H
	DB	04aH
	DB	049H
	DB	04aH
	DB	049H
	DB	04aH
	DB	029H
	DB	04aH
	DB	048H
	DB	04aH
	DB	049H
	DB	04aH
	DB	049H
	DB	04aH
	DB	049H
	DB	042H
	DB	049H
	DB	04aH
	DB	049H
	DB	04aH
	DB	049H
	DB	04aH
	DB	029H
	DB	04aH
	DB	049H
	DB	04aH
	DB	049H
	DB	04aH
	DB	029H
	DB	04aH
	DB	049H
	DB	04aH
	DB	049H
	DB	04aH
	DB	049H
	DB	042H
	DB	049H
	DB	04aH
	DB	029H
	DB	04aH
	DB	049H
	DB	04aH
	DB	049H
	DB	04aH
	DB	049H
	DB	04aH
	DB	049H
	DB	04aH
	DB	029H
	DB	04aH
	DB	049H
	DB	04aH
	DB	049H
	DB	04aH
	DB	049H
	DB	04aH
	DB	049H
	DB	04aH
	DB	029H
	DB	04aH
	DB	049H
	DB	04aH
	DB	049H
	DB	04aH
	DB	028H
	DB	04aH
	DB	049H
	DB	04aH
	DB	049H
	DB	04aH
	DB	028H
	DB	04aH
	DB	049H
	DB	04aH
	DB	055H
	DB	0adH
	DB	035H
	DB	0adH
	DB	049H
	DB	04aH
	DB	049H
	DB	04aH
	DB	029H
	DB	04aH
	DB	048H
	DB	04aH
	DB	049H
	DB	04aH
	DB	029H
	DB	04aH
	DB	049H
	DB	042H
	DB	029H
	DB	04aH
	DB	049H
	DB	04aH
	DB	049H
	DB	04aH
	DB	029H
	DB	04aH
	DB	049H
	DB	042H
	DB	049H
	DB	04aH
	DB	029H
	DB	04aH
	DB	049H
	DB	042H
	DB	049H
	DB	04aH
	DB	049H
	DB	04aH
	DB	049H
	DB	04aH
	DB	049H
	DB	04aH
	DB	049H
	DB	042H
	DB	049H
	DB	04aH
	DB	049H
	DB	04aH
	DB	048H
	DB	042H
	DB	049H
	DB	04aH
	DB	029H
	DB	04aH
	DB	048H
	DB	04aH
	DB	049H
	DB	04aH
	DB	029H
	DB	04aH
	DB	048H
	DB	04aH
	DB	049H
	DB	04aH
	DB	049H
	DB	04aH
	DB	029H
	DB	04aH
	DB	048H
	DB	04aH
	DB	049H
	DB	04aH
	DB	049H
	DB	04aH
	DB	048H
	DB	04aH
	DB	049H
	DB	04aH
	DB	029H
	DB	042H
	DB	049H
	DB	04aH
	DB	049H
	DB	04aH
	DB	049H
	DB	042H
	DB	048H
	DB	04aH
	DB	049H
	DB	04aH
	DB	029H
	DB	042H
	DB	048H
	DB	04aH
	DB	049H
	DB	04aH
	DB	029H
	DB	04aH
	DB	048H
	DB	04aH
	DB	029H
	DB	04aH
	DB	049H
	DB	04aH
	DB	048H
	DB	04aH
	DB	049H
	DB	04aH
	DB	049H
	DB	04aH
	DB	049H
	DB	04aH
	DB	049H
	DB	04aH
	DB	028H
	DB	04aH
	DB	049H
	DB	04aH
	DB	049H
	DB	04aH
	DB	049H
	DB	04aH
	DB	049H
	DB	04aH
	DB	049H
	DB	04aH
	DB	048H
	DB	04aH
	DB	049H
	DB	04aH
	DB	049H
	DB	04aH
	DB	049H
	DB	04aH
	DB	049H
	DB	04aH
	DB	049H
	DB	04aH
	DB	049H
	DB	04aH
	DB	048H
	DB	04aH
	DB	029H
	DB	04aH
	DB	049H
	DB	04aH
	DB	049H
	DB	042H
	DB	049H
	DB	04aH
	DB	049H
	DB	04aH
	DB	049H
	DB	042H
	DB	049H
	DB	04aH
	DB	049H
	DB	04aH
	DB	029H
	DB	04aH
	DB	049H
	DB	04aH
	DB	048H
	DB	04aH
	DB	029H
	DB	04aH
	DB	049H
	DB	042H
	DB	049H
	DB	04aH
	DB	049H
	DB	04aH
	DB	049H
	DB	04aH
	DB	049H
	DB	04aH
	DB	049H
	DB	04aH
	DB	029H
	DB	04aH
	DB	049H
	DB	042H
	DB	049H
	DB	04aH
	DB	029H
	DB	04aH
	DB	048H
	DB	04aH
	DB	049H
	DB	04aH
	DB	049H
	DB	04aH
	DB	049H
	DB	04aH
	DB	049H
	DB	042H
	DB	029H
	DB	04aH
	DB	048H
	DB	04aH
	DB	029H
	DB	042H
	DB	049H
	DB	04aH
	DB	048H
	DB	04aH
	DB	049H
	DB	04aH
	DB	029H
	DB	04aH
	DB	048H
	DB	04aH
	DB	029H
	DB	04aH
	DB	049H
	DB	04aH
	DB	048H
	DB	04aH
	DB	029H
	DB	04aH
	DB	049H
	DB	04aH
	DB	048H
	DB	04aH
	DB	049H
	DB	04aH
	DB	029H
	DB	04aH
	DB	049H
	DB	04aH
	DB	048H
	DB	04aH
	DB	029H
	DB	042H
	DB	049H
	DB	04aH
	DB	029H
	DB	04aH
	DB	049H
	DB	04aH
	DB	049H
	DB	04aH
	DB	049H
	DB	04aH
	DB	049H
	DB	04aH
	DB	048H
	DB	04aH
	DB	029H
	DB	04aH
	DB	049H
	DB	04aH
	DB	048H
	DB	04aH
	DB	029H
	DB	04aH
	DB	029H
	DB	04aH
	DB	048H
	DB	04aH
	DB	049H
	DB	04aH
	DB	049H
	DB	04aH
	DB	049H
	DB	04aH
	DB	029H
	DB	04aH
	DB	049H
	DB	04aH
	DB	048H
	DB	04aH
	DB	029H
	DB	04aH
	DB	049H
	DB	04aH
	DB	048H
	DB	042H
	DB	049H
	DB	04aH
	DB	029H
	DB	04aH
	DB	049H
	DB	042H
	DB	049H
	DB	04aH
	DB	049H
	DB	04aH
	DB	029H
	DB	04aH
	DB	049H
	DB	04aH
	DB	049H
	DB	04aH
	DB	048H
	DB	04aH
	DB	029H
	DB	04aH
	DB	049H
	DB	04aH
	DB	048H
	DB	042H
	DB	029H
	DB	04aH
	DB	049H
	DB	04aH
	DB	049H
	DB	042H
	DB	028H
	DB	04aH
	DB	049H
	DB	04aH
	DB	049H
	DB	042H
	DB	048H
	DB	04aH
	DB	049H
	DB	04aH
	DB	029H
	DB	04aH
	DB	049H
	DB	04aH
	DB	049H
	DB	042H
	DB	049H
	DB	04aH
	DB	049H
	DB	04aH
	DB	049H
	DB	04aH
	DB	055H
	DB	0adH
	DB	055H
	DB	0adH
	DB	049H
	DB	04aH
	DB	049H
	DB	04aH
	DB	049H
	DB	04aH
	DB	049H
	DB	04aH
	DB	049H
	DB	04aH
	DB	049H
	DB	04aH
	DB	029H
	DB	04aH
	DB	049H
	DB	04aH
	DB	048H
	DB	04aH
	DB	029H
	DB	042H
	DB	049H
	DB	04aH
	DB	048H
	DB	04aH
	DB	049H
	DB	04aH
	DB	029H
	DB	04aH
	DB	048H
	DB	04aH
	DB	049H
	DB	04aH
	DB	029H
	DB	04aH
	DB	048H
	DB	04aH
	DB	049H
	DB	04aH
	DB	049H
	DB	04aH
	DB	049H
	DB	04aH
	DB	049H
	DB	04aH
	DB	049H
	DB	04aH
	DB	049H
	DB	04aH
	DB	049H
	DB	04aH
	DB	049H
	DB	042H
	DB	049H
	DB	04aH
	DB	029H
	DB	04aH
	DB	049H
	DB	042H
	DB	049H
	DB	04aH
	DB	049H
	DB	04aH
	DB	049H
	DB	04aH
	DB	029H
	DB	04aH
	DB	049H
	DB	04aH
	DB	029H
	DB	042H
	DB	049H
	DB	04aH
	DB	049H
	DB	04aH
	DB	049H
	DB	04aH
	DB	029H
	DB	04aH
	DB	049H
	DB	04aH
	DB	029H
	DB	04aH
	DB	049H
	DB	04aH
	DB	049H
	DB	04aH
	DB	049H
	DB	04aH
	DB	049H
	DB	04aH
	DB	049H
	DB	04aH
	DB	049H
	DB	04aH
	DB	049H
	DB	04aH
	DB	049H
	DB	04aH
	DB	029H
	DB	04aH
	DB	049H
	DB	04aH
	DB	029H
	DB	04aH
	DB	048H
	DB	042H
	DB	049H
	DB	04aH
	DB	049H
	DB	04aH
	DB	049H
	DB	04aH
	DB	029H
	DB	04aH
	DB	049H
	DB	04aH
	DB	029H
	DB	042H
	DB	049H
	DB	04aH
	DB	049H
	DB	04aH
	DB	029H
	DB	042H
	DB	049H
	DB	04aH
	DB	049H
	DB	04aH
	DB	028H
	DB	04aH
	DB	049H
	DB	042H
	DB	049H
	DB	04aH
	DB	049H
	DB	04aH
	DB	049H
	DB	042H
	DB	049H
	DB	04aH
	DB	029H
	DB	04aH
	DB	049H
	DB	04aH
	DB	028H
	DB	04aH
	DB	029H
	DB	04aH
	DB	049H
	DB	04aH
	DB	048H
	DB	04aH
	DB	049H
	DB	04aH
	DB	049H
	DB	042H
	DB	049H
	DB	04aH
	DB	049H
	DB	04aH
	DB	049H
	DB	04aH
	DB	049H
	DB	04aH
	DB	029H
	DB	04aH
	DB	049H
	DB	04aH
	DB	049H
	DB	042H
	DB	049H
	DB	04aH
	DB	048H
	DB	04aH
	DB	049H
	DB	04aH
	DB	049H
	DB	04aH
	DB	029H
	DB	04aH
	DB	049H
	DB	04aH
	DB	029H
	DB	042H
	DB	049H
	DB	04aH
	DB	029H
	DB	04aH
	DB	049H
	DB	04aH
	DB	049H
	DB	04aH
	DB	049H
	DB	04aH
	DB	049H
	DB	04aH
	DB	049H
	DB	04aH
	DB	029H
	DB	04aH
	DB	049H
	DB	04aH
	DB	049H
	DB	04aH
	DB	049H
	DB	04aH
	DB	049H
	DB	04aH
	DB	029H
	DB	042H
	DB	049H
	DB	04aH
	DB	049H
	DB	04aH
	DB	029H
	DB	04aH
	DB	049H
	DB	042H
	DB	049H
	DB	04aH
	DB	029H
	DB	04aH
	DB	049H
	DB	04aH
	DB	049H
	DB	04aH
	DB	049H
	DB	04aH
	DB	049H
	DB	04aH
	DB	029H
	DB	04aH
	DB	048H
	DB	04aH
	DB	029H
	DB	042H
	DB	029H
	DB	04aH
	DB	049H
	DB	04aH
	DB	049H
	DB	042H
	DB	029H
	DB	04aH
	DB	049H
	DB	04aH
	DB	049H
	DB	04aH
	DB	049H
	DB	04aH
	DB	049H
	DB	04aH
	DB	049H
	DB	04aH
	DB	029H
	DB	042H
	DB	049H
	DB	04aH
	DB	049H
	DB	04aH
	DB	029H
	DB	042H
	DB	049H
	DB	04aH
	DB	049H
	DB	04aH
	DB	029H
	DB	04aH
	DB	049H
	DB	04aH
	DB	049H
	DB	04aH
	DB	049H
	DB	04aH
	DB	049H
	DB	04aH
	DB	048H
	DB	04aH
	DB	029H
	DB	04aH
	DB	049H
	DB	04aH
	DB	048H
	DB	042H
	DB	029H
	DB	04aH
	DB	049H
	DB	04aH
	DB	049H
	DB	04aH
	DB	029H
	DB	042H
	DB	049H
	DB	04aH
	DB	049H
	DB	04aH
	DB	029H
	DB	04aH
	DB	049H
	DB	04aH
	DB	049H
	DB	04aH
	DB	049H
	DB	04aH
	DB	029H
	DB	04aH
	DB	049H
	DB	04aH
	DB	049H
	DB	04aH
	DB	029H
	DB	04aH
	DB	049H
	DB	04aH
	DB	049H
	DB	042H
	DB	049H
	DB	04aH
	DB	029H
	DB	04aH
	DB	049H
	DB	04aH
	DB	049H
	DB	04aH
	DB	049H
	DB	04aH
	DB	035H
	DB	0adH
	DB	055H
	DB	0adH
	DB	049H
	DB	04aH
	DB	029H
	DB	04aH
	DB	049H
	DB	04aH
	DB	049H
	DB	042H
	DB	029H
	DB	04aH
	DB	048H
	DB	04aH
	DB	049H
	DB	04aH
	DB	049H
	DB	04aH
	DB	049H
	DB	04aH
	DB	049H
	DB	04aH
	DB	049H
	DB	04aH
	DB	049H
	DB	04aH
	DB	029H
	DB	04aH
	DB	049H
	DB	04aH
	DB	049H
	DB	04aH
	DB	049H
	DB	04aH
	DB	029H
	DB	042H
	DB	049H
	DB	04aH
	DB	029H
	DB	04aH
	DB	029H
	DB	04aH
	DB	048H
	DB	042H
	DB	029H
	DB	04aH
	DB	029H
	DB	04aH
	DB	049H
	DB	04aH
	DB	029H
	DB	04aH
	DB	049H
	DB	04aH
	DB	048H
	DB	04aH
	DB	049H
	DB	04aH
	DB	029H
	DB	04aH
	DB	048H
	DB	04aH
	DB	049H
	DB	04aH
	DB	029H
	DB	042H
	DB	049H
	DB	04aH
	DB	049H
	DB	04aH
	DB	049H
	DB	04aH
	DB	029H
	DB	04aH
	DB	048H
	DB	04aH
	DB	049H
	DB	04aH
	DB	049H
	DB	04aH
	DB	048H
	DB	04aH
	DB	049H
	DB	04aH
	DB	029H
	DB	04aH
	DB	049H
	DB	04aH
	DB	029H
	DB	04aH
	DB	049H
	DB	04aH
	DB	029H
	DB	042H
	DB	049H
	DB	04aH
	DB	049H
	DB	04aH
	DB	049H
	DB	042H
	DB	048H
	DB	04aH
	DB	029H
	DB	04aH
	DB	049H
	DB	04aH
	DB	029H
	DB	04aH
	DB	049H
	DB	04aH
	DB	029H
	DB	04aH
	DB	049H
	DB	042H
	DB	049H
	DB	04aH
	DB	048H
	DB	04aH
	DB	029H
	DB	04aH
	DB	049H
	DB	04aH
	DB	048H
	DB	04aH
	DB	029H
	DB	04aH
	DB	049H
	DB	04aH
	DB	049H
	DB	04aH
	DB	029H
	DB	04aH
	DB	049H
	DB	04aH
	DB	029H
	DB	04aH
	DB	029H
	DB	04aH
	DB	049H
	DB	04aH
	DB	049H
	DB	04aH
	DB	049H
	DB	04aH
	DB	049H
	DB	04aH
	DB	049H
	DB	04aH
	DB	049H
	DB	04aH
	DB	029H
	DB	04aH
	DB	049H
	DB	04aH
	DB	029H
	DB	04aH
	DB	049H
	DB	04aH
	DB	029H
	DB	04aH
	DB	049H
	DB	04aH
	DB	049H
	DB	04aH
	DB	029H
	DB	04aH
	DB	048H
	DB	04aH
	DB	049H
	DB	04aH
	DB	029H
	DB	04aH
	DB	029H
	DB	04aH
	DB	049H
	DB	042H
	DB	049H
	DB	04aH
	DB	029H
	DB	04aH
	DB	048H
	DB	04aH
	DB	049H
	DB	04aH
	DB	049H
	DB	04aH
	DB	049H
	DB	04aH
	DB	048H
	DB	04aH
	DB	029H
	DB	04aH
	DB	049H
	DB	04aH
	DB	048H
	DB	04aH
	DB	029H
	DB	04aH
	DB	049H
	DB	04aH
	DB	049H
	DB	04aH
	DB	029H
	DB	042H
	DB	049H
	DB	04aH
	DB	049H
	DB	04aH
	DB	049H
	DB	04aH
	DB	049H
	DB	04aH
	DB	049H
	DB	04aH
	DB	049H
	DB	04aH
	DB	049H
	DB	04aH
	DB	049H
	DB	04aH
	DB	049H
	DB	04aH
	DB	048H
	DB	042H
	DB	049H
	DB	04aH
	DB	029H
	DB	04aH
	DB	049H
	DB	042H
	DB	049H
	DB	04aH
	DB	049H
	DB	04aH
	DB	049H
	DB	04aH
	DB	049H
	DB	04aH
	DB	049H
	DB	04aH
	DB	048H
	DB	04aH
	DB	029H
	DB	04aH
	DB	049H
	DB	04aH
	DB	049H
	DB	04aH
	DB	029H
	DB	042H
	DB	049H
	DB	04aH
	DB	049H
	DB	04aH
	DB	048H
	DB	04aH
	DB	029H
	DB	04aH
	DB	049H
	DB	04aH
	DB	048H
	DB	04aH
	DB	029H
	DB	04aH
	DB	049H
	DB	04aH
	DB	048H
	DB	042H
	DB	049H
	DB	04aH
	DB	049H
	DB	04aH
	DB	029H
	DB	042H
	DB	029H
	DB	04aH
	DB	049H
	DB	04aH
	DB	049H
	DB	04aH
	DB	049H
	DB	04aH
	DB	049H
	DB	04aH
	DB	049H
	DB	04aH
	DB	049H
	DB	04aH
	DB	048H
	DB	04aH
	DB	029H
	DB	04aH
	DB	049H
	DB	04aH
	DB	049H
	DB	04aH
	DB	049H
	DB	04aH
	DB	049H
	DB	04aH
	DB	049H
	DB	04aH
	DB	048H
	DB	04aH
	DB	029H
	DB	04aH
	DB	049H
	DB	042H
	DB	049H
	DB	04aH
	DB	049H
	DB	04aH
	DB	029H
	DB	04aH
	DB	048H
	DB	04aH
	DB	049H
	DB	04aH
	DB	029H
	DB	04aH
	DB	048H
	DB	04aH
	DB	049H
	DB	04aH
	DB	029H
	DB	04aH
	DB	049H
	DB	04aH
	DB	055H
	DB	0adH
	DB	055H
	DB	0adH
	DB	049H
	DB	04aH
	DB	048H
	DB	04aH
	DB	029H
	DB	04aH
	DB	049H
	DB	04aH
	DB	049H
	DB	04aH
	DB	029H
	DB	04aH
	DB	049H
	DB	042H
	DB	049H
	DB	04aH
	DB	029H
	DB	04aH
	DB	049H
	DB	04aH
	DB	029H
	DB	04aH
	DB	049H
	DB	042H
	DB	048H
	DB	04aH
	DB	049H
	DB	04aH
	DB	049H
	DB	042H
	DB	029H
	DB	04aH
	DB	049H
	DB	04aH
	DB	049H
	DB	04aH
	DB	049H
	DB	04aH
	DB	049H
	DB	04aH
	DB	049H
	DB	04aH
	DB	049H
	DB	04aH
	DB	048H
	DB	04aH
	DB	049H
	DB	042H
	DB	029H
	DB	04aH
	DB	049H
	DB	04aH
	DB	049H
	DB	04aH
	DB	049H
	DB	04aH
	DB	049H
	DB	04aH
	DB	029H
	DB	04aH
	DB	049H
	DB	04aH
	DB	048H
	DB	04aH
	DB	049H
	DB	04aH
	DB	049H
	DB	04aH
	DB	048H
	DB	04aH
	DB	029H
	DB	04aH
	DB	049H
	DB	042H
	DB	049H
	DB	04aH
	DB	029H
	DB	04aH
	DB	049H
	DB	042H
	DB	049H
	DB	04aH
	DB	049H
	DB	04aH
	DB	048H
	DB	042H
	DB	049H
	DB	04aH
	DB	029H
	DB	04aH
	DB	048H
	DB	04aH
	DB	029H
	DB	04aH
	DB	049H
	DB	04aH
	DB	029H
	DB	04aH
	DB	049H
	DB	04aH
	DB	049H
	DB	04aH
	DB	049H
	DB	042H
	DB	049H
	DB	04aH
	DB	049H
	DB	04aH
	DB	048H
	DB	04aH
	DB	029H
	DB	04aH
	DB	049H
	DB	04aH
	DB	049H
	DB	04aH
	DB	049H
	DB	04aH
	DB	049H
	DB	04aH
	DB	049H
	DB	04aH
	DB	049H
	DB	04aH
	DB	049H
	DB	042H
	DB	049H
	DB	04aH
	DB	049H
	DB	04aH
	DB	049H
	DB	04aH
	DB	048H
	DB	04aH
	DB	049H
	DB	04aH
	DB	029H
	DB	04aH
	DB	048H
	DB	04aH
	DB	049H
	DB	04aH
	DB	029H
	DB	042H
	DB	049H
	DB	04aH
	DB	049H
	DB	04aH
	DB	049H
	DB	042H
	DB	049H
	DB	04aH
	DB	049H
	DB	04aH
	DB	028H
	DB	04aH
	DB	049H
	DB	042H
	DB	049H
	DB	04aH
	DB	028H
	DB	04aH
	DB	049H
	DB	042H
	DB	049H
	DB	04aH
	DB	049H
	DB	04aH
	DB	049H
	DB	04aH
	DB	048H
	DB	04aH
	DB	029H
	DB	04aH
	DB	049H
	DB	04aH
	DB	049H
	DB	04aH
	DB	049H
	DB	042H
	DB	049H
	DB	04aH
	DB	029H
	DB	04aH
	DB	049H
	DB	04aH
	DB	049H
	DB	042H
	DB	049H
	DB	04aH
	DB	029H
	DB	04aH
	DB	049H
	DB	042H
	DB	049H
	DB	04aH
	DB	049H
	DB	04aH
	DB	048H
	DB	04aH
	DB	049H
	DB	04aH
	DB	029H
	DB	04aH
	DB	048H
	DB	04aH
	DB	029H
	DB	042H
	DB	049H
	DB	04aH
	DB	028H
	DB	04aH
	DB	049H
	DB	042H
	DB	029H
	DB	04aH
	DB	048H
	DB	04aH
	DB	029H
	DB	04aH
	DB	049H
	DB	04aH
	DB	049H
	DB	04aH
	DB	029H
	DB	04aH
	DB	048H
	DB	04aH
	DB	049H
	DB	04aH
	DB	029H
	DB	04aH
	DB	049H
	DB	04aH
	DB	049H
	DB	04aH
	DB	049H
	DB	04aH
	DB	049H
	DB	04aH
	DB	049H
	DB	04aH
	DB	048H
	DB	04aH
	DB	049H
	DB	04aH
	DB	029H
	DB	04aH
	DB	048H
	DB	04aH
	DB	049H
	DB	04aH
	DB	029H
	DB	042H
	DB	049H
	DB	04aH
	DB	049H
	DB	04aH
	DB	049H
	DB	04aH
	DB	049H
	DB	04aH
	DB	049H
	DB	04aH
	DB	029H
	DB	04aH
	DB	049H
	DB	04aH
	DB	049H
	DB	04aH
	DB	048H
	DB	04aH
	DB	049H
	DB	04aH
	DB	029H
	DB	04aH
	DB	049H
	DB	042H
	DB	049H
	DB	04aH
	DB	029H
	DB	04aH
	DB	049H
	DB	04aH
	DB	049H
	DB	04aH
	DB	029H
	DB	042H
	DB	049H
	DB	04aH
	DB	049H
	DB	04aH
	DB	048H
	DB	04aH
	DB	029H
	DB	042H
	DB	049H
	DB	04aH
	DB	049H
	DB	04aH
	DB	029H
	DB	042H
	DB	049H
	DB	04aH
	DB	049H
	DB	04aH
	DB	048H
	DB	04aH
	DB	029H
	DB	04aH
	DB	049H
	DB	042H
	DB	049H
	DB	04aH
	DB	049H
	DB	04aH
	DB	049H
	DB	04aH
	DB	049H
	DB	04aH
	DB	049H
	DB	042H
	DB	049H
	DB	04aH
	DB	049H
	DB	04aH
	DB	055H
	DB	0adH
	DB	055H
	DB	0adH
	DB	049H
	DB	04aH
	DB	049H
	DB	04aH
	DB	049H
	DB	04aH
	DB	049H
	DB	04aH
	DB	048H
	DB	04aH
	DB	049H
	DB	04aH
	DB	049H
	DB	04aH
	DB	028H
	DB	04aH
	DB	049H
	DB	042H
	DB	049H
	DB	04aH
	DB	048H
	DB	04aH
	DB	029H
	DB	04aH
	DB	049H
	DB	04aH
	DB	049H
	DB	04aH
	DB	029H
	DB	04aH
	DB	048H
	DB	04aH
	DB	049H
	DB	04aH
	DB	049H
	DB	04aH
	DB	048H
	DB	042H
	DB	049H
	DB	04aH
	DB	029H
	DB	04aH
	DB	049H
	DB	04aH
	DB	049H
	DB	04aH
	DB	049H
	DB	04aH
	DB	049H
	DB	04aH
	DB	028H
	DB	04aH
	DB	049H
	DB	042H
	DB	049H
	DB	04aH
	DB	029H
	DB	04aH
	DB	049H
	DB	042H
	DB	049H
	DB	04aH
	DB	029H
	DB	04aH
	DB	049H
	DB	04aH
	DB	029H
	DB	042H
	DB	049H
	DB	04aH
	DB	049H
	DB	04aH
	DB	049H
	DB	04aH
	DB	029H
	DB	04aH
	DB	049H
	DB	04aH
	DB	049H
	DB	04aH
	DB	029H
	DB	04aH
	DB	049H
	DB	04aH
	DB	049H
	DB	04aH
	DB	049H
	DB	04aH
	DB	049H
	DB	04aH
	DB	049H
	DB	04aH
	DB	049H
	DB	04aH
	DB	048H
	DB	042H
	DB	049H
	DB	04aH
	DB	029H
	DB	04aH
	DB	049H
	DB	04aH
	DB	049H
	DB	04aH
	DB	029H
	DB	04aH
	DB	049H
	DB	04aH
	DB	049H
	DB	042H
	DB	049H
	DB	04aH
	DB	029H
	DB	04aH
	DB	049H
	DB	042H
	DB	049H
	DB	04aH
	DB	029H
	DB	04aH
	DB	029H
	DB	042H
	DB	049H
	DB	04aH
	DB	028H
	DB	04aH
	DB	049H
	DB	04aH
	DB	029H
	DB	04aH
	DB	049H
	DB	042H
	DB	049H
	DB	04aH
	DB	049H
	DB	04aH
	DB	049H
	DB	042H
	DB	029H
	DB	04aH
	DB	049H
	DB	04aH
	DB	048H
	DB	04aH
	DB	029H
	DB	04aH
	DB	049H
	DB	04aH
	DB	048H
	DB	04aH
	DB	029H
	DB	04aH
	DB	049H
	DB	04aH
	DB	049H
	DB	04aH
	DB	049H
	DB	04aH
	DB	049H
	DB	04aH
	DB	049H
	DB	04aH
	DB	049H
	DB	04aH
	DB	029H
	DB	04aH
	DB	049H
	DB	042H
	DB	049H
	DB	04aH
	DB	049H
	DB	04aH
	DB	049H
	DB	04aH
	DB	029H
	DB	04aH
	DB	049H
	DB	04aH
	DB	049H
	DB	04aH
	DB	029H
	DB	04aH
	DB	048H
	DB	04aH
	DB	049H
	DB	04aH
	DB	029H
	DB	04aH
	DB	049H
	DB	04aH
	DB	049H
	DB	04aH
	DB	029H
	DB	04aH
	DB	049H
	DB	04aH
	DB	029H
	DB	042H
	DB	049H
	DB	04aH
	DB	049H
	DB	04aH
	DB	049H
	DB	04aH
	DB	029H
	DB	04aH
	DB	049H
	DB	04aH
	DB	049H
	DB	04aH
	DB	049H
	DB	04aH
	DB	029H
	DB	04aH
	DB	049H
	DB	04aH
	DB	049H
	DB	04aH
	DB	049H
	DB	04aH
	DB	029H
	DB	04aH
	DB	049H
	DB	04aH
	DB	049H
	DB	04aH
	DB	049H
	DB	04aH
	DB	049H
	DB	04aH
	DB	028H
	DB	042H
	DB	049H
	DB	04aH
	DB	029H
	DB	04aH
	DB	028H
	DB	042H
	DB	049H
	DB	04aH
	DB	049H
	DB	04aH
	DB	029H
	DB	042H
	DB	049H
	DB	04aH
	DB	049H
	DB	04aH
	DB	049H
	DB	04aH
	DB	029H
	DB	04aH
	DB	049H
	DB	04aH
	DB	049H
	DB	04aH
	DB	029H
	DB	04aH
	DB	049H
	DB	042H
	DB	049H
	DB	04aH
	DB	029H
	DB	04aH
	DB	049H
	DB	04aH
	DB	049H
	DB	04aH
	DB	029H
	DB	04aH
	DB	049H
	DB	04aH
	DB	049H
	DB	04aH
	DB	048H
	DB	04aH
	DB	029H
	DB	04aH
	DB	049H
	DB	04aH
	DB	048H
	DB	042H
	DB	029H
	DB	04aH
	DB	049H
	DB	04aH
	DB	049H
	DB	04aH
	DB	049H
	DB	04aH
	DB	049H
	DB	04aH
	DB	029H
	DB	04aH
	DB	049H
	DB	04aH
	DB	049H
	DB	04aH
	DB	028H
	DB	04aH
	DB	049H
	DB	04aH
	DB	049H
	DB	04aH
	DB	049H
	DB	04aH
	DB	029H
	DB	04aH
	DB	049H
	DB	04aH
	DB	049H
	DB	04aH
	DB	029H
	DB	04aH
	DB	049H
	DB	04aH
	DB	049H
	DB	04aH
	DB	029H
	DB	04aH
	DB	049H
	DB	04aH
	DB	048H
	DB	04aH
	DB	049H
	DB	04aH
	DB	035H
	DB	0adH
	DB	055H
	DB	0adH
	DB	049H
	DB	04aH
	DB	029H
	DB	04aH
	DB	049H
	DB	042H
	DB	029H
	DB	04aH
	DB	049H
	DB	04aH
	DB	049H
	DB	042H
	DB	029H
	DB	04aH
	DB	049H
	DB	04aH
	DB	049H
	DB	04aH
	DB	049H
	DB	04aH
	DB	049H
	DB	04aH
	DB	029H
	DB	04aH
	DB	049H
	DB	04aH
	DB	049H
	DB	04aH
	DB	049H
	DB	04aH
	DB	049H
	DB	04aH
	DB	029H
	DB	04aH
	DB	049H
	DB	04aH
	DB	029H
	DB	04aH
	DB	049H
	DB	04aH
	DB	049H
	DB	04aH
	DB	029H
	DB	042H
	DB	049H
	DB	04aH
	DB	049H
	DB	04aH
	DB	029H
	DB	04aH
	DB	049H
	DB	04aH
	DB	049H
	DB	04aH
	DB	029H
	DB	04aH
	DB	048H
	DB	04aH
	DB	049H
	DB	04aH
	DB	049H
	DB	04aH
	DB	049H
	DB	04aH
	DB	049H
	DB	04aH
	DB	049H
	DB	04aH
	DB	029H
	DB	04aH
	DB	049H
	DB	04aH
	DB	048H
	DB	04aH
	DB	049H
	DB	04aH
	DB	049H
	DB	04aH
	DB	048H
	DB	04aH
	DB	029H
	DB	04aH
	DB	049H
	DB	042H
	DB	029H
	DB	04aH
	DB	029H
	DB	04aH
	DB	048H
	DB	042H
	DB	049H
	DB	04aH
	DB	029H
	DB	04aH
	DB	049H
	DB	04aH
	DB	049H
	DB	04aH
	DB	049H
	DB	04aH
	DB	048H
	DB	04aH
	DB	049H
	DB	04aH
	DB	029H
	DB	04aH
	DB	048H
	DB	04aH
	DB	049H
	DB	04aH
	DB	049H
	DB	04aH
	DB	048H
	DB	04aH
	DB	029H
	DB	04aH
	DB	049H
	DB	04aH
	DB	048H
	DB	04aH
	DB	049H
	DB	04aH
	DB	049H
	DB	04aH
	DB	049H
	DB	04aH
	DB	029H
	DB	04aH
	DB	048H
	DB	04aH
	DB	049H
	DB	04aH
	DB	029H
	DB	04aH
	DB	049H
	DB	04aH
	DB	049H
	DB	04aH
	DB	049H
	DB	04aH
	DB	049H
	DB	04aH
	DB	049H
	DB	04aH
	DB	049H
	DB	04aH
	DB	029H
	DB	04aH
	DB	049H
	DB	04aH
	DB	049H
	DB	042H
	DB	029H
	DB	04aH
	DB	049H
	DB	04aH
	DB	049H
	DB	04aH
	DB	029H
	DB	04aH
	DB	049H
	DB	04aH
	DB	049H
	DB	04aH
	DB	028H
	DB	04aH
	DB	049H
	DB	04aH
	DB	029H
	DB	04aH
	DB	049H
	DB	04aH
	DB	049H
	DB	042H
	DB	048H
	DB	04aH
	DB	029H
	DB	04aH
	DB	049H
	DB	04aH
	DB	049H
	DB	042H
	DB	049H
	DB	04aH
	DB	049H
	DB	04aH
	DB	029H
	DB	04aH
	DB	048H
	DB	04aH
	DB	049H
	DB	04aH
	DB	049H
	DB	04aH
	DB	048H
	DB	04aH
	DB	049H
	DB	04aH
	DB	029H
	DB	04aH
	DB	049H
	DB	04aH
	DB	048H
	DB	042H
	DB	049H
	DB	04aH
	DB	049H
	DB	04aH
	DB	049H
	DB	04aH
	DB	049H
	DB	04aH
	DB	049H
	DB	04aH
	DB	049H
	DB	04aH
	DB	049H
	DB	042H
	DB	049H
	DB	04aH
	DB	048H
	DB	04aH
	DB	029H
	DB	042H
	DB	049H
	DB	04aH
	DB	049H
	DB	04aH
	DB	029H
	DB	04aH
	DB	049H
	DB	04aH
	DB	049H
	DB	04aH
	DB	049H
	DB	04aH
	DB	049H
	DB	04aH
	DB	049H
	DB	04aH
	DB	029H
	DB	04aH
	DB	049H
	DB	04aH
	DB	049H
	DB	04aH
	DB	049H
	DB	04aH
	DB	029H
	DB	042H
	DB	049H
	DB	04aH
	DB	049H
	DB	04aH
	DB	048H
	DB	04aH
	DB	049H
	DB	04aH
	DB	029H
	DB	04aH
	DB	048H
	DB	04aH
	DB	049H
	DB	04aH
	DB	049H
	DB	042H
	DB	048H
	DB	04aH
	DB	029H
	DB	04aH
	DB	049H
	DB	042H
	DB	049H
	DB	04aH
	DB	049H
	DB	04aH
	DB	049H
	DB	04aH
	DB	049H
	DB	04aH
	DB	049H
	DB	04aH
	DB	029H
	DB	04aH
	DB	048H
	DB	04aH
	DB	049H
	DB	04aH
	DB	029H
	DB	04aH
	DB	048H
	DB	042H
	DB	049H
	DB	04aH
	DB	049H
	DB	04aH
	DB	049H
	DB	04aH
	DB	049H
	DB	04aH
	DB	049H
	DB	04aH
	DB	029H
	DB	04aH
	DB	049H
	DB	042H
	DB	049H
	DB	04aH
	DB	048H
	DB	04aH
	DB	049H
	DB	04aH
	DB	049H
	DB	04aH
	DB	028H
	DB	042H
	DB	049H
	DB	04aH
	DB	049H
	DB	04aH
	DB	029H
	DB	04aH
	DB	049H
	DB	04aH
	DB	049H
	DB	04aH
	DB	055H
	DB	0adH
	DB	055H
	DB	0adH
	DB	049H
	DB	04aH
	DB	049H
	DB	04aH
	DB	049H
	DB	04aH
	DB	029H
	DB	04aH
	DB	049H
	DB	04aH
	DB	049H
	DB	04aH
	DB	049H
	DB	04aH
	DB	049H
	DB	04aH
	DB	029H
	DB	04aH
	DB	049H
	DB	04aH
	DB	049H
	DB	042H
	DB	049H
	DB	04aH
	DB	028H
	DB	04aH
	DB	049H
	DB	042H
	DB	049H
	DB	04aH
	DB	029H
	DB	04aH
	DB	048H
	DB	042H
	DB	049H
	DB	04aH
	DB	049H
	DB	04aH
	DB	049H
	DB	04aH
	DB	048H
	DB	04aH
	DB	029H
	DB	04aH
	DB	049H
	DB	04aH
	DB	048H
	DB	04aH
	DB	049H
	DB	042H
	DB	049H
	DB	04aH
	DB	049H
	DB	04aH
	DB	049H
	DB	04aH
	DB	049H
	DB	04aH
	DB	029H
	DB	04aH
	DB	049H
	DB	042H
	DB	048H
	DB	04aH
	DB	029H
	DB	04aH
	DB	049H
	DB	04aH
	DB	048H
	DB	04aH
	DB	029H
	DB	042H
	DB	049H
	DB	04aH
	DB	029H
	DB	04aH
	DB	049H
	DB	042H
	DB	049H
	DB	04aH
	DB	049H
	DB	04aH
	DB	048H
	DB	04aH
	DB	049H
	DB	04aH
	DB	049H
	DB	04aH
	DB	049H
	DB	04aH
	DB	029H
	DB	04aH
	DB	049H
	DB	04aH
	DB	049H
	DB	04aH
	DB	029H
	DB	04aH
	DB	049H
	DB	042H
	DB	049H
	DB	04aH
	DB	029H
	DB	04aH
	DB	049H
	DB	042H
	DB	049H
	DB	04aH
	DB	029H
	DB	04aH
	DB	049H
	DB	04aH
	DB	049H
	DB	04aH
	DB	049H
	DB	04aH
	DB	049H
	DB	04aH
	DB	049H
	DB	04aH
	DB	029H
	DB	04aH
	DB	049H
	DB	04aH
	DB	049H
	DB	042H
	DB	049H
	DB	04aH
	DB	049H
	DB	04aH
	DB	049H
	DB	04aH
	DB	029H
	DB	042H
	DB	048H
	DB	04aH
	DB	049H
	DB	04aH
	DB	029H
	DB	04aH
	DB	049H
	DB	042H
	DB	049H
	DB	04aH
	DB	029H
	DB	04aH
	DB	049H
	DB	042H
	DB	049H
	DB	04aH
	DB	048H
	DB	04aH
	DB	049H
	DB	04aH
	DB	049H
	DB	04aH
	DB	028H
	DB	042H
	DB	049H
	DB	04aH
	DB	049H
	DB	04aH
	DB	049H
	DB	042H
	DB	049H
	DB	04aH
	DB	049H
	DB	04aH
	DB	049H
	DB	04aH
	DB	028H
	DB	04aH
	DB	049H
	DB	04aH
	DB	049H
	DB	04aH
	DB	049H
	DB	04aH
	DB	029H
	DB	04aH
	DB	048H
	DB	04aH
	DB	049H
	DB	04aH
	DB	029H
	DB	042H
	DB	049H
	DB	04aH
	DB	049H
	DB	04aH
	DB	049H
	DB	042H
	DB	029H
	DB	04aH
	DB	049H
	DB	04aH
	DB	049H
	DB	04aH
	DB	049H
	DB	04aH
	DB	029H
	DB	04aH
	DB	049H
	DB	04aH
	DB	049H
	DB	04aH
	DB	029H
	DB	04aH
	DB	028H
	DB	042H
	DB	049H
	DB	04aH
	DB	049H
	DB	04aH
	DB	028H
	DB	04aH
	DB	029H
	DB	04aH
	DB	049H
	DB	04aH
	DB	049H
	DB	04aH
	DB	049H
	DB	04aH
	DB	049H
	DB	04aH
	DB	028H
	DB	042H
	DB	049H
	DB	04aH
	DB	049H
	DB	04aH
	DB	049H
	DB	04aH
	DB	049H
	DB	04aH
	DB	049H
	DB	04aH
	DB	049H
	DB	04aH
	DB	048H
	DB	04aH
	DB	029H
	DB	04aH
	DB	049H
	DB	04aH
	DB	048H
	DB	04aH
	DB	049H
	DB	04aH
	DB	049H
	DB	04aH
	DB	029H
	DB	04aH
	DB	049H
	DB	042H
	DB	049H
	DB	04aH
	DB	049H
	DB	04aH
	DB	029H
	DB	04aH
	DB	049H
	DB	04aH
	DB	049H
	DB	04aH
	DB	029H
	DB	04aH
	DB	049H
	DB	04aH
	DB	049H
	DB	04aH
	DB	029H
	DB	04aH
	DB	049H
	DB	042H
	DB	029H
	DB	04aH
	DB	049H
	DB	04aH
	DB	049H
	DB	04aH
	DB	049H
	DB	04aH
	DB	049H
	DB	042H
	DB	029H
	DB	04aH
	DB	049H
	DB	04aH
	DB	049H
	DB	04aH
	DB	029H
	DB	04aH
	DB	049H
	DB	04aH
	DB	029H
	DB	042H
	DB	049H
	DB	04aH
	DB	048H
	DB	04aH
	DB	029H
	DB	04aH
	DB	049H
	DB	04aH
	DB	049H
	DB	04aH
	DB	029H
	DB	04aH
	DB	049H
	DB	042H
	DB	049H
	DB	04aH
	DB	049H
	DB	04aH
	DB	049H
	DB	04aH
	DB	048H
	DB	042H
	DB	029H
	DB	04aH
	DB	049H
	DB	04aH
	DB	049H
	DB	04aH
	DB	055H
	DB	0adH
	DB	055H
	DB	0adH
	DB	049H
	DB	04aH
	DB	049H
	DB	04aH
	DB	048H
	DB	04aH
	DB	049H
	DB	04aH
	DB	029H
	DB	04aH
	DB	048H
	DB	04aH
	DB	049H
	DB	04aH
	DB	029H
	DB	042H
	DB	048H
	DB	04aH
	DB	049H
	DB	04aH
	DB	029H
	DB	04aH
	DB	049H
	DB	04aH
	DB	049H
	DB	04aH
	DB	049H
	DB	04aH
	DB	029H
	DB	04aH
	DB	049H
	DB	04aH
	DB	049H
	DB	04aH
	DB	049H
	DB	04aH
	DB	029H
	DB	04aH
	DB	049H
	DB	042H
	DB	049H
	DB	04aH
	DB	049H
	DB	04aH
	DB	029H
	DB	04aH
	DB	049H
	DB	04aH
	DB	049H
	DB	04aH
	DB	029H
	DB	04aH
	DB	048H
	DB	042H
	DB	049H
	DB	04aH
	DB	029H
	DB	04aH
	DB	049H
	DB	04aH
	DB	049H
	DB	04aH
	DB	029H
	DB	04aH
	DB	049H
	DB	04aH
	DB	049H
	DB	042H
	DB	049H
	DB	04aH
	DB	049H
	DB	04aH
	DB	049H
	DB	04aH
	DB	049H
	DB	04aH
	DB	029H
	DB	04aH
	DB	049H
	DB	04aH
	DB	049H
	DB	04aH
	DB	029H
	DB	04aH
	DB	049H
	DB	04aH
	DB	049H
	DB	04aH
	DB	049H
	DB	04aH
	DB	049H
	DB	04aH
	DB	048H
	DB	042H
	DB	049H
	DB	04aH
	DB	029H
	DB	04aH
	DB	048H
	DB	04aH
	DB	049H
	DB	04aH
	DB	049H
	DB	04aH
	DB	049H
	DB	04aH
	DB	049H
	DB	04aH
	DB	029H
	DB	04aH
	DB	049H
	DB	042H
	DB	049H
	DB	04aH
	DB	029H
	DB	04aH
	DB	049H
	DB	042H
	DB	049H
	DB	04aH
	DB	028H
	DB	04aH
	DB	049H
	DB	04aH
	DB	049H
	DB	04aH
	DB	029H
	DB	04aH
	DB	049H
	DB	04aH
	DB	049H
	DB	04aH
	DB	049H
	DB	04aH
	DB	029H
	DB	04aH
	DB	049H
	DB	04aH
	DB	048H
	DB	04aH
	DB	029H
	DB	04aH
	DB	049H
	DB	04aH
	DB	048H
	DB	04aH
	DB	049H
	DB	04aH
	DB	029H
	DB	04aH
	DB	049H
	DB	04aH
	DB	049H
	DB	04aH
	DB	029H
	DB	04aH
	DB	049H
	DB	04aH
	DB	049H
	DB	04aH
	DB	029H
	DB	04aH
	DB	048H
	DB	04aH
	DB	029H
	DB	04aH
	DB	049H
	DB	04aH
	DB	049H
	DB	042H
	DB	049H
	DB	04aH
	DB	029H
	DB	04aH
	DB	049H
	DB	042H
	DB	049H
	DB	04aH
	DB	049H
	DB	04aH
	DB	049H
	DB	04aH
	DB	029H
	DB	04aH
	DB	049H
	DB	04aH
	DB	048H
	DB	04aH
	DB	049H
	DB	04aH
	DB	029H
	DB	04aH
	DB	049H
	DB	04aH
	DB	049H
	DB	042H
	DB	028H
	DB	04aH
	DB	049H
	DB	04aH
	DB	049H
	DB	042H
	DB	029H
	DB	04aH
	DB	049H
	DB	04aH
	DB	049H
	DB	04aH
	DB	049H
	DB	04aH
	DB	049H
	DB	04aH
	DB	029H
	DB	042H
	DB	049H
	DB	04aH
	DB	049H
	DB	04aH
	DB	029H
	DB	04aH
	DB	049H
	DB	042H
	DB	049H
	DB	04aH
	DB	029H
	DB	04aH
	DB	049H
	DB	04aH
	DB	049H
	DB	04aH
	DB	049H
	DB	04aH
	DB	028H
	DB	042H
	DB	029H
	DB	04aH
	DB	049H
	DB	04aH
	DB	029H
	DB	042H
	DB	049H
	DB	04aH
	DB	049H
	DB	04aH
	DB	029H
	DB	042H
	DB	049H
	DB	04aH
	DB	049H
	DB	04aH
	DB	029H
	DB	04aH
	DB	048H
	DB	04aH
	DB	049H
	DB	04aH
	DB	029H
	DB	04aH
	DB	049H
	DB	04aH
	DB	049H
	DB	042H
	DB	049H
	DB	04aH
	DB	049H
	DB	04aH
	DB	049H
	DB	04aH
	DB	048H
	DB	04aH
	DB	049H
	DB	04aH
	DB	049H
	DB	04aH
	DB	028H
	DB	04aH
	DB	049H
	DB	04aH
	DB	049H
	DB	04aH
	DB	028H
	DB	042H
	DB	049H
	DB	04aH
	DB	049H
	DB	04aH
	DB	049H
	DB	04aH
	DB	049H
	DB	04aH
	DB	049H
	DB	04aH
	DB	049H
	DB	04aH
	DB	028H
	DB	04aH
	DB	049H
	DB	04aH
	DB	049H
	DB	04aH
	DB	049H
	DB	04aH
	DB	049H
	DB	042H
	DB	049H
	DB	04aH
	DB	048H
	DB	04aH
	DB	029H
	DB	04aH
	DB	049H
	DB	04aH
	DB	049H
	DB	04aH
	DB	029H
	DB	04aH
	DB	049H
	DB	04aH
	DB	049H
	DB	04aH
	DB	049H
	DB	04aH
	DB	029H
	DB	04aH
	DB	049H
	DB	04aH
	DB	055H
	DB	0adH
	DB	035H
	DB	0adH
	DB	049H
	DB	04aH
	DB	029H
	DB	04aH
	DB	049H
	DB	04aH
	DB	049H
	DB	042H
	DB	049H
	DB	04aH
	DB	029H
	DB	04aH
	DB	049H
	DB	04aH
	DB	049H
	DB	04aH
	DB	049H
	DB	04aH
	DB	049H
