; Listing generated by Microsoft (R) Optimizing Compiler Version 19.00.24210.0 

	TITLE	C:\MyFiles\SoftwareTeam\Technology\TouchGFX\Project_template\Project\STM32F769_Keil\Graphic\generated\images\src\down_btn.cpp
	.686P
	.XMM
	include listing.inc
	.model	flat

INCLUDELIB MSVCRTD
INCLUDELIB OLDNAMES

PUBLIC	?_down_btn@@3QBEB				; _down_btn
PUBLIC	?_down_btn_alpha_channel@@3QBEB			; _down_btn_alpha_channel
CONST	SEGMENT
?_down_btn@@3QBEB DB 0cdH				; _down_btn
	DB	0abH
	DB	0cdH
	DB	0abH
	DB	0cdH
	DB	0abH
	DB	08aH
	DB	04aH
	DB	0abH
	DB	04aH
	DB	0cbH
	DB	052H
	DB	0dH
	DB	05bH
	DB	0cH
	DB	05bH
	DB	0cH
	DB	05bH
	DB	0cH
	DB	05bH
	DB	0ecH
	DB	052H
	DB	0cH
	DB	05bH
	DB	0dH
	DB	05bH
	DB	0ecH
	DB	05aH
	DB	0dH
	DB	05bH
	DB	0ecH
	DB	052H
	DB	0ecH
	DB	05aH
	DB	02dH
	DB	05bH
	DB	0ecH
	DB	05aH
	DB	0cH
	DB	05bH
	DB	0dH
	DB	05bH
	DB	0ecH
	DB	052H
	DB	0cH
	DB	05bH
	DB	0ecH
	DB	05aH
	DB	0ecH
	DB	052H
	DB	02cH
	DB	05bH
	DB	0ecH
	DB	05aH
	DB	0ecH
	DB	05aH
	DB	0dH
	DB	05bH
	DB	0cH
	DB	05bH
	DB	0ecH
	DB	05aH
	DB	0ecH
	DB	052H
	DB	0cH
	DB	05bH
	DB	02dH
	DB	05bH
	DB	0ecH
	DB	05aH
	DB	0ecH
	DB	05aH
	DB	0dH
	DB	05bH
	DB	0ecH
	DB	052H
	DB	02dH
	DB	05bH
	DB	0cH
	DB	05bH
	DB	0cH
	DB	05bH
	DB	0cH
	DB	05bH
	DB	0ecH
	DB	052H
	DB	0dH
	DB	05bH
	DB	02dH
	DB	05bH
	DB	0cH
	DB	05bH
	DB	02dH
	DB	063H
	DB	0dH
	DB	05bH
	DB	0ecH
	DB	05aH
	DB	02dH
	DB	05bH
	DB	0ecH
	DB	05aH
	DB	0cH
	DB	05bH
	DB	0cH
	DB	05bH
	DB	0ecH
	DB	05aH
	DB	02dH
	DB	05bH
	DB	02dH
	DB	05bH
	DB	0cH
	DB	05bH
	DB	02dH
	DB	05bH
	DB	0cH
	DB	05bH
	DB	02dH
	DB	05bH
	DB	02dH
	DB	05bH
	DB	0dH
	DB	05bH
	DB	0dH
	DB	05bH
	DB	0cH
	DB	05bH
	DB	0cH
	DB	05bH
	DB	02dH
	DB	05bH
	DB	0cH
	DB	05bH
	DB	02dH
	DB	05bH
	DB	02dH
	DB	05bH
	DB	0ecH
	DB	05aH
	DB	02dH
	DB	05bH
	DB	02dH
	DB	05bH
	DB	0dH
	DB	05bH
	DB	0dH
	DB	05bH
	DB	0cH
	DB	05bH
	DB	02dH
	DB	05bH
	DB	02dH
	DB	05bH
	DB	02dH
	DB	063H
	DB	02dH
	DB	05bH
	DB	0cH
	DB	05bH
	DB	0dH
	DB	05bH
	DB	02dH
	DB	063H
	DB	02dH
	DB	05bH
	DB	02dH
	DB	05bH
	DB	0dH
	DB	05bH
	DB	0ecH
	DB	05aH
	DB	02dH
	DB	05bH
	DB	0dH
	DB	05bH
	DB	0ecH
	DB	05aH
	DB	04dH
	DB	063H
	DB	0cH
	DB	05bH
	DB	02dH
	DB	05bH
	DB	02dH
	DB	063H
	DB	02dH
	DB	05bH
	DB	02dH
	DB	05bH
	DB	0cH
	DB	05bH
	DB	02dH
	DB	05bH
	DB	02dH
	DB	063H
	DB	0dH
	DB	05bH
	DB	02dH
	DB	05bH
	DB	02dH
	DB	063H
	DB	0ecH
	DB	05aH
	DB	02dH
	DB	063H
	DB	02dH
	DB	05bH
	DB	02dH
	DB	05bH
	DB	02dH
	DB	05bH
	DB	0cH
	DB	05bH
	DB	02dH
	DB	05bH
	DB	02dH
	DB	063H
	DB	0cH
	DB	05bH
	DB	02dH
	DB	05bH
	DB	02dH
	DB	05bH
	DB	0dH
	DB	05bH
	DB	02dH
	DB	063H
	DB	0dH
	DB	05bH
	DB	0dH
	DB	05bH
	DB	02dH
	DB	05bH
	DB	0cH
	DB	05bH
	DB	02dH
	DB	063H
	DB	02dH
	DB	05bH
	DB	02dH
	DB	05bH
	DB	02dH
	DB	063H
	DB	0cH
	DB	05bH
	DB	02dH
	DB	05bH
	DB	0dH
	DB	05bH
	DB	0ccH
	DB	052H
	DB	0cbH
	DB	04aH
	DB	0cdH
	DB	0abH
	DB	0cdH
	DB	0abH
	DB	0cdH
	DB	0abH
	DB	0cdH
	DB	0abH
	DB	0cdH
	DB	0abH
	DB	08bH
	DB	04aH
	DB	0ccH
	DB	052H
	DB	06aH
	DB	04aH
	DB	0e8H
	DB	039H
	DB	066H
	DB	029H
	DB	086H
	DB	029H
	DB	0a7H
	DB	031H
	DB	087H
	DB	029H
	DB	086H
	DB	029H
	DB	066H
	DB	029H
	DB	086H
	DB	029H
	DB	0a7H
	DB	031H
	DB	0a7H
	DB	031H
	DB	086H
	DB	029H
	DB	086H
	DB	029H
	DB	086H
	DB	029H
	DB	0a7H
	DB	029H
	DB	087H
	DB	031H
	DB	086H
	DB	031H
	DB	0a7H
	DB	029H
	DB	066H
	DB	029H
	DB	087H
	DB	029H
	DB	0c7H
	DB	031H
	DB	0a7H
	DB	031H
	DB	0a7H
	DB	029H
	DB	087H
	DB	029H
	DB	0c7H
	DB	031H
	DB	0c7H
	DB	031H
	DB	087H
	DB	029H
	DB	0a7H
	DB	031H
	DB	086H
	DB	029H
	DB	086H
	DB	029H
	DB	0a7H
	DB	031H
	DB	0a7H
	DB	031H
	DB	0c7H
	DB	031H
	DB	0a7H
	DB	031H
	DB	086H
	DB	029H
	DB	087H
	DB	029H
	DB	0c7H
	DB	031H
	DB	0a7H
	DB	031H
	DB	0a7H
	DB	031H
	DB	086H
	DB	029H
	DB	0c7H
	DB	031H
	DB	0c7H
	DB	031H
	DB	0a7H
	DB	031H
	DB	0a7H
	DB	031H
	DB	0a7H
	DB	029H
	DB	086H
	DB	029H
	DB	0a7H
	DB	031H
	DB	0c7H
	DB	031H
	DB	0a7H
	DB	031H
	DB	0a7H
	DB	031H
	DB	087H
	DB	029H
	DB	0c7H
	DB	031H
	DB	0c7H
	DB	031H
	DB	0a7H
	DB	031H
	DB	0a7H
	DB	031H
	DB	0a7H
	DB	031H
	DB	087H
	DB	031H
	DB	0c7H
	DB	031H
	DB	0c7H
	DB	031H
	DB	0c7H
	DB	031H
	DB	0a7H
	DB	031H
	DB	0a7H
	DB	031H
	DB	0e7H
	DB	031H
	DB	0c7H
	DB	031H
	DB	0a7H
	DB	031H
	DB	0a7H
	DB	031H
	DB	086H
	DB	029H
	DB	0c7H
	DB	031H
	DB	0e7H
	DB	031H
	DB	0c7H
	DB	031H
	DB	0c7H
	DB	031H
	DB	087H
	DB	031H
	DB	0c7H
	DB	031H
	DB	0c7H
	DB	031H
	DB	0c7H
	DB	031H
	DB	0c7H
	DB	031H
	DB	087H
	DB	029H
	DB	0a7H
	DB	031H
	DB	0e8H
	DB	039H
	DB	0c7H
	DB	031H
	DB	0c7H
	DB	031H
	DB	0a7H
	DB	031H
	DB	087H
	DB	029H
	DB	0a7H
	DB	031H
	DB	0c7H
	DB	031H
	DB	0a7H
	DB	031H
	DB	0c7H
	DB	031H
	DB	087H
	DB	029H
	DB	0a7H
	DB	031H
	DB	0e8H
	DB	039H
	DB	0c7H
	DB	031H
	DB	0c7H
	DB	031H
	DB	0a7H
	DB	031H
	DB	087H
	DB	029H
	DB	0c7H
	DB	031H
	DB	0e7H
	DB	031H
	DB	0a7H
	DB	031H
	DB	0a7H
	DB	031H
	DB	0a7H
	DB	029H
	DB	0a7H
	DB	031H
	DB	0e7H
	DB	031H
	DB	0a7H
	DB	031H
	DB	0a7H
	DB	031H
	DB	087H
	DB	029H
	DB	0a7H
	DB	031H
	DB	0a7H
	DB	031H
	DB	0c7H
	DB	031H
	DB	0c7H
	DB	031H
	DB	087H
	DB	031H
	DB	0a7H
	DB	029H
	DB	0c7H
	DB	031H
	DB	0c7H
	DB	031H
	DB	0c7H
	DB	031H
	DB	087H
	DB	029H
	DB	087H
	DB	029H
	DB	0c7H
	DB	031H
	DB	0a7H
	DB	031H
	DB	0a7H
	DB	031H
	DB	0a7H
	DB	031H
	DB	0a7H
	DB	029H
	DB	08H
	DB	03aH
	DB	08bH
	DB	04aH
	DB	0cH
	DB	05bH
	DB	0cbH
	DB	052H
	DB	0cdH
	DB	0abH
	DB	0cdH
	DB	0abH
	DB	0cdH
	DB	0abH
	DB	04aH
	DB	042H
	DB	0cbH
	DB	052H
	DB	0e8H
	DB	039H
	DB	086H
	DB	029H
	DB	086H
	DB	029H
	DB	066H
	DB	029H
	DB	086H
	DB	029H
	DB	087H
	DB	029H
	DB	087H
	DB	029H
	DB	086H
	DB	029H
	DB	086H
	DB	029H
	DB	066H
	DB	029H
	DB	0a7H
	DB	029H
	DB	086H
	DB	029H
	DB	0a7H
	DB	029H
	DB	087H
	DB	031H
	DB	086H
	DB	029H
	DB	0a7H
	DB	029H
	DB	0a7H
	DB	031H
	DB	0a7H
	DB	029H
	DB	0a7H
	DB	031H
	DB	086H
	DB	029H
	DB	087H
	DB	029H
	DB	0c7H
	DB	031H
	DB	0a7H
	DB	031H
	DB	0c7H
	DB	031H
	DB	0a7H
	DB	029H
	DB	087H
	DB	031H
	DB	0c7H
	DB	031H
	DB	0a7H
	DB	031H
	DB	0a7H
	DB	031H
	DB	0c7H
	DB	031H
	DB	0a7H
	DB	029H
	DB	0a7H
	DB	031H
	DB	0c7H
	DB	031H
	DB	0a7H
	DB	031H
	DB	0c7H
	DB	031H
	DB	0a7H
	DB	031H
	DB	0a7H
	DB	031H
	DB	0a7H
	DB	031H
	DB	0a7H
	DB	031H
	DB	0c7H
	DB	031H
	DB	0a7H
	DB	031H
	DB	0a7H
	DB	031H
	DB	0c7H
	DB	031H
	DB	0c7H
	DB	031H
	DB	0a7H
	DB	029H
	DB	0a7H
	DB	031H
	DB	087H
	DB	029H
	DB	0c7H
	DB	031H
	DB	0c8H
	DB	031H
	DB	0c7H
	DB	031H
	DB	0c7H
	DB	031H
	DB	0a7H
	DB	031H
	DB	0a7H
	DB	031H
	DB	0c7H
	DB	031H
	DB	0c7H
	DB	031H
	DB	0c7H
	DB	031H
	DB	0c7H
	DB	031H
	DB	0a7H
	DB	029H
	DB	0a7H
	DB	031H
	DB	0c7H
	DB	031H
	DB	0c8H
	DB	031H
	DB	0c7H
	DB	031H
	DB	0a7H
	DB	031H
	DB	0a7H
	DB	031H
	DB	0e8H
	DB	031H
	DB	0a7H
	DB	031H
	DB	0a7H
	DB	031H
	DB	0a7H
	DB	031H
	DB	0c7H
	DB	031H
	DB	0c8H
	DB	031H
	DB	0c7H
	DB	031H
	DB	0c7H
	DB	031H
	DB	0a7H
	DB	029H
	DB	0a7H
	DB	031H
	DB	0c7H
	DB	031H
	DB	0e8H
	DB	039H
	DB	0c7H
	DB	031H
	DB	0c7H
	DB	031H
	DB	0a7H
	DB	031H
	DB	0c7H
	DB	031H
	DB	0e8H
	DB	031H
	DB	0c7H
	DB	031H
	DB	0a7H
	DB	031H
	DB	0a7H
	DB	029H
	DB	0a7H
	DB	031H
	DB	0e8H
	DB	031H
	DB	0c7H
	DB	031H
	DB	0c8H
	DB	031H
	DB	0c7H
	DB	031H
	DB	0a7H
	DB	031H
	DB	0c7H
	DB	031H
	DB	0c8H
	DB	031H
	DB	0c7H
	DB	031H
	DB	0a7H
	DB	031H
	DB	0a7H
	DB	031H
	DB	0e8H
	DB	031H
	DB	0e8H
	DB	031H
	DB	0c7H
	DB	031H
	DB	0c8H
	DB	031H
	DB	0a7H
	DB	029H
	DB	0a7H
	DB	031H
	DB	0c8H
	DB	039H
	DB	0c7H
	DB	031H
	DB	0c7H
	DB	031H
	DB	0c7H
	DB	031H
	DB	0a7H
	DB	031H
	DB	0c8H
	DB	031H
	DB	0c8H
	DB	031H
	DB	0c7H
	DB	031H
	DB	0a7H
	DB	031H
	DB	0a7H
	DB	031H
	DB	0a7H
	DB	031H
	DB	0c7H
	DB	031H
	DB	0c7H
	DB	031H
	DB	0a7H
	DB	031H
	DB	0c7H
	DB	031H
	DB	0a7H
	DB	031H
	DB	0c7H
	DB	031H
	DB	0a7H
	DB	029H
	DB	0a7H
	DB	031H
	DB	0a7H
	DB	031H
	DB	086H
	DB	029H
	DB	0a7H
	DB	031H
	DB	08H
	DB	03aH
	DB	0ecH
	DB	05aH
	DB	0abH
	DB	04aH
	DB	0cdH
	DB	0abH
	DB	04aH
	DB	042H
	DB	0abH
	DB	052H
	DB	0c7H
	DB	031H
	DB	086H
	DB	029H
	DB	087H
	DB	029H
	DB	066H
	DB	029H
	DB	087H
	DB	029H
	DB	086H
	DB	029H
	DB	086H
	DB	029H
	DB	0a7H
	DB	031H
	DB	0a7H
	DB	031H
	DB	0a7H
	DB	031H
	DB	087H
	DB	029H
	DB	066H
	DB	029H
	DB	0a7H
	DB	031H
	DB	0a7H
	DB	031H
	DB	0a7H
	DB	029H
	DB	0a7H
	DB	031H
	DB	086H
	DB	029H
	DB	086H
	DB	029H
	DB	0a7H
	DB	031H
	DB	0a7H
	DB	029H
	DB	0a7H
	DB	031H
	DB	0a7H
	DB	031H
	DB	0a7H
	DB	029H
	DB	0c7H
	DB	031H
	DB	0a7H
	DB	031H
	DB	0a7H
	DB	031H
	DB	0a7H
	DB	031H
	DB	0a7H
	DB	029H
	DB	0c7H
	DB	031H
	DB	0a7H
	DB	031H
	DB	0a7H
	DB	029H
	DB	0c7H
	DB	031H
	DB	0a7H
	DB	031H
	DB	0a7H
	DB	031H
	DB	0c7H
	DB	031H
	DB	087H
	DB	029H
	DB	0e8H
	DB	031H
	DB	0a7H
	DB	031H
	DB	0a7H
	DB	029H
	DB	0c7H
	DB	031H
	DB	0a7H
	DB	029H
	DB	0c7H
	DB	031H
	DB	0c7H
	DB	031H
	DB	087H
	DB	029H
	DB	0c7H
	DB	031H
	DB	0c7H
	DB	031H
	DB	0c7H
	DB	031H
	DB	0e8H
	DB	039H
	DB	087H
	DB	029H
	DB	0a7H
	DB	031H
	DB	0e8H
	DB	031H
	DB	087H
	DB	029H
	DB	0a7H
	DB	031H
	DB	0a7H
	DB	031H
	DB	0a7H
	DB	029H
	DB	0c8H
	DB	031H
	DB	0c7H
	DB	031H
	DB	0c8H
	DB	031H
	DB	0c7H
	DB	031H
	DB	0a7H
	DB	029H
	DB	0a7H
	DB	031H
	DB	0a7H
	DB	031H
	DB	0c7H
	DB	031H
	DB	0c8H
	DB	031H
	DB	0a7H
	DB	031H
	DB	0a7H
	DB	031H
	DB	0c7H
	DB	031H
	DB	0c7H
	DB	031H
	DB	0e8H
	DB	031H
	DB	0c7H
	DB	031H
	DB	0a7H
	DB	031H
	DB	0c8H
	DB	031H
	DB	0a7H
	DB	031H
	DB	0c7H
	DB	031H
	DB	0c7H
	DB	031H
	DB	0a7H
	DB	031H
	DB	0e8H
	DB	031H
	DB	0c7H
	DB	031H
	DB	0e8H
	DB	031H
	DB	0e8H
	DB	031H
	DB	0a7H
	DB	031H
	DB	0a7H
	DB	031H
	DB	0e7H
	DB	031H
	DB	0c7H
	DB	031H
	DB	0c7H
	DB	031H
	DB	0c7H
	DB	031H
	DB	0a7H
	DB	031H
	DB	0c7H
	DB	031H
	DB	0e8H
	DB	031H
	DB	08H
	DB	03aH
	DB	0e8H
	DB	031H
	DB	0a7H
	DB	031H
	DB	0c7H
	DB	031H
	DB	0e8H
	DB	031H
	DB	0c7H
	DB	031H
	DB	0c7H
	DB	031H
	DB	0c7H
	DB	031H
	DB	0a7H
	DB	031H
	DB	0c8H
	DB	031H
	DB	0e7H
	DB	031H
	DB	0c7H
	DB	031H
	DB	0c7H
	DB	031H
	DB	0a7H
	DB	031H
	DB	0e8H
	DB	031H
	DB	0e8H
	DB	031H
	DB	0c7H
	DB	031H
	DB	0c7H
	DB	031H
	DB	0a7H
	DB	031H
	DB	0c7H
	DB	031H
	DB	0c7H
	DB	031H
	DB	0c7H
	DB	031H
	DB	0c7H
	DB	031H
	DB	0a7H
	DB	031H
	DB	0a7H
	DB	031H
	DB	0c8H
	DB	031H
	DB	0c7H
	DB	031H
	DB	0c7H
	DB	031H
	DB	0c7H
	DB	031H
	DB	087H
	DB	029H
	DB	0c7H
	DB	031H
	DB	087H
	DB	029H
	DB	0c7H
	DB	031H
	DB	0c7H
	DB	031H
	DB	086H
	DB	029H
	DB	0a7H
	DB	031H
	DB	0e8H
	DB	031H
	DB	0ccH
	DB	052H
	DB	0abH
	DB	04aH
	DB	08aH
	DB	04aH
	DB	049H
	DB	042H
	DB	086H
	DB	029H
	DB	066H
	DB	029H
	DB	086H
	DB	029H
	DB	06dH
	DB	06bH
	DB	09aH
	DB	0d6H
	DB	0beH
	DB	0f7H
	DB	0dfH
	DB	0ffH
	DB	0dfH
	DB	0ffH
	DB	0dfH
	DB	0ffH
	DB	0dfH
	DB	0ffH
	DB	0dfH
	DB	0ffH
	DB	0dfH
	DB	0ffH
	DB	0dfH
	DB	0ffH
	DB	0dfH
	DB	0ffH
	DB	0dfH
	DB	0ffH
	DB	0dfH
	DB	0ffH
	DB	0dfH
	DB	0ffH
	DB	0dfH
	DB	0ffH
	DB	0dfH
	DB	0ffH
	DB	0dfH
	DB	0ffH
	DB	0dfH
	DB	0ffH
	DB	0dfH
	DB	0ffH
	DB	0dfH
	DB	0ffH
	DB	0dfH
	DB	0ffH
	DB	0dfH
	DB	0ffH
	DB	0dfH
	DB	0ffH
	DB	0dfH
	DB	0ffH
	DB	0dfH
	DB	0ffH
	DB	0dfH
	DB	0ffH
	DB	0dfH
	DB	0ffH
	DB	0dfH
	DB	0ffH
	DB	0dfH
	DB	0ffH
	DB	0dfH
	DB	0ffH
	DB	0dfH
	DB	0ffH
	DB	0dfH
	DB	0ffH
	DB	0dfH
	DB	0ffH
	DB	0dfH
	DB	0ffH
	DB	0dfH
	DB	0ffH
	DB	0dfH
	DB	0ffH
	DB	0dfH
	DB	0ffH
	DB	0dfH
	DB	0ffH
	DB	0dfH
	DB	0ffH
	DB	0dfH
	DB	0ffH
	DB	0dfH
	DB	0ffH
	DB	0dfH
	DB	0ffH
	DB	0dfH
	DB	0ffH
	DB	0dfH
	DB	0ffH
	DB	0dfH
	DB	0ffH
	DB	0dfH
	DB	0ffH
	DB	0dfH
	DB	0ffH
	DB	0dfH
	DB	0ffH
	DB	0dfH
	DB	0ffH
	DB	0dfH
	DB	0ffH
	DB	0ffH
	DB	0ffH
	DB	0dfH
	DB	0ffH
	DB	0dfH
	DB	0ffH
	DB	0dfH
	DB	0ffH
	DB	0dfH
	DB	0ffH
	DB	0dfH
	DB	0ffH
	DB	0dfH
	DB	0ffH
	DB	0dfH
	DB	0ffH
	DB	0dfH
	DB	0ffH
	DB	0dfH
	DB	0ffH
	DB	0dfH
	DB	0ffH
	DB	0dfH
	DB	0ffH
	DB	0dfH
	DB	0ffH
	DB	0dfH
	DB	0ffH
	DB	0ffH
	DB	0ffH
	DB	0dfH
	DB	0ffH
	DB	0dfH
	DB	0ffH
	DB	0ffH
	DB	0ffH
	DB	0dfH
	DB	0ffH
	DB	0dfH
	DB	0ffH
	DB	0dfH
	DB	0ffH
	DB	0dfH
	DB	0ffH
	DB	0dfH
	DB	0ffH
	DB	0dfH
	DB	0ffH
	DB	0dfH
	DB	0ffH
	DB	0dfH
	DB	0ffH
	DB	0dfH
	DB	0ffH
	DB	0dfH
	DB	0ffH
	DB	0dfH
	DB	0ffH
	DB	0dfH
	DB	0ffH
	DB	0dfH
	DB	0ffH
	DB	0dfH
	DB	0ffH
	DB	0dfH
	DB	0ffH
	DB	0dfH
	DB	0ffH
	DB	0dfH
	DB	0ffH
	DB	0dfH
	DB	0ffH
	DB	0dfH
	DB	0ffH
	DB	0dfH
	DB	0ffH
	DB	0dfH
	DB	0ffH
	DB	0dfH
	DB	0ffH
	DB	0ffH
	DB	0ffH
	DB	0dfH
	DB	0ffH
	DB	0dfH
	DB	0ffH
	DB	0dfH
	DB	0ffH
	DB	0dfH
	DB	0ffH
	DB	0dfH
	DB	0ffH
	DB	0dfH
	DB	0ffH
	DB	0dfH
	DB	0ffH
	DB	0dfH
	DB	0ffH
	DB	0dfH
	DB	0ffH
	DB	0dfH
	DB	0ffH
	DB	0dfH
	DB	0ffH
	DB	0dfH
	DB	0ffH
	DB	0dfH
	DB	0ffH
	DB	0dfH
	DB	0ffH
	DB	0ffH
	DB	0ffH
	DB	0dfH
	DB	0ffH
	DB	0dfH
	DB	0ffH
	DB	0dfH
	DB	0ffH
	DB	0dfH
	DB	0ffH
	DB	0dfH
	DB	0ffH
	DB	0dfH
	DB	0ffH
	DB	0dfH
	DB	0ffH
	DB	0dfH
	DB	0ffH
	DB	0dfH
	DB	0ffH
	DB	0dfH
	DB	0ffH
	DB	0dfH
	DB	0ffH
	DB	0beH
	DB	0f7H
	DB	09aH
	DB	0d6H
	DB	06eH
	DB	06bH
	DB	0a7H
	DB	031H
	DB	086H
	DB	029H
	DB	087H
	DB	029H
	DB	08aH
	DB	04aH
	DB	0abH
	DB	052H
	DB	08aH
	DB	04aH
	DB	0e8H
	DB	031H
	DB	086H
	DB	029H
	DB	086H
	DB	029H
	DB	04dH
	DB	063H
	DB	09eH
	DB	0f7H
	DB	09eH
	DB	0f7H
	DB	07eH
	DB	0f7H
	DB	07eH
	DB	0f7H
	DB	07dH
	DB	0f7H
	DB	07eH
	DB	0efH
	DB	07dH
	DB	0f7H
	DB	09eH
	DB	0f7H
	DB	07dH
	DB	0efH
	DB	07dH
	DB	0f7H
	DB	09eH
	DB	0f7H
	DB	07dH
	DB	0f7H
	DB	07eH
	DB	0f7H
	DB	09eH
	DB	0f7H
	DB	07eH
	DB	0f7H
	DB	07dH
	DB	0f7H
	DB	09eH
	DB	0f7H
	DB	07eH
	DB	0f7H
	DB	07dH
	DB	0f7H
	DB	09eH
	DB	0f7H
	DB	07eH
	DB	0efH
	DB	07eH
	DB	0f7H
	DB	09eH
	DB	0efH
	DB	07dH
	DB	0efH
	DB	07eH
	DB	0f7H
	DB	09eH
	DB	0efH
	DB	07eH
	DB	0f7H
	DB	07eH
	DB	0f7H
	DB	09eH
	DB	0efH
	DB	07eH
	DB	0f7H
	DB	07eH
	DB	0efH
	DB	07eH
	DB	0f7H
	DB	09eH
	DB	0f7H
	DB	07dH
	DB	0f7H
	DB	07eH
	DB	0f7H
	DB	07eH
	DB	0f7H
	DB	07eH
	DB	0efH
	DB	07eH
	DB	0f7H
	DB	07eH
	DB	0f7H
	DB	07eH
	DB	0f7H
	DB	09eH
	DB	0f7H
	DB	07eH
	DB	0f7H
	DB	07eH
	DB	0efH
	DB	07eH
	DB	0f7H
	DB	07dH
	DB	0f7H
	DB	07eH
	DB	0efH
	DB	09dH
	DB	0f7H
	DB	07eH
	DB	0f7H
	DB	07eH
	DB	0efH
	DB	09eH
	DB	0f7H
	DB	07eH
	DB	0f7H
	DB	07eH
	DB	0f7H
	DB	09eH
	DB	0f7H
	DB	07eH
	DB	0f7H
	DB	07eH
	DB	0f7H
	DB	09eH
	DB	0f7H
	DB	07eH
	DB	0f7H
	DB	07eH
	DB	0f7H
	DB	09eH
	DB	0f7H
	DB	07eH
	DB	0efH
	DB	07eH
	DB	0f7H
	DB	09eH
	DB	0efH
	DB	07eH
	DB	0efH
	DB	07eH
	DB	0f7H
	DB	07eH
	DB	0f7H
	DB	07eH
	DB	0f7H
	DB	07eH
	DB	0f7H
	DB	07eH
	DB	0f7H
	DB	09eH
	DB	0f7H
	DB	07eH
	DB	0f7H
	DB	07eH
	DB	0efH
	DB	09eH
	DB	0f7H
	DB	07eH
	DB	0f7H
	DB	07eH
	DB	0efH
	DB	09eH
	DB	0f7H
	DB	07dH
	DB	0f7H
	DB	07eH
	DB	0efH
	DB	07eH
	DB	0f7H
	DB	07eH
	DB	0f7H
	DB	07eH
	DB	0efH
	DB	07eH
	DB	0f7H
	DB	09eH
	DB	0f7H
	DB	07eH
	DB	0efH
	DB	07eH
	DB	0f7H
	DB	09eH
	DB	0f7H
	DB	07eH
	DB	0efH
	DB	07eH
	DB	0f7H
	DB	07eH
	DB	0f7H
	DB	09eH
	DB	0efH
	DB	07eH
	DB	0f7H
	DB	07eH
	DB	0f7H
	DB	07eH
	DB	0f7H
	DB	09eH
	DB	0f7H
	DB	07eH
	DB	0efH
	DB	07eH
	DB	0f7H
	DB	09eH
	DB	0f7H
	DB	07eH
	DB	0f7H
	DB	07eH
	DB	0f7H
	DB	09eH
	DB	0f7H
	DB	07eH
	DB	0f7H
	DB	07eH
	DB	0f7H
	DB	07eH
	DB	0f7H
	DB	07eH
	DB	0f7H
	DB	09eH
	DB	0efH
	DB	07eH
	DB	0f7H
	DB	07eH
	DB	0f7H
	DB	09eH
	DB	0efH
	DB	07eH
	DB	0f7H
	DB	09eH
	DB	0f7H
	DB	09eH
	DB	0efH
	DB	07eH
	DB	0efH
	DB	07eH
	DB	0f7H
	DB	09eH
	DB	0f7H
	DB	07eH
	DB	0f7H
	DB	07eH
	DB	0efH
	DB	07eH
	DB	0f7H
	DB	07eH
	DB	0f7H
	DB	07eH
	DB	0f7H
	DB	09eH
	DB	0f7H
	DB	09eH
	DB	0f7H
	DB	06eH
	DB	06bH
	DB	0a7H
	DB	031H
	DB	0a7H
	DB	029H
	DB	08H
	DB	03aH
	DB	0ccH
	DB	052H
	DB	06aH
	DB	04aH
	DB	086H
	DB	029H
	DB	086H
	DB	029H
	DB	086H
	DB	029H
	DB	0bbH
	DB	0d6H
	DB	07eH
	DB	0f7H
	DB	07eH
	DB	0f7H
	DB	07eH
	DB	0f7H
	DB	07dH
	DB	0efH
	DB	09eH
	DB	0f7H
	DB	07eH
	DB	0f7H
	DB	07eH
	DB	0efH
	DB	09eH
	DB	0f7H
	DB	07eH
	DB	0efH
	DB	07eH
	DB	0efH
	DB	09dH
	DB	0f7H
	DB	07eH
	DB	0efH
	DB	07dH
	DB	0efH
	DB	07dH
	DB	0f7H
	DB	09eH
	DB	0efH
	DB	07eH
	DB	0efH
	DB	07dH
	DB	0f7H
	DB	07eH
	DB	0efH
	DB	07eH
	DB	0efH
	DB	09dH
	DB	0f7H
	DB	07dH
	DB	0f7H
	DB	07eH
	DB	0f7H
	DB	07dH
	DB	0f7H
	DB	07eH
	DB	0f7H
	DB	09eH
	DB	0efH
	DB	07dH
	DB	0f7H
	DB	07dH
	DB	0f7H
	DB	09eH
	DB	0efH
	DB	07dH
	DB	0f7H
	DB	07eH
	DB	0f7H
	DB	09dH
	DB	0efH
	DB	07eH
	DB	0efH
	DB	07dH
	DB	0f7H
	DB	09eH
	DB	0efH
	DB	07eH
	DB	0efH
	DB	09dH
	DB	0f7H
	DB	09dH
	DB	0f7H
	DB	07eH
	DB	0efH
	DB	07eH
	DB	0efH
	DB	09dH
	DB	0f7H
	DB	07eH
	DB	0efH
	DB	07eH
	DB	0f7H
	DB	09dH
	DB	0f7H
	DB	07eH
	DB	0efH
	DB	07eH
	DB	0f7H
	DB	09dH
	DB	0f7H
	DB	07eH
	DB	0efH
	DB	07dH
	DB	0f7H
	DB	07dH
	DB	0f7H
	DB	07eH
	DB	0efH
	DB	07dH
	DB	0efH
	DB	07dH
	DB	0f7H
	DB	09eH
	DB	0efH
	DB	07dH
	DB	0efH
	DB	07dH
	DB	0f7H
	DB	09eH
	DB	0efH
	DB	07dH
	DB	0f7H
	DB	07eH
	DB	0f7H
	DB	09dH
	DB	0efH
	DB	07dH
	DB	0f7H
	DB	07eH
	DB	0f7H
	DB	09dH
	DB	0f7H
	DB	07dH
	DB	0efH
	DB	07eH
	DB	0f7H
	DB	09dH
	DB	0efH
	DB	07eH
	DB	0efH
	DB	07dH
	DB	0f7H
	DB	07dH
	DB	0efH
	DB	07eH
	DB	0efH
	DB	09dH
	DB	0f7H
	DB	07dH
	DB	0f7H
	DB	07eH
	DB	0efH
	DB	09dH
	DB	0f7H
	DB	07eH
	DB	0f7H
	DB	07dH
	DB	0efH
	DB	09eH
	DB	0f7H
	DB	07dH
	DB	0f7H
	DB	09dH
	DB	0efH
	DB	07eH
	DB	0f7H
	DB	07dH
	DB	0f7H
	DB	09eH
	DB	0efH
	DB	07eH
	DB	0f7H
	DB	07dH
	DB	0f7H
	DB	09eH
	DB	0efH
	DB	07dH
	DB	0f7H
	DB	07dH
	DB	0f7H
	DB	09eH
	DB	0efH
	DB	07dH
	DB	0f7H
	DB	07dH
	DB	0f7H
	DB	09eH
	DB	0efH
	DB	07dH
	DB	0f7H
	DB	07eH
	DB	0efH
	DB	07dH
	DB	0f7H
	DB	09eH
	DB	0f7H
	DB	07dH
	DB	0efH
	DB	07dH
	DB	0f7H
	DB	09eH
	DB	0efH
	DB	07dH
	DB	0f7H
	DB	07eH
	DB	0efH
	DB	09dH
	DB	0efH
	DB	07dH
	DB	0f7H
	DB	07eH
	DB	0efH
	DB	09eH
	DB	0f7H
	DB	07dH
	DB	0f7H
	DB	07eH
	DB	0efH
	DB	07eH
	DB	0f7H
	DB	07dH
	DB	0f7H
	DB	07eH
	DB	0efH
	DB	07dH
	DB	0f7H
	DB	07dH
	DB	0f7H
	DB	07eH
	DB	0f7H
	DB	09dH
	DB	0efH
	DB	07dH
	DB	0f7H
	DB	07eH
	DB	0efH
	DB	09dH
	DB	0f7H
	DB	09dH
	DB	0f7H
	DB	07eH
	DB	0efH
	DB	07dH
	DB	0f7H
	DB	07eH
	DB	0f7H
	DB	07eH
	DB	0efH
	DB	0dbH
	DB	0deH
	DB	0c7H
	DB	031H
	DB	087H
	DB	029H
	DB	0a6H
	DB	029H
	DB	0cbH
	DB	052H
	DB	06aH
	DB	04aH
	DB	066H
	DB	029H
	DB	087H
	DB	029H
	DB	0a7H
	DB	031H
	DB	07eH
	DB	0f7H
	DB	07dH
	DB	0f7H
	DB	03cH
	DB	0e7H
	DB	01cH
	DB	0e7H
	DB	01cH
	DB	0e7H
	DB	01cH
	DB	0e7H
	DB	01cH
	DB	0e7H
	DB	01cH
	DB	0e7H
	DB	01cH
	DB	0e7H
	DB	01cH
	DB	0e7H
	DB	01cH
	DB	0e7H
	DB	01cH
	DB	0e7H
	DB	01cH
	DB	0e7H
	DB	01cH
	DB	0e7H
	DB	01cH
	DB	0e7H
	DB	01cH
	DB	0e7H
	DB	01cH
	DB	0e7H
	DB	01cH
	DB	0e7H
	DB	01cH
	DB	0e7H
	DB	01cH
	DB	0e7H
	DB	01cH
	DB	0e7H
	DB	01cH
	DB	0e7H
	DB	01cH
	DB	0e7H
	DB	01cH
	DB	0e7H
	DB	01cH
	DB	0e7H
	DB	01cH
	DB	0e7H
	DB	01cH
	DB	0e7H
	DB	01cH
	DB	0e7H
	DB	01cH
	DB	0e7H
	DB	01cH
	DB	0e7H
	DB	01cH
	DB	0e7H
	DB	01cH
	DB	0e7H
	DB	01cH
	DB	0e7H
	DB	01cH
	DB	0e7H
	DB	01cH
	DB	0e7H
	DB	01cH
	DB	0e7H
	DB	01cH
	DB	0e7H
	DB	01cH
	DB	0e7H
	DB	01cH
	DB	0e7H
	DB	01cH
	DB	0e7H
	DB	01cH
	DB	0e7H
	DB	01cH
	DB	0e7H
	DB	01cH
	DB	0e7H
	DB	01cH
	DB	0e7H
	DB	01cH
	DB	0e7H
	DB	01cH
	DB	0e7H
	DB	01cH
	DB	0e7H
	DB	01cH
	DB	0e7H
	DB	01cH
	DB	0e7H
	DB	01cH
	DB	0e7H
	DB	01cH
	DB	0e7H
	DB	01cH
	DB	0e7H
	DB	01cH
	DB	0e7H
	DB	01cH
	DB	0e7H
	DB	01cH
	DB	0e7H
	DB	01cH
	DB	0e7H
	DB	01cH
	DB	0e7H
	DB	01cH
	DB	0e7H
	DB	01cH
	DB	0e7H
	DB	01cH
	DB	0e7H
	DB	01cH
	DB	0e7H
	DB	01cH
	DB	0e7H
	DB	01cH
	DB	0e7H
	DB	01cH
	DB	0e7H
	DB	01cH
	DB	0e7H
	DB	01cH
	DB	0e7H
	DB	01cH
	DB	0e7H
	DB	01cH
	DB	0e7H
	DB	01cH
	DB	0e7H
	DB	01cH
	DB	0e7H
	DB	01cH
	DB	0e7H
	DB	01cH
	DB	0e7H
	DB	01cH
	DB	0e7H
	DB	01cH
	DB	0e7H
	DB	01cH
	DB	0e7H
	DB	01cH
	DB	0e7H
	DB	01cH
	DB	0e7H
	DB	01cH
	DB	0e7H
	DB	01cH
	DB	0e7H
	DB	01cH
	DB	0e7H
	DB	01cH
	DB	0e7H
	DB	01cH
	DB	0e7H
	DB	01cH
	DB	0e7H
	DB	01cH
	DB	0e7H
	DB	01cH
	DB	0e7H
	DB	01cH
	DB	0e7H
	DB	01cH
	DB	0e7H
	DB	01cH
	DB	0e7H
	DB	01cH
	DB	0e7H
	DB	01cH
	DB	0e7H
	DB	01cH
	DB	0e7H
	DB	01cH
	DB	0e7H
	DB	01cH
	DB	0e7H
	DB	01cH
	DB	0e7H
	DB	01cH
	DB	0e7H
	DB	01cH
	DB	0e7H
	DB	01cH
	DB	0e7H
	DB	01cH
	DB	0e7H
	DB	01cH
	DB	0e7H
	DB	01cH
	DB	0e7H
	DB	01cH
	DB	0e7H
	DB	01cH
	DB	0e7H
	DB	01cH
	DB	0e7H
	DB	01cH
	DB	0e7H
	DB	01cH
	DB	0e7H
	DB	01cH
	DB	0e7H
	DB	01cH
	DB	0e7H
	DB	01cH
	DB	0e7H
	DB	01cH
	DB	0e7H
	DB	01cH
	DB	0e7H
	DB	01cH
	DB	0e7H
	DB	01cH
	DB	0e7H
	DB	01cH
	DB	0e7H
	DB	01cH
	DB	0e7H
	DB	01cH
	DB	0e7H
	DB	01cH
	DB	0e7H
	DB	01cH
	DB	0e7H
	DB	01cH
	DB	0e7H
	DB	01cH
	DB	0e7H
	DB	03cH
	DB	0e7H
	DB	07eH
	DB	0f7H
	DB	07dH
	DB	0f7H
	DB	0c7H
	DB	031H
	DB	0a7H
	DB	031H
	DB	087H
	DB	029H
	DB	08aH
	DB	04aH
	DB	08aH
	DB	04aH
	DB	087H
	DB	029H
	DB	086H
	DB	029H
	DB	087H
	DB	029H
	DB	07eH
	DB	0f7H
	DB	03cH
	DB	0e7H
	DB	01cH
	DB	0e7H
	DB	01cH
	DB	0e7H
	DB	01cH
	DB	0e7H
	DB	01cH
	DB	0e7H
	DB	01cH
	DB	0e7H
	DB	01bH
	DB	0e7H
	DB	01cH
	DB	0e7H
	DB	01cH
	DB	0e7H
	DB	01cH
	DB	0e7H
	DB	01cH
	DB	0e7H
	DB	01cH
	DB	0e7H
	DB	01cH
	DB	0e7H
	DB	01cH
	DB	0e7H
	DB	01cH
	DB	0e7H
	DB	01cH
	DB	0e7H
	DB	01cH
	DB	0e7H
	DB	01cH
	DB	0e7H
	DB	01cH
	DB	0e7H
	DB	01cH
	DB	0e7H
	DB	01cH
	DB	0e7H
	DB	01cH
	DB	0dfH
	DB	01cH
	DB	0e7H
	DB	01cH
	DB	0e7H
	DB	01cH
	DB	0e7H
	DB	01cH
	DB	0e7H
	DB	01cH
	DB	0e7H
	DB	01cH
	DB	0e7H
	DB	01cH
	DB	0e7H
	DB	01cH
	DB	0e7H
	DB	01cH
	DB	0e7H
	DB	01cH
	DB	0e7H
	DB	01cH
	DB	0e7H
	DB	01cH
	DB	0e7H
	DB	01cH
	DB	0e7H
	DB	01cH
	DB	0e7H
	DB	01cH
	DB	0e7H
	DB	01cH
	DB	0e7H
	DB	01cH
	DB	0e7H
	DB	01cH
	DB	0e7H
	DB	01cH
	DB	0e7H
	DB	01cH
	DB	0e7H
	DB	01cH
	DB	0e7H
	DB	01cH
	DB	0e7H
	DB	01cH
	DB	0e7H
	DB	01cH
	DB	0e7H
	DB	01cH
	DB	0e7H
	DB	01cH
	DB	0e7H
	DB	01cH
	DB	0e7H
	DB	01cH
	DB	0e7H
	DB	01cH
	DB	0e7H
	DB	01cH
	DB	0e7H
	DB	01cH
	DB	0e7H
	DB	01cH
	DB	0e7H
	DB	01cH
	DB	0e7H
	DB	01cH
	DB	0e7H
	DB	01cH
	DB	0e7H
	DB	01cH
	DB	0e7H
	DB	01cH
	DB	0e7H
	DB	01cH
	DB	0e7H
	DB	01cH
	DB	0e7H
	DB	01cH
	DB	0e7H
	DB	01cH
	DB	0e7H
	DB	01cH
	DB	0e7H
	DB	01cH
	DB	0e7H
	DB	01cH
	DB	0e7H
	DB	01cH
	DB	0e7H
	DB	01cH
	DB	0e7H
	DB	01cH
	DB	0e7H
	DB	01cH
	DB	0e7H
	DB	01cH
	DB	0e7H
	DB	01cH
	DB	0e7H
	DB	01cH
	DB	0e7H
	DB	01cH
	DB	0e7H
	DB	01cH
	DB	0e7H
	DB	01cH
	DB	0e7H
	DB	01cH
	DB	0e7H
	DB	01cH
	DB	0e7H
	DB	01cH
	DB	0e7H
	DB	01cH
	DB	0e7H
	DB	01cH
	DB	0e7H
	DB	01cH
	DB	0e7H
	DB	01cH
	DB	0e7H
	DB	01cH
	DB	0e7H
	DB	01cH
	DB	0e7H
	DB	01cH
	DB	0e7H
	DB	01cH
	DB	0e7H
	DB	01cH
	DB	0e7H
	DB	01cH
	DB	0e7H
	DB	01cH
	DB	0e7H
	DB	01cH
	DB	0e7H
	DB	01cH
	DB	0e7H
	DB	01cH
	DB	0e7H
	DB	01cH
	DB	0e7H
	DB	01cH
	DB	0e7H
	DB	01cH
	DB	0e7H
	DB	01cH
	DB	0e7H
	DB	01cH
	DB	0e7H
	DB	01cH
	DB	0e7H
	DB	01cH
	DB	0e7H
	DB	01cH
	DB	0e7H
	DB	01cH
	DB	0e7H
	DB	01cH
	DB	0e7H
	DB	01cH
	DB	0e7H
	DB	01cH
	DB	0e7H
	DB	01cH
	DB	0e7H
	DB	01cH
	DB	0e7H
	DB	01cH
	DB	0e7H
	DB	01cH
	DB	0e7H
	DB	01cH
	DB	0e7H
	DB	01cH
	DB	0e7H
	DB	01cH
	DB	0e7H
	DB	01cH
	DB	0e7H
	DB	01cH
	DB	0e7H
	DB	01cH
	DB	0e7H
	DB	01cH
	DB	0e7H
	DB	01cH
	DB	0e7H
	DB	01cH
	DB	0e7H
	DB	01cH
	DB	0e7H
	DB	03cH
	DB	0e7H
	DB	07eH
	DB	0efH
	DB	0c7H
	DB	031H
	DB	0c7H
	DB	031H
	DB	0a7H
	DB	031H
	DB	0cbH
	DB	04aH
	DB	08bH
	DB	04aH
	DB	086H
	DB	029H
	DB	086H
	DB	029H
	DB	086H
	DB	029H
	DB	07eH
	DB	0f7H
	DB	01cH
	DB	0e7H
	DB	01cH
	DB	0e7H
	DB	01cH
	DB	0e7H
	DB	01cH
	DB	0e7H
	DB	0fcH
	DB	0e6H
	DB	01cH
	DB	0e7H
	DB	01cH
	DB	0e7H
	DB	0fcH
	DB	0e6H
	DB	01cH
	DB	0e7H
	DB	0fbH
	DB	0e6H
	DB	01cH
	DB	0e7H
	DB	0fcH
	DB	0e6H
	DB	01cH
	DB	0e7H
	DB	0fcH
	DB	0e6H
	DB	01cH
	DB	0e7H
	DB	01cH
	DB	0e7H
	DB	0fbH
	DB	0e6H
	DB	01cH
	DB	0e7H
	DB	01cH
	DB	0e7H
	DB	0fcH
	DB	0e6H
	DB	01cH
	DB	0e7H
	DB	01cH
	DB	0e7H
	DB	0fcH
	DB	0e6H
	DB	01cH
	DB	0e7H
	DB	01cH
	DB	0e7H
	DB	0fcH
	DB	0e6H
	DB	01cH
	DB	0dfH
	DB	0fcH
	DB	0e6H
	DB	01cH
	DB	0e7H
	DB	0fcH
	DB	0e6H
	DB	01cH
	DB	0e7H
	DB	01cH
	DB	0e7H
	DB	0fbH
	DB	0e6H
	DB	01cH
	DB	0e7H
	DB	0fcH
	DB	0e6H
	DB	0fcH
	DB	0e6H
	DB	01cH
	DB	0e7H
	DB	0fbH
	DB	0e6H
	DB	01cH
	DB	0e7H
	DB	01cH
	DB	0e7H
	DB	0fbH
	DB	0deH
	DB	01cH
	DB	0e7H
	DB	01cH
	DB	0e7H
	DB	0fbH
	DB	0deH
	DB	01cH
	DB	0e7H
	DB	01cH
	DB	0e7H
	DB	0fcH
	DB	0deH
	DB	01cH
	DB	0e7H
	DB	01cH
	DB	0e7H
	DB	01cH
	DB	0e7H
	DB	0fcH
	DB	0e6H
	DB	01cH
	DB	0e7H
	DB	01cH
	DB	0e7H
	DB	0fcH
	DB	0e6H
	DB	01cH
	DB	0e7H
	DB	0fcH
	DB	0e6H
	DB	01cH
	DB	0dfH
	DB	0fcH
	DB	0e6H
	DB	01cH
	DB	0e7H
	DB	0fcH
	DB	0deH
	DB	01cH
	DB	0e7H
	DB	0fcH
	DB	0e6H
	DB	01cH
	DB	0e7H
	DB	01cH
	DB	0e7H
	DB	0fcH
	DB	0e6H
	DB	01cH
	DB	0e7H
	DB	01cH
	DB	0e7H
	DB	01cH
	DB	0e7H
	DB	0fcH
	DB	0e6H
	DB	01cH
	DB	0e7H
	DB	01cH
	DB	0e7H
	DB	0fcH
	DB	0deH
	DB	01cH
	DB	0e7H
	DB	0fcH
	DB	0e6H
	DB	0fcH
	DB	0deH
	DB	01cH
	DB	0e7H
	DB	0fcH
	DB	0e6H
	DB	01cH
	DB	0dfH
	DB	01cH
	DB	0e7H
	DB	0fcH
	DB	0e6H
	DB	01bH
	DB	0dfH
	DB	0fcH
	DB	0e6H
	DB	01cH
	DB	0e7H
	DB	0fcH
	DB	0e6H
	DB	01cH
	DB	0dfH
	DB	0fcH
	DB	0e6H
	DB	01cH
	DB	0e7H
	DB	0fcH
	DB	0deH
	DB	01cH
	DB	0e7H
	DB	0fcH
	DB	0e6H
	DB	01cH
	DB	0e7H
	DB	01cH
	DB	0dfH
	DB	0fcH
	DB	0e6H
	DB	01cH
	DB	0e7H
	DB	0fcH
	DB	0e6H
	DB	01cH
	DB	0e7H
	DB	0fcH
	DB	0e6H
	DB	01cH
	DB	0e7H
	DB	0fcH
	DB	0e6H
	DB	01cH
	DB	0e7H
	DB	0fcH
	DB	0e6H
	DB	01cH
	DB	0dfH
	DB	01bH
	DB	0e7H
	DB	0fcH
	DB	0e6H
	DB	01cH
	DB	0dfH
	DB	01bH
	DB	0e7H
	DB	0fcH
	DB	0e6H
	DB	01cH
	DB	0dfH
	DB	01cH
	DB	0e7H
	DB	0fcH
	DB	0e6H
	DB	01cH
	DB	0dfH
	DB	01cH
	DB	0e7H
	DB	0fcH
	DB	0e6H
	DB	0fcH
	DB	0e6H
	DB	01cH
	DB	0dfH
	DB	0fcH
	DB	0e6H
	DB	01cH
	DB	0e7H
	DB	01cH
	DB	0e7H
	DB	01cH
	DB	0e7H
	DB	01cH
	DB	0e7H
	DB	07eH
	DB	0f7H
	DB	0a7H
	DB	031H
	DB	0a7H
	DB	029H
	DB	0c7H
	DB	031H
	DB	0ecH
	DB	052H
	DB	08bH
	DB	04aH
	DB	087H
	DB	031H
	DB	086H
	DB	029H
	DB	086H
	DB	029H
	DB	07dH
	DB	0efH
	DB	01cH
	DB	0e7H
	DB	01cH
	DB	0e7H
	DB	01cH
	DB	0e7H
	DB	0fcH
	DB	0deH
	DB	01cH
	DB	0e7H
	DB	01cH
	DB	0e7H
	DB	0fcH
	DB	0deH
	DB	01cH
	DB	0e7H
	DB	01cH
	DB	0e7H
	DB	01cH
	DB	0e7H
	DB	0fcH
	DB	0deH
	DB	01cH
	DB	0e7H
	DB	01bH
	DB	0e7H
	DB	01cH
	DB	0e7H
	DB	0fcH
	DB	0deH
	DB	01cH
	DB	0e7H
	DB	01cH
	DB	0e7H
	DB	0fcH
	DB	0deH
	DB	01cH
	DB	0e7H
	DB	01bH
	DB	0e7H
	DB	0fcH
	DB	0e6H
	DB	01cH
	DB	0e7H
	DB	01bH
	DB	0e7H
	DB	0fcH
	DB	0deH
	DB	01cH
	DB	0e7H
	DB	01bH
	DB	0e7H
	DB	01cH
	DB	0e7H
	DB	01cH
	DB	0e7H
	DB	0fbH
	DB	0e6H
	DB	01cH
	DB	0dfH
	DB	01cH
	DB	0e7H
	DB	0fcH
	DB	0e6H
	DB	01cH
	DB	0e7H
	DB	01cH
	DB	0dfH
	DB	01cH
	DB	0e7H
	DB	01cH
	DB	0e7H
	DB	01cH
	DB	0dfH
	DB	01cH
	DB	0e7H
	DB	0fcH
	DB	0e6H
	DB	01cH
	DB	0e7H
	DB	01cH
	DB	0e7H
	DB	0fcH
	DB	0e6H
	DB	01cH
	DB	0e7H
	DB	01cH
	DB	0e7H
	DB	0fcH
	DB	0e6H
	DB	01cH
	DB	0e7H
	DB	01bH
	DB	0e7H
	DB	0fcH
	DB	0e6H
	DB	01cH
	DB	0e7H
	DB	01cH
	DB	0dfH
	DB	01bH
	DB	0e7H
	DB	0fcH
	DB	0e6H
	DB	01cH
	DB	0dfH
	DB	01cH
	DB	0e7H
	DB	01bH
	DB	0e7H
	DB	01cH
	DB	0e7H
	DB	0fcH
	DB	0e6H
	DB	01bH
	DB	0e7H
	DB	01cH
	DB	0e7H
	DB	01cH
	DB	0e7H
	DB	0fcH
	DB	0e6H
	DB	01bH
	DB	0e7H
	DB	01cH
	DB	0dfH
	DB	0fcH
	DB	0e6H
	DB	01bH
	DB	0e7H
	DB	01cH
	DB	0dfH
	DB	0fcH
	DB	0e6H
	DB	01cH
	DB	0e7H
	DB	01cH
	DB	0dfH
	DB	0fbH
	DB	0e6H
	DB	01cH
	DB	0e7H
	DB	01cH
	DB	0e7H
	DB	01bH
	DB	0e7H
	DB	01cH
	DB	0e7H
	DB	01cH
	DB	0e7H
	DB	01bH
	DB	0e7H
	DB	01cH
	DB	0e7H
	DB	0fcH
	DB	0e6H
	DB	01cH
	DB	0e7H
	DB	01cH
	DB	0e7H
	DB	01cH
	DB	0e7H
	DB	01cH
	DB	0e7H
	DB	01cH
	DB	0e7H
	DB	01bH
	DB	0e7H
	DB	0fcH
	DB	0e6H
	DB	01cH
	DB	0e7H
	DB	01bH
	DB	0e7H
	DB	01cH
	DB	0e7H
	DB	0fcH
	DB	0e6H
	DB	01bH
	DB	0e7H
	DB	01cH
	DB	0e7H
	DB	0fcH
	DB	0e6H
	DB	01bH
	DB	0e7H
	DB	01cH
	DB	0e7H
	DB	01cH
	DB	0dfH
	DB	0fbH
	DB	0e6H
	DB	01cH
	DB	0e7H
	DB	01cH
	DB	0dfH
	DB	01bH
	DB	0e7H
	DB	01cH
	DB	0e7H
	DB	01cH
	DB	0e7H
	DB	0fcH
	DB	0e6H
	DB	01cH
	DB	0e7H
	DB	01cH
	DB	0e7H
	DB	0fcH
	DB	0e6H
	DB	01cH
	DB	0e7H
	DB	01cH
	DB	0e7H
	DB	01cH
	DB	0e7H
	DB	01bH
	DB	0e7H
	DB	0fcH
	DB	0e6H
	DB	01cH
	DB	0e7H
	DB	01cH
	DB	0e7H
	DB	01bH
	DB	0e7H
	DB	01cH
	DB	0e7H
	DB	01cH
	DB	0e7H
	DB	01bH
	DB	0e7H
	DB	0fcH
	DB	0e6H
	DB	01cH
	DB	0dfH
	DB	01cH
	DB	0e7H
	DB	01cH
	DB	0e7H
	DB	07dH
	DB	0efH
	DB	0a7H
	DB	031H
	DB	0a7H
	DB	031H
	DB	0c7H
	DB	031H
	DB	0ccH
	DB	052H
	DB	06aH
	DB	042H
	DB	0a7H
	DB	031H
	DB	086H
	DB	029H
	DB	086H
	DB	029H
	DB	07eH
	DB	0f7H
	DB	01cH
	DB	0e7H
	DB	01cH
	DB	0e7H
	DB	01cH
	DB	0e7H
	DB	01bH
	DB	0e7H
	DB	01cH
	DB	0e7H
	DB	01cH
	DB	0e7H
	DB	01bH
	DB	0e7H
	DB	01cH
	DB	0e7H
	DB	01cH
	DB	0e7H
	DB	01cH
	DB	0e7H
	DB	01cH
	DB	0e7H
	DB	01cH
	DB	0e7H
	DB	01cH
	DB	0e7H
	DB	01cH
	DB	0e7H
	DB	01cH
	DB	0e7H
	DB	01bH
	DB	0e7H
	DB	01cH
	DB	0e7H
	DB	01cH
	DB	0e7H
	DB	01cH
	DB	0e7H
	DB	01cH
	DB	0dfH
	DB	01cH
	DB	0e7H
	DB	01cH
	DB	0e7H
	DB	01cH
	DB	0e7H
	DB	01cH
	DB	0e7H
	DB	0fcH
	DB	0e6H
	DB	01cH
	DB	0e7H
	DB	01cH
	DB	0e7H
	DB	01cH
	DB	0e7H
	DB	01cH
	DB	0e7H
	DB	01cH
	DB	0e7H
	DB	01cH
	DB	0e7H
	DB	01bH
	DB	0e7H
	DB	01cH
	DB	0e7H
	DB	01cH
	DB	0e7H
	DB	0fbH
	DB	0e6H
	DB	01cH
	DB	0e7H
	DB	01cH
	DB	0e7H
	DB	01cH
	DB	0e7H
	DB	01cH
	DB	0e7H
	DB	01cH
	DB	0dfH
	DB	01cH
	DB	0e7H
	DB	0fcH
	DB	0e6H
	DB	01cH
	DB	0e7H
	DB	01cH
	DB	0e7H
	DB	01cH
	DB	0e7H
	DB	01cH
	DB	0e7H
	DB	01cH
	DB	0e7H
	DB	01cH
	DB	0e7H
	DB	0fcH
	DB	0e6H
	DB	01cH
	DB	0e7H
	DB	01cH
	DB	0e7H
	DB	01cH
	DB	0e7H
	DB	0fcH
	DB	0e6H
	DB	01cH
	DB	0e7H
	DB	01cH
	DB	0e7H
	DB	01cH
	DB	0e7H
	DB	01cH
	DB	0e7H
	DB	01cH
	DB	0e7H
	DB	01cH
	DB	0e7H
	DB	01cH
	DB	0e7H
	DB	01cH
	DB	0e7H
	DB	01cH
	DB	0e7H
	DB	01cH
	DB	0e7H
	DB	01cH
	DB	0e7H
	DB	01cH
	DB	0e7H
	DB	01cH
	DB	0e7H
	DB	01cH
	DB	0e7H
	DB	01bH
	DB	0e7H
	DB	01cH
	DB	0e7H
	DB	01cH
	DB	0e7H
	DB	0fcH
	DB	0e6H
	DB	01cH
	DB	0e7H
	DB	01cH
	DB	0e7H
	DB	0fcH
	DB	0e6H
	DB	01cH
	DB	0e7H
	DB	01cH
	DB	0e7H
	DB	01cH
	DB	0e7H
	DB	01cH
	DB	0e7H
	DB	0fbH
	DB	0e6H
	DB	01cH
	DB	0e7H
	DB	01cH
	DB	0e7H
	DB	0fcH
	DB	0e6H
	DB	01cH
	DB	0dfH
	DB	01cH
	DB	0e7H
	DB	01cH
	DB	0e7H
	DB	01cH
	DB	0e7H
	DB	01cH
	DB	0e7H
	DB	01cH
	DB	0e7H
	DB	01cH
	DB	0e7H
	DB	01cH
	DB	0dfH
	DB	01cH
	DB	0e7H
	DB	01cH
	DB	0e7H
	DB	01cH
	DB	0e7H
	DB	01cH
	DB	0e7H
	DB	01cH
	DB	0e7H
	DB	01cH
	DB	0e7H
	DB	01cH
	DB	0e7H
	DB	0fcH
	DB	0e6H
	DB	01cH
	DB	0e7H
	DB	01cH
	DB	0e7H
	DB	01cH
	DB	0dfH
	DB	0fbH
	DB	0e6H
	DB	01cH
	DB	0e7H
	DB	01cH
	DB	0e7H
	DB	01cH
	DB	0e7H
	DB	01cH
	DB	0e7H
	DB	0fcH
	DB	0e6H
	DB	01cH
	DB	0e7H
	DB	01cH
	DB	0e7H
	DB	01cH
	DB	0e7H
	DB	0fcH
	DB	0e6H
	DB	01cH
	DB	0e7H
	DB	01cH
	DB	0dfH
	DB	0fcH
	DB	0e6H
	DB	01cH
	DB	0e7H
	DB	01cH
	DB	0e7H
	DB	01cH
	DB	0e7H
	DB	0fcH
	DB	0e6H
	DB	01cH
	DB	0e7H
	DB	01cH
	DB	0e7H
	DB	07dH
	DB	0efH
	DB	0e8H
	DB	031H
	DB	0a7H
	DB	031H
	DB	0a7H
	DB	029H
	DB	0abH
	DB	04aH
	DB	06aH
	DB	042H
	DB	086H
	DB	029H
	DB	0a7H
	DB	031H
	DB	0a7H
	DB	031H
	DB	07eH
	DB	0efH
	DB	01cH
	DB	0e7H
	DB	01cH
	DB	0e7H
	DB	0fcH
	DB	0e6H
	DB	01cH
	DB	0e7H
	DB	0fcH
	DB	0e6H
	DB	0fcH
	DB	0e6H
	DB	01cH
	DB	0e7H
	DB	0fcH
	DB	0deH
	DB	0fbH
	DB	0e6H
	DB	01cH
	DB	0e7H
	DB	01cH
	DB	0e7H
	DB	0fbH
	DB	0e6H
	DB	0fcH
	DB	0deH
	DB	01cH
	DB	0e7H
	DB	0fcH
	DB	0e6H
	DB	01cH
	DB	0e7H
	DB	0fcH
	DB	0e6H
	DB	01cH
	DB	0e7H
	DB	0fcH
	DB	0e6H
	DB	01cH
	DB	0e7H
	DB	0fcH
	DB	0e6H
	DB	01cH
	DB	0e7H
	DB	01cH
	DB	0dfH
	DB	0fcH
	DB	0e6H
	DB	01cH
	DB	0e7H
	DB	01cH
	DB	0dfH
	DB	0fcH
	DB	0e6H
	DB	0fcH
	DB	0e6H
	DB	01cH
	DB	0e7H
	DB	01cH
	DB	0e7H
	DB	0fcH
	DB	0deH
	DB	01cH
	DB	0e7H
	DB	01cH
	DB	0e7H
	DB	0fcH
	DB	0e6H
	DB	01cH
	DB	0e7H
	DB	01cH
	DB	0e7H
	DB	0fbH
	DB	0e6H
	DB	0fcH
	DB	0e6H
	DB	01cH
	DB	0e7H
	DB	01bH
	DB	0e7H
	DB	0fcH
	DB	0e6H
	DB	01cH
	DB	0e7H
	DB	01bH
	DB	0dfH
	DB	0fcH
	DB	0e6H
	DB	01cH
	DB	0e7H
	DB	0fbH
	DB	0deH
	DB	01cH
	DB	0e7H
	DB	01cH
	DB	0e7H
	DB	01cH
	DB	0dfH
	DB	0fbH
	DB	0e6H
	DB	01cH
	DB	0e7H
	DB	01cH
	DB	0e7H
	DB	01bH
	DB	0e7H
	DB	0fcH
	DB	0e6H
	DB	01cH
	DB	0dfH
	DB	0fcH
	DB	0e6H
	DB	01cH
	DB	0e7H
	DB	0fcH
	DB	0deH
	DB	0fcH
	DB	0e6H
	DB	01bH
	DB	0e7H
	DB	01cH
	DB	0dfH
	DB	0fcH
	DB	0e6H
	DB	01cH
	DB	0e7H
	DB	0fcH
	DB	0e6H
	DB	01cH
	DB	0e7H
	DB	0fcH
	DB	0e6H
	DB	01cH
	DB	0e7H
	DB	0fcH
	DB	0e6H
	DB	01cH
	DB	0e7H
	DB	01cH
	DB	0e7H
	DB	01cH
	DB	0dfH
	DB	0fcH
	DB	0e6H
	DB	01cH
	DB	0e7H
	DB	01cH
	DB	0dfH
	DB	0fcH
	DB	0e6H
	DB	01cH
	DB	0e7H
	DB	01cH
	DB	0dfH
	DB	0fcH
	DB	0e6H
	DB	01cH
	DB	0e7H
	DB	01cH
	DB	0dfH
	DB	0fcH
	DB	0e6H
	DB	01bH
	DB	0e7H
	DB	01cH
	DB	0e7H
	DB	0fcH
	DB	0e6H
	DB	01cH
	DB	0e7H
	DB	0fcH
	DB	0deH
	DB	0fcH
	DB	0e6H
	DB	01cH
	DB	0e7H
	DB	01cH
	DB	0e7H
	DB	0fcH
	DB	0e6H
	DB	01cH
	DB	0e7H
	DB	0fcH
	DB	0e6H
	DB	0fcH
	DB	0deH
	DB	01cH
	DB	0e7H
	DB	0fcH
	DB	0e6H
	DB	01cH
	DB	0e7H
	DB	01cH
	DB	0e7H
	DB	0fcH
	DB	0e6H
	DB	01cH
	DB	0e7H
	DB	01cH
	DB	0e7H
	DB	0fcH
	DB	0e6H
	DB	01cH
	DB	0e7H
	DB	01cH
	DB	0e7H
	DB	0fcH
	DB	0deH
	DB	01bH
	DB	0e7H
	DB	01cH
	DB	0e7H
	DB	0fcH
	DB	0deH
	DB	01bH
	DB	0e7H
	DB	01cH
	DB	0e7H
	DB	01cH
	DB	0dfH
	DB	01bH
	DB	0e7H
	DB	0fcH
	DB	0e6H
	DB	01cH
	DB	0e7H
	DB	01cH
	DB	0e7H
	DB	0fcH
	DB	0e6H
	DB	01cH
	DB	0dfH
	DB	01cH
	DB	0e7H
	DB	01bH
	DB	0e7H
	DB	0fcH
	DB	0e6H
	DB	01cH
	DB	0e7H
	DB	07eH
	DB	0f7H
	DB	0e7H
	DB	031H
	DB	0c7H
	DB	031H
	DB	0a7H
	DB	031H
	DB	08bH
	DB	04aH
	DB	06aH
	DB	042H
	DB	086H
	DB	029H
	DB	0a6H
	DB	029H
	DB	0a7H
	DB	031H
	DB	07eH
	DB	0efH
	DB	01bH
	DB	0e7H
	DB	0fcH
	DB	0e6H
	DB	0fcH
	DB	0deH
	DB	0fbH
	DB	0deH
	DB	01cH
	DB	0e7H
	DB	0fbH
	DB	0deH
	DB	0fcH
	DB	0e6H
	DB	01cH
	DB	0e7H
	DB	0fbH
	DB	0deH
	DB	0fcH
	DB	0deH
	DB	0fcH
	DB	0e6H
	DB	0fbH
	DB	0e6H
	DB	01cH
	DB	0dfH
	DB	0fcH
	DB	0e6H
	DB	0fbH
	DB	0deH
	DB	0fcH
	DB	0deH
	DB	01bH
	DB	0e7H
	DB	0fbH
	DB	0deH
	DB	0fcH
	DB	0e6H
	DB	0fbH
	DB	0e6H
	DB	0fbH
	DB	0deH
	DB	0fcH
	DB	0e6H
	DB	0fbH
	DB	0e6H
	DB	0fbH
	DB	0deH
	DB	01cH
	DB	0e7H
	DB	0fbH
	DB	0e6H
	DB	0fbH
	DB	0deH
	DB	01cH
	DB	0dfH
	DB	0fbH
	DB	0e6H
	DB	0fbH
	DB	0e6H
	DB	0fcH
	DB	0deH
	DB	0fcH
	DB	0e6H
	DB	0fbH
	DB	0deH
	DB	0fcH
	DB	0deH
	DB	01cH
	DB	0e7H
	DB	0fbH
	DB	0deH
	DB	0fcH
	DB	0deH
	DB	0fcH
	DB	0e6H
	DB	0fbH
	DB	0deH
	DB	0fcH
	DB	0e6H
	DB	0fcH
	DB	0e6H
	DB	01bH
	DB	0dfH
	DB	0fcH
	DB	0e6H
	DB	0fcH
	DB	0e6H
	DB	0fbH
	DB	0deH
	DB	0fcH
	DB	0e6H
	DB	0fcH
	DB	0e6H
	DB	0fbH
	DB	0deH
	DB	0fcH
	DB	0e6H
	DB	0fcH
	DB	0e6H
	DB	0fbH
	DB	0deH
	DB	0fcH
	DB	0deH
	DB	0fcH
	DB	0e6H
	DB	01bH
	DB	0dfH
	DB	0fcH
	DB	0e6H
	DB	0fbH
	DB	0e6H
	DB	0fbH
	DB	0deH
	DB	01cH
	DB	0e7H
	DB	0fbH
	DB	0e6H
	DB	0fcH
	DB	0deH
	DB	0fcH
	DB	0e6H
	DB	0fbH
	DB	0e6H
	DB	0fbH
	DB	0deH
	DB	01cH
	DB	0dfH
	DB	0fbH
	DB	0e6H
	DB	0fbH
	DB	0deH
	DB	0fcH
	DB	0deH
	DB	0fcH
	DB	0e6H
	DB	0fbH
	DB	0deH
	DB	0fcH
	DB	0e6H
	DB	0fbH
	DB	0e6H
	DB	01bH
	DB	0dfH
	DB	0fcH
	DB	0e6H
	DB	0fbH
	DB	0e6H
	DB	0fbH
	DB	0deH
	DB	0fcH
	DB	0e6H
	DB	0fbH
	DB	0e6H
	DB	0fbH
	DB	0deH
	DB	01cH
	DB	0e7H
	DB	0fcH
	DB	0e6H
	DB	0fbH
	DB	0deH
	DB	01cH
	DB	0e7H
	DB	0fcH
	DB	0e6H
	DB	0fbH
	DB	0deH
	DB	01bH
	DB	0e7H
	DB	0fcH
	DB	0e6H
	DB	0fbH
	DB	0deH
	DB	0fbH
	DB	0e6H
	DB	0fcH
	DB	0deH
	DB	0fbH
	DB	0e6H
	DB	01bH
	DB	0e7H
	DB	0fbH
	DB	0deH
	DB	0fcH
	DB	0e6H
	DB	01bH
	DB	0e7H
	DB	0fbH
	DB	0deH
	DB	0fcH
	DB	0deH
	DB	0fbH
	DB	0e6H
	DB	01bH
	DB	0dfH
	DB	0fcH
	DB	0deH
	DB	0fbH
	DB	0e6H
	DB	0fbH
	DB	0e6H
	DB	01cH
	DB	0dfH
	DB	0fcH
	DB	0e6H
	DB	0fbH
	DB	0e6H
	DB	0fcH
	DB	0deH
	DB	01cH
	DB	0e7H
	DB	0fbH
	DB	0e6H
	DB	0fcH
	DB	0deH
	DB	0fcH
	DB	0e6H
	DB	0fbH
	DB	0e6H
	DB	0fcH
	DB	0deH
	DB	0fcH
	DB	0e6H
	DB	01bH
	DB	0e7H
	DB	0fbH
	DB	0deH
	DB	0fcH
	DB	0e6H
	DB	0fbH
	DB	0e6H
	DB	0fcH
	DB	0deH
	DB	0fcH
	DB	0e6H
	DB	01bH
	DB	0dfH
	DB	0fcH
	DB	0e6H
	DB	07eH
	DB	0f7H
	DB	0e8H
	DB	031H
	DB	0c7H
	DB	031H
	DB	0a7H
	DB	031H
	DB	0abH
	DB	04aH
	DB	08aH
	DB	04aH
	DB	086H
	DB	029H
	DB	086H
	DB	029H
	DB	087H
	DB	029H
	DB	07eH
	DB	0f7H
	DB	01bH
	DB	0e7H
	DB	01cH
	DB	0e7H
	DB	0fcH
	DB	0e6H
	DB	01bH
	DB	0e7H
	DB	01cH
	DB	0e7H
	DB	01cH
	DB	0dfH
	DB	01bH
	DB	0e7H
	DB	01cH
	DB	0e7H
	DB	01cH
	DB	0e7H
	DB	0fcH
	DB	0e6H
	DB	01cH
	DB	0e7H
	DB	01cH
	DB	0e7H
	DB	01cH
	DB	0e7H
	DB	01bH
	DB	0e7H
	DB	0fcH
	DB	0e6H
	DB	01cH
	DB	0e7H
	DB	01cH
	DB	0e7H
	DB	0fcH
	DB	0e6H
	DB	01cH
	DB	0dfH
	DB	01cH
	DB	0e7H
	DB	01cH
	DB	0e7H
	DB	01cH
	DB	0dfH
	DB	01cH
	DB	0e7H
	DB	0fcH
	DB	0e6H
	DB	01cH
	DB	0e7H
	DB	01cH
	DB	0e7H
	DB	0fcH
	DB	0e6H
	DB	01cH
	DB	0e7H
	DB	01cH
	DB	0e7H
	DB	0fcH
	DB	0e6H
	DB	01bH
	DB	0e7H
	DB	01cH
	DB	0e7H
	DB	0fcH
	DB	0e6H
	DB	01bH
	DB	0e7H
	DB	01cH
	DB	0e7H
	DB	0fcH
	DB	0e6H
	DB	01cH
	DB	0e7H
	DB	01cH
	DB	0e7H
	DB	01cH
	DB	0dfH
	DB	01cH
	DB	0e7H
	DB	01cH
	DB	0e7H
	DB	0fbH
	DB	0deH
	DB	01cH
	DB	0e7H
	DB	01cH
	DB	0e7H
	DB	01cH
	DB	0e7H
	DB	01cH
	DB	0e7H
	DB	01cH
	DB	0e7H
	DB	01bH
	DB	0e7H
	DB	01cH
	DB	0e7H
	DB	01cH
	DB	0e7H
	DB	01cH
	DB	0e7H
	DB	0fcH
	DB	0e6H
	DB	01cH
	DB	0e7H
	DB	01cH
	DB	0e7H
	DB	0fcH
	DB	0e6H
	DB	01cH
	DB	0e7H
	DB	01cH
	DB	0dfH
	DB	01cH
	DB	0e7H
	DB	01cH
	DB	0e7H
	DB	0fcH
	DB	0e6H
	DB	01cH
	DB	0e7H
	DB	01cH
	DB	0e7H
	DB	01cH
	DB	0e7H
	DB	0fcH
	DB	0e6H
	DB	01cH
	DB	0e7H
	DB	01cH
	DB	0e7H
	DB	01cH
	DB	0e7H
	DB	01bH
	DB	0e7H
	DB	01cH
	DB	0dfH
	DB	0fcH
	DB	0e6H
	DB	01cH
	DB	0e7H
	DB	01cH
	DB	0e7H
	DB	0fcH
	DB	0e6H
	DB	01cH
	DB	0e7H
	DB	01cH
	DB	0e7H
	DB	01cH
	DB	0e7H
	DB	01cH
	DB	0e7H
	DB	0fcH
	DB	0e6H
	DB	01cH
	DB	0e7H
	DB	0fbH
	DB	0e6H
	DB	01cH
	DB	0dfH
	DB	0fcH
	DB	0e6H
	DB	01cH
	DB	0e7H
	DB	01cH
	DB	0dfH
	DB	0fcH
	DB	0e6H
	DB	01cH
	DB	0e7H
	DB	01cH
	DB	0e7H
	DB	01cH
	DB	0e7H
	DB	01cH
	DB	0dfH
	DB	0fcH
	DB	0e6H
	DB	01cH
	DB	0e7H
	DB	01cH
	DB	0dfH
	DB	01cH
	DB	0e7H
	DB	0fcH
	DB	0e6H
	DB	01cH
	DB	0e7H
	DB	01cH
	DB	0e7H
	DB	0fcH
	DB	0e6H
	DB	01cH
	DB	0e7H
	DB	01cH
	DB	0e7H
	DB	0fcH
	DB	0deH
	DB	01cH
	DB	0e7H
	DB	01cH
	DB	0e7H
	DB	0fbH
	DB	0e6H
	DB	01cH
	DB	0e7H
	DB	01cH
	DB	0e7H
	DB	0fcH
	DB	0e6H
	DB	01cH
	DB	0e7H
	DB	01cH
	DB	0e7H
	DB	0fcH
	DB	0e6H
	DB	01cH
	DB	0e7H
	DB	01cH
	DB	0dfH
	DB	0fcH
	DB	0e6H
	DB	01cH
	DB	0e7H
	DB	01cH
	DB	0dfH
	DB	01cH
	DB	0e7H
	DB	01cH
	DB	0e7H
	DB	0fbH
	DB	0e6H
	DB	01cH
	DB	0e7H
	DB	01cH
	DB	0e7H
	DB	0fcH
	DB	0deH
	DB	07dH
	DB	0f7H
	DB	0c7H
	DB	031H
	DB	0c7H
	DB	031H
	DB	0a7H
	DB	031H
	DB	0ccH
	DB	052H
	DB	08bH
	DB	04aH
	DB	087H
	DB	029H
	DB	0a7H
	DB	031H
	DB	0a7H
	DB	029H
	DB	07dH
	DB	0efH
	DB	0fcH
	DB	0e6H
	DB	0fbH
	DB	0deH
	DB	0fcH
	DB	0deH
	DB	0fcH
	DB	0e6H
	DB	0fbH
	DB	0e6H
	DB	0fcH
	DB	0deH
	DB	0fcH
	DB	0deH
	DB	0fbH
	DB	0e6H
	DB	0fbH
	DB	0deH
	DB	0fcH
	DB	0deH
	DB	0fbH
	DB	0e6H
	DB	0fbH
	DB	0deH
	DB	0fcH
	DB	0deH
	DB	0fbH
	DB	0e6H
	DB	0fcH
	DB	0deH
	DB	0fbH
	DB	0e6H
	DB	0fcH
	DB	0deH
	DB	0fbH
	DB	0e6H
	DB	0fbH
	DB	0deH
	DB	0fcH
	DB	0e6H
	DB	0fbH
	DB	0e6H
	DB	0fbH
	DB	0deH
	DB	0fcH
	DB	0deH
	DB	0fbH
	DB	0e6H
	DB	0fbH
	DB	0deH
	DB	0fcH
	DB	0deH
	DB	0fbH
	DB	0e6H
	DB	0fbH
	DB	0deH
	DB	0fcH
	DB	0deH
	DB	0fcH
	DB	0deH
	DB	0fbH
	DB	0e6H
	DB	0fcH
	DB	0deH
	DB	0fcH
	DB	0deH
	DB	0fbH
	DB	0e6H
	DB	0fbH
	DB	0deH
	DB	0fcH
	DB	0deH
	DB	0fbH
	DB	0e6H
	DB	0fbH
	DB	0e6H
	DB	0fbH
	DB	0deH
	DB	0fcH
	DB	0e6H
	DB	0fbH
	DB	0e6H
	DB	0fcH
	DB	0deH
	DB	0fbH
	DB	0e6H
	DB	0fbH
	DB	0deH
	DB	0fcH
	DB	0deH
	DB	0fbH
	DB	0deH
	DB	0fbH
	DB	0deH
	DB	0fcH
	DB	0e6H
	DB	0fbH
	DB	0deH
	DB	0fbH
	DB	0deH
	DB	0fcH
	DB	0e6H
	DB	0fbH
	DB	0deH
	DB	0fbH
	DB	0deH
	DB	0fcH
	DB	0e6H
	DB	0fbH
	DB	0deH
	DB	0fbH
	DB	0deH
	DB	0fcH
	DB	0e6H
	DB	0fbH
	DB	0deH
	DB	0fbH
	DB	0deH
	DB	0fbH
	DB	0e6H
	DB	0fcH
	DB	0deH
	DB	0fbH
	DB	0deH
	DB	0fbH
	DB	0e6H
	DB	0fcH
	DB	0deH
	DB	0fbH
	DB	0deH
	DB	0fcH
	DB	0e6H
	DB	0fbH
	DB	0deH
	DB	0fcH
	DB	0e6H
	DB	0fbH
	DB	0e6H
	DB	0fcH
	DB	0deH
	DB	0fbH
	DB	0deH
	DB	0fbH
	DB	0deH
	DB	0fcH
	DB	0deH
	DB	0fbH
	DB	0deH
	DB	0fbH
	DB	0deH
	DB	0fcH
	DB	0deH
	DB	0fbH
	DB	0deH
	DB	0fcH
	DB	0deH
	DB	0fbH
	DB	0e6H
	DB	0fcH
	DB	0deH
	DB	0fbH
	DB	0e6H
	DB	0fbH
	DB	0e6H
	DB	0fcH
	DB	0deH
	DB	0fbH
	DB	0e6H
	DB	0fbH
	DB	0deH
	DB	0fcH
	DB	0deH
	DB	0fbH
	DB	0e6H
	DB	0fbH
	DB	0deH
	DB	0fcH
	DB	0e6H
	DB	0fbH
	DB	0deH
	DB	0fcH
	DB	0e6H
	DB	0fbH
	DB	0e6H
	DB	0fbH
	DB	0deH
	DB	0fcH
	DB	0deH
	DB	0fbH
	DB	0e6H
	DB	0fbH
	DB	0deH
	DB	0fcH
	DB	0deH
	DB	0fbH
	DB	0e6H
	DB	0fbH
	DB	0e6H
	DB	0fcH
	DB	0deH
	DB	0fbH
	DB	0deH
	DB	0fcH
	DB	0e6H
	DB	0fcH
	DB	0deH
	DB	0fbH
	DB	0deH
	DB	0fbH
	DB	0deH
	DB	0fbH
	DB	0deH
	DB	0fcH
	DB	0deH
	DB	0fbH
	DB	0deH
	DB	0fbH
	DB	0e6H
	DB	0fbH
	DB	0deH
	DB	0fbH
	DB	0e6H
	DB	0fcH
	DB	0deH
	DB	0fbH
	DB	0e6H
	DB	0fbH
	DB	0e6H
	DB	0fcH
	DB	0deH
	DB	0fbH
	DB	0deH
	DB	0fcH
	DB	0e6H
	DB	0fbH
	DB	0deH
	DB	0fcH
	DB	0e6H
	DB	0fcH
	DB	0e6H
	DB	07dH
	DB	0efH
	DB	0a7H
	DB	029H
	DB	0c8H
	DB	031H
	DB	0e8H
	DB	039H
	DB	0abH
	DB	04aH
	DB	06aH
	DB	042H
	DB	0a7H
	DB	031H
	DB	0a7H
	DB	031H
	DB	0c7H
	DB	031H
	DB	07dH
	DB	0efH
	DB	0fcH
	DB	0e6H
	DB	0fcH
	DB	0e6H
	DB	0fbH
	DB	0deH
	DB	0fcH
	DB	0e6H
	DB	0fbH
	DB	0e6H
	DB	0fcH
	DB	0e6H
	DB	0fcH
	DB	0e6H
	DB	0fbH
	DB	0e6H
	DB	0fcH
	DB	0deH
	DB	0fcH
	DB	0e6H
	DB	0fbH
	DB	0e6H
	DB	0fcH
	DB	0deH
	DB	0fcH
	DB	0e6H
	DB	0fcH
	DB	0e6H
	DB	0fbH
	DB	0deH
	DB	0fcH
	DB	0deH
	DB	0fcH
	DB	0e6H
	DB	01bH
	DB	0e7H
	DB	0fcH
	DB	0deH
	DB	0fcH
	DB	0e6H
	DB	0fbH
	DB	0e6H
	DB	0fcH
	DB	0deH
	DB	0fcH
	DB	0e6H
	DB	0fbH
	DB	0e6H
	DB	0fcH
	DB	0deH
	DB	0fcH
	DB	0e6H
	DB	0fbH
	DB	0e6H
	DB	0fcH
	DB	0e6H
	DB	0fbH
	DB	0deH
	DB	01cH
	DB	0e7H
	DB	0fbH
	DB	0e6H
	DB	0fcH
	DB	0deH
	DB	01cH
	DB	0e7H
	DB	0fbH
	DB	0e6H
	DB	0fcH
	DB	0deH
	DB	0fcH
	DB	0e6H
	DB	0fcH
	DB	0e6H
	DB	0fbH
	DB	0deH
	DB	0fcH
	DB	0e6H
	DB	0fcH
	DB	0deH
	DB	0fbH
	DB	0e6H
	DB	0fcH
	DB	0e6H
	DB	0fcH
	DB	0deH
	DB	0fcH
	DB	0e6H
	DB	0fbH
	DB	0e6H
	DB	0fcH
	DB	0e6H
	DB	0fcH
	DB	0e6H
	DB	0fcH
	DB	0deH
	DB	0fcH
	DB	0e6H
	DB	0fcH
	DB	0e6H
	DB	0fbH
	DB	0deH
	DB	0fcH
	DB	0e6H
	DB	0fcH
	DB	0e6H
	DB	0fbH
	DB	0deH
	DB	0fcH
	DB	0e6H
	DB	0fcH
	DB	0e6H
	DB	0fbH
	DB	0e6H
	DB	0fcH
	DB	0e6H
	DB	0fcH
	DB	0e6H
	DB	0fcH
	DB	0deH
	DB	0fbH
	DB	0e6H
	DB	0fcH
	DB	0e6H
	DB	0fcH
	DB	0deH
	DB	0fbH
	DB	0e6H
	DB	0fcH
	DB	0e6H
	DB	0fbH
	DB	0deH
	DB	0fcH
	DB	0e6H
	DB	0fcH
	DB	0deH
	DB	0fbH
	DB	0e6H
	DB	0fcH
	DB	0e6H
	DB	0fcH
	DB	0e6H
	DB	0fbH
	DB	0e6H
	DB	0fcH
	DB	0e6H
	DB	0fcH
	DB	0e6H
	DB	0fbH
	DB	0e6H
	DB	0fcH
	DB	0e6H
	DB	0fcH
	DB	0e6H
	DB	01bH
	DB	0e7H
	DB	0fcH
	DB	0deH
	DB	0fcH
	DB	0e6H
	DB	01cH
	DB	0e7H
	DB	0fbH
	DB	0deH
	DB	0fcH
	DB	0e6H
	DB	0fcH
	DB	0e6H
	DB	0fbH
	DB	0e6H
	DB	0fcH
	DB	0deH
	DB	0fcH
	DB	0e6H
	DB	0fbH
	DB	0e6H
	DB	0fcH
	DB	0deH
	DB	0fcH
	DB	0e6H
	DB	0fbH
	DB	0e6H
	DB	0fcH
	DB	0deH
	DB	0fcH
	DB	0e6H
	DB	0fcH
	DB	0e6H
	DB	0fbH
	DB	0deH
	DB	0fcH
	DB	0e6H
	DB	0fcH
	DB	0e6H
	DB	0fbH
	DB	0deH
	DB	0fcH
	DB	0e6H
	DB	0fcH
	DB	0e6H
	DB	0fbH
	DB	0e6H
	DB	0fbH
	DB	0deH
	DB	0fcH
	DB	0e6H
	DB	0fcH
	DB	0e6H
	DB	0fcH
	DB	0e6H
	DB	0fcH
	DB	0e6H
	DB	0fbH
	DB	0e6H
	DB	0fcH
	DB	0e6H
	DB	01cH
	DB	0dfH
	DB	0fcH
	DB	0e6H
	DB	0fcH
	DB	0e6H
	DB	0fbH
	DB	0deH
	DB	0fcH
	DB	0e6H
	DB	0fcH
	DB	0e6H
	DB	0fbH
	DB	0deH
	DB	0fcH
	DB	0e6H
	DB	0fcH
	DB	0e6H
	DB	0fbH
	DB	0deH
	DB	01cH
	DB	0dfH
	DB	0fcH
	DB	0e6H
	DB	07dH
	DB	0efH
	DB	0c8H
	DB	031H
	DB	0c7H
	DB	031H
	DB	0c7H
	DB	031H
	DB	0abH
	DB	04aH
	DB	049H
	DB	042H
	DB	0a7H
	DB	031H
	DB	0c7H
	DB	031H
	DB	0c7H
	DB	031H
	DB	07eH
	DB	0f7H
	DB	0fbH
	DB	0deH
	DB	0fbH
	DB	0deH
	DB	0fcH
	DB	0e6H
	DB	0fbH
	DB	0deH
	DB	0fbH
	DB	0deH
	DB	0fcH
	DB	0deH
	DB	0fbH
	DB	0deH
	DB	0fbH
	DB	0e6H
	DB	0fcH
	DB	0deH
	DB	0fbH
	DB	0e6H
	DB	0fbH
	DB	0deH
	DB	0fcH
	DB	0deH
	DB	0fbH
	DB	0e6H
	DB	0fbH
	DB	0deH
	DB	0fcH
	DB	0e6H
	DB	0fbH
	DB	0deH
	DB	0fbH
	DB	0e6H
	DB	0fcH
	DB	0deH
	DB	0fbH
	DB	0deH
	DB	0fcH
	DB	0deH
	DB	0fbH
	DB	0e6H
	DB	0fcH
	DB	0deH
	DB	0fbH
	DB	0e6H
	DB	0fbH
	DB	0deH
	DB	0fcH
	DB	0e6H
	DB	0fbH
	DB	0deH
	DB	0fcH
	DB	0deH
	DB	0fbH
	DB	0e6H
	DB	0fcH
	DB	0deH
	DB	0fbH
	DB	0e6H
	DB	0fbH
	DB	0deH
	DB	0fbH
	DB	0e6H
	DB	0fcH
	DB	0deH
	DB	0fbH
	DB	0e6H
	DB	0fbH
	DB	0deH
	DB	0fcH
	DB	0deH
	DB	0fbH
	DB	0e6H
	DB	0fcH
	DB	0deH
	DB	0fbH
	DB	0deH
	DB	0fbH
	DB	0e6H
	DB	0fcH
	DB	0deH
	DB	0fbH
	DB	0deH
	DB	0fbH
	DB	0e6H
	DB	0fcH
	DB	0deH
	DB	0fbH
	DB	0deH
	DB	0fbH
	DB	0e6H
	DB	0fcH
	DB	0deH
	DB	0fbH
	DB	0deH
	DB	0fbH
	DB	0e6H
	DB	0fcH
	DB	0deH
	DB	0fbH
	DB	0deH
	DB	0fbH
	DB	0e6H
	DB	0fcH
	DB	0deH
	DB	0fbH
	DB	0deH
	DB	0fcH
	DB	0e6H
	DB	0fbH
	DB	0deH
	DB	0fbH
	DB	0deH
	DB	0fcH
	DB	0e6H
	DB	0fbH
	DB	0deH
	DB	0fbH
	DB	0deH
	DB	0fcH
	DB	0e6H
	DB	0fbH
	DB	0deH
	DB	0fcH
	DB	0deH
	DB	0fbH
	DB	0e6H
	DB	0fbH
	DB	0deH
	DB	0fcH
	DB	0e6H
	DB	0fbH
	DB	0deH
	DB	0fbH
	DB	0deH
	DB	0fcH
	DB	0deH
	DB	0fbH
	DB	0e6H
	DB	0fcH
	DB	0deH
	DB	0fbH
	DB	0deH
	DB	0fcH
	DB	0e6H
	DB	0fbH
	DB	0deH
	DB	0fcH
	DB	0deH
	DB	0fbH
	DB	0e6H
	DB	0fbH
	DB	0deH
	DB	0fcH
	DB	0deH
	DB	0fbH
	DB	0e6H
	DB	0fbH
	DB	0deH
	DB	0fcH
	DB	0deH
	DB	0fbH
	DB	0deH
	DB	0fbH
	DB	0deH
	DB	0fcH
	DB	0e6H
	DB	0fbH
	DB	0deH
	DB	0fcH
	DB	0deH
	DB	0fbH
	DB	0e6H
	DB	0fbH
	DB	0deH
	DB	0fcH
	DB	0deH
	DB	0fbH
	DB	0e6H
	DB	0fbH
	DB	0deH
	DB	0fcH
	DB	0deH
	DB	0fbH
	DB	0e6H
	DB	0fbH
	DB	0deH
	DB	0fcH
	DB	0deH
	DB	0fbH
	DB	0e6H
	DB	0fcH
	DB	0deH
	DB	0fbH
	DB	0deH
	DB	0fcH
	DB	0deH
	DB	0fbH
	DB	0e6H
	DB	0fcH
	DB	0deH
	DB	0fbH
	DB	0deH
	DB	0fbH
	DB	0e6H
	DB	0fcH
	DB	0deH
	DB	0fbH
	DB	0deH
	DB	0fbH
	DB	0e6H
	DB	0fcH
	DB	0deH
	DB	0fbH
	DB	0deH
	DB	0fbH
	DB	0e6H
	DB	0fcH
	DB	0deH
	DB	0fbH
	DB	0deH
	DB	0fbH
	DB	0e6H
	DB	0fcH
	DB	0deH
	DB	0fbH
	DB	0deH
	DB	0fbH
	DB	0e6H
	DB	0fcH
	DB	0deH
	DB	0fbH
	DB	0e6H
	DB	0fbH
	DB	0deH
	DB	0fbH
	DB	0e6H
	DB	0fbH
	DB	0e6H
	DB	07eH
	DB	0f7H
	DB	0e8H
	DB	039H
	DB	0c7H
	DB	031H
	DB	0c7H
	DB	031H
	DB	08bH
	DB	04aH
	DB	06aH
	DB	04aH
	DB	0a7H
	DB	031H
	DB	0c7H
	DB	031H
	DB	0c7H
	DB	031H
	DB	07eH
	DB	0efH
	DB	0fbH
	DB	0deH
	DB	0fbH
	DB	0deH
	DB	0fcH
	DB	0e6H
	DB	0fbH
	DB	0deH
	DB	0fbH
	DB	0deH
	DB	0fcH
	DB	0deH
	DB	0fbH
	DB	0deH
	DB	0fbH
	DB	0deH
	DB	0fcH
	DB	0deH
	DB	0fbH
	DB	0deH
	DB	0fbH
	DB	0e6H
	DB	0fcH
	DB	0deH
	DB	0fbH
	DB	0deH
	DB	0fbH
	DB	0deH
	DB	0fcH
	DB	0deH
	DB	0fbH
	DB	0e6H
	DB	0fbH
	DB	0deH
	DB	0fbH
	DB	0deH
	DB	0fbH
	DB	0e6H
	DB	0fbH
	DB	0deH
	DB	0fcH
	DB	0deH
	DB	0fbH
	DB	0deH
	DB	0fbH
	DB	0deH
	DB	0fcH
	DB	0deH
	DB	0fbH
	DB	0e6H
	DB	0fbH
	DB	0deH
	DB	0fbH
	DB	0deH
	DB	0fcH
	DB	0deH
	DB	0fbH
	DB	0deH
	DB	0fbH
	DB	0deH
	DB	0fcH
	DB	0deH
	DB	0fbH
	DB	0deH
	DB	0fbH
	DB	0deH
	DB	0fcH
	DB	0deH
	DB	0fbH
	DB	0e6H
	DB	0fbH
	DB	0deH
	DB	0fbH
	DB	0deH
	DB	0fbH
	DB	0e6H
	DB	0fcH
	DB	0deH
	DB	0fbH
	DB	0deH
	DB	0fbH
	DB	0deH
	DB	0fbH
	DB	0deH
	DB	0fbH
	DB	0e6H
	DB	0fcH
	DB	0deH
	DB	0fbH
	DB	0deH
	DB	0fbH
	DB	0deH
	DB	0fbH
	DB	0deH
	DB	0fbH
	DB	0e6H
	DB	0fbH
	DB	0deH
	DB	0fbH
	DB	0deH
	DB	0fcH
	DB	0e6H
	DB	0fbH
	DB	0deH
	DB	0fbH
	DB	0deH
	DB	0fbH
	DB	0e6H
	DB	0fbH
	DB	0deH
	DB	0fcH
	DB	0deH
	DB	0fbH
	DB	0deH
	DB	0fbH
	DB	0deH
	DB	0fbH
	DB	0deH
	DB	0fcH
	DB	0e6H
	DB	0fbH
	DB	0deH
	DB	0fbH
	DB	0deH
	DB	0fbH
	DB	0e6H
	DB	0fcH
	DB	0deH
	DB	0fbH
	DB	0deH
	DB	0fbH
	DB	0deH
	DB	0fcH
	DB	0e6H
	DB	0fbH
	DB	0deH
	DB	0fbH
	DB	0deH
	DB	0fbH
	DB	0deH
	DB	0fbH
	DB	0deH
	DB	0fbH
	DB	0deH
	DB	0fbH
	DB	0deH
	DB	0fbH
	DB	0deH
	DB	0fbH
	DB	0deH
	DB	0fcH
	DB	0deH
	DB	0fbH
	DB	0deH
	DB	0fbH
	DB	0deH
	DB	0fbH
	DB	0e6H
	DB	0fbH
	DB	0deH
	DB	0fcH
	DB	0deH
	DB	0fbH
	DB	0e6H
	DB	0fbH
	DB	0deH
	DB	0fbH
	DB	0deH
	DB	0fcH
	DB	0deH
	DB	0fbH
	DB	0e6H
	DB	0fbH
	DB	0deH
	DB	0fcH
	DB	0deH
	DB	0fbH
	DB	0e6H
	DB	0fbH
	DB	0deH
	DB	0fcH
	DB	0deH
	DB	0fbH
	DB	0deH
	DB	0fbH
	DB	0e6H
	DB	0fbH
	DB	0deH
	DB	0fbH
	DB	0deH
	DB	0fbH
	DB	0e6H
	DB	0fbH
	DB	0deH
	DB	0fbH
	DB	0deH
	DB	0fbH
	DB	0e6H
	DB	0fbH
	DB	0deH
	DB	0fcH
	DB	0deH
	DB	0fbH
	DB	0e6H
	DB	0fbH
	DB	0deH
	DB	0fbH
	DB	0deH
	DB	0fbH
	DB	0deH
	DB	0fbH
	DB	0deH
	DB	0fcH
	DB	0deH
	DB	0fbH
	DB	0deH
	DB	0fbH
	DB	0e6H
	DB	0fbH
	DB	0deH
	DB	0fbH
	DB	0deH
	DB	0fcH
	DB	0e6H
	DB	0fbH
	DB	0deH
	DB	0fbH
	DB	0deH
	DB	0fcH
	DB	0deH
	DB	0fbH
	DB	0deH
	DB	0fbH
	DB	0deH
	DB	0fcH
	DB	0deH
	DB	0fbH
	DB	0deH
	DB	0fbH
	DB	0deH
	DB	07dH
	DB	0efH
	DB	0e8H
	DB	039H
	DB	0c8H
	DB	031H
	DB	0e8H
	DB	031H
	DB	0abH
	DB	04aH
	DB	08aH
	DB	04aH
	DB	0a7H
	DB	031H
	DB	087H
	DB	029H
	DB	0a7H
	DB	031H
	DB	07dH
	DB	0efH
	DB	0dbH
	DB	0deH
	DB	0fbH
	DB	0e6H
	DB	0fbH
	DB	0deH
	DB	0dbH
	DB	0deH
	DB	0fbH
	DB	0e6H
	DB	0fbH
	DB	0e6H
	DB	0dbH
	DB	0deH
	DB	0fbH
	DB	0deH
	DB	0fbH
	DB	0e6H
	DB	0dbH
	DB	0deH
	DB	0fbH
	DB	0deH
	DB	0fbH
	DB	0deH
	DB	0fbH
	DB	0e6H
	DB	0fbH
	DB	0deH
	DB	0dbH
	DB	0deH
	DB	0fbH
	DB	0deH
	DB	0fcH
	DB	0deH
	DB	0dbH
	DB	0deH
	DB	0fbH
	DB	0e6H
	DB	0fbH
	DB	0deH
	DB	0dbH
	DB	0deH
	DB	0fbH
	DB	0e6H
	DB	0fbH
	DB	0deH
	DB	0fbH
	DB	0deH
	DB	0fbH
	DB	0deH
	DB	0fbH
	DB	0deH
	DB	0fbH
	DB	0e6H
	DB	0dbH
	DB	0deH
	DB	0fbH
	DB	0deH
	DB	0fbH
	DB	0e6H
	DB	0dcH
	DB	0deH
	DB	0dbH
	DB	0deH
	DB	0fbH
	DB	0e6H
	DB	0fbH
	DB	0deH
	DB	0dbH
	DB	0deH
	DB	0fcH
	DB	0deH
	DB	0fbH
	DB	0deH
	DB	0fbH
	DB	0deH
	DB	0fbH
	DB	0e6H
	DB	0fcH
	DB	0deH
	DB	0fbH
	DB	0deH
	DB	0fbH
	DB	0e6H
	DB	0fcH
	DB	0deH
	DB	0dbH
	DB	0deH
	DB	0fbH
	DB	0e6H
	DB	0fcH
	DB	0deH
	DB	0dbH
	DB	0deH
	DB	0fcH
	DB	0deH
	DB	0fbH
	DB	0deH
	DB	0dbH
	DB	0deH
	DB	0fbH
	DB	0deH
	DB	0fcH
	DB	0deH
	DB	0fbH
	DB	0deH
	DB	0fbH
	DB	0deH
	DB	0fbH
	DB	0deH
	DB	0fbH
	DB	0e6H
	DB	0fcH
	DB	0deH
	DB	0fbH
	DB	0deH
	DB	0fbH
	DB	0e6H
	DB	0fbH
	DB	0deH
	DB	0fbH
	DB	0deH
	DB	0fbH
	DB	0deH
	DB	0fbH
	DB	0deH
	DB	0fbH
	DB	0deH
	DB	0fbH
	DB	0deH
	DB	0fbH
	DB	0deH
	DB	0fbH
	DB	0e6H
	DB	0fcH
	DB	0deH
	DB	0fbH
	DB	0deH
	DB	0fbH
	DB	0e6H
	DB	0fcH
	DB	0e6H
	DB	0fbH
	DB	0deH
	DB	0fbH
	DB	0e6H
	DB	0fcH
	DB	0deH
	DB	0fbH
	DB	0e6H
	DB	0dbH
	DB	0deH
	DB	0fbH
	DB	0deH
	DB	0fcH
	DB	0e6H
	DB	0dbH
	DB	0deH
	DB	0fbH
	DB	0deH
	DB	0dbH
	DB	0deH
	DB	0fcH
	DB	0e6H
	DB	0fbH
	DB	0deH
	DB	0dbH
	DB	0deH
	DB	0fbH
	DB	0e6H
	DB	0fbH
	DB	0deH
	DB	0fbH
	DB	0deH
	DB	0fbH
	DB	0deH
	DB	0fbH
	DB	0deH
	DB	0fbH
	DB	0deH
	DB	0fbH
	DB	0deH
	DB	0fbH
	DB	0e6H
	DB	0fcH
	DB	0deH
	DB	0fbH
	DB	0deH
	DB	0fcH
	DB	0deH
	DB	0fbH
	DB	0deH
	DB	0fbH
	DB	0deH
	DB	0fcH
	DB	0e6H
	DB	0fbH
	DB	0deH
	DB	0fbH
	DB	0deH
	DB	0fbH
	DB	0deH
	DB	0fcH
	DB	0deH
	DB	0fbH
	DB	0deH
	DB	0fcH
	DB	0e6H
	DB	0fbH
	DB	0deH
	DB	0fbH
	DB	0e6H
	DB	0fbH
	DB	0deH
	DB	0dcH
	DB	0deH
	DB	0fbH
	DB	0deH
	DB	0fbH
	DB	0deH
	DB	0dcH
	DB	0deH
	DB	0fbH
	DB	0deH
	DB	0fbH
	DB	0deH
	DB	0fbH
	DB	0e6H
	DB	0fbH
	DB	0deH
	DB	0dbH
	DB	0deH
	DB	0fcH
	DB	0e6H
	DB	0fbH
	DB	0deH
	DB	0dcH
	DB	0deH
	DB	0fbH
	DB	0deH
	DB	05dH
	DB	0efH
	DB	0e8H
	DB	039H
	DB	0e8H
	DB	039H
	DB	0e8H
	DB	031H
	DB	0abH
	DB	052H
	DB	0abH
	DB	04aH
	DB	0a7H
	DB	029H
	DB	0a7H
	DB	031H
	DB	0a7H
	DB	029H
	DB	05dH
	DB	0efH
	DB	0dbH
	DB	0e6H
	DB	0fcH
	DB	0deH
	DB	0dbH
	DB	0deH
	DB	0dcH
	DB	0deH
	DB	0fbH
	DB	0deH
	DB	0dcH
	DB	0deH
	DB	0dbH
	DB	0deH
	DB	0fcH
	DB	0e6H
	DB	0dbH
	DB	0deH
	DB	0dcH
	DB	0deH
	DB	0fbH
	DB	0deH
	DB	0dbH
	DB	0e6H
	DB	0dcH
	DB	0deH
	DB	0dbH
	DB	0deH
	DB	0fbH
	DB	0e6H
	DB	0dcH
	DB	0deH
	DB	0dbH
	DB	0deH
	DB	0fcH
	DB	0e6H
	DB	0dbH
	DB	0deH
	DB	0dcH
	DB	0deH
	DB	0fbH
	DB	0deH
	DB	0dcH
	DB	0e6H
	DB	0dbH
	DB	0deH
	DB	0dcH
	DB	0deH
	DB	0dbH
	DB	0e6H
	DB	0dcH
	DB	0deH
	DB	0dcH
	DB	0deH
	DB	0fbH
	DB	0e6H
	DB	0dbH
	DB	0deH
	DB	0dcH
	DB	0deH
	DB	0fbH
	DB	0e6H
	DB	0dbH
	DB	0deH
	DB	0dcH
	DB	0deH
	DB	0fbH
	DB	0e6H
	DB	0dbH
	DB	0deH
	DB	0dcH
	DB	0deH
	DB	0dbH
	DB	0e6H
	DB	0dbH
	DB	0deH
	DB	0dbH
	DB	0deH
	DB	0dbH
	DB	0deH
	DB	0dcH
	DB	0e6H
	DB	0dbH
	DB	0deH
	DB	0dbH
	DB	0deH
	DB	0fbH
	DB	0deH
	DB	0dbH
	DB	0e6H
	DB	0dbH
	DB	0deH
	DB	0fbH
	DB	0deH
	DB	0dbH
	DB	0e6H
	DB	0dcH
	DB	0e6H
	DB	0fbH
	DB	0deH
	DB	0dbH
	DB	0e6H
	DB	0dbH
	DB	0deH
	DB	0dcH
	DB	0e6H
	DB	0dbH
	DB	0deH
	DB	0dbH
	DB	0deH
	DB	0dcH
	DB	0e6H
	DB	0dbH
	DB	0deH
	DB	0dbH
	DB	0deH
	DB	0dcH
	DB	0deH
	DB	0dbH
	DB	0deH
	DB	0dcH
	DB	0e6H
	DB	0dcH
	DB	0deH
	DB	0dbH
	DB	0deH
	DB	0dcH
	DB	0e6H
	DB	0dcH
	DB	0deH
	DB	0dbH
	DB	0deH
	DB	0dbH
	DB	0deH
	DB	0dbH
	DB	0e6H
	DB	0dcH
	DB	0deH
	DB	0dbH
	DB	0deH
	DB	0dbH
	DB	0deH
	DB	0dcH
	DB	0deH
	DB	0dbH
	DB	0deH
	DB	0dbH
	DB	0e6H
	DB	0fcH
	DB	0deH
	DB	0dbH
	DB	0deH
	DB	0dbH
	DB	0e6H
	DB	0fcH
	DB	0deH
	DB	0dbH
	DB	0deH
	DB	0dbH
	DB	0deH
	DB	0fbH
	DB	0e6H
	DB	0dbH
	DB	0deH
	DB	0dcH
	DB	0deH
	DB	0fbH
	DB	0deH
	DB	0dbH
	DB	0deH
	DB	0dcH
	DB	0deH
	DB	0dbH
	DB	0e6H
	DB	0dcH
	DB	0deH
	DB	0dbH
	DB	0deH
	DB	0dcH
	DB	0e6H
	DB	0dbH
	DB	0deH
	DB	0dbH
	DB	0deH
	DB	0dbH
	DB	0deH
	DB	0dcH
	DB	0e6H
	DB	0dbH
	DB	0deH
	DB	0dbH
	DB	0deH
	DB	0dcH
	DB	0e6H
	DB	0dbH
	DB	0deH
	DB	0dbH
	DB	0deH
	DB	0dcH
	DB	0deH
	DB	0dbH
	DB	0e6H
	DB	0dbH
	DB	0deH
	DB	0dbH
	DB	0deH
	DB	0dbH
	DB	0deH
	DB	0dcH
	DB	0deH
	DB	0dbH
	DB	0e6H
	DB	0dbH
	DB	0deH
	DB	0fbH
	DB	0deH
	DB	0dcH
	DB	0e6H
	DB	0dbH
	DB	0deH
	DB	0fbH
	DB	0e6H
	DB	0dbH
	DB	0deH
	DB	0dcH
	DB	0deH
	DB	0dbH
	DB	0e6H
	DB	0dbH
	DB	0deH
	DB	0fcH
	DB	0deH
	DB	0dbH
	DB	0e6H
	DB	0dbH
	DB	0deH
	DB	0fbH
	DB	0e6H
	DB	0dcH
	DB	0deH
	DB	07dH
	DB	0efH
	DB	0c8H
	DB	031H
	DB	0c7H
	DB	031H
	DB	0e8H
	DB	031H
	DB	0abH
	DB	04aH
	DB	08aH
	DB	04aH
	DB	0a7H
	DB	031H
	DB	0a7H
	DB	031H
	DB	0a7H
	DB	031H
	DB	07dH
	DB	0efH
	DB	0dbH
	DB	0deH
	DB	0dbH
	DB	0deH
	DB	0dbH
	DB	0deH
	DB	0dbH
	DB	0deH
	DB	0dbH
	DB	0deH
	DB	0dbH
	DB	0deH
	DB	0dbH
	DB	0deH
	DB	0dbH
	DB	0deH
	DB	0dbH
	DB	0deH
	DB	0dbH
	DB	0deH
	DB	0dbH
	DB	0deH
	DB	0dbH
	DB	0deH
	DB	0dbH
	DB	0deH
	DB	0dbH
	DB	0deH
	DB	0dbH
	DB	0deH
	DB	0dbH
	DB	0deH
	DB	0dbH
	DB	0deH
	DB	0dbH
	DB	0deH
	DB	0dbH
	DB	0deH
	DB	0dbH
	DB	0deH
	DB	0dbH
	DB	0deH
	DB	0dbH
	DB	0deH
	DB	0dbH
	DB	0deH
	DB	0dbH
	DB	0deH
	DB	0dbH
	DB	0deH
	DB	0dbH
	DB	0deH
	DB	0dbH
	DB	0deH
	DB	0dbH
	DB	0deH
	DB	0dbH
	DB	0deH
	DB	0dbH
	DB	0deH
	DB	0dbH
	DB	0deH
	DB	0dbH
	DB	0deH
	DB	0dbH
	DB	0deH
	DB	0dbH
	DB	0deH
	DB	0dbH
	DB	0deH
	DB	0dbH
	DB	0deH
	DB	0dbH
	DB	0deH
	DB	0dbH
	DB	0deH
	DB	0dbH
	DB	0deH
	DB	0dbH
	DB	0deH
	DB	0dbH
	DB	0deH
	DB	0dbH
	DB	0deH
	DB	0dbH
	DB	0deH
	DB	0dbH
	DB	0deH
	DB	0dbH
	DB	0deH
	DB	0dbH
	DB	0deH
	DB	0dbH
	DB	0deH
	DB	0dbH
	DB	0deH
	DB	0dbH
	DB	0deH
	DB	0dbH
	DB	0deH
	DB	0dbH
	DB	0deH
	DB	0dbH
	DB	0deH
	DB	0dbH
	DB	0deH
	DB	0dbH
	DB	0deH
	DB	0dbH
	DB	0deH
	DB	0dbH
	DB	0deH
	DB	0dbH
	DB	0deH
	DB	0dbH
	DB	0deH
	DB	0dbH
	DB	0deH
	DB	0dbH
	DB	0deH
	DB	0dbH
	DB	0deH
	DB	0dbH
	DB	0deH
	DB	0dbH
	DB	0deH
	DB	0dbH
	DB	0deH
	DB	0dbH
	DB	0deH
	DB	0dbH
	DB	0deH
	DB	0dbH
	DB	0deH
	DB	0dbH
	DB	0deH
	DB	0dbH
	DB	0deH
	DB	0dbH
	DB	0deH
	DB	0dbH
	DB	0deH
	DB	0dbH
	DB	0deH
	DB	0dbH
	DB	0deH
	DB	0dbH
	DB	0deH
	DB	0dbH
	DB	0deH
	DB	0dbH
	DB	0deH
	DB	0dbH
	DB	0deH
	DB	0dbH
	DB	0deH
	DB	0dbH
	DB	0deH
	DB	0dbH
	DB	0deH
	DB	0dbH
	DB	0deH
	DB	0dbH
	DB	0deH
	DB	0dbH
	DB	0deH
	DB	0dbH
	DB	0deH
	DB	0dbH
	DB	0deH
	DB	0dbH
	DB	0deH
	DB	0dbH
	DB	0deH
	DB	0dbH
	DB	0deH
	DB	0dbH
	DB	0deH
	DB	0dbH
	DB	0deH
	DB	0dbH
	DB	0deH
	DB	0dbH
	DB	0deH
	DB	0dbH
	DB	0deH
	DB	0dbH
	DB	0deH
	DB	0dbH
	DB	0deH
	DB	0dbH
	DB	0deH
	DB	0dbH
	DB	0deH
	DB	0dbH
	DB	0deH
	DB	0dbH
	DB	0deH
	DB	0dbH
	DB	0deH
	DB	0dbH
	DB	0deH
	DB	0dbH
	DB	0deH
	DB	0dbH
	DB	0deH
	DB	0dbH
	DB	0deH
	DB	0dbH
	DB	0deH
	DB	0dbH
	DB	0deH
	DB	0dbH
	DB	0deH
	DB	0dbH
	DB	0deH
	DB	0dbH
	DB	0deH
	DB	0dbH
	DB	0deH
	DB	0dbH
	DB	0deH
	DB	0dbH
	DB	0deH
	DB	0dbH
	DB	0deH
	DB	0dbH
	DB	0deH
	DB	0dbH
	DB	0deH
	DB	0dbH
	DB	0deH
	DB	0dbH
	DB	0deH
	DB	0dbH
	DB	0deH
	DB	0dbH
	DB	0deH
	DB	0dbH
	DB	0deH
	DB	07dH
	DB	0efH
	DB	0e8H
	DB	039H
	DB	0c7H
	DB	031H
	DB	0c7H
	DB	031H
	DB	0cbH
	DB	052H
	DB	04aH
	DB	042H
	DB	0a7H
	DB	031H
	DB	0c7H
	DB	031H
	DB	0c8H
	DB	031H
	DB	05dH
	DB	0efH
	DB	0dbH
	DB	0deH
	DB	0dbH
	DB	0deH
	DB	0dbH
	DB	0deH
	DB	0dbH
	DB	0deH
	DB	0dbH
	DB	0deH
	DB	0dbH
	DB	0deH
	DB	0dbH
	DB	0deH
	DB	0dbH
	DB	0deH
	DB	0dbH
	DB	0deH
	DB	0dbH
	DB	0deH
	DB	0dbH
	DB	0deH
	DB	0dbH
	DB	0deH
	DB	0dbH
	DB	0deH
	DB	0dbH
	DB	0deH
	DB	0dbH
	DB	0deH
	DB	0dbH
	DB	0deH
	DB	0dbH
	DB	0deH
	DB	0dbH
	DB	0deH
	DB	0dbH
	DB	0deH
	DB	0dbH
	DB	0deH
	DB	0dbH
	DB	0deH
	DB	0dbH
	DB	0deH
	DB	0dbH
	DB	0deH
	DB	0dbH
	DB	0deH
	DB	0dbH
	DB	0deH
	DB	0dbH
	DB	0deH
	DB	0dbH
	DB	0deH
	DB	0dbH
	DB	0deH
	DB	0dbH
	DB	0deH
	DB	0dbH
	DB	0deH
	DB	0dbH
	DB	0deH
	DB	0dbH
	DB	0deH
	DB	0dbH
	DB	0deH
	DB	0dbH
	DB	0deH
	DB	0dbH
	DB	0deH
	DB	0dbH
	DB	0deH
	DB	0dbH
	DB	0deH
	DB	0dbH
	DB	0deH
	DB	0dbH
	DB	0deH
	DB	0dbH
	DB	0deH
	DB	0dbH
	DB	0deH
	DB	0dbH
	DB	0deH
	DB	0dbH
	DB	0deH
	DB	0dbH
	DB	0deH
	DB	0dbH
	DB	0deH
	DB	0dbH
	DB	0deH
	DB	0dbH
	DB	0deH
	DB	0dbH
	DB	0deH
	DB	0dbH
	DB	0deH
	DB	0adH
	DB	0bcH
	DB	0a1H
	DB	0b3H
	DB	01H
	DB	0c4H
	DB	021H
	DB	0ccH
	DB	021H
	DB	0ccH
	DB	021H
	DB	0ccH
	DB	021H
	DB	0ccH
	DB	021H
	DB	0ccH
	DB	021H
	DB	0ccH
	DB	021H
	DB	0ccH
	DB	021H
	DB	0ccH
	DB	021H
	DB	0ccH
	DB	021H
	DB	0ccH
	DB	021H
	DB	0ccH
	DB	021H
	DB	0ccH
	DB	021H
	DB	0ccH
	DB	021H
	DB	0ccH
	DB	021H
	DB	0ccH
	DB	021H
	DB	0ccH
	DB	021H
	DB	0ccH
	DB	021H
	DB	0ccH
	DB	01H
	DB	0c4H
	DB	0a1H
	DB	0b3H
	DB	0adH
	DB	0bcH
	DB	0dbH
	DB	0deH
	DB	0dbH
	DB	0deH
	DB	0dbH
	DB	0deH
	DB	0dbH
	DB	0deH
	DB	0dbH
	DB	0deH
	DB	0dbH
	DB	0deH
	DB	0dbH
	DB	0deH
	DB	0dbH
	DB	0deH
	DB	0dbH
	DB	0deH
	DB	0dbH
	DB	0deH
	DB	0dbH
	DB	0deH
	DB	0dbH
	DB	0deH
	DB	0dbH
	DB	0deH
	DB	0dbH
	DB	0deH
	DB	0dbH
	DB	0deH
	DB	0dbH
	DB	0deH
	DB	0dbH
	DB	0deH
	DB	0dbH
	DB	0deH
	DB	0dbH
	DB	0deH
	DB	0dbH
	DB	0deH
	DB	0dbH
	DB	0deH
	DB	0dbH
	DB	0deH
	DB	0dbH
	DB	0deH
	DB	0dbH
	DB	0deH
	DB	0dbH
	DB	0deH
	DB	0dbH
	DB	0deH
	DB	0dbH
	DB	0deH
	DB	0dbH
	DB	0deH
	DB	0dbH
	DB	0deH
	DB	0dbH
	DB	0deH
	DB	0dbH
	DB	0deH
	DB	0dbH
	DB	0deH
	DB	0dbH
	DB	0deH
	DB	0dbH
	DB	0deH
	DB	0dbH
	DB	0deH
	DB	0dbH
	DB	0deH
	DB	0dbH
	DB	0deH
	DB	0dbH
	DB	0deH
	DB	0dbH
	DB	0deH
	DB	0dbH
	DB	0deH
	DB	0dbH
	DB	0deH
	DB	0dbH
	DB	0deH
	DB	0dbH
	DB	0deH
	DB	0dbH
	DB	0deH
	DB	0dbH
	DB	0deH
	DB	0dbH
	DB	0deH
	DB	0dbH
	DB	0deH
	DB	05dH
	DB	0efH
	DB	08H
	DB	03aH
	DB	0c8H
	DB	031H
	DB	0c7H
	DB	031H
	DB	0abH
	DB	04aH
	DB	06aH
	DB	04aH
	DB	0a7H
	DB	029H
	DB	0c7H
	DB	031H
	DB	0e8H
	DB	031H
	DB	05dH
	DB	0efH
	DB	0dbH
	DB	0deH
	DB	0dbH
	DB	0deH
	DB	0dbH
	DB	0deH
	DB	0dbH
	DB	0deH
	DB	0dbH
	DB	0deH
	DB	0dbH
	DB	0deH
	DB	0dbH
	DB	0deH
	DB	0dbH
	DB	0deH
	DB	0dbH
	DB	0deH
	DB	0dbH
	DB	0deH
	DB	0dbH
	DB	0deH
	DB	0dbH
	DB	0deH
	DB	0dbH
	DB	0deH
	DB	0dbH
	DB	0deH
	DB	0dbH
	DB	0deH
	DB	0dbH
	DB	0deH
	DB	0dbH
	DB	0deH
	DB	0dbH
	DB	0deH
	DB	0dbH
	DB	0deH
	DB	0dbH
	DB	0deH
	DB	0dbH
	DB	0deH
	DB	0dbH
	DB	0deH
	DB	0dbH
	DB	0deH
	DB	0dbH
	DB	0deH
	DB	0dbH
	DB	0deH
	DB	0dbH
	DB	0deH
	DB	0dbH
	DB	0deH
	DB	0dbH
	DB	0deH
	DB	0dbH
	DB	0deH
	DB	0dbH
	DB	0deH
	DB	0dbH
	DB	0deH
	DB	0dbH
	DB	0deH
	DB	0dbH
	DB	0deH
	DB	0dbH
	DB	0deH
	DB	0dbH
	DB	0deH
	DB	0dbH
	DB	0deH
	DB	0dbH
	DB	0deH
	DB	0dbH
	DB	0deH
	DB	0dbH
	DB	0deH
	DB	0dbH
	DB	0deH
	DB	0dbH
	DB	0deH
	DB	0dbH
	DB	0deH
	DB	0dbH
	DB	0deH
	DB	0dbH
	DB	0deH
	DB	0dbH
	DB	0deH
	DB	0dbH
	DB	0deH
	DB	0dbH
	DB	0deH
	DB	0dbH
	DB	0deH
	DB	0dbH
	DB	0deH
	DB	0fbH
	DB	0e6H
	DB	067H
	DB	0bcH
	DB	041H
	DB	0ccH
	DB	081H
	DB	0dcH
	DB	0a1H
	DB	0dcH
	DB	0a1H
	DB	0e4H
	DB	0a1H
	DB	0e4H
	DB	0a1H
	DB	0dcH
	DB	0a1H
	DB	0e4H
	DB	0a1H
	DB	0e4H
	DB	0a1H
	DB	0e4H
	DB	0a1H
	DB	0dcH
	DB	0a1H
	DB	0e4H
	DB	0a1H
	DB	0e4H
	DB	0a1H
	DB	0e4H
	DB	0a1H
	DB	0e4H
	DB	0a1H
	DB	0e4H
	DB	0a1H
	DB	0dcH
	DB	0a1H
	DB	0e4H
	DB	0a1H
	DB	0dcH
	DB	081H
	DB	0dcH
	DB	041H
	DB	0ccH
	DB	067H
	DB	0c4H
	DB	0fbH
	DB	0e6H
	DB	0dbH
	DB	0deH
	DB	0dbH
	DB	0deH
	DB	0dbH
	DB	0deH
	DB	0dbH
	DB	0deH
	DB	0dbH
	DB	0deH
	DB	0dbH
	DB	0deH
	DB	0dbH
	DB	0deH
	DB	0dbH
	DB	0deH
	DB	0dbH
	DB	0deH
	DB	0dbH
	DB	0deH
	DB	0dbH
	DB	0deH
	DB	0dbH
	DB	0deH
	DB	0dbH
	DB	0deH
	DB	0dbH
	DB	0deH
	DB	0dbH
	DB	0deH
	DB	0dbH
	DB	0deH
	DB	0dbH
	DB	0deH
	DB	0dbH
	DB	0deH
	DB	0dbH
	DB	0deH
	DB	0dbH
	DB	0deH
	DB	0dbH
	DB	0deH
	DB	0dbH
	DB	0deH
	DB	0dbH
	DB	0deH
	DB	0dbH
	DB	0deH
	DB	0dbH
	DB	0deH
	DB	0dbH
	DB	0deH
	DB	0dbH
	DB	0deH
	DB	0dbH
	DB	0deH
	DB	0dbH
	DB	0deH
	DB	0dbH
	DB	0deH
	DB	0dbH
	DB	0deH
	DB	0dbH
	DB	0deH
	DB	0dbH
	DB	0deH
	DB	0dbH
	DB	0deH
	DB	0dbH
	DB	0deH
	DB	0dbH
	DB	0deH
	DB	0dbH
	DB	0deH
	DB	0dbH
	DB	0deH
	DB	0dbH
	DB	0deH
	DB	0dbH
	DB	0deH
	DB	0dbH
	DB	0deH
	DB	0dbH
	DB	0deH
	DB	0dbH
	DB	0deH
	DB	0dbH
	DB	0deH
	DB	0dbH
	DB	0deH
	DB	0dbH
	DB	0deH
	DB	0dbH
	DB	0deH
	DB	05dH
	DB	0efH
	DB	08H
	DB	03aH
	DB	0e8H
	DB	039H
	DB	0c7H
	DB	031H
	DB	06aH
	DB	04aH
	DB	08aH
	DB	04aH
	DB	0a7H
	DB	031H
	DB	0a7H
	DB	029H
	DB	0c7H
	DB	031H
	DB	05dH
	DB	0efH
	DB	0dbH
	DB	0deH
	DB	0dbH
	DB	0deH
	DB	0bbH
	DB	0deH
	DB	0dbH
	DB	0deH
	DB	0dbH
	DB	0deH
	DB	0bbH
	DB	0deH
	DB	0dbH
	DB	0deH
	DB	0dbH
	DB	0deH
	DB	0bbH
	DB	0deH
	DB	0dbH
	DB	0deH
	DB	0dbH
	DB	0deH
	DB	0bbH
	DB	0deH
	DB	0dbH
	DB	0deH
	DB	0dbH
	DB	0deH
	DB	0bbH
	DB	0deH
	DB	0dbH
	DB	0deH
	DB	0dbH
	DB	0deH
	DB	0bbH
	DB	0deH
	DB	0dbH
	DB	0deH
	DB	0dbH
	DB	0deH
	DB	0bbH
	DB	0deH
	DB	0dbH
	DB	0deH
	DB	0dbH
	DB	0deH
	DB	0dbH
	DB	0deH
	DB	0dbH
	DB	0deH
	DB	0dbH
	DB	0deH
	DB	0bbH
	DB	0deH
	DB	0dbH
	DB	0deH
	DB	0dbH
	DB	0deH
	DB	0dbH
	DB	0deH
	DB	0bbH
	DB	0deH
	DB	0dbH
	DB	0deH
	DB	0dbH
	DB	0deH
	DB	0dbH
	DB	0deH
	DB	0dbH
	DB	0deH
	DB	0dbH
	DB	0deH
	DB	0dbH
	DB	0deH
	DB	0dbH
	DB	0deH
	DB	0dbH
	DB	0deH
	DB	0dbH
	DB	0deH
	DB	0dbH
	DB	0deH
	DB	0dbH
	DB	0deH
	DB	0dbH
	DB	0deH
	DB	0bbH
	DB	0deH
	DB	0dbH
	DB	0deH
	DB	0dbH
	DB	0deH
	DB	0bbH
	DB	0deH
	DB	0dbH
	DB	0deH
	DB	0dbH
	DB	0deH
	DB	0dbH
	DB	0deH
	DB	099H
	DB	0deH
	DB	043H
	DB	0ccH
	DB	081H
	DB	0dcH
	DB	0c1H
	DB	0e4H
	DB	0e1H
	DB	0ecH
	DB	0e1H
	DB	0ecH
	DB	0e1H
	DB	0ecH
	DB	0e1H
	DB	0ecH
	DB	0e1H
	DB	0ecH
	DB	0e1H
	DB	0ecH
	DB	0e1H
	DB	0ecH
	DB	0e1H
	DB	0ecH
	DB	0e1H
	DB	0ecH
	DB	0e1H
	DB	0ecH
	DB	0e1H
	DB	0ecH
	DB	0e1H
	DB	0ecH
	DB	0c1H
	DB	0ecH
	DB	0e1H
	DB	0ecH
	DB	0c1H
	DB	0e4H
	DB	081H
	DB	0dcH
	DB	043H
	DB	0ccH
	DB	099H
	DB	0deH
	DB	0dbH
	DB	0deH
	DB	0bbH
	DB	0deH
	DB	0dbH
	DB	0deH
	DB	0dbH
	DB	0deH
	DB	0bbH
	DB	0deH
	DB	0dbH
	DB	0deH
	DB	0dbH
	DB	0deH
	DB	0bbH
	DB	0deH
	DB	0dbH
	DB	0deH
	DB	0dbH
	DB	0deH
	DB	0bbH
	DB	0deH
	DB	0dbH
	DB	0deH
	DB	0dbH
	DB	0deH
	DB	0bbH
	DB	0deH
	DB	0dbH
	DB	0deH
	DB	0dbH
	DB	0deH
	DB	0dbH
	DB	0deH
	DB	0dbH
	DB	0deH
	DB	0dbH
	DB	0deH
	DB	0dbH
	DB	0deH
	DB	0dbH
	DB	0deH
	DB	0dbH
	DB	0deH
	DB	0dbH
	DB	0deH
	DB	0dbH
	DB	0deH
	DB	0dbH
	DB	0deH
	DB	0dbH
	DB	0deH
	DB	0dbH
	DB	0deH
	DB	0dbH
	DB	0deH
	DB	0dbH
	DB	0deH
	DB	0dbH
	DB	0deH
	DB	0dbH
	DB	0deH
	DB	0dbH
	DB	0deH
	DB	0dbH
	DB	0deH
	DB	0dbH
	DB	0deH
	DB	0dbH
	DB	0deH
	DB	0bbH
	DB	0deH
	DB	0dbH
	DB	0deH
	DB	0dbH
	DB	0deH
	DB	0bbH
	DB	0deH
	DB	0dbH
	DB	0deH
	DB	0dbH
	DB	0deH
	DB	0dbH
	DB	0deH
	DB	0bbH
	DB	0deH
	DB	0dbH
	DB	0deH
	DB	0dbH
	DB	0deH
	DB	0bbH
	DB	0deH
	DB	0dbH
	DB	0deH
	DB	0dbH
	DB	0deH
	DB	05dH
	DB	0efH
	DB	0e8H
	DB	039H
	DB	08H
	DB	03aH
	DB	0c8H
	DB	031H
	DB	0abH
	DB	04aH
	DB	08aH
	DB	04aH
	DB	0a7H
	DB	031H
	DB	0c7H
	DB	031H
	DB	0a7H
	DB	031H
	DB	05dH
	DB	0efH
	DB	0bbH
	DB	0deH
	DB	0bbH
	DB	0deH
	DB	0dbH
	DB	0deH
	DB	0bbH
	DB	0deH
	DB	0bbH
	DB	0deH
	DB	0dbH
	DB	0deH
	DB	0bbH
	DB	0deH
	DB	0bbH
	DB	0deH
	DB	0dbH
	DB	0deH
	DB	0bbH
	DB	0deH
	DB	0bbH
	DB	0deH
	DB	0dbH
	DB	0deH
	DB	0bbH
	DB	0deH
	DB	0bbH
	DB	0deH
	DB	0dbH
	DB	0deH
	DB	0bbH
	DB	0deH
	DB	0bbH
	DB	0deH
	DB	0dbH
	DB	0deH
	DB	0bbH
	DB	0deH
	DB	0bbH
	DB	0deH
	DB	0dbH
	DB	0deH
	DB	0bbH
	DB	0deH
	DB	0bbH
	DB	0deH
	DB	0bbH
	DB	0deH
	DB	0bbH
	DB	0deH
	DB	0bbH
	DB	0deH
	DB	0dbH
	DB	0deH
	DB	0bbH
	DB	0deH
	DB	0bbH
	DB	0deH
	DB	0dbH
	DB	0deH
	DB	0bbH
	DB	0deH
	DB	0bbH
	DB	0deH
	DB	0bbH
	DB	0deH
	DB	0bbH
	DB	0deH
	DB	0bbH
	DB	0deH
	DB	0bbH
	DB	0deH
	DB	0bbH
	DB	0deH
	DB	0bbH
	DB	0deH
	DB	0bbH
	DB	0deH
	DB	0bbH
	DB	0deH
	DB	0bbH
	DB	0deH
	DB	0bbH
	DB	0deH
	DB	0bbH
	DB	0deH
	DB	0dbH
	DB	0deH
	DB	0bbH
	DB	0deH
	DB	0bbH
	DB	0deH
	DB	0dbH
	DB	0deH
	DB	0bbH
	DB	0deH
	DB	0bbH
	DB	0deH
	DB	0bbH
	DB	0deH
	DB	0dbH
	DB	0deH
	DB	0f4H
	DB	0d5H
	DB	041H
	DB	0ccH
	DB	0a1H
	DB	0e4H
	DB	0c1H
	DB	0e4H
	DB	0c1H
	DB	0ecH
	DB	0c1H
	DB	0ecH
	DB	0c1H
	DB	0ecH
	DB	0c1H
	DB	0ecH
	DB	0c1H
	DB	0ecH
	DB	0c1H
	DB	0ecH
	DB	0c1H
	DB	0ecH
	DB	0c1H
	DB	0ecH
	DB	0c1H
	DB	0e4H
	DB	0c1H
	DB	0ecH
	DB	0e1H
	DB	0ecH
	DB	0c1H
	DB	0ecH
	DB	0c2H
	DB	0e4H
	DB	0a1H
	DB	0e4H
	DB	041H
	DB	0ccH
	DB	0f3H
	DB	0d5H
	DB	0dbH
	DB	0deH
	DB	0bbH
	DB	0deH
	DB	0bbH
	DB	0d6H
	DB	0bbH
	DB	0deH
	DB	0dbH
	DB	0deH
	DB	0bbH
	DB	0deH
	DB	0bbH
	DB	0deH
	DB	0dbH
	DB	0deH
	DB	0bbH
	DB	0deH
	DB	0bbH
	DB	0deH
	DB	0dbH
	DB	0deH
	DB	0bbH
	DB	0deH
	DB	0bbH
	DB	0deH
	DB	0dbH
	DB	0deH
	DB	0bbH
	DB	0deH
	DB	0bbH
	DB	0deH
	DB	0bbH
	DB	0deH
	DB	0bbH
	DB	0deH
	DB	0bbH
	DB	0deH
	DB	0bbH
	DB	0deH
	DB	0bbH
	DB	0deH
	DB	0bbH
	DB	0deH
	DB	0bbH
	DB	0deH
	DB	0bbH
	DB	0deH
	DB	0bbH
	DB	0deH
	DB	0bbH
	DB	0deH
	DB	0bbH
	DB	0deH
	DB	0bbH
	DB	0deH
	DB	0bbH
	DB	0deH
	DB	0bbH
	DB	0deH
	DB	0bbH
	DB	0deH
	DB	0bbH
	DB	0deH
	DB	0bbH
	DB	0deH
	DB	0bbH
	DB	0deH
	DB	0bbH
	DB	0deH
	DB	0dbH
	DB	0deH
	DB	0bbH
	DB	0deH
	DB	0bbH
	DB	0deH
	DB	0dbH
	DB	0deH
	DB	0bbH
	DB	0deH
	DB	0bbH
	DB	0deH
	DB	0dbH
	DB	0deH
	DB	0bbH
	DB	0deH
	DB	0bbH
	DB	0deH
	DB	0dbH
	DB	0deH
	DB	0bbH
	DB	0deH
	DB	0bbH
	DB	0deH
	DB	0dbH
	DB	0deH
	DB	0bbH
	DB	0deH
	DB	05dH
	DB	0efH
	DB	0a7H
	DB	031H
	DB	0c8H
	DB	031H
	DB	08H
	DB	03aH
	DB	0abH
	DB	052H
	DB	08bH
	DB	04aH
	DB	0c7H
	DB	031H
	DB	0c7H
	DB	031H
	DB	0a7H
	DB	031H
	DB	05dH
	DB	0efH
	DB	0bbH
	DB	0d6H
	DB	0baH
	DB	0deH
	DB	0baH
	DB	0d6H
	DB	0baH
	DB	0d6H
	DB	0baH
	DB	0deH
	DB	0baH
	DB	0d6H
	DB	0baH
	DB	0d6H
	DB	0bbH
	DB	0deH
	DB	0baH
	DB	0d6H
	DB	0baH
	DB	0d6H
	DB	0bbH
	DB	0deH
	DB	0baH
	DB	0d6H
	DB	0baH
	DB	0d6H
	DB	0bbH
	DB	0deH
	DB	0baH
	DB	0d6H
	DB	0baH
	DB	0d6H
	DB	0baH
	DB	0deH
	DB	0baH
	DB	0d6H
	DB	0baH
	DB	0d6H
	DB	0baH
	DB	0deH
	DB	0baH
	DB	0d6H
	DB	0baH
	DB	0d6H
	DB	0baH
	DB	0deH
	DB	0baH
	DB	0d6H
	DB	0baH
	DB	0d6H
	DB	0baH
	DB	0d6H
	DB	0baH
	DB	0deH
	DB	0baH
	DB	0d6H
	DB	0baH
	DB	0d6H
	DB	0baH
	DB	0d6H
	DB	0baH
	DB	0deH
	DB	0baH
	DB	0d6H
	DB	0baH
	DB	0d6H
	DB	0baH
	DB	0d6H
	DB	0bbH
	DB	0deH
	DB	0baH
	DB	0d6H
	DB	0baH
	DB	0d6H
	DB	0bbH
	DB	0deH
	DB	0baH
	DB	0d6H
	DB	0baH
	DB	0d6H
	DB	0bbH
	DB	0deH
	DB	0baH
	DB	0d6H
	DB	0baH
	DB	0d6H
	DB	0bbH
	DB	0d6H
	DB	0baH
	DB	0d6H
	DB	0bbH
	DB	0d6H
	DB	0baH
	DB	0d6H
	DB	0baH
	DB	0d6H
	DB	0bbH
	DB	0d6H
	DB	0baH
	DB	0deH
	DB	0bbH
	DB	0deH
	DB	0fbH
	DB	0deH
	DB	02eH
	DB	0cdH
	DB	041H
	DB	0d4H
	DB	0a1H
	DB	0e4H
	DB	0c2H
	DB	0e4H
	DB	0e1H
	DB	0ecH
	DB	0c1H
	DB	0ecH
	DB	0e1H
	DB	0ecH
	DB	0e2H
	DB	0e4H
	DB	0c1H
	DB	0ecH
	DB	0e1H
	DB	0ecH
	DB	0e1H
	DB	0ecH
	DB	0c1H
	DB	0ecH
	DB	0e1H
	DB	0ecH
	DB	0c1H
	DB	0ecH
	DB	0c2H
	DB	0e4H
	DB	0c1H
	DB	0e4H
	DB	041H
	DB	0d4H
	DB	0dH
	DB	0cdH
	DB	0fbH
	DB	0deH
	DB	0bbH
	DB	0deH
	DB	0baH
	DB	0d6H
	DB	0baH
	DB	0deH
	DB	0baH
	DB	0d6H
	DB	0baH
	DB	0d6H
	DB	0baH
	DB	0d6H
	DB	0baH
	DB	0d6H
	DB	0bbH
	DB	0d6H
	DB	0baH
	DB	0deH
	DB	0baH
	DB	0d6H
	DB	0bbH
	DB	0d6H
	DB	0baH
	DB	0deH
	DB	0baH
	DB	0d6H
	DB	0bbH
	DB	0d6H
	DB	0baH
	DB	0deH
	DB	0baH
	DB	0d6H
	DB	0bbH
	DB	0d6H
	DB	0baH
	DB	0deH
	DB	0baH
	DB	0d6H
	DB	0bbH
	DB	0d6H
	DB	0baH
	DB	0deH
	DB	0baH
	DB	0d6H
	DB	0bbH
	DB	0d6H
	DB	0baH
	DB	0deH
	DB	0baH
	DB	0d6H
	DB	0baH
	DB	0d6H
	DB	0bbH
	DB	0deH
	DB	0baH
	DB	0d6H
	DB	0baH
	DB	0d6H
	DB	0bbH
	DB	0deH
	DB	0baH
	DB	0d6H
	DB	0baH
	DB	0d6H
	DB	0bbH
	DB	0deH
	DB	0baH
	DB	0d6H
	DB	0baH
	DB	0d6H
	DB	0bbH
	DB	0deH
	DB	0baH
	DB	0d6H
	DB	0baH
	DB	0d6H
	DB	0bbH
	DB	0deH
	DB	0baH
	DB	0d6H
	DB	0baH
	DB	0d6H
	DB	0bbH
	DB	0d6H
	DB	0baH
	DB	0deH
	DB	0baH
	DB	0d6H
	DB	0bbH
	DB	0d6H
	DB	0baH
	DB	0d6H
	DB	0baH
	DB	0d6H
	DB	0bbH
	DB	0deH
	DB	0bbH
	DB	0d6H
	DB	05dH
	DB	0efH
	DB	0c7H
	DB	031H
	DB	0c7H
	DB	031H
	DB	0e8H
	DB	031H
	DB	0abH
	DB	04aH
	DB	06aH
	DB	042H
	DB	0a7H
	DB	031H
	DB	0a7H
	DB	029H
	DB	0e7H
	DB	031H
	DB	05dH
	DB	0efH
	DB	0baH
	DB	0d6H
	DB	0bbH
	DB	0deH
	DB	0bbH
	DB	0d6H
	DB	0baH
	DB	0d6H
	DB	0bbH
	DB	0deH
	DB	0bbH
	DB	0d6H
	DB	0baH
	DB	0d6H
	DB	0baH
	DB	0deH
	DB	0bbH
	DB	0d6H
	DB	0baH
	DB	0d6H
	DB	0baH
	DB	0deH
	DB	0bbH
	DB	0d6H
	DB	0baH
	DB	0d6H
	DB	0baH
	DB	0deH
	DB	0bbH
	DB	0d6H
	DB	0bbH
	DB	0d6H
	DB	0bbH
	DB	0deH
	DB	0bbH
	DB	0d6H
	DB	0baH
	DB	0d6H
	DB	0bbH
	DB	0deH
	DB	0bbH
	DB	0d6H
	DB	0bbH
	DB	0d6H
	DB	0baH
	DB	0deH
	DB	0bbH
	DB	0d6H
	DB	0bbH
	DB	0deH
	DB	0baH
	DB	0d6H
	DB	0bbH
	DB	0d6H
	DB	0bbH
	DB	0deH
	DB	0bbH
	DB	0d6H
	DB	0baH
	DB	0deH
	DB	0bbH
	DB	0d6H
	DB	0bbH
	DB	0deH
	DB	0baH
	DB	0d6H
	DB	0bbH
	DB	0deH
	DB	0baH
	DB	0d6H
	DB	0baH
	DB	0d6H
	DB	0bbH
	DB	0deH
	DB	0baH
	DB	0d6H
	DB	0baH
	DB	0d6H
	DB	0bbH
	DB	0deH
	DB	0baH
	DB	0d6H
	DB	0bbH
	DB	0deH
	DB	0baH
	DB	0deH
	DB	0baH
	DB	0d6H
	DB	0bbH
	DB	0deH
	DB	0baH
	DB	0deH
	DB	0bbH
	DB	0deH
	DB	0baH
	DB	0d6H
	DB	0baH
	DB	0d6H
	DB	0bbH
	DB	0d6H
	DB	0baH
	DB	0deH
	DB	0baH
	DB	0d6H
	DB	0dbH
	DB	0deH
	DB	087H
	DB	0ccH
	DB	081H
	DB	0d4H
	DB	0c1H
	DB	0e4H
	DB	0e1H
	DB	0ecH
	DB	0c1H
	DB	0ecH
	DB	0e1H
	DB	0ecH
	DB	0e1H
	DB	0ecH
	DB	0c1H
	DB	0ecH
	DB	0e1H
	DB	0ecH
	DB	0e2H
	DB	0ecH
	DB	0c1H
	DB	0ecH
	DB	0e1H
	DB	0ecH
	DB	0e1H
	DB	0e4H
	DB	0c1H
	DB	0e4H
	DB	081H
	DB	0dcH
	DB	087H
	DB	0c4H
	DB	0dbH
	DB	0deH
	DB	0bbH
	DB	0deH
	DB	0baH
	DB	0d6H
	DB	0bbH
	DB	0deH
	DB	0bbH
	DB	0d6H
	DB	0baH
	DB	0deH
	DB	0bbH
	DB	0deH
	DB	0bbH
	DB	0d6H
	DB	0baH
	DB	0deH
	DB	0baH
	DB	0deH
	DB	0bbH
	DB	0d6H
	DB	0baH
	DB	0d6H
	DB	0baH
	DB	0deH
	DB	0bbH
	DB	0d6H
	DB	0baH
	DB	0d6H
	DB	0bbH
	DB	0deH
	DB	0baH
	DB	0d6H
	DB	0baH
	DB	0deH
	DB	0bbH
	DB	0d6H
	DB	0baH
	DB	0deH
	DB	0baH
	DB	0d6H
	DB	0bbH
	DB	0d6H
	DB	0baH
	DB	0deH
	DB	0baH
	DB	0d6H
	DB	0bbH
	DB	0d6H
	DB	0baH
	DB	0deH
	DB	0bbH
	DB	0d6H
	DB	0baH
	DB	0d6H
	DB	0baH
	DB	0deH
	DB	0bbH
	DB	0d6H
	DB	0baH
	DB	0d6H
	DB	0baH
	DB	0deH
	DB	0bbH
	DB	0d6H
	DB	0baH
	DB	0deH
	DB	0baH
	DB	0d6H
	DB	0bbH
	DB	0d6H
	DB	0baH
	DB	0deH
	DB	0baH
	DB	0d6H
	DB	0bbH
	DB	0d6H
	DB	0baH
	DB	0deH
	DB	0baH
	DB	0d6H
	DB	0bbH
	DB	0deH
	DB	0baH
	DB	0d6H
	DB	0baH
	DB	0deH
	DB	0bbH
	DB	0d6H
	DB	0baH
	DB	0deH
	DB	0baH
	DB	0deH
	DB	0bbH
	DB	0d6H
	DB	0baH
	DB	0deH
	DB	0baH
	DB	0d6H
	DB	0baH
	DB	0d6H
	DB	05dH
	DB	0efH
	DB	0e8H
	DB	031H
	DB	0c8H
	DB	031H
	DB	0c7H
	DB	031H
	DB	0abH
	DB	04aH
	DB	06aH
	DB	042H
	DB	086H
	DB	029H
	DB	0c8H
	DB	031H
	DB	0e8H
	DB	039H
	DB	05dH
	DB	0efH
	DB	0baH
	DB	0d6H
	DB	0baH
	DB	0d6H
	DB	0bbH
	DB	0deH
	DB	0baH
	DB	0d6H
	DB	0baH
	DB	0deH
	DB	0bbH
	DB	0d6H
	DB	0baH
	DB	0deH
	DB	0baH
	DB	0d6H
	DB	0bbH
	DB	0deH
	DB	0baH
	DB	0d6H
	DB	0baH
	DB	0deH
	DB	0bbH
	DB	0d6H
	DB	0baH
	DB	0d6H
	DB	0baH
	DB	0deH
	DB	0baH
	DB	0d6H
	DB	0baH
	DB	0deH
	DB	0baH
	DB	0d6H
	DB	0baH
	DB	0d6H
	DB	0bbH
	DB	0deH
	DB	0baH
	DB	0d6H
	DB	0baH
	DB	0d6H
	DB	0bbH
	DB	0deH
	DB	0baH
	DB	0d6H
	DB	0baH
	DB	0d6H
	DB	0bbH
	DB	0deH
	DB	0baH
	DB	0deH
	DB	0baH
	DB	0d6H
	DB	0bbH
	DB	0d6H
	DB	0baH
	DB	0deH
	DB	0baH
	DB	0d6H
	DB	0bbH
	DB	0d6H
	DB	0baH
	DB	0d6H
	DB	0baH
	DB	0deH
	DB	0bbH
	DB	0d6H
	DB	0baH
	DB	0d6H
	DB	0baH
	DB	0deH
	DB	0bbH
	DB	0d6H
	DB	0baH
	DB	0d6H
	DB	0bbH
	DB	0deH
	DB	0baH
	DB	0d6H
	DB	0baH
	DB	0d6H
	DB	0bbH
	DB	0d6H
	DB	0baH
	DB	0deH
	DB	0baH
	DB	0d6H
	DB	0bbH
	DB	0d6H
	DB	0baH
	DB	0deH
	DB	0baH
	DB	0d6H
	DB	0bbH
	DB	0deH
	DB	0baH
	DB	0deH
	DB	0baH
	DB	0d6H
	DB	0bbH
	DB	0d6H
	DB	0baH
	DB	0deH
	DB	0bbH
	DB	0deH
	DB	099H
	DB	0deH
	DB	043H
	DB	0ccH
	DB	081H
	DB	0dcH
	DB	0c1H
	DB	0e4H
	DB	0c1H
	DB	0ecH
	DB	0c2H
	DB	0ecH
	DB	0c1H
	DB	0ecH
	DB	0c1H
	DB	0ecH
	DB	0c1H
	DB	0e4H
	DB	0c1H
	DB	0ecH
	DB	0e1H
	DB	0ecH
	DB	0c1H
	DB	0e4H
	DB	0c2H
	DB	0e4H
	DB	081H
	DB	0dcH
	DB	043H
	DB	0ccH
	DB	078H
	DB	0deH
	DB	0bbH
	DB	0deH
	DB	0baH
	DB	0d6H
	DB	0baH
	DB	0d6H
	DB	0baH
	DB	0d6H
	DB	0bbH
	DB	0d6H
	DB	0baH
	DB	0d6H
	DB	0baH
	DB	0deH
	DB	0bbH
	DB	0d6H
	DB	0baH
	DB	0d6H
	DB	0baH
	DB	0deH
	DB	0bbH
	DB	0d6H
	DB	0baH
	DB	0d6H
	DB	0bbH
	DB	0deH
	DB	0baH
	DB	0d6H
	DB	0baH
	DB	0deH
	DB	0bbH
	DB	0d6H
	DB	0baH
	DB	0d6H
	DB	0baH
	DB	0deH
	DB	0bbH
	DB	0d6H
	DB	0baH
	DB	0d6H
	DB	0baH
	DB	0deH
	DB	0bbH
	DB	0d6H
	DB	0baH
	DB	0deH
	DB	0bbH
	DB	0d6H
	DB	0baH
	DB	0deH
	DB	0baH
	DB	0d6H
	DB	0bbH
	DB	0deH
	DB	0baH
	DB	0d6H
	DB	0baH
	DB	0deH
	DB	0bbH
	DB	0d6H
	DB	0baH
	DB	0deH
	DB	0baH
	DB	0d6H
	DB	0bbH
	DB	0d6H
	DB	0baH
	DB	0deH
	DB	0baH
	DB	0d6H
	DB	0bbH
	DB	0deH
	DB	0baH
	DB	0d6H
	DB	0bbH
	DB	0deH
	DB	0baH
	DB	0d6H
	DB	0bbH
	DB	0d6H
	DB	0baH
	DB	0deH
	DB	0bbH
	DB	0d6H
	DB	0baH
	DB	0d6H
	DB	0baH
	DB	0deH
	DB	0bbH
	DB	0d6H
	DB	0baH
	DB	0d6H
	DB	0baH
	DB	0d6H
	DB	0bbH
	DB	0deH
	DB	0baH
	DB	0d6H
	DB	0baH
	DB	0d6H
	DB	0bbH
	DB	0deH
	DB	05dH
	DB	0efH
	DB	0c7H
	DB	031H
	DB	0c7H
	DB	031H
	DB	0c7H
	DB	031H
	DB	06aH
	DB	042H
	DB	06aH
	DB	04aH
	DB	0a7H
	DB	029H
	DB	0a7H
	DB	031H
	DB	0e8H
	DB	039H
	DB	03dH
	DB	0efH
	DB	09aH
	DB	0d6H
	DB	0baH
	DB	0d6H
	DB	0baH
	DB	0d6H
	DB	09aH
	DB	0d6H
	DB	0baH
	DB	0d6H
	DB	0baH
	DB	0d6H
	DB	09aH
	DB	0d6H
	DB	0baH
	DB	0d6H
	DB	0baH
	DB	0d6H
	DB	09aH
	DB	0d6H
	DB	0bbH
	DB	0d6H
	DB	0baH
	DB	0d6H
	DB	09aH
	DB	0d6H
	DB	0bbH
	DB	0d6H
	DB	0baH
	DB	0d6H
	DB	09aH
	DB	0d6H
	DB	0baH
	DB	0d6H
	DB	0baH
	DB	0d6H
	DB	09aH
	DB	0deH
	DB	0baH
	DB	0d6H
	DB	0baH
	DB	0d6H
	DB	09aH
	DB	0d6H
	DB	0baH
	DB	0d6H
	DB	0baH
	DB	0d6H
	DB	0baH
	DB	0d6H
	DB	09aH
	DB	0d6H
	DB	0baH
	DB	0d6H
	DB	0baH
	DB	0d6H
	DB	09aH
	DB	0d6H
	DB	0baH
	DB	0d6H
	DB	0baH
	DB	0d6H
	DB	0baH
	DB	0d6H
	DB	0baH
	DB	0d6H
	DB	0baH
	DB	0d6H
	DB	0baH
	DB	0d6H
	DB	0baH
	DB	0deH
	DB	0baH
	DB	0d6H
	DB	0baH
	DB	0d6H
	DB	0baH
	DB	0d6H
	DB	0baH
	DB	0d6H
	DB	0baH
	DB	0d6H
	DB	0baH
	DB	0d6H
	DB	0baH
	DB	0d6H
	DB	09aH
	DB	0d6H
	DB	0baH
	DB	0d6H
	DB	0baH
	DB	0d6H
	DB	09aH
	DB	0d6H
	DB	0bbH
	DB	0d6H
	DB	0baH
	DB	0d6H
	DB	09aH
	DB	0d6H
	DB	0baH
	DB	0d6H
	DB	09aH
	DB	0d6H
	DB	0baH
	DB	0d6H
	DB	0bbH
	DB	0deH
	DB	0f4H
	DB	0d5H
	DB	041H
	DB	0ccH
	DB	0a1H
	DB	0dcH
	DB	0c1H
	DB	0e4H
	DB	0e1H
	DB	0ecH
	DB	0e1H
	DB	0ecH
	DB	0e1H
	DB	0ecH
	DB	0e1H
	DB	0ecH
	DB	0c1H
	DB	0ecH
	DB	0e1H
	DB	0ecH
	DB	0c2H
	DB	0ecH
	DB	0a1H
	DB	0e4H
	DB	041H
	DB	0ccH
	DB	0d3H
	DB	0d5H
	DB	0bbH
	DB	0deH
	DB	0baH
	DB	0d6H
	DB	09aH
	DB	0d6H
	DB	09aH
	DB	0d6H
	DB	0baH
	DB	0deH
	DB	09aH
	DB	0d6H
	DB	0baH
	DB	0d6H
	DB	0baH
	DB	0d6H
	DB	09aH
	DB	0d6H
	DB	0baH
	DB	0d6H
	DB	0baH
	DB	0d6H
	DB	09aH
	DB	0d6H
	DB	0baH
	DB	0d6H
	DB	0baH
	DB	0d6H
	DB	09aH
	DB	0d6H
	DB	0baH
	DB	0d6H
	DB	0baH
	DB	0d6H
	DB	0baH
	DB	0d6H
	DB	0baH
	DB	0d6H
	DB	0baH
	DB	0d6H
	DB	0bbH
	DB	0d6H
	DB	0baH
	DB	0d6H
	DB	0baH
	DB	0d6H
	DB	0baH
	DB	0d6H
	DB	0baH
	DB	0d6H
	DB	0baH
	DB	0d6H
	DB	0baH
	DB	0d6H
	DB	0baH
	DB	0d6H
	DB	0baH
	DB	0d6H
	DB	0bbH
	DB	0d6H
	DB	0baH
	DB	0d6H
	DB	0baH
	DB	0d6H
	DB	0baH
	DB	0d6H
	DB	0baH
	DB	0d6H
	DB	0bbH
	DB	0d6H
	DB	0baH
	DB	0d6H
	DB	0baH
	DB	0d6H
	DB	09aH
	DB	0d6H
	DB	0baH
	DB	0d6H
	DB	0baH
	DB	0d6H
	DB	09aH
	DB	0d6H
	DB	0baH
	DB	0d6H
	DB	0baH
	DB	0d6H
	DB	09aH
	DB	0d6H
	DB	0baH
	DB	0d6H
	DB	0bbH
	DB	0d6H
	DB	09aH
	DB	0d6H
	DB	0baH
	DB	0d6H
	DB	0baH
	DB	0d6H
	DB	09aH
	DB	0d6H
	DB	0baH
	DB	0d6H
	DB	09aH
	DB	0d6H
	DB	03dH
	DB	0efH
	DB	0c7H
	DB	031H
	DB	0c7H
	DB	031H
	DB	0c8H
	DB	031H
	DB	08bH
	DB	04aH
	DB	08aH
	DB	04aH
	DB	0c7H
	DB	031H
	DB	0a7H
	DB	029H
	DB	0c7H
	DB	031H
	DB	05dH
	DB	0efH
	DB	09aH
	DB	0d6H
	DB	09aH
	DB	0d6H
	DB	09aH
	DB	0d6H
	DB	09aH
	DB	0d6H
	DB	09aH
	DB	0d6H
	DB	09aH
	DB	0d6H
	DB	09bH
	DB	0d6H
	DB	09aH
	DB	0d6H
	DB	09aH
	DB	0d6H
	DB	09aH
	DB	0d6H
	DB	09aH
	DB	0d6H
	DB	09aH
	DB	0deH
	DB	09aH
	DB	0d6H
	DB	09aH
	DB	0d6H
	DB	09aH
	DB	0d6H
	DB	09aH
	DB	0d6H
	DB	09bH
	DB	0d6H
	DB	09aH
	DB	0d6H
	DB	09aH
	DB	0d6H
	DB	09aH
	DB	0d6H
	DB	09aH
	DB	0d6H
	DB	09aH
	DB	0d6H
	DB	09aH
	DB	0d6H
	DB	09aH
	DB	0d6H
	DB	09aH
	DB	0d6H
	DB	09aH
	DB	0d6H
	DB	09aH
	DB	0d6H
	DB	09aH
	DB	0d6H
	DB	09aH
	DB	0d6H
	DB	09aH
	DB	0deH
	DB	09aH
	DB	0d6H
	DB	09aH
	DB	0d6H
	DB	09aH
	DB	0d6H
	DB	09bH
	DB	0d6H
	DB	09aH
	DB	0d6H
	DB	09aH
	DB	0d6H
	DB	09aH
	DB	0d6H
	DB	09aH
	DB	0d6H
	DB	09aH
	DB	0d6H
	DB	09aH
	DB	0deH
	DB	09bH
	DB	0d6H
	DB	09aH
	DB	0d6H
	DB	09aH
	DB	0d6H
	DB	09aH
	DB	0d6H
	DB	09aH
	DB	0d6H
	DB	09aH
	DB	0d6H
	DB	09aH
	DB	0d6H
	DB	09aH
	DB	0d6H
	DB	09aH
	DB	0d6H
	DB	09aH
	DB	0d6H
	DB	09aH
	DB	0d6H
	DB	09aH
	DB	0d6H
	DB	09aH
	DB	0d6H
	DB	09aH
	DB	0d6H
	DB	0dbH
	DB	0deH
	DB	02eH
	DB	0cdH
	DB	041H
	DB	0d4H
	DB	0a1H
	DB	0e4H
	DB	0c1H
	DB	0e4H
	DB	0e1H
	DB	0ecH
	DB	0c2H
	DB	0ecH
	DB	0e1H
	DB	0ecH
	DB	0e1H
	DB	0ecH
	DB	0c2H
	DB	0e4H
	DB	0a1H
	DB	0e4H
	DB	061H
	DB	0d4H
	DB	0dH
	DB	0cdH
	DB	0dbH
	DB	0deH
	DB	09aH
	DB	0d6H
	DB	09aH
	DB	0d6H
	DB	09aH
	DB	0d6H
	DB	09aH
	DB	0d6H
	DB	09aH
	DB	0d6H
	DB	09aH
	DB	0d6H
	DB	09aH
	DB	0d6H
	DB	09aH
	DB	0d6H
	DB	09aH
	DB	0d6H
	DB	09aH
	DB	0d6H
	DB	09bH
	DB	0d6H
	DB	09aH
	DB	0d6H
	DB	09aH
	DB	0d6H
	DB	09aH
	DB	0d6H
	DB	09aH
	DB	0d6H
	DB	09aH
	DB	0d6H
	DB	09aH
	DB	0d6H
	DB	09bH
	DB	0d6H
	DB	09aH
	DB	0d6H
	DB	09aH
	DB	0d6H
	DB	09aH
	DB	0deH
	DB	09aH
	DB	0d6H
	DB	09aH
	DB	0d6H
	DB	09aH
	DB	0d6H
	DB	09aH
	DB	0d6H
	DB	09aH
	DB	0d6H
	DB	09aH
	DB	0d6H
	DB	09aH
	DB	0d6H
	DB	09aH
	DB	0d6H
	DB	09aH
	DB	0d6H
	DB	09aH
	DB	0d6H
	DB	09aH
	DB	0d6H
	DB	09aH
	DB	0d6H
	DB	09aH
	DB	0d6H
	DB	09aH
	DB	0d6H
	DB	09aH
	DB	0d6H
	DB	09aH
	DB	0d6H
	DB	09aH
	DB	0d6H
	DB	09aH
	DB	0d6H
	DB	09aH
	DB	0d6H
	DB	09aH
	DB	0deH
	DB	09aH
	DB	0d6H
	DB	09aH
	DB	0d6H
	DB	09aH
	DB	0d6H
	DB	09aH
	DB	0d6H
	DB	09aH
	DB	0d6H
	DB	09aH
	DB	0d6H
	DB	09aH
	DB	0d6H
	DB	09aH
	DB	0d6H
	DB	09bH
	DB	0d6H
	DB	09aH
	DB	0d6H
	DB	09aH
	DB	0d6H
	DB	05dH
	DB	0efH
	DB	0a7H
	DB	031H
	DB	0c7H
	DB	031H
	DB	0c8H
	DB	031H
	DB	0abH
	DB	052H
	DB	08aH
	DB	04aH
	DB	0a7H
	DB	031H
	DB	0a7H
	DB	031H
	DB	0a7H
	DB	031H
	DB	03dH
	DB	0e7H
	DB	09aH
	DB	0d6H
	DB	09aH
	DB	0d6H
	DB	09aH
	DB	0d6H
	DB	09aH
	DB	0d6H
	DB	09aH
	DB	0d6H
	DB	09aH
	DB	0d6H
	DB	09aH
	DB	0d6H
	DB	09aH
	DB	0d6H
	DB	09aH
	DB	0d6H
	DB	09aH
	DB	0d6H
	DB	09aH
	DB	0d6H
	DB	09aH
	DB	0d6H
	DB	09aH
	DB	0d6H
	DB	09aH
	DB	0d6H
	DB	09aH
	DB	0d6H
	DB	09aH
	DB	0d6H
	DB	09aH
	DB	0d6H
	DB	09aH
	DB	0d6H
	DB	09aH
	DB	0d6H
	DB	09aH
	DB	0d6H
	DB	09aH
	DB	0d6H
	DB	09aH
	DB	0d6H
	DB	09aH
	DB	0d6H
	DB	09aH
	DB	0d6H
	DB	09aH
	DB	0d6H
	DB	09aH
	DB	0d6H
	DB	09aH
	DB	0d6H
	DB	09aH
	DB	0d6H
	DB	09aH
	DB	0d6H
	DB	09aH
	DB	0d6H
	DB	09aH
	DB	0d6H
	DB	09aH
	DB	0d6H
	DB	09aH
	DB	0d6H
	DB	09aH
	DB	0d6H
	DB	09aH
	DB	0d6H
	DB	09aH
	DB	0d6H
	DB	09aH
	DB	0d6H
	DB	09aH
	DB	0d6H
	DB	09aH
	DB	0d6H
	DB	09aH
	DB	0d6H
	DB	09aH
	DB	0d6H
	DB	09aH
	DB	0d6H
	DB	09aH
	DB	0d6H
	DB	09aH
	DB	0d6H
	DB	09aH
	DB	0d6H
	DB	09aH
	DB	0d6H
	DB	09aH
	DB	0d6H
	DB	09aH
	DB	0d6H
	DB	09aH
	DB	0d6H
	DB	09aH
	DB	0d6H
	DB	09aH
	DB	0d6H
	DB	09aH
	DB	0d6H
	DB	09aH
	DB	0d6H
	DB	09aH
	DB	0d6H
	DB	09aH
	DB	0d6H
	DB	0baH
	DB	0deH
	DB	088H
	DB	0ccH
	DB	081H
	DB	0d4H
	DB	0c1H
	DB	0e4H
	DB	0c1H
	DB	0ecH
	DB	0c1H
	DB	0ecH
	DB	0c1H
	DB	0e4H
	DB	0e1H
	DB	0ecH
	DB	0c1H
	DB	0e4H
	DB	061H
	DB	0d4H
	DB	087H
	DB	0c4H
	DB	0baH
	DB	0deH
	DB	09aH
	DB	0d6H
	DB	09aH
	DB	0d6H
	DB	09aH
	DB	0d6H
	DB	09aH
	DB	0d6H
	DB	09aH
	DB	0d6H
	DB	09aH
	DB	0d6H
	DB	09aH
	DB	0d6H
	DB	09aH
	DB	0d6H
	DB	09aH
	DB	0d6H
	DB	09aH
	DB	0d6H
	DB	09aH
	DB	0d6H
	DB	09aH
	DB	0d6H
	DB	09aH
	DB	0d6H
	DB	09aH
	DB	0d6H
	DB	09aH
	DB	0d6H
	DB	09aH
	DB	0d6H
	DB	09aH
	DB	0d6H
	DB	09aH
	DB	0d6H
	DB	09aH
	DB	0d6H
	DB	09aH
	DB	0d6H
	DB	09aH
	DB	0d6H
	DB	09aH
	DB	0d6H
	DB	09aH
	DB	0d6H
	DB	09aH
	DB	0d6H
	DB	09aH
	DB	0d6H
	DB	09aH
	DB	0d6H
	DB	09aH
	DB	0d6H
	DB	09aH
	DB	0d6H
	DB	09aH
	DB	0d6H
	DB	09aH
	DB	0d6H
	DB	09aH
	DB	0d6H
	DB	09aH
	DB	0d6H
	DB	09aH
	DB	0d6H
	DB	09aH
	DB	0d6H
	DB	09aH
	DB	0d6H
	DB	09aH
	DB	0d6H
	DB	09aH
	DB	0d6H
	DB	09aH
	DB	0d6H
	DB	09aH
	DB	0d6H
	DB	09aH
	DB	0d6H
	DB	09aH
	DB	0d6H
	DB	09aH
	DB	0d6H
	DB	09aH
	DB	0d6H
	DB	09aH
	DB	0d6H
	DB	09aH
	DB	0d6H
	DB	09aH
	DB	0d6H
	DB	09aH
	DB	0d6H
	DB	09aH
	DB	0d6H
	DB	09aH
	DB	0d6H
	DB	09aH
	DB	0d6H
	DB	09aH
	DB	0d6H
	DB	09aH
	DB	0d6H
	DB	09aH
	DB	0d6H
	DB	03dH
	DB	0efH
	DB	0a7H
	DB	029H
	DB	0a7H
	DB	031H
	DB	0e8H
	DB	031H
	DB	0abH
	DB	04aH
	DB	04aH
	DB	042H
	DB	0c7H
	DB	031H
	DB	0c7H
	DB	031H
	DB	0c8H
	DB	031H
	DB	03cH
	DB	0efH
	DB	09aH
	DB	0d6H
	DB	09aH
	DB	0d6H
	DB	09aH
	DB	0d6H
	DB	09aH
	DB	0d6H
	DB	09aH
	DB	0d6H
	DB	09aH
	DB	0d6H
	DB	09aH
	DB	0d6H
	DB	09aH
	DB	0d6H
	DB	09aH
	DB	0d6H
	DB	09aH
	DB	0d6H
	DB	09aH
	DB	0d6H
	DB	09aH
	DB	0d6H
	DB	09aH
	DB	0d6H
	DB	09aH
	DB	0d6H
	DB	09aH
	DB	0d6H
	DB	09aH
	DB	0d6H
	DB	09aH
	DB	0d6H
	DB	09aH
	DB	0d6H
	DB	09aH
	DB	0d6H
	DB	09aH
	DB	0d6H
	DB	09aH
	DB	0d6H
	DB	09aH
	DB	0d6H
	DB	09aH
	DB	0d6H
	DB	09aH
	DB	0d6H
	DB	09aH
	DB	0d6H
	DB	09aH
	DB	0d6H
	DB	09aH
	DB	0d6H
	DB	09aH
	DB	0d6H
	DB	09aH
	DB	0d6H
	DB	09aH
	DB	0d6H
	DB	09aH
	DB	0d6H
	DB	09aH
	DB	0d6H
	DB	09aH
	DB	0d6H
	DB	09aH
	DB	0d6H
	DB	09aH
	DB	0d6H
	DB	09aH
	DB	0d6H
	DB	09aH
	DB	0d6H
	DB	09aH
	DB	0d6H
	DB	09aH
	DB	0d6H
	DB	09aH
	DB	0d6H
	DB	09aH
	DB	0d6H
	DB	09aH
	DB	0d6H
	DB	09aH
	DB	0d6H
	DB	09aH
	DB	0d6H
	DB	09aH
	DB	0d6H
	DB	09aH
	DB	0d6H
	DB	09aH
	DB	0d6H
	DB	09aH
	DB	0d6H
	DB	09aH
	DB	0d6H
	DB	09aH
	DB	0d6H
	DB	09aH
	DB	0d6H
	DB	09aH
	DB	0d6H
	DB	09aH
	DB	0d6H
	DB	09aH
	DB	0d6H
	DB	09aH
	DB	0d6H
	DB	09aH
	DB	0d6H
	DB	078H
	DB	0deH
	DB	043H
	DB	0ccH
	DB	081H
	DB	0dcH
	DB	0c2H
	DB	0e4H
	DB	0e1H
	DB	0ecH
	DB	0c1H
	DB	0ecH
	DB	0c2H
	DB	0e4H
	DB	081H
	DB	0dcH
	DB	043H
	DB	0ccH
	DB	078H
	DB	0deH
	DB	09aH
	DB	0d6H
	DB	09aH
	DB	0d6H
	DB	09aH
	DB	0d6H
	DB	09aH
	DB	0d6H
	DB	09aH
	DB	0d6H
	DB	09aH
	DB	0d6H
	DB	09aH
	DB	0d6H
	DB	09aH
	DB	0d6H
	DB	09aH
	DB	0d6H
	DB	09aH
	DB	0d6H
	DB	09aH
	DB	0d6H
	DB	09aH
	DB	0d6H
	DB	09aH
	DB	0d6H
	DB	09aH
	DB	0d6H
	DB	09aH
	DB	0d6H
	DB	09aH
	DB	0d6H
	DB	09aH
	DB	0d6H
	DB	09aH
	DB	0d6H
	DB	09aH
	DB	0d6H
	DB	09aH
	DB	0d6H
	DB	09aH
	DB	0d6H
	DB	09aH
	DB	0d6H
	DB	09aH
	DB	0d6H
	DB	09aH
	DB	0d6H
	DB	09aH
	DB	0d6H
	DB	09aH
	DB	0d6H
	DB	09aH
	DB	0d6H
	DB	09aH
	DB	0d6H
	DB	09aH
	DB	0d6H
	DB	09aH
	DB	0d6H
	DB	09aH
	DB	0d6H
	DB	09aH
	DB	0d6H
	DB	09aH
	DB	0d6H
	DB	09aH
	DB	0d6H
	DB	09aH
	DB	0d6H
	DB	09aH
	DB	0d6H
	DB	09aH
	DB	0d6H
	DB	09aH
	DB	0d6H
	DB	09aH
	DB	0d6H
	DB	09aH
	DB	0d6H
	DB	09aH
	DB	0d6H
	DB	09aH
	DB	0d6H
	DB	09aH
	DB	0d6H
	DB	09aH
	DB	0d6H
	DB	09aH
	DB	0d6H
	DB	09aH
	DB	0d6H
	DB	09aH
	DB	0d6H
	DB	09aH
	DB	0d6H
	DB	09aH
	DB	0d6H
	DB	09aH
	DB	0d6H
	DB	09aH
	DB	0d6H
	DB	09aH
	DB	0d6H
	DB	09aH
	DB	0d6H
	DB	09aH
	DB	0d6H
	DB	03cH
	DB	0efH
	DB	0e7H
	DB	031H
	DB	0a7H
	DB	031H
	DB	0c7H
	DB	031H
	DB	0abH
	DB	052H
	DB	04aH
	DB	042H
	DB	0a7H
	DB	031H
	DB	0c8H
	DB	031H
	DB	0e8H
	DB	039H
	DB	03cH
	DB	0e7H
	DB	07aH
	DB	0d6H
	DB	07aH
	DB	0d6H
	DB	09aH
	DB	0d6H
	DB	07aH
	DB	0d6H
	DB	07aH
	DB	0d6H
	DB	09aH
	DB	0d6H
	DB	07aH
	DB	0d6H
	DB	07aH
	DB	0d6H
	DB	09aH
	DB	0d6H
	DB	07aH
	DB	0d6H
	DB	07aH
	DB	0d6H
	DB	09aH
	DB	0d6H
	DB	07aH
	DB	0d6H
	DB	07aH
	DB	0d6H
	DB	09aH
	DB	0d6H
	DB	07aH
	DB	0d6H
	DB	07aH
	DB	0d6H
	DB	09aH
	DB	0d6H
	DB	07aH
	DB	0d6H
	DB	07aH
	DB	0d6H
	DB	09aH
	DB	0d6H
	DB	07aH
	DB	0d6H
	DB	07aH
	DB	0d6H
	DB	09aH
	DB	0d6H
	DB	07aH
	DB	0d6H
	DB	07aH
	DB	0d6H
	DB	09aH
	DB	0d6H
	DB	07aH
	DB	0d6H
	DB	07aH
	DB	0d6H
	DB	09aH
	DB	0d6H
	DB	07aH
	DB	0d6H
	DB	07aH
	DB	0d6H
	DB	07aH
	DB	0d6H
	DB	07aH
	DB	0d6H
	DB	07aH
	DB	0d6H
	DB	07aH
	DB	0d6H
	DB	07aH
	DB	0d6H
	DB	07aH
	DB	0d6H
	DB	07aH
	DB	0d6H
	DB	07aH
	DB	0d6H
	DB	07aH
	DB	0d6H
	DB	07aH
	DB	0d6H
	DB	07aH
	DB	0d6H
	DB	09aH
	DB	0d6H
	DB	07aH
	DB	0d6H
	DB	07aH
	DB	0d6H
	DB	09aH
	DB	0d6H
	DB	07aH
	DB	0d6H
	DB	07aH
	DB	0d6H
	DB	09aH
	DB	0d6H
	DB	07aH
	DB	0d6H
	DB	07aH
	DB	0d6H
	DB	09aH
	DB	0d6H
	DB	07aH
	DB	0d6H
	DB	07aH
	DB	0d6H
	DB	09aH
	DB	0d6H
	DB	09aH
	DB	0d6H
	DB	0d4H
	DB	0d5H
	DB	041H
	DB	0ccH
	DB	0a1H
	DB	0dcH
	DB	0c1H
	DB	0e4H
	DB	0c1H
	DB	0ecH
	DB	0a1H
	DB	0e4H
	DB	041H
	DB	0ccH
	DB	0b3H
	DB	0d5H
	DB	09aH
	DB	0d6H
	DB	07aH
	DB	0d6H
	DB	09aH
	DB	0d6H
	DB	07aH
	DB	0d6H
	DB	07aH
	DB	0d6H
	DB	09aH
	DB	0d6H
	DB	09aH
	DB	0d6H
	DB	07aH
	DB	0d6H
	DB	09aH
	DB	0d6H
	DB	07aH
	DB	0d6H
	DB	07aH
	DB	0d6H
	DB	09aH
	DB	0d6H
	DB	07aH
	DB	0d6H
	DB	07aH
	DB	0d6H
	DB	09aH
	DB	0d6H
	DB	07aH
	DB	0d6H
	DB	07aH
	DB	0d6H
	DB	09aH
	DB	0d6H
	DB	07aH
	DB	0d6H
	DB	07aH
	DB	0d6H
	DB	07aH
	DB	0d6H
	DB	07aH
	DB	0d6H
	DB	07aH
	DB	0d6H
	DB	07aH
	DB	0d6H
	DB	07aH
	DB	0d6H
	DB	07aH
	DB	0d6H
	DB	07aH
	DB	0d6H
	DB	07aH
	DB	0d6H
	DB	07aH
	DB	0d6H
	DB	07aH
	DB	0d6H
	DB	07aH
	DB	0d6H
	DB	07aH
	DB	0d6H
	DB	07aH
	DB	0d6H
	DB	07aH
	DB	0d6H
	DB	07aH
	DB	0d6H
	DB	07aH
	DB	0d6H
	DB	07aH
	DB	0d6H
	DB	07aH
	DB	0d6H
	DB	07aH
	DB	0d6H
	DB	07aH
	DB	0d6H
	DB	07aH
	DB	0d6H
	DB	09aH
	DB	0d6H
	DB	07aH
	DB	0d6H
	DB	07aH
	DB	0d6H
	DB	09aH
	DB	0d6H
	DB	07aH
	DB	0d6H
	DB	07aH
	DB	0d6H
	DB	09aH
	DB	0d6H
	DB	07aH
	DB	0d6H
	DB	07aH
	DB	0d6H
	DB	09aH
	DB	0d6H
	DB	07aH
	DB	0d6H
	DB	07aH
	DB	0d6H
	DB	09aH
	DB	0d6H
	DB	07aH
	DB	0d6H
	DB	03dH
	DB	0e7H
	DB	0c7H
	DB	031H
	DB	0e8H
	DB	031H
	DB	0a7H
	DB	031H
	DB	08bH
	DB	04aH
	DB	06aH
	DB	04aH
	DB	0a7H
	DB	031H
	DB	0c7H
	DB	031H
	DB	0e8H
	DB	031H
	DB	03dH
	DB	0e7H
	DB	07aH
	DB	0d6H
	DB	07aH
	DB	0d6H
	DB	079H
	DB	0ceH
	DB	07aH
	DB	0d6H
	DB	07aH
	DB	0d6H
	DB	079H
	DB	0d6H
	DB	07aH
	DB	0d6H
	DB	07aH
	DB	0d6H
	DB	079H
	DB	0d6H
	DB	07aH
	DB	0d6H
	DB	07aH
	DB	0ceH
	DB	079H
	DB	0d6H
	DB	07aH
	DB	0d6H
	DB	07aH
	DB	0d6H
	DB	079H
	DB	0d6H
	DB	07aH
	DB	0d6H
	DB	07aH
	DB	0d6H
	DB	079H
	DB	0d6H
	DB	07aH
	DB	0d6H
	DB	07aH
	DB	0d6H
	DB	07aH
	DB	0d6H
	DB	07aH
	DB	0d6H
	DB	07aH
	DB	0d6H
	DB	07aH
	DB	0d6H
	DB	07aH
	DB	0d6H
	DB	07aH
	DB	0d6H
	DB	07aH
	DB	0d6H
	DB	07aH
	DB	0d6H
	DB	07aH
	DB	0d6H
	DB	07aH
	DB	0d6H
	DB	07aH
	DB	0ceH
	DB	07aH
	DB	0d6H
	DB	07aH
	DB	0d6H
	DB	079H
	DB	0d6H
	DB	07aH
	DB	0d6H
	DB	07aH
	DB	0d6H
	DB	07aH
	DB	0d6H
	DB	07aH
	DB	0ceH
	DB	07aH
	DB	0d6H
	DB	07aH
	DB	0d6H
	DB	079H
	DB	0ceH
	DB	07aH
	DB	0d6H
	DB	07aH
	DB	0d6H
	DB	07aH
	DB	0d6H
	DB	07aH
	DB	0d6H
	DB	07aH
	DB	0d6H
	DB	07aH
	DB	0d6H
	DB	07aH
	DB	0d6H
	DB	07aH
	DB	0d6H
	DB	079H
	DB	0ceH
	DB	07aH
	DB	0d6H
	DB	07aH
	DB	0d6H
	DB	079H
	DB	0ceH
	DB	07aH
	DB	0d6H
	DB	079H
	DB	0ceH
	DB	07aH
	DB	0ceH
	DB	07aH
	DB	0d6H
	DB	0baH
	DB	0d6H
	DB	02eH
	DB	0cdH
	DB	061H
	DB	0d4H
	DB	0a1H
	DB	0e4H
	DB	0a1H
	DB	0e4H
	DB	061H
	DB	0d4H
	DB	0dH
	DB	0cdH
	DB	0baH
	DB	0d6H
	DB	07aH
	DB	0ceH
	DB	079H
	DB	0d6H
	DB	079H
	DB	0ceH
	DB	07aH
	DB	0ceH
	DB	079H
	DB	0d6H
	DB	07aH
	DB	0ceH
	DB	07aH
	DB	0d6H
	DB	079H
	DB	0d6H
	DB	07aH
	DB	0ceH
	DB	07aH
	DB	0d6H
	DB	07aH
	DB	0d6H
	DB	07aH
	DB	0d6H
	DB	07aH
	DB	0d6H
	DB	079H
	DB	0d6H
	DB	07aH
	DB	0d6H
	DB	07aH
	DB	0d6H
	DB	07aH
	DB	0d6H
	DB	07aH
	DB	0d6H
	DB	07aH
	DB	0d6H
	DB	079H
	DB	0d6H
	DB	07aH
	DB	0d6H
	DB	07aH
	DB	0d6H
	DB	079H
	DB	0d6H
	DB	07aH
	DB	0d6H
	DB	07aH
	DB	0ceH
	DB	07aH
	DB	0d6H
	DB	07aH
	DB	0d6H
	DB	07aH
	DB	0d6H
	DB	07aH
	DB	0d6H
	DB	07aH
	DB	0d6H
	DB	07aH
	DB	0d6H
	DB	07aH
	DB	0d6H
	DB	07aH
	DB	0d6H
	DB	07aH
	DB	0d6H
	DB	07aH
	DB	0d6H
	DB	07aH
	DB	0d6H
	DB	07aH
	DB	0d6H
	DB	07aH
	DB	0d6H
	DB	07aH
	DB	0d6H
	DB	07aH
	DB	0d6H
	DB	07aH
	DB	0d6H
	DB	07aH
	DB	0d6H
	DB	07aH
	DB	0d6H
	DB	07aH
	DB	0ceH
	DB	07aH
	DB	0d6H
	DB	07aH
	DB	0d6H
	DB	07aH
	DB	0d6H
	DB	07aH
	DB	0d6H
	DB	07aH
	DB	0d6H
	DB	07aH
	DB	0d6H
	DB	079H
	DB	0d6H
	DB	07aH
	DB	0d6H
	DB	07aH
	DB	0d6H
	DB	079H
	DB	0d6H
	DB	07aH
	DB	0d6H
	DB	03cH
	DB	0e7H
	DB	0e8H
	DB	039H
	DB	0e8H
	DB	039H
	DB	0c8H
	DB	031H
	DB	06aH
	DB	04aH
	DB	06aH
	DB	04aH
	DB	0e7H
	DB	031H
	DB	0a7H
	DB	031H
	DB	0a7H
	DB	031H
	DB	03cH
	DB	0e7H
	DB	079H
	DB	0d6H
	DB	079H
	DB	0ceH
	DB	079H
	DB	0ceH
	DB	07aH
	DB	0ceH
	DB	079H
	DB	0ceH
	DB	079H
	DB	0ceH
	DB	07aH
	DB	0ceH
	DB	079H
	DB	0ceH
	DB	079H
	DB	0ceH
	DB	07aH
	DB	0ceH
	DB	079H
	DB	0d6H
	DB	079H
	DB	0ceH
	DB	07aH
	DB	0ceH
	DB	079H
	DB	0ceH
	DB	079H
	DB	0ceH
	DB	07aH
	DB	0ceH
	DB	079H
	DB	0ceH
	DB	079H
	DB	0ceH
	DB	079H
	DB	0ceH
	DB	079H
	DB	0ceH
	DB	079H
	DB	0ceH
	DB	079H
	DB	0ceH
	DB	079H
	DB	0ceH
	DB	079H
	DB	0ceH
	DB	079H
	DB	0ceH
	DB	079H
	DB	0ceH
	DB	079H
	DB	0ceH
	DB	079H
	DB	0ceH
	DB	079H
	DB	0ceH
	DB	079H
	DB	0ceH
	DB	079H
	DB	0d6H
	DB	079H
	DB	0ceH
	DB	079H
	DB	0ceH
	DB	07aH
	DB	0ceH
	DB	079H
	DB	0ceH
	DB	079H
	DB	0ceH
	DB	079H
	DB	0ceH
	DB	079H
	DB	0d6H
	DB	079H
	DB	0ceH
	DB	079H
	DB	0ceH
	DB	07aH
	DB	0d6H
	DB	079H
	DB	0ceH
	DB	079H
	DB	0ceH
	DB	079H
	DB	0ceH
	DB	079H
	DB	0ceH
	DB	079H
	DB	0ceH
	DB	079H
	DB	0ceH
	DB	079H
	DB	0ceH
	DB	079H
	DB	0ceH
	DB	07aH
	DB	0d6H
	DB	079H
	DB	0ceH
	DB	079H
	DB	0ceH
	DB	07aH
	DB	0d6H
	DB	079H
	DB	0ceH
	DB	079H
	DB	0ceH
	DB	079H
	DB	0d6H
	DB	079H
	DB	0ceH
	DB	079H
	DB	0ceH
	DB	09aH
	DB	0deH
	DB	088H
	DB	0c4H
	DB	061H
	DB	0d4H
	DB	041H
	DB	0d4H
	DB	087H
	DB	0c4H
	DB	0baH
	DB	0deH
	DB	079H
	DB	0ceH
	DB	07aH
	DB	0d6H
	DB	079H
	DB	0ceH
	DB	079H
	DB	0ceH
	DB	07aH
	DB	0d6H
	DB	079H
	DB	0ceH
	DB	079H
	DB	0ceH
	DB	079H
	DB	0ceH
	DB	079H
	DB	0ceH
	DB	079H
	DB	0d6H
	DB	079H
	DB	0ceH
	DB	079H
	DB	0ceH
	DB	079H
	DB	0ceH
	DB	079H
	DB	0ceH
	DB	07aH
	DB	0ceH
	DB	079H
	DB	0ceH
	DB	079H
	DB	0ceH
	DB	079H
	DB	0ceH
	DB	079H
	DB	0ceH
	DB	079H
	DB	0ceH
	DB	07aH
	DB	0ceH
	DB	079H
	DB	0ceH
	DB	079H
	DB	0ceH
	DB	079H
	DB	0ceH
	DB	079H
	DB	0ceH
	DB	079H
	DB	0d6H
	DB	079H
	DB	0ceH
	DB	079H
	DB	0ceH
	DB	079H
	DB	0ceH
	DB	079H
	DB	0ceH
	DB	079H
	DB	0ceH
	DB	079H
	DB	0ceH
	DB	079H
	DB	0ceH
	DB	079H
	DB	0ceH
	DB	079H
	DB	0ceH
	DB	079H
	DB	0ceH
	DB	079H
	DB	0ceH
	DB	079H
	DB	0ceH
	DB	079H
	DB	0ceH
	DB	079H
	DB	0ceH
	DB	079H
	DB	0ceH
	DB	079H
	DB	0ceH
	DB	079H
	DB	0ceH
	DB	079H
	DB	0ceH
	DB	079H
	DB	0d6H
	DB	079H
	DB	0ceH
	DB	079H
	DB	0ceH
	DB	079H
	DB	0ceH
	DB	079H
	DB	0ceH
	DB	079H
	DB	0ceH
	DB	079H
	DB	0ceH
	DB	079H
	DB	0ceH
	DB	07aH
	DB	0ceH
	DB	079H
	DB	0ceH
	DB	079H
	DB	0ceH
	DB	07aH
	DB	0ceH
	DB	03cH
	DB	0e7H
	DB	0e8H
	DB	039H
	DB	0c8H
	DB	031H
	DB	0e8H
	DB	031H
	DB	0abH
	DB	04aH
	DB	08bH
	DB	04aH
	DB	0c7H
	DB	031H
	DB	0c7H
	DB	031H
	DB	0c7H
	DB	031H
	DB	03cH
	DB	0e7H
	DB	07aH
	DB	0d6H
	DB	07aH
	DB	0d6H
	DB	079H
	DB	0d6H
	DB	07aH
	DB	0d6H
	DB	07aH
	DB	0ceH
	DB	079H
	DB	0d6H
	DB	07aH
	DB	0d6H
	DB	079H
	DB	0ceH
	DB	07aH
	DB	0d6H
	DB	07aH
	DB	0d6H
	DB	079H
	DB	0ceH
	DB	07aH
	DB	0d6H
	DB	07aH
	DB	0ceH
	DB	079H
	DB	0d6H
	DB	07aH
	DB	0d6H
	DB	079H
	DB	0ceH
	DB	07aH
	DB	0d6H
	DB	07aH
	DB	0d6H
	DB	07aH
	DB	0ceH
	DB	079H
	DB	0d6H
	DB	07aH
	DB	0d6H
	DB	07aH
	DB	0ceH
	DB	079H
	DB	0d6H
	DB	07aH
	DB	0d6H
	DB	07aH
	DB	0ceH
	DB	079H
	DB	0d6H
	DB	07aH
	DB	0d6H
	DB	07aH
	DB	0ceH
	DB	079H
	DB	0d6H
	DB	07aH
	DB	0d6H
	DB	07aH
	DB	0ceH
	DB	079H
	DB	0d6H
	DB	07aH
	DB	0d6H
	DB	07aH
	DB	0ceH
	DB	079H
	DB	0d6H
	DB	07aH
	DB	0d6H
	DB	07aH
	DB	0ceH
	DB	079H
	DB	0d6H
	DB	07aH
	DB	0ceH
	DB	07aH
	DB	0d6H
	DB	079H
	DB	0d6H
	DB	07aH
	DB	0ceH
	DB	07aH
	DB	0d6H
	DB	079H
	DB	0d6H
	DB	07aH
	DB	0ceH
	DB	07aH
	DB	0d6H
	DB	079H
	DB	0d6H
	DB	07aH
	DB	0ceH
	DB	07aH
	DB	0d6H
	DB	079H
	DB	0d6H
	DB	07aH
	DB	0ceH
	DB	079H
	DB	0d6H
	DB	07aH
	DB	0d6H
	DB	07aH
	DB	0ceH
	DB	07aH
	DB	0d6H
	DB	07aH
	DB	0d6H
	DB	07aH
	DB	0ceH
	DB	079H
	DB	0d6H
	DB	07aH
	DB	0d6H
	DB	078H
	DB	0d6H
	DB	03H
	DB	0bcH
	DB	02H
	DB	0bcH
	DB	057H
	DB	0d6H
	DB	07aH
	DB	0d6H
	DB	07aH
	DB	0ceH
	DB	079H
	DB	0d6H
	DB	07aH
	DB	0d6H
	DB	07aH
	DB	0d6H
	DB	079H
	DB	0d6H
	DB	07aH
	DB	0ceH
	DB	07aH
	DB	0d6H
	DB	07aH
	DB	0d6H
	DB	07aH
	DB	0ceH
	DB	07aH
	DB	0d6H
	DB	07aH
	DB	0d6H
	DB	079H
	DB	0ceH
	DB	07aH
	DB	0d6H
	DB	07aH
	DB	0d6H
	DB	079H
	DB	0ceH
	DB	07aH
	DB	0d6H
	DB	079H
	DB	0d6H
	DB	07aH
	DB	0ceH
	DB	07aH
	DB	0d6H
	DB	079H
	DB	0d6H
	DB	07aH
	DB	0ceH
	DB	07aH
	DB	0d6H
	DB	07aH
	DB	0d6H
	DB	07aH
	DB	0ceH
	DB	07aH
	DB	0d6H
	DB	079H
	DB	0d6H
	DB	07aH
	DB	0ceH
	DB	07aH
	DB	0d6H
	DB	079H
	DB	0d6H
	DB	07aH
	DB	0ceH
	DB	07aH
	DB	0d6H
	DB	079H
	DB	0d6H
	DB	07aH
	DB	0ceH
	DB	07aH
	DB	0d6H
	DB	079H
	DB	0d6H
	DB	07aH
	DB	0ceH
	DB	07aH
	DB	0d6H
	DB	079H
	DB	0d6H
	DB	07aH
	DB	0ceH
	DB	07aH
	DB	0d6H
	DB	079H
	DB	0d6H
	DB	07aH
	DB	0ceH
	DB	07aH
	DB	0d6H
	DB	079H
	DB	0d6H
	DB	07aH
	DB	0ceH
	DB	07aH
	DB	0d6H
	DB	079H
	DB	0ceH
	DB	07aH
	DB	0d6H
	DB	07aH
	DB	0d6H
	DB	079H
	DB	0ceH
	DB	07aH
	DB	0d6H
	DB	07aH
	DB	0d6H
	DB	079H
	DB	0ceH
	DB	07aH
	DB	0d6H
	DB	07aH
	DB	0d6H
	DB	079H
	DB	0ceH
	DB	03cH
	DB	0e7H
	DB	0a7H
	DB	031H
	DB	08H
	DB	03aH
	DB	08H
	DB	03aH
	DB	0abH
	DB	04aH
	DB	06aH
	DB	042H
	DB	0c7H
	DB	031H
	DB	0c7H
	DB	031H
	DB	0c7H
	DB	031H
	DB	03dH
	DB	0e7H
	DB	079H
	DB	0ceH
	DB	079H
	DB	0ceH
	DB	079H
	DB	0ceH
	DB	079H
	DB	0ceH
	DB	079H
	DB	0d6H
	DB	079H
	DB	0ceH
	DB	079H
	DB	0ceH
	DB	079H
	DB	0d6H
	DB	079H
	DB	0ceH
	DB	079H
	DB	0ceH
	DB	079H
	DB	0ceH
	DB	079H
	DB	0ceH
	DB	079H
	DB	0d6H
	DB	079H
	DB	0ceH
	DB	079H
	DB	0ceH
	DB	079H
	DB	0ceH
	DB	079H
	DB	0d6H
	DB	079H
	DB	0ceH
	DB	07aH
	DB	0ceH
	DB	079H
	DB	0ceH
	DB	079H
	DB	0d6H
	DB	07aH
	DB	0ceH
	DB	079H
	DB	0ceH
	DB	079H
	DB	0d6H
	DB	07aH
	DB	0ceH
	DB	079H
	DB	0ceH
	DB	079H
	DB	0d6H
	DB	07aH
	DB	0ceH
	DB	079H
	DB	0ceH
	DB	079H
	DB	0ceH
	DB	07aH
	DB	0ceH
	DB	079H
	DB	0ceH
	DB	079H
	DB	0ceH
	DB	079H
	DB	0d6H
	DB	079H
	DB	0ceH
	DB	079H
	DB	0ceH
	DB	07aH
	DB	0ceH
	DB	079H
	DB	0ceH
	DB	079H
	DB	0d6H
	DB	079H
	DB	0ceH
	DB	079H
	DB	0ceH
	DB	079H
	DB	0ceH
	DB	079H
	DB	0ceH
	DB	079H
	DB	0d6H
	DB	07aH
	DB	0ceH
	DB	079H
	DB	0ceH
	DB	079H
	DB	0ceH
	DB	079H
	DB	0ceH
	DB	079H
	DB	0ceH
	DB	079H
	DB	0ceH
	DB	079H
	DB	0ceH
	DB	07aH
	DB	0ceH
	DB	079H
	DB	0ceH
	DB	079H
	DB	0ceH
	DB	079H
	DB	0ceH
	DB	079H
	DB	0ceH
	DB	079H
	DB	0ceH
	DB	07aH
	DB	0d6H
	DB	079H
	DB	0ceH
	DB	07aH
	DB	0d6H
	DB	0b4H
	DB	0cdH
	DB	092H
	DB	0cdH
	DB	09aH
	DB	0d6H
	DB	079H
	DB	0ceH
	DB	079H
	DB	0ceH
	DB	079H
	DB	0ceH
	DB	079H
	DB	0ceH
	DB	079H
	DB	0ceH
	DB	079H
	DB	0ceH
	DB	079H
	DB	0ceH
	DB	079H
	DB	0d6H
	DB	079H
	DB	0ceH
	DB	079H
	DB	0ceH
	DB	079H
	DB	0ceH
	DB	079H
	DB	0ceH
	DB	07aH
	DB	0ceH
	DB	079H
	DB	0d6H
	DB	079H
	DB	0ceH
	DB	079H
	DB	0ceH
	DB	079H
	DB	0d6H
	DB	07aH
	DB	0ceH
	DB	079H
	DB	0ceH
	DB	079H
	DB	0d6H
	DB	079H
	DB	0ceH
	DB	079H
	DB	0ceH
	DB	079H
	DB	0d6H
	DB	079H
	DB	0ceH
	DB	079H
	DB	0ceH
	DB	079H
	DB	0ceH
	DB	07aH
	DB	0ceH
	DB	079H
	DB	0ceH
	DB	079H
	DB	0ceH
	DB	079H
	DB	0d6H
	DB	07aH
	DB	0ceH
	DB	079H
	DB	0ceH
	DB	079H
	DB	0d6H
	DB	07aH
	DB	0ceH
	DB	079H
	DB	0ceH
	DB	079H
	DB	0d6H
	DB	079H
	DB	0ceH
	DB	079H
	DB	0ceH
	DB	079H
	DB	0d6H
	DB	07aH
	DB	0ceH
	DB	079H
	DB	0ceH
	DB	079H
	DB	0d6H
	DB	079H
	DB	0ceH
	DB	07aH
	DB	0ceH
	DB	079H
	DB	0ceH
	DB	079H
	DB	0ceH
	DB	07aH
	DB	0d6H
	DB	079H
	DB	0ceH
	DB	079H
	DB	0ceH
	DB	07aH
	DB	0d6H
	DB	079H
	DB	0ceH
	DB	079H
	DB	0ceH
	DB	079H
	DB	0d6H
	DB	079H
	DB	0ceH
	DB	079H
	DB	0ceH
	DB	079H
	DB	0d6H
	DB	07aH
	DB	0d6H
	DB	03cH
	DB	0e7H
	DB	0c8H
	DB	031H
	DB	0e7H
	DB	031H
	DB	0e8H
	DB	039H
	DB	0abH
	DB	04aH
	DB	04aH
	DB	042H
	DB	0a7H
	DB	031H
	DB	0a7H
	DB	031H
	DB	0c8H
	DB	031H
	DB	01cH
	DB	0e7H
	DB	07aH
	DB	0d6H
	DB	079H
	DB	0ceH
	DB	07aH
	DB	0ceH
	DB	07aH
	DB	0d6H
	DB	079H
	DB	0ceH
	DB	07aH
	DB	0ceH
	DB	07aH
	DB	0ceH
	DB	079H
	DB	0d6H
	DB	07aH
	DB	0ceH
	DB	07aH
	DB	0ceH
	DB	079H
	DB	0d6H
	DB	07aH
	DB	0ceH
	DB	07aH
	DB	0ceH
	DB	079H
	DB	0d6H
	DB	07aH
	DB	0ceH
	DB	07aH
	DB	0ceH
	DB	079H
	DB	0ceH
	DB	079H
	DB	0d6H
	DB	079H
	DB	0ceH
	DB	07aH
	DB	0ceH
	DB	079H
	DB	0ceH
	DB	079H
	DB	0d6H
	DB	079H
	DB	0ceH
	DB	079H
	DB	0ceH
	DB	07aH
	DB	0ceH
	DB	079H
	DB	0ceH
	DB	079H
	DB	0d6H
	DB	079H
	DB	0ceH
	DB	07aH
	DB	0ceH
	DB	079H
	DB	0d6H
	DB	079H
	DB	0d6H
	DB	07aH
	DB	0ceH
	DB	079H
	DB	0ceH
	DB	07aH
	DB	0d6H
	DB	079H
	DB	0ceH
	DB	079H
	DB	0ceH
	DB	07aH
	DB	0d6H
	DB	079H
	DB	0ceH
	DB	079H
	DB	0ceH
	DB	07aH
	DB	0d6H
	DB	07aH
	DB	0ceH
	DB	079H
	DB	0ceH
	DB	07aH
	DB	0d6H
	DB	079H
	DB	0ceH
	DB	079H
	DB	0ceH
	DB	07aH
	DB	0d6H
	DB	079H
	DB	0d6H
	DB	07aH
	DB	0ceH
	DB	07aH
	DB	0d6H
	DB	079H
	DB	0d6H
	DB	079H
	DB	0ceH
	DB	07aH
	DB	0d6H
	DB	079H
	DB	0d6H
	DB	079H
	DB	0ceH
	DB	079H
	DB	0d6H
	DB	079H
	DB	0ceH
	DB	07aH
	DB	0d6H
	DB	079H
	DB	0ceH
	DB	079H
	DB	0ceH
	DB	079H
	DB	0ceH
	DB	09aH
	DB	0d6H
	DB	0baH
	DB	0d6H
	DB	07aH
	DB	0ceH
	DB	079H
	DB	0d6H
	DB	07aH
	DB	0ceH
	DB	07aH
	DB	0d6H
	DB	079H
	DB	0ceH
	DB	07aH
	DB	0ceH
	DB	07aH
	DB	0d6H
	DB	079H
	DB	0ceH
	DB	07aH
	DB	0ceH
	DB	079H
	DB	0d6H
	DB	079H
	DB	0ceH
	DB	07aH
	DB	0d6H
	DB	079H
	DB	0ceH
	DB	079H
	DB	0ceH
	DB	07aH
	DB	0d6H
	DB	079H
	DB	0ceH
	DB	07aH
	DB	0ceH
	DB	079H
	DB	0d6H
	DB	079H
	DB	0ceH
	DB	07aH
	DB	0ceH
	DB	079H
	DB	0d6H
	DB	07aH
	DB	0ceH
	DB	079H
	DB	0ceH
	DB	079H
	DB	0d6H
	DB	07aH
	DB	0ceH
	DB	079H
	DB	0d6H
	DB	079H
	DB	0d6H
	DB	07aH
	DB	0ceH
	DB	079H
	DB	0d6H
	DB	079H
	DB	0ceH
	DB	07aH
	DB	0ceH
	DB	079H
	DB	0ceH
	DB	079H
	DB	0ceH
	DB	079H
	DB	0d6H
	DB	079H
	DB	0ceH
	DB	07aH
	DB	0ceH
	DB	079H
	DB	0ceH
	DB	07aH
	DB	0d6H
	DB	079H
	DB	0ceH
	DB	079H
	DB	0ceH
	DB	07aH
	DB	0d6H
	DB	079H
	DB	0ceH
	DB	079H
	DB	0ceH
	DB	07aH
	DB	0d6H
	DB	079H
	DB	0ceH
	DB	079H
	DB	0d6H
	DB	079H
	DB	0ceH
	DB	079H
	DB	0ceH
	DB	07aH
	DB	0d6H
	DB	079H
	DB	0ceH
	DB	079H
	DB	0ceH
	DB	07aH
	DB	0ceH
	DB	079H
	DB	0ceH
	DB	07aH
	DB	0d6H
	DB	07aH
	DB	0ceH
	DB	079H
	DB	0ceH
	DB	079H
	DB	0ceH
	DB	07aH
	DB	0ceH
	DB	01cH
	DB	0e7H
	DB	0e8H
	DB	039H
	DB	0e8H
	DB	031H
	DB	0c7H
	DB	031H
	DB	08bH
	DB	04aH
	DB	06aH
	DB	042H
	DB	087H
	DB	029H
	DB	0c8H
	DB	031H
	DB	0e7H
	DB	031H
	DB	01cH
	DB	0e7H
	DB	059H
	DB	0d6H
	DB	059H
	DB	0ceH
	DB	059H
	DB	0ceH
	DB	059H
	DB	0ceH
	DB	059H
	DB	0ceH
	DB	059H
	DB	0ceH
	DB	059H
	DB	0d6H
	DB	059H
	DB	0ceH
	DB	059H
	DB	0ceH
	DB	059H
	DB	0ceH
	DB	059H
	DB	0d6H
	DB	059H
	DB	0ceH
	DB	059H
	DB	0ceH
	DB	059H
	DB	0ceH
	DB	059H
	DB	0d6H
	DB	059H
	DB	0ceH
	DB	05aH
	DB	0ceH
	DB	079H
	DB	0ceH
	DB	059H
	DB	0d6H
	DB	059H
	DB	0ceH
	DB	05aH
	DB	0ceH
	DB	059H
	DB	0ceH
	DB	059H
	DB	0ceH
	DB	05aH
	DB	0d6H
	DB	059H
	DB	0ceH
	DB	059H
	DB	0ceH
	DB	059H
	DB	0ceH
	DB	059H
	DB	0ceH
	DB	059H
	DB	0ceH
	DB	059H
	DB	0ceH
	DB	079H
	DB	0ceH
	DB	059H
	DB	0ceH
	DB	059H
	DB	0ceH
	DB	079H
	DB	0ceH
	DB	05aH
	DB	0ceH
	DB	059H
	DB	0d6H
	DB	079H
	DB	0ceH
	DB	059H
	DB	0ceH
	DB	059H
	DB	0ceH
	DB	079H
	DB	0ceH
	DB	059H
	DB	0d6H
	DB	059H
	DB	0ceH
	DB	079H
	DB	0ceH
	DB	059H
	DB	0ceH
	DB	059H
	DB	0ceH
	DB	059H
	DB	0ceH
	DB	079H
	DB	0ceH
	DB	059H
	DB	0ceH
	DB	059H
	DB	0ceH
	DB	059H
	DB	0ceH
	DB	059H
	DB	0ceH
	DB	079H
	DB	0ceH
	DB	059H
	DB	0ceH
	DB	05aH
	DB	0ceH
	DB	059H
	DB	0ceH
	DB	059H
	DB	0d6H
	DB	05aH
	DB	0ceH
	DB	059H
	DB	0ceH
	DB	059H
	DB	0ceH
	DB	079H
	DB	0d6H
	DB	059H
	DB	0ceH
	DB	059H
	DB	0ceH
	DB	059H
	DB	0ceH
	DB	059H
	DB	0ceH
	DB	059H
	DB	0ceH
	DB	059H
	DB	0ceH
	DB	059H
	DB	0d6H
	DB	059H
	DB	0ceH
	DB	059H
	DB	0ceH
	DB	059H
	DB	0ceH
	DB	059H
	DB	0ceH
	DB	05aH
	DB	0ceH
	DB	059H
	DB	0ceH
	DB	059H
	DB	0d6H
	DB	059H
	DB	0ceH
	DB	059H
	DB	0ceH
	DB	059H
	DB	0ceH
	DB	059H
	DB	0ceH
	DB	059H
	DB	0ceH
	DB	05aH
	DB	0ceH
	DB	059H
	DB	0ceH
	DB	059H
	DB	0ceH
	DB	079H
	DB	0ceH
	DB	059H
	DB	0ceH
	DB	05aH
	DB	0ceH
	DB	079H
	DB	0ceH
	DB	059H
	DB	0ceH
	DB	05aH
	DB	0ceH
	DB	079H
	DB	0ceH
	DB	059H
	DB	0ceH
	DB	059H
	DB	0ceH
	DB	079H
	DB	0d6H
	DB	05aH
	DB	0ceH
	DB	059H
	DB	0ceH
	DB	079H
	DB	0d6H
	DB	05aH
	DB	0ceH
	DB	059H
	DB	0ceH
	DB	079H
	DB	0ceH
	DB	059H
	DB	0ceH
	DB	05aH
	DB	0ceH
	DB	079H
	DB	0ceH
	DB	059H
	DB	0ceH
	DB	059H
	DB	0ceH
	DB	079H
	DB	0ceH
	DB	059H
	DB	0ceH
	DB	059H
	DB	0ceH
	DB	079H
	DB	0ceH
	DB	05aH
	DB	0ceH
	DB	059H
	DB	0d6H
	DB	059H
	DB	0ceH
	DB	059H
	DB	0ceH
	DB	079H
	DB	0ceH
	DB	059H
	DB	0d6H
	DB	059H
	DB	0ceH
	DB	059H
	DB	0ceH
	DB	059H
	DB	0ceH
	DB	059H
	DB	0ceH
	DB	059H
	DB	0d6H
	DB	059H
	DB	0ceH
	DB	079H
	DB	0ceH
	DB	01cH
	DB	0efH
	DB	0e8H
	DB	039H
	DB	0e8H
	DB	039H
	DB	0c8H
	DB	031H
	DB	08aH
	DB	04aH
	DB	049H
	DB	042H
	DB	0c7H
	DB	031H
	DB	0c7H
	DB	031H
	DB	0c7H
	DB	031H
	DB	03cH
	DB	0e7H
	DB	05aH
	DB	0ceH
	DB	079H
	DB	0d6H
	DB	079H
	DB	0ceH
	DB	05aH
	DB	0ceH
	DB	079H
	DB	0d6H
	DB	079H
	DB	0ceH
	DB	07aH
	DB	0ceH
	DB	079H
	DB	0ceH
	DB	079H
	DB	0ceH
	DB	079H
	DB	0d6H
	DB	07aH
	DB	0ceH
	DB	079H
	DB	0ceH
	DB	079H
	DB	0ceH
	DB	07aH
	DB	0ceH
	DB	079H
	DB	0d6H
	DB	079H
	DB	0ceH
	DB	059H
	DB	0ceH
	DB	07aH
	DB	0ceH
	DB	079H
	DB	0d6H
	DB	059H
	DB	0ceH
	DB	079H
	DB	0ceH
	DB	07aH
	DB	0d6H
	DB	079H
	DB	0ceH
	DB	079H
	DB	0ceH
	DB	079H
	DB	0d6H
	DB	07aH
	DB	0ceH
	DB	07aH
	DB	0d6H
	DB	079H
	DB	0ceH
	DB	059H
	DB	0d6H
	DB	07aH
	DB	0ceH
	DB	079H
	DB	0ceH
	DB	059H
	DB	0d6H
	DB	05aH
	DB	0d6H
	DB	079H
	DB	0ceH
	DB	079H
	DB	0ceH
	DB	059H
	DB	0ceH
	DB	07aH
	DB	0d6H
	DB	079H
	DB	0ceH
	DB	05aH
	DB	0ceH
	DB	079H
	DB	0d6H
	DB	079H
	DB	0ceH
	DB	05aH
	DB	0ceH
	DB	079H
	DB	0ceH
	DB	07aH
	DB	0d6H
	DB	059H
	DB	0ceH
	DB	079H
	DB	0ceH
	DB	05aH
	DB	0d6H
	DB	079H
	DB	0ceH
	DB	079H
	DB	0ceH
	DB	05aH
	DB	0ceH
	DB	07aH
	DB	0d6H
	DB	059H
	DB	0ceH
	DB	079H
	DB	0ceH
	DB	07aH
	DB	0ceH
	DB	079H
	DB	0ceH
	DB	079H
	DB	0ceH
	DB	079H
	DB	0ceH
	DB	059H
	DB	0ceH
	DB	07aH
	DB	0d6H
	DB	07aH
	DB	0ceH
	DB	059H
	DB	0ceH
	DB	07aH
	DB	0d6H
	DB	079H
	DB	0ceH
	DB	059H
	DB	0ceH
	DB	079H
	DB	0d6H
	DB	07aH
	DB	0ceH
	DB	059H
	DB	0ceH
	DB	079H
	DB	0d6H
	DB	07aH
	DB	0ceH
	DB	079H
	DB	0d6H
	DB	059H
	DB	0ceH
	DB	079H
	DB	0ceH
	DB	07aH
	DB	0d6H
	DB	079H
	DB	0ceH
	DB	07aH
	DB	0ceH
	DB	079H
	DB	0d6H
	DB	07aH
	DB	0ceH
	DB	079H
	DB	0d6H
	DB	079H
	DB	0ceH
	DB	079H
	DB	0ceH
	DB	059H
	DB	0d6H
	DB	07aH
	DB	0ceH
	DB	059H
	DB	0d6H
	DB	079H
	DB	0ceH
	DB	059H
	DB	0d6H
	DB	079H
	DB	0ceH
	DB	059H
	DB	0ceH
	DB	079H
	DB	0ceH
	DB	079H
	DB	0ceH
	DB	05aH
	DB	0ceH
	DB	079H
	DB	0ceH
	DB	079H
	DB	0d6H
	DB	059H
	DB	0ceH
	DB	079H
	DB	0ceH
	DB	07aH
	DB	0ceH
	DB	059H
	DB	0ceH
	DB	079H
	DB	0d6H
	DB	079H
	DB	0d6H
	DB	059H
	DB	0ceH
	DB	079H
	DB	0d6H
	DB	07aH
	DB	0ceH
	DB	059H
	DB	0d6H
	DB	079H
	DB	0ceH
	DB	07aH
	DB	0d6H
	DB	05aH
	DB	0ceH
	DB	079H
	DB	0ceH
	DB	079H
	DB	0d6H
	DB	05aH
	DB	0ceH
	DB	079H
	DB	0ceH
	DB	079H
	DB	0ceH
	DB	05aH
	DB	0ceH
	DB	079H
	DB	0d6H
	DB	07aH
	DB	0ceH
	DB	059H
	DB	0ceH
	DB	079H
	DB	0d6H
	DB	07aH
	DB	0ceH
	DB	079H
	DB	0ceH
	DB	07aH
	DB	0d6H
	DB	059H
	DB	0ceH
	DB	079H
	DB	0ceH
	DB	03dH
	DB	0e7H
	DB	0c8H
	DB	031H
	DB	0c7H
	DB	031H
	DB	0c7H
	DB	031H
	DB	0cbH
	DB	052H
	DB	08aH
	DB	04aH
	DB	0a7H
	DB	031H
	DB	0a7H
	DB	031H
	DB	087H
	DB	031H
	DB	01cH
	DB	0e7H
	DB	059H
	DB	0ceH
	DB	059H
	DB	0ceH
	DB	059H
	DB	0ceH
	DB	059H
	DB	0ceH
	DB	059H
	DB	0ceH
	DB	059H
	DB	0ceH
	DB	059H
	DB	0ceH
	DB	059H
	DB	0ceH
	DB	059H
	DB	0ceH
	DB	059H
	DB	0ceH
	DB	059H
	DB	0ceH
	DB	059H
	DB	0ceH
	DB	059H
	DB	0ceH
	DB	059H
	DB	0ceH
	DB	059H
	DB	0ceH
	DB	059H
	DB	0ceH
	DB	059H
	DB	0ceH
	DB	059H
	DB	0ceH
	DB	059H
	DB	0ceH
	DB	059H
	DB	0ceH
	DB	059H
	DB	0ceH
	DB	059H
	DB	0ceH
	DB	059H
	DB	0ceH
	DB	059H
	DB	0ceH
	DB	059H
	DB	0ceH
	DB	059H
	DB	0ceH
	DB	059H
	DB	0ceH
	DB	059H
	DB	0ceH
	DB	059H
	DB	0ceH
	DB	059H
	DB	0ceH
	DB	059H
	DB	0ceH
	DB	059H
	DB	0ceH
	DB	059H
	DB	0ceH
	DB	059H
	DB	0ceH
	DB	059H
	DB	0ceH
	DB	059H
	DB	0ceH
	DB	059H
	DB	0ceH
	DB	059H
	DB	0ceH
	DB	059H
	DB	0ceH
	DB	059H
	DB	0ceH
	DB	059H
	DB	0ceH
	DB	059H
	DB	0ceH
	DB	059H
	DB	0ceH
	DB	059H
	DB	0ceH
	DB	059H
	DB	0ceH
	DB	059H
	DB	0ceH
	DB	059H
	DB	0ceH
	DB	059H
	DB	0ceH
	DB	059H
	DB	0ceH
	DB	059H
	DB	0ceH
	DB	059H
	DB	0ceH
	DB	059H
	DB	0ceH
	DB	059H
	DB	0ceH
	DB	059H
	DB	0d6H
	DB	059H
	DB	0ceH
	DB	059H
	DB	0ceH
	DB	059H
	DB	0ceH
	DB	059H
	DB	0ceH
	DB	059H
	DB	0ceH
	DB	059H
	DB	0ceH
	DB	059H
	DB	0ceH
	DB	059H
	DB	0ceH
	DB	059H
	DB	0ceH
	DB	059H
	DB	0ceH
	DB	059H
	DB	0ceH
	DB	059H
	DB	0ceH
	DB	059H
	DB	0ceH
	DB	059H
	DB	0ceH
	DB	059H
	DB	0ceH
	DB	059H
	DB	0ceH
	DB	059H
	DB	0ceH
	DB	059H
	DB	0ceH
	DB	059H
	DB	0ceH
	DB	059H
	DB	0ceH
	DB	059H
	DB	0ceH
	DB	059H
	DB	0ceH
	DB	059H
	DB	0ceH
	DB	059H
	DB	0ceH
	DB	059H
	DB	0ceH
	DB	059H
	DB	0ceH
	DB	059H
	DB	0ceH
	DB	059H
	DB	0ceH
	DB	059H
	DB	0ceH
	DB	059H
	DB	0ceH
	DB	059H
	DB	0ceH
	DB	05aH
	DB	0ceH
	DB	059H
	DB	0ceH
	DB	059H
	DB	0d6H
	DB	059H
	DB	0ceH
	DB	059H
	DB	0ceH
	DB	059H
	DB	0ceH
	DB	059H
	DB	0ceH
	DB	059H
	DB	0ceH
	DB	059H
	DB	0ceH
	DB	059H
	DB	0ceH
	DB	059H
	DB	0ceH
	DB	059H
	DB	0ceH
	DB	059H
	DB	0ceH
	DB	059H
	DB	0ceH
	DB	059H
	DB	0ceH
	DB	059H
	DB	0ceH
	DB	059H
	DB	0ceH
	DB	059H
	DB	0ceH
	DB	059H
	DB	0ceH
	DB	059H
	DB	0ceH
	DB	059H
	DB	0ceH
	DB	059H
	DB	0ceH
	DB	059H
	DB	0ceH
	DB	059H
	DB	0ceH
	DB	059H
	DB	0ceH
	DB	059H
	DB	0ceH
	DB	059H
	DB	0ceH
	DB	059H
	DB	0ceH
	DB	059H
	DB	0ceH
	DB	059H
	DB	0ceH
	DB	059H
	DB	0ceH
	DB	059H
	DB	0ceH
	DB	059H
	DB	0ceH
	DB	059H
	DB	0ceH
	DB	059H
	DB	0ceH
	DB	01cH
	DB	0e7H
	DB	0a7H
	DB	031H
	DB	0c7H
	DB	031H
	DB	08H
	DB	03aH
	DB	0abH
	DB	052H
	DB	08aH
	DB	04aH
	DB	0a7H
	DB	031H
	DB	0c7H
	DB	031H
	DB	0a7H
	DB	029H
	DB	01cH
	DB	0e7H
	DB	059H
	DB	0ceH
	DB	059H
	DB	0ceH
	DB	079H
	DB	0ceH
	DB	059H
	DB	0ceH
	DB	059H
	DB	0ceH
	DB	059H
	DB	0d6H
	DB	059H
	DB	0ceH
	DB	05aH
	DB	0ceH
	DB	059H
	DB	0ceH
	DB	059H
	DB	0ceH
	DB	059H
	DB	0ceH
	DB	059H
	DB	0d6H
	DB	059H
	DB	0ceH
	DB	059H
	DB	0ceH
	DB	059H
	DB	0ceH
	DB	059H
	DB	0ceH
	DB	059H
	DB	0d6H
	DB	059H
	DB	0ceH
	DB	059H
	DB	0ceH
	DB	059H
	DB	0ceH
	DB	059H
	DB	0ceH
	DB	059H
	DB	0ceH
	DB	059H
	DB	0ceH
	DB	059H
	DB	0ceH
	DB	059H
	DB	0ceH
	DB	059H
	DB	0ceH
	DB	059H
	DB	0ceH
	DB	059H
	DB	0ceH
	DB	059H
	DB	0ceH
	DB	059H
	DB	0ceH
	DB	07aH
	DB	0ceH
	DB	059H
	DB	0ceH
	DB	059H
	DB	0ceH
	DB	079H
	DB	0ceH
	DB	059H
	DB	0ceH
	DB	059H
	DB	0ceH
	DB	059H
	DB	0ceH
	DB	059H
	DB	0ceH
	DB	059H
	DB	0ceH
	DB	059H
	DB	0ceH
	DB	059H
	DB	0ceH
	DB	059H
	DB	0ceH
	DB	059H
	DB	0ceH
	DB	059H
	DB	0ceH
	DB	079H
	DB	0ceH
	DB	059H
	DB	0ceH
	DB	059H
	DB	0ceH
	DB	059H
	DB	0ceH
	DB	079H
	DB	0d6H
	DB	059H
	DB	0ceH
	DB	059H
	DB	0ceH
	DB	079H
	DB	0ceH
	DB	059H
	DB	0ceH
	DB	059H
	DB	0ceH
	DB	059H
	DB	0ceH
	DB	05aH
	DB	0ceH
	DB	059H
	DB	0d6H
	DB	059H
	DB	0ceH
	DB	059H
	DB	0ceH
	DB	059H
	DB	0ceH
	DB	079H
	DB	0ceH
	DB	059H
	DB	0ceH
	DB	059H
	DB	0ceH
	DB	07aH
	DB	0ceH
	DB	059H
	DB	0ceH
	DB	059H
	DB	0ceH
	DB	059H
	DB	0ceH
	DB	059H
	DB	0ceH
	DB	059H
	DB	0ceH
	DB	059H
	DB	0ceH
	DB	079H
	DB	0ceH
	DB	059H
	DB	0ceH
	DB	059H
	DB	0ceH
	DB	059H
	DB	0ceH
	DB	059H
	DB	0ceH
	DB	059H
	DB	0ceH
	DB	059H
	DB	0ceH
	DB	059H
	DB	0ceH
	DB	05aH
	DB	0ceH
	DB	059H
	DB	0ceH
	DB	079H
	DB	0ceH
	DB	059H
	DB	0ceH
	DB	059H
	DB	0ceH
	DB	079H
	DB	0ceH
	DB	059H
	DB	0ceH
	DB	059H
	DB	0ceH
	DB	079H
	DB	0ceH
	DB	059H
	DB	0ceH
	DB	059H
	DB	0ceH
	DB	059H
	DB	0ceH
	DB	059H
	DB	0d6H
	DB	05aH
	DB	0ceH
	DB	059H
	DB	0ceH
	DB	059H
	DB	0ceH
	DB	059H
	DB	0d6H
	DB	059H
	DB	0ceH
	DB	05aH
	DB	0ceH
	DB	059H
	DB	0ceH
	DB	059H
	DB	0ceH
	DB	059H
	DB	0ceH
	DB	059H
	DB	0ceH
	DB	059H
	DB	0ceH
	DB	059H
	DB	0ceH
	DB	059H
	DB	0ceH
	DB	059H
	DB	0ceH
	DB	059H
	DB	0ceH
	DB	059H
	DB	0ceH
	DB	059H
	DB	0ceH
	DB	059H
	DB	0d6H
	DB	059H
	DB	0ceH
	DB	079H
	DB	0ceH
	DB	059H
	DB	0ceH
	DB	059H
	DB	0ceH
	DB	059H
	DB	0ceH
	DB	059H
	DB	0ceH
	DB	059H
	DB	0ceH
	DB	059H
	DB	0ceH
	DB	059H
	DB	0ceH
	DB	059H
	DB	0ceH
	DB	059H
	DB	0ceH
	DB	01cH
	DB	0e7H
	DB	087H
	DB	029H
	DB	0c7H
	DB	031H
	DB	0e8H
	DB	039H
	DB	0abH
	DB	04aH
	DB	04aH
	DB	042H
	DB	0a7H
	DB	031H
	DB	0a7H
	DB	029H
	DB	0c7H
	DB	031H
	DB	01cH
	DB	0e7H
	DB	059H
	DB	0ceH
	DB	059H
	DB	0ceH
	DB	059H
	DB	0ceH
	DB	059H
	DB	0ceH
	DB	059H
	DB	0ceH
	DB	059H
	DB	0ceH
	DB	059H
	DB	0ceH
	DB	059H
	DB	0ceH
	DB	059H
	DB	0ceH
	DB	059H
	DB	0ceH
	DB	059H
	DB	0ceH
	DB	059H
	DB	0ceH
	DB	059H
	DB	0ceH
	DB	059H
	DB	0ceH
	DB	059H
	DB	0ceH
	DB	059H
	DB	0ceH
	DB	059H
	DB	0ceH
	DB	059H
	DB	0ceH
	DB	059H
	DB	0ceH
	DB	059H
	DB	0ceH
	DB	059H
	DB	0ceH
	DB	059H
	DB	0ceH
	DB	059H
	DB	0ceH
	DB	059H
	DB	0ceH
	DB	059H
	DB	0ceH
	DB	059H
	DB	0ceH
	DB	059H
	DB	0ceH
	DB	059H
	DB	0ceH
	DB	059H
	DB	0ceH
	DB	059H
	DB	0ceH
	DB	059H
	DB	0ceH
	DB	059H
	DB	0ceH
	DB	059H
	DB	0ceH
	DB	059H
	DB	0ceH
	DB	059H
	DB	0ceH
	DB	059H
	DB	0ceH
	DB	059H
	DB	0ceH
	DB	059H
	DB	0ceH
	DB	059H
	DB	0ceH
	DB	059H
	DB	0ceH
	DB	059H
	DB	0ceH
	DB	059H
	DB	0ceH
	DB	059H
	DB	0ceH
	DB	059H
	DB	0ceH
	DB	059H
	DB	0ceH
	DB	059H
	DB	0ceH
	DB	059H
	DB	0ceH
	DB	059H
	DB	0ceH
	DB	059H
	DB	0ceH
	DB	059H
	DB	0ceH
	DB	059H
	DB	0ceH
	DB	059H
	DB	0ceH
	DB	059H
	DB	0ceH
	DB	059H
	DB	0ceH
	DB	059H
	DB	0ceH
	DB	059H
	DB	0ceH
	DB	059H
	DB	0ceH
	DB	059H
	DB	0ceH
	DB	059H
	DB	0ceH
	DB	059H
	DB	0ceH
	DB	059H
	DB	0ceH
	DB	059H
	DB	0ceH
	DB	059H
	DB	0ceH
	DB	059H
	DB	0ceH
	DB	059H
	DB	0ceH
	DB	059H
	DB	0ceH
	DB	059H
	DB	0ceH
	DB	059H
	DB	0ceH
	DB	059H
	DB	0ceH
	DB	059H
	DB	0ceH
	DB	059H
	DB	0ceH
	DB	059H
	DB	0ceH
	DB	059H
	DB	0ceH
	DB	059H
	DB	0ceH
	DB	059H
	DB	0ceH
	DB	059H
	DB	0ceH
	DB	059H
	DB	0ceH
	DB	059H
	DB	0ceH
	DB	059H
	DB	0ceH
	DB	059H
	DB	0ceH
	DB	059H
	DB	0ceH
	DB	059H
	DB	0ceH
	DB	059H
	DB	0ceH
	DB	059H
	DB	0ceH
	DB	059H
	DB	0ceH
	DB	059H
	DB	0ceH
	DB	059H
	DB	0ceH
	DB	059H
	DB	0ceH
	DB	059H
	DB	0ceH
	DB	059H
	DB	0ceH
	DB	059H
	DB	0ceH
	DB	059H
	DB	0ceH
	DB	059H
	DB	0ceH
	DB	059H
	DB	0ceH
	DB	059H
	DB	0ceH
	DB	059H
	DB	0ceH
	DB	059H
	DB	0ceH
	DB	059H
	DB	0ceH
	DB	059H
	DB	0ceH
	DB	059H
	DB	0ceH
	DB	059H
	DB	0ceH
	DB	059H
	DB	0ceH
	DB	059H
	DB	0ceH
	DB	059H
	DB	0ceH
	DB	059H
	DB	0ceH
	DB	059H
	DB	0ceH
	DB	059H
	DB	0ceH
	DB	059H
	DB	0ceH
	DB	059H
	DB	0ceH
	DB	059H
	DB	0ceH
	DB	059H
	DB	0ceH
	DB	059H
	DB	0ceH
	DB	059H
	DB	0ceH
	DB	059H
	DB	0ceH
	DB	059H
	DB	0ceH
	DB	059H
	DB	0ceH
	DB	059H
	DB	0ceH
	DB	059H
	DB	0ceH
	DB	059H
	DB	0ceH
	DB	059H
	DB	0ceH
	DB	01cH
	DB	0e7H
	DB	0a7H
	DB	029H
	DB	0a7H
	DB	031H
	DB	0a7H
	DB	031H
	DB	0abH
	DB	04aH
	DB	049H
	DB	042H
	DB	086H
	DB	029H
	DB	0c7H
	DB	031H
	DB	0c7H
	DB	031H
	DB	01cH
	DB	0e7H
	DB	059H
	DB	0ceH
	DB	059H
	DB	0ceH
	DB	059H
	DB	0ceH
	DB	059H
	DB	0ceH
	DB	059H
	DB	0ceH
	DB	059H
	DB	0ceH
	DB	059H
	DB	0ceH
	DB	059H
	DB	0ceH
	DB	059H
	DB	0ceH
	DB	059H
	DB	0ceH
	DB	059H
	DB	0ceH
	DB	059H
	DB	0ceH
	DB	059H
	DB	0ceH
	DB	059H
	DB	0ceH
	DB	059H
	DB	0ceH
	DB	059H
	DB	0ceH
	DB	059H
	DB	0ceH
	DB	059H
	DB	0ceH
	DB	059H
	DB	0ceH
	DB	059H
	DB	0ceH
	DB	059H
	DB	0ceH
	DB	059H
	DB	0ceH
	DB	059H
	DB	0ceH
	DB	059H
	DB	0ceH
	DB	059H
	DB	0ceH
	DB	059H
	DB	0ceH
	DB	059H
	DB	0ceH
	DB	059H
	DB	0ceH
	DB	059H
	DB	0ceH
	DB	059H
	DB	0ceH
	DB	059H
	DB	0ceH
	DB	059H
	DB	0ceH
	DB	059H
	DB	0ceH
	DB	059H
	DB	0ceH
	DB	059H
	DB	0ceH
	DB	059H
	DB	0ceH
	DB	059H
	DB	0ceH
	DB	059H
	DB	0ceH
	DB	059H
	DB	0ceH
	DB	059H
	DB	0ceH
	DB	059H
	DB	0ceH
	DB	059H
	DB	0ceH
	DB	059H
	DB	0ceH
	DB	059H
	DB	0ceH
	DB	059H
	DB	0ceH
	DB	059H
	DB	0ceH
	DB	059H
	DB	0ceH
	DB	059H
	DB	0ceH
	DB	059H
	DB	0ceH
	DB	059H
	DB	0ceH
	DB	059H
	DB	0ceH
	DB	059H
	DB	0ceH
	DB	059H
	DB	0ceH
	DB	059H
	DB	0ceH
	DB	059H
	DB	0ceH
	DB	059H
	DB	0ceH
	DB	059H
	DB	0ceH
	DB	059H
	DB	0ceH
	DB	059H
	DB	0ceH
	DB	059H
	DB	0ceH
	DB	059H
	DB	0ceH
	DB	059H
	DB	0ceH
	DB	059H
	DB	0ceH
	DB	059H
	DB	0ceH
	DB	059H
	DB	0ceH
	DB	059H
	DB	0ceH
	DB	059H
	DB	0ceH
	DB	059H
	DB	0ceH
	DB	059H
	DB	0ceH
	DB	059H
	DB	0ceH
	DB	059H
	DB	0ceH
	DB	059H
	DB	0ceH
	DB	059H
	DB	0ceH
	DB	059H
	DB	0ceH
	DB	059H
	DB	0ceH
	DB	059H
	DB	0ceH
	DB	059H
	DB	0ceH
	DB	059H
	DB	0ceH
	DB	059H
	DB	0ceH
	DB	059H
	DB	0ceH
	DB	059H
	DB	0ceH
	DB	059H
	DB	0ceH
	DB	059H
	DB	0ceH
	DB	059H
	DB	0ceH
	DB	059H
	DB	0ceH
	DB	059H
	DB	0ceH
	DB	059H
	DB	0ceH
	DB	059H
	DB	0ceH
	DB	059H
	DB	0ceH
	DB	059H
	DB	0ceH
	DB	059H
	DB	0ceH
	DB	059H
	DB	0ceH
	DB	059H
	DB	0ceH
	DB	059H
	DB	0ceH
	DB	059H
	DB	0ceH
	DB	059H
	DB	0ceH
	DB	059H
	DB	0ceH
	DB	059H
	DB	0ceH
	DB	059H
	DB	0ceH
	DB	059H
	DB	0ceH
	DB	059H
	DB	0ceH
	DB	059H
	DB	0ceH
	DB	059H
	DB	0ceH
	DB	059H
	DB	0ceH
	DB	059H
	DB	0ceH
	DB	059H
	DB	0ceH
	DB	059H
	DB	0ceH
	DB	059H
	DB	0ceH
	DB	059H
	DB	0ceH
	DB	059H
	DB	0ceH
	DB	059H
	DB	0ceH
	DB	059H
	DB	0ceH
	DB	059H
	DB	0ceH
	DB	059H
	DB	0ceH
	DB	059H
	DB	0ceH
	DB	059H
	DB	0ceH
	DB	059H
	DB	0ceH
	DB	059H
	DB	0ceH
	DB	059H
	DB	0ceH
	DB	059H
	DB	0ceH
	DB	01cH
	DB	0e7H
	DB	086H
	DB	029H
	DB	0c8H
	DB	031H
	DB	0c7H
	DB	031H
	DB	04aH
	DB	042H
	DB	04aH
	DB	042H
	DB	0a7H
	DB	031H
	DB	0a7H
	DB	031H
	DB	0a7H
	DB	031H
	DB	01cH
	DB	0e7H
	DB	059H
	DB	0ceH
	DB	059H
	DB	0ceH
	DB	059H
	DB	0ceH
	DB	059H
	DB	0ceH
	DB	059H
	DB	0ceH
	DB	059H
	DB	0ceH
	DB	059H
	DB	0ceH
	DB	059H
	DB	0ceH
	DB	059H
	DB	0ceH
	DB	059H
	DB	0ceH
	DB	059H
	DB	0ceH
	DB	059H
	DB	0ceH
	DB	059H
	DB	0ceH
	DB	059H
	DB	0ceH
	DB	059H
	DB	0ceH
	DB	059H
	DB	0ceH
	DB	059H
	DB	0ceH
	DB	059H
	DB	0ceH
	DB	059H
	DB	0ceH
	DB	059H
	DB	0ceH
	DB	059H
	DB	0ceH
	DB	059H
	DB	0ceH
	DB	059H
	DB	0ceH
	DB	059H
	DB	0ceH
	DB	059H
	DB	0ceH
	DB	059H
	DB	0ceH
	DB	059H
	DB	0ceH
	DB	059H
	DB	0ceH
	DB	059H
	DB	0ceH
	DB	059H
	DB	0ceH
	DB	059H
	DB	0ceH
	DB	059H
	DB	0ceH
	DB	059H
	DB	0ceH
	DB	059H
	DB	0ceH
	DB	059H
	DB	0ceH
	DB	059H
	DB	0ceH
	DB	059H
	DB	0ceH
	DB	059H
	DB	0ceH
	DB	059H
	DB	0ceH
	DB	059H
	DB	0ceH
	DB	059H
	DB	0ceH
	DB	059H
	DB	0ceH
	DB	059H
	DB	0ceH
	DB	059H
	DB	0ceH
	DB	059H
	DB	0ceH
	DB	059H
	DB	0ceH
	DB	059H
	DB	0ceH
	DB	059H
	DB	0ceH
	DB	059H
	DB	0ceH
	DB	059H
	DB	0ceH
	DB	059H
	DB	0ceH
	DB	059H
	DB	0ceH
	DB	059H
	DB	0ceH
	DB	059H
	DB	0ceH
	DB	059H
	DB	0ceH
	DB	059H
	DB	0ceH
	DB	059H
	DB	0ceH
	DB	059H
	DB	0ceH
	DB	059H
	DB	0ceH
	DB	059H
	DB	0ceH
	DB	059H
	DB	0ceH
	DB	059H
	DB	0ceH
	DB	059H
	DB	0ceH
	DB	059H
	DB	0ceH
	DB	059H
	DB	0ceH
	DB	059H
	DB	0ceH
	DB	059H
	DB	0ceH
	DB	059H
	DB	0ceH
	DB	059H
	DB	0ceH
	DB	059H
	DB	0ceH
	DB	059H
	DB	0ceH
	DB	059H
	DB	0ceH
	DB	059H
	DB	0ceH
	DB	059H
	DB	0ceH
	DB	059H
	DB	0ceH
	DB	059H
	DB	0ceH
	DB	059H
	DB	0ceH
	DB	059H
	DB	0ceH
	DB	059H
	DB	0ceH
	DB	059H
	DB	0ceH
	DB	059H
	DB	0ceH
	DB	059H
	DB	0ceH
	DB	059H
	DB	0ceH
	DB	059H
	DB	0ceH
	DB	059H
	DB	0ceH
	DB	059H
	DB	0ceH
	DB	059H
	DB	0ceH
	DB	059H
	DB	0ceH
	DB	059H
	DB	0ceH
	DB	059H
	DB	0ceH
	DB	059H
	DB	0ceH
	DB	059H
	DB	0ceH
	DB	059H
	DB	0ceH
	DB	059H
	DB	0ceH
	DB	059H
	DB	0ceH
	DB	059H
	DB	0ceH
	DB	059H
	DB	0ceH
	DB	059H
	DB	0ceH
	DB	059H
	DB	0ceH
	DB	059H
	DB	0ceH
	DB	059H
	DB	0ceH
	DB	059H
	DB	0ceH
	DB	059H
	DB	0ceH
	DB	059H
	DB	0ceH
	DB	059H
	DB	0ceH
	DB	059H
	DB	0ceH
	DB	059H
	DB	0ceH
	DB	059H
	DB	0ceH
	DB	059H
	DB	0ceH
	DB	059H
	DB	0ceH
	DB	059H
	DB	0ceH
	DB	059H
	DB	0ceH
	DB	059H
	DB	0ceH
	DB	059H
	DB	0ceH
	DB	059H
	DB	0ceH
	DB	059H
	DB	0ceH
	DB	059H
	DB	0ceH
	DB	059H
	DB	0ceH
	DB	059H
	DB	0ceH
	DB	059H
	DB	0ceH
	DB	01cH
	DB	0e7H
	DB	066H
	DB	029H
	DB	0c7H
	DB	031H
	DB	0c7H
	DB	031H
	DB	06aH
	DB	04aH
	DB	06aH
	DB	042H
	DB	0a7H
	DB	031H
	DB	0a7H
	DB	029H
	DB	086H
	DB	029H
	DB	01cH
	DB	0e7H
	DB	059H
	DB	0ceH
	DB	059H
	DB	0ceH
	DB	059H
	DB	0ceH
	DB	059H
	DB	0ceH
	DB	059H
	DB	0ceH
	DB	059H
	DB	0ceH
	DB	059H
	DB	0ceH
	DB	059H
	DB	0ceH
	DB	059H
	DB	0ceH
	DB	059H
	DB	0ceH
	DB	059H
	DB	0ceH
	DB	059H
	DB	0ceH
	DB	059H
	DB	0ceH
	DB	059H
	DB	0ceH
	DB	059H
	DB	0ceH
	DB	059H
	DB	0ceH
	DB	059H
	DB	0ceH
	DB	059H
	DB	0ceH
	DB	059H
	DB	0ceH
	DB	059H
	DB	0ceH
	DB	059H
	DB	0ceH
	DB	059H
	DB	0ceH
	DB	059H
	DB	0ceH
	DB	059H
	DB	0ceH
	DB	059H
	DB	0ceH
	DB	059H
	DB	0ceH
	DB	059H
	DB	0ceH
	DB	059H
	DB	0ceH
	DB	059H
	DB	0ceH
	DB	059H
	DB	0ceH
	DB	059H
	DB	0ceH
	DB	059H
	DB	0ceH
	DB	059H
	DB	0ceH
	DB	059H
	DB	0ceH
	DB	059H
	DB	0ceH
	DB	059H
	DB	0ceH
	DB	059H
	DB	0ceH
	DB	059H
	DB	0ceH
	DB	059H
	DB	0ceH
	DB	059H
	DB	0ceH
	DB	059H
	DB	0ceH
	DB	059H
	DB	0ceH
	DB	059H
	DB	0ceH
	DB	059H
	DB	0ceH
	DB	059H
	DB	0ceH
	DB	059H
	DB	0ceH
	DB	059H
	DB	0ceH
	DB	059H
	DB	0ceH
	DB	059H
	DB	0ceH
	DB	059H
	DB	0ceH
	DB	059H
	DB	0ceH
	DB	059H
	DB	0ceH
	DB	059H
	DB	0ceH
	DB	059H
	DB	0ceH
	DB	059H
	DB	0ceH
	DB	059H
	DB	0ceH
	DB	059H
	DB	0ceH
	DB	059H
	DB	0ceH
	DB	059H
	DB	0ceH
	DB	059H
	DB	0ceH
	DB	059H
	DB	0ceH
	DB	059H
	DB	0ceH
	DB	059H
	DB	0ceH
	DB	059H
	DB	0ceH
	DB	059H
	DB	0ceH
	DB	059H
	DB	0ceH
	DB	059H
	DB	0ceH
	DB	059H
	DB	0ceH
	DB	059H
	DB	0ceH
	DB	059H
	DB	0ceH
	DB	059H
	DB	0ceH
	DB	059H
	DB	0ceH
	DB	059H
	DB	0ceH
	DB	059H
	DB	0ceH
	DB	059H
	DB	0ceH
	DB	059H
	DB	0ceH
	DB	059H
	DB	0ceH
	DB	059H
	DB	0ceH
	DB	059H
	DB	0ceH
	DB	059H
	DB	0ceH
	DB	059H
	DB	0ceH
	DB	059H
	DB	0ceH
	DB	059H
	DB	0ceH
	DB	059H
	DB	0ceH
	DB	059H
	DB	0ceH
	DB	059H
	DB	0ceH
	DB	059H
	DB	0ceH
	DB	059H
	DB	0ceH
	DB	059H
	DB	0ceH
	DB	059H
	DB	0ceH
	DB	059H
	DB	0ceH
	DB	059H
	DB	0ceH
	DB	059H
	DB	0ceH
	DB	059H
	DB	0ceH
	DB	059H
	DB	0ceH
	DB	059H
	DB	0ceH
	DB	059H
	DB	0ceH
	DB	059H
	DB	0ceH
	DB	059H
	DB	0ceH
	DB	059H
	DB	0ceH
	DB	059H
	DB	0ceH
	DB	059H
	DB	0ceH
	DB	059H
	DB	0ceH
	DB	059H
	DB	0ceH
	DB	059H
	DB	0ceH
	DB	059H
	DB	0ceH
	DB	059H
	DB	0ceH
	DB	059H
	DB	0ceH
	DB	059H
	DB	0ceH
	DB	059H
	DB	0ceH
	DB	059H
	DB	0ceH
	DB	059H
	DB	0ceH
	DB	059H
	DB	0ceH
	DB	059H
	DB	0ceH
	DB	059H
	DB	0ceH
	DB	059H
	DB	0ceH
	DB	059H
	DB	0ceH
	DB	059H
	DB	0ceH
	DB	059H
	DB	0ceH
	DB	059H
	DB	0ceH
	DB	01cH
	DB	0e7H
	DB	046H
	DB	029H
	DB	0c7H
	DB	031H
	DB	0e8H
	DB	039H
	DB	0abH
	DB	052H
	DB	08bH
	DB	04aH
	DB	087H
	DB	031H
	DB	0a7H
	DB	031H
	DB	086H
	DB	029H
	DB	03dH
	DB	0e7H
	DB	059H
	DB	0ceH
	DB	059H
	DB	0ceH
	DB	059H
	DB	0ceH
	DB	059H
	DB	0ceH
	DB	059H
	DB	0ceH
	DB	059H
	DB	0ceH
	DB	059H
	DB	0ceH
	DB	059H
	DB	0ceH
	DB	059H
	DB	0ceH
	DB	059H
	DB	0ceH
	DB	059H
	DB	0ceH
	DB	059H
	DB	0ceH
	DB	059H
	DB	0ceH
	DB	059H
	DB	0ceH
	DB	059H
	DB	0ceH
	DB	059H
	DB	0ceH
	DB	059H
	DB	0ceH
	DB	059H
	DB	0ceH
	DB	059H
	DB	0ceH
	DB	059H
	DB	0ceH
	DB	059H
	DB	0ceH
	DB	059H
	DB	0ceH
	DB	059H
	DB	0ceH
	DB	059H
	DB	0ceH
	DB	059H
	DB	0ceH
	DB	059H
	DB	0ceH
	DB	059H
	DB	0ceH
	DB	059H
	DB	0ceH
	DB	059H
	DB	0ceH
	DB	059H
	DB	0ceH
	DB	059H
	DB	0ceH
	DB	059H
	DB	0ceH
	DB	059H
	DB	0ceH
	DB	059H
	DB	0ceH
	DB	059H
	DB	0ceH
	DB	059H
	DB	0ceH
	DB	059H
	DB	0ceH
	DB	059H
	DB	0ceH
	DB	059H
	DB	0ceH
	DB	059H
	DB	0ceH
	DB	059H
	DB	0ceH
	DB	059H
	DB	0ceH
	DB	059H
	DB	0ceH
	DB	059H
	DB	0ceH
	DB	059H
	DB	0ceH
	DB	059H
	DB	0ceH
	DB	059H
	DB	0ceH
	DB	059H
	DB	0ceH
	DB	059H
	DB	0ceH
	DB	059H
	DB	0ceH
	DB	059H
	DB	0ceH
	DB	059H
	DB	0ceH
	DB	059H
	DB	0ceH
	DB	059H
	DB	0ceH
	DB	059H
	DB	0ceH
	DB	059H
	DB	0ceH
	DB	059H
	DB	0ceH
	DB	059H
	DB	0ceH
	DB	059H
	DB	0ceH
	DB	059H
	DB	0ceH
	DB	059H
	DB	0ceH
	DB	059H
	DB	0ceH
	DB	059H
	DB	0ceH
	DB	059H
	DB	0ceH
	DB	059H
	DB	0ceH
	DB	059H
	DB	0ceH
	DB	059H
	DB	0ceH
	DB	059H
	DB	0ceH
	DB	059H
	DB	0ceH
	DB	059H
	DB	0ceH
	DB	059H
	DB	0ceH
	DB	059H
	DB	0ceH
	DB	059H
	DB	0ceH
	DB	059H
	DB	0ceH
	DB	059H
	DB	0ceH
	DB	059H
	DB	0ceH
	DB	059H
	DB	0ceH
	DB	059H
	DB	0ceH
	DB	059H
	DB	0ceH
	DB	059H
	DB	0ceH
	DB	059H
	DB	0ceH
	DB	059H
	DB	0ceH
	DB	059H
	DB	0ceH
	DB	059H
	DB	0ceH
	DB	059H
	DB	0ceH
	DB	059H
	DB	0ceH
	DB	059H
	DB	0ceH
	DB	059H
	DB	0ceH
	DB	059H
	DB	0ceH
	DB	059H
	DB	0ceH
	DB	059H
	DB	0ceH
	DB	059H
	DB	0ceH
	DB	059H
	DB	0ceH
	DB	059H
	DB	0ceH
	DB	059H
	DB	0ceH
	DB	059H
	DB	0ceH
	DB	059H
	DB	0ceH
	DB	059H
	DB	0ceH
	DB	059H
	DB	0ceH
	DB	059H
	DB	0ceH
	DB	059H
	DB	0ceH
	DB	059H
	DB	0ceH
	DB	059H
	DB	0ceH
	DB	059H
	DB	0ceH
	DB	059H
	DB	0ceH
	DB	059H
	DB	0ceH
	DB	059H
	DB	0ceH
	DB	059H
	DB	0ceH
	DB	059H
	DB	0ceH
	DB	059H
	DB	0ceH
	DB	059H
	DB	0ceH
	DB	059H
	DB	0ceH
	DB	059H
	DB	0ceH
	DB	059H
	DB	0ceH
	DB	059H
	DB	0ceH
	DB	059H
	DB	0ceH
	DB	059H
	DB	0ceH
	DB	059H
	DB	0ceH
	DB	059H
	DB	0ceH
	DB	079H
	DB	0ceH
	DB	03dH
	DB	0efH
	DB	025H
	DB	021H
	DB	0a7H
	DB	029H
	DB	0e8H
	DB	031H
	DB	08bH
	DB	04aH
	DB	069H
	DB	042H
	DB	0c7H
	DB	031H
	DB	0a7H
	DB	031H
	DB	086H
	DB	029H
	DB	07aH
	DB	0ceH
	DB	0baH
	DB	0deH
	DB	059H
	DB	0ceH
	DB	059H
	DB	0ceH
	DB	059H
	DB	0ceH
	DB	059H
	DB	0ceH
	DB	059H
	DB	0ceH
	DB	059H
	DB	0ceH
	DB	059H
	DB	0ceH
	DB	059H
	DB	0ceH
	DB	059H
	DB	0ceH
	DB	059H
	DB	0ceH
	DB	059H
	DB	0ceH
	DB	059H
	DB	0ceH
	DB	059H
	DB	0ceH
	DB	059H
	DB	0ceH
	DB	059H
	DB	0ceH
	DB	059H
	DB	0ceH
	DB	059H
	DB	0ceH
	DB	059H
	DB	0ceH
	DB	059H
	DB	0ceH
	DB	059H
	DB	0ceH
	DB	059H
	DB	0ceH
	DB	059H
	DB	0ceH
	DB	059H
	DB	0ceH
	DB	059H
	DB	0ceH
	DB	059H
	DB	0ceH
	DB	059H
	DB	0ceH
	DB	059H
	DB	0ceH
	DB	059H
	DB	0ceH
	DB	059H
	DB	0ceH
	DB	059H
	DB	0ceH
	DB	059H
	DB	0ceH
	DB	059H
	DB	0ceH
	DB	059H
	DB	0ceH
	DB	059H
	DB	0ceH
	DB	059H
	DB	0ceH
	DB	059H
	DB	0ceH
	DB	059H
	DB	0ceH
	DB	059H
	DB	0ceH
	DB	059H
	DB	0ceH
	DB	059H
	DB	0ceH
	DB	059H
	DB	0ceH
	DB	059H
	DB	0ceH
	DB	059H
	DB	0ceH
	DB	059H
	DB	0ceH
	DB	059H
	DB	0ceH
	DB	059H
	DB	0ceH
	DB	059H
	DB	0ceH
	DB	059H
	DB	0ceH
	DB	059H
	DB	0ceH
	DB	059H
	DB	0ceH
	DB	059H
	DB	0ceH
	DB	059H
	DB	0ceH
	DB	059H
	DB	0ceH
	DB	059H
	DB	0ceH
	DB	059H
	DB	0ceH
	DB	059H
	DB	0ceH
	DB	059H
	DB	0ceH
	DB	059H
	DB	0ceH
	DB	059H
	DB	0ceH
	DB	059H
	DB	0ceH
	DB	059H
	DB	0ceH
	DB	059H
	DB	0ceH
	DB	059H
	DB	0ceH
	DB	059H
	DB	0ceH
	DB	059H
	DB	0ceH
	DB	059H
	DB	0ceH
	DB	059H
	DB	0ceH
	DB	059H
	DB	0ceH
	DB	059H
	DB	0ceH
	DB	059H
	DB	0ceH
	DB	059H
	DB	0ceH
	DB	059H
	DB	0ceH
	DB	059H
	DB	0ceH
	DB	059H
	DB	0ceH
	DB	059H
	DB	0ceH
	DB	059H
	DB	0ceH
	DB	059H
	DB	0ceH
	DB	059H
	DB	0ceH
	DB	059H
	DB	0ceH
	DB	059H
	DB	0ceH
	DB	059H
	DB	0ceH
	DB	059H
	DB	0ceH
	DB	059H
	DB	0ceH
	DB	059H
	DB	0ceH
	DB	059H
	DB	0ceH
	DB	059H
	DB	0ceH
	DB	059H
	DB	0ceH
	DB	059H
	DB	0ceH
	DB	059H
	DB	0ceH
	DB	059H
	DB	0ceH
	DB	059H
	DB	0ceH
	DB	059H
	DB	0ceH
	DB	059H
	DB	0ceH
	DB	059H
	DB	0ceH
	DB	059H
	DB	0ceH
	DB	059H
	DB	0ceH
	DB	059H
	DB	0ceH
	DB	059H
	DB	0ceH
	DB	059H
	DB	0ceH
	DB	059H
	DB	0ceH
	DB	059H
	DB	0ceH
	DB	059H
	DB	0ceH
	DB	059H
	DB	0ceH
	DB	059H
	DB	0ceH
	DB	059H
	DB	0ceH
	DB	059H
	DB	0ceH
	DB	059H
	DB	0ceH
	DB	059H
	DB	0ceH
	DB	059H
	DB	0ceH
	DB	059H
	DB	0ceH
	DB	059H
	DB	0ceH
	DB	059H
	DB	0ceH
	DB	059H
	DB	0ceH
	DB	059H
	DB	0ceH
	DB	059H
	DB	0ceH
	DB	059H
	DB	0ceH
	DB	059H
	DB	0ceH
	DB	059H
	DB	0ceH
	DB	0baH
	DB	0deH
	DB	07aH
	DB	0d6H
	DB	045H
	DB	021H
	DB	0a6H
	DB	029H
	DB	0c7H
	DB	031H
	DB	08bH
	DB	04aH
	DB	029H
	DB	03aH
	DB	0c7H
	DB	031H
	DB	0a7H
	DB	031H
	DB	087H
	DB	029H
	DB	0cH
	DB	063H
	DB	07eH
	DB	0f7H
	DB	0fbH
	DB	0deH
	DB	07aH
	DB	0ceH
	DB	059H
	DB	0ceH
	DB	059H
	DB	0ceH
	DB	059H
	DB	0ceH
	DB	059H
	DB	0ceH
	DB	059H
	DB	0ceH
	DB	059H
	DB	0ceH
	DB	059H
	DB	0ceH
	DB	059H
	DB	0ceH
	DB	059H
	DB	0ceH
	DB	059H
	DB	0ceH
	DB	059H
	DB	0ceH
	DB	059H
	DB	0ceH
	DB	059H
	DB	0ceH
	DB	059H
	DB	0ceH
	DB	059H
	DB	0ceH
	DB	059H
	DB	0ceH
	DB	059H
	DB	0ceH
	DB	059H
	DB	0ceH
	DB	059H
	DB	0ceH
	DB	059H
	DB	0ceH
	DB	059H
	DB	0ceH
	DB	059H
	DB	0ceH
	DB	059H
	DB	0ceH
	DB	059H
	DB	0ceH
	DB	059H
	DB	0ceH
	DB	059H
	DB	0ceH
	DB	059H
	DB	0ceH
	DB	059H
	DB	0ceH
	DB	059H
	DB	0ceH
	DB	059H
	DB	0ceH
	DB	059H
	DB	0ceH
	DB	059H
	DB	0ceH
	DB	059H
	DB	0ceH
	DB	059H
	DB	0ceH
	DB	059H
	DB	0ceH
	DB	059H
	DB	0ceH
	DB	059H
	DB	0ceH
	DB	059H
	DB	0ceH
	DB	059H
	DB	0ceH
	DB	059H
	DB	0ceH
	DB	059H
	DB	0ceH
	DB	059H
	DB	0ceH
	DB	059H
	DB	0ceH
	DB	059H
	DB	0ceH
	DB	059H
	DB	0ceH
	DB	059H
	DB	0ceH
	DB	059H
	DB	0ceH
	DB	059H
	DB	0ceH
	DB	059H
	DB	0ceH
	DB	059H
	DB	0ceH
	DB	059H
	DB	0ceH
	DB	059H
	DB	0ceH
	DB	059H
	DB	0ceH
	DB	059H
	DB	0ceH
	DB	059H
	DB	0ceH
	DB	059H
	DB	0ceH
	DB	059H
	DB	0ceH
	DB	059H
	DB	0ceH
	DB	059H
	DB	0ceH
	DB	059H
	DB	0ceH
	DB	059H
	DB	0ceH
	DB	059H
	DB	0ceH
	DB	059H
	DB	0ceH
	DB	059H
	DB	0ceH
	DB	059H
	DB	0ceH
	DB	059H
	DB	0ceH
	DB	059H
	DB	0ceH
	DB	059H
	DB	0ceH
	DB	059H
	DB	0ceH
	DB	059H
	DB	0ceH
	DB	059H
	DB	0ceH
	DB	059H
	DB	0ceH
	DB	059H
	DB	0ceH
	DB	059H
	DB	0ceH
	DB	059H
	DB	0ceH
	DB	059H
	DB	0ceH
	DB	059H
	DB	0ceH
	DB	059H
	DB	0ceH
	DB	059H
	DB	0ceH
	DB	059H
	DB	0ceH
	DB	059H
	DB	0ceH
	DB	059H
	DB	0ceH
	DB	059H
	DB	0ceH
	DB	059H
	DB	0ceH
	DB	059H
	DB	0ceH
	DB	059H
	DB	0ceH
	DB	059H
	DB	0ceH
	DB	059H
	DB	0ceH
	DB	059H
	DB	0ceH
	DB	059H
	DB	0ceH
	DB	059H
	DB	0ceH
	DB	059H
	DB	0ceH
	DB	059H
	DB	0ceH
	DB	059H
	DB	0ceH
	DB	059H
	DB	0ceH
	DB	059H
	DB	0ceH
	DB	059H
	DB	0ceH
	DB	059H
	DB	0ceH
	DB	059H
	DB	0ceH
	DB	059H
	DB	0ceH
	DB	059H
	DB	0ceH
	DB	059H
	DB	0ceH
	DB	059H
	DB	0ceH
	DB	059H
	DB	0ceH
	DB	059H
	DB	0ceH
	DB	059H
	DB	0ceH
	DB	059H
	DB	0ceH
	DB	059H
	DB	0ceH
	DB	059H
	DB	0ceH
	DB	059H
	DB	0ceH
	DB	059H
	DB	0ceH
	DB	059H
	DB	0ceH
	DB	059H
	DB	0ceH
	DB	059H
	DB	0ceH
	DB	07aH
	DB	0d6H
	DB	0fbH
	DB	0deH
	DB	07eH
	DB	0f7H
	DB	0cH
	DB	063H
	DB	046H
	DB	021H
	DB	0a7H
	DB	031H
	DB	0e8H
	DB	039H
	DB	04aH
	DB	042H
	DB	09H
	DB	03aH
	DB	0c8H
	DB	031H
	DB	0a7H
	DB	029H
	DB	087H
	DB	031H
	DB	025H
	DB	021H
	DB	0ecH
	DB	05aH
	DB	059H
	DB	0ceH
	DB	09eH
	DB	0f7H
	DB	0bfH
	DB	0ffH
	DB	0bfH
	DB	0ffH
	DB	0dfH
	DB	0ffH
	DB	0bfH
	DB	0ffH
	DB	0bfH
	DB	0ffH
	DB	0dfH
	DB	0ffH
	DB	0bfH
	DB	0ffH
	DB	0bfH
	DB	0ffH
	DB	0dfH
	DB	0ffH
	DB	0bfH
	DB	0ffH
	DB	0dfH
	DB	0ffH
	DB	0bfH
	DB	0ffH
	DB	0dfH
	DB	0ffH
	DB	0bfH
	DB	0ffH
	DB	0dfH
	DB	0ffH
	DB	0dfH
	DB	0ffH
	DB	0bfH
	DB	0ffH
	DB	0dfH
	DB	0ffH
	DB	0dfH
	DB	0ffH
	DB	0bfH
	DB	0ffH
	DB	0dfH
	DB	0ffH
	DB	0dfH
	DB	0ffH
	DB	0bfH
	DB	0ffH
	DB	0dfH
	DB	0ffH
	DB	0bfH
	DB	0ffH
	DB	0dfH
	DB	0ffH
	DB	0bfH
	DB	0ffH
	DB	0bfH
	DB	0ffH
	DB	0dfH
	DB	0ffH
	DB	0bfH
	DB	0ffH
	DB	0bfH
	DB	0ffH
	DB	0dfH
	DB	0ffH
	DB	0bfH
	DB	0ffH
	DB	0bfH
	DB	0ffH
	DB	0dfH
	DB	0ffH
	DB	0bfH
	DB	0ffH
	DB	0dfH
	DB	0ffH
	DB	0bfH
	DB	0ffH
	DB	0dfH
	DB	0ffH
	DB	0bfH
	DB	0ffH
	DB	0dfH
	DB	0ffH
	DB	0bfH
	DB	0ffH
	DB	0bfH
	DB	0ffH
	DB	0dfH
	DB	0ffH
	DB	0bfH
	DB	0ffH
	DB	0bfH
	DB	0ffH
	DB	0dfH
	DB	0ffH
	DB	0bfH
	DB	0ffH
	DB	0bfH
	DB	0ffH
	DB	0dfH
	DB	0ffH
	DB	0bfH
	DB	0ffH
	DB	0bfH
	DB	0ffH
	DB	0dfH
	DB	0ffH
	DB	0bfH
	DB	0ffH
	DB	0bfH
	DB	0ffH
	DB	0dfH
	DB	0ffH
	DB	0bfH
	DB	0ffH
	DB	0bfH
	DB	0ffH
	DB	0dfH
	DB	0ffH
	DB	0bfH
	DB	0ffH
	DB	0bfH
	DB	0ffH
	DB	0dfH
	DB	0ffH
	DB	0bfH
	DB	0ffH
	DB	0bfH
	DB	0ffH
	DB	0dfH
	DB	0ffH
	DB	0bfH
	DB	0ffH
	DB	0bfH
	DB	0ffH
	DB	0dfH
	DB	0ffH
	DB	0bfH
	DB	0ffH
	DB	0bfH
	DB	0ffH
	DB	0dfH
	DB	0ffH
	DB	0bfH
	DB	0ffH
	DB	0bfH
	DB	0ffH
	DB	0dfH
	DB	0ffH
	DB	0bfH
	DB	0ffH
	DB	0bfH
	DB	0ffH
	DB	0dfH
	DB	0ffH
	DB	0bfH
	DB	0ffH
	DB	0bfH
	DB	0ffH
	DB	0dfH
	DB	0ffH
	DB	0bfH
	DB	0ffH
	DB	0bfH
	DB	0ffH
	DB	0dfH
	DB	0ffH
	DB	0bfH
	DB	0ffH
	DB	0bfH
	DB	0ffH
	DB	0dfH
	DB	0ffH
	DB	0bfH
	DB	0ffH
	DB	0bfH
	DB	0ffH
	DB	0dfH
	DB	0ffH
	DB	0dfH
	DB	0ffH
	DB	0bfH
	DB	0ffH
	DB	0dfH
	DB	0ffH
	DB	0dfH
	DB	0ffH
	DB	0bfH
	DB	0ffH
	DB	0dfH
	DB	0ffH
	DB	0dfH
	DB	0ffH
	DB	0bfH
	DB	0ffH
	DB	0dfH
	DB	0ffH
	DB	0dfH
	DB	0ffH
	DB	0bfH
	DB	0ffH
	DB	0dfH
	DB	0ffH
	DB	0dfH
	DB	0ffH
	DB	0bfH
	DB	0ffH
	DB	0dfH
	DB	0ffH
	DB	0dfH
	DB	0ffH
	DB	0bfH
	DB	0ffH
	DB	0dfH
	DB	0ffH
	DB	0bfH
	DB	0ffH
	DB	0dfH
	DB	0ffH
	DB	0bfH
	DB	0ffH
	DB	0dfH
	DB	0ffH
	DB	0bfH
	DB	0ffH
	DB	0bfH
	DB	0ffH
	DB	0dfH
	DB	0ffH
	DB	09eH
	DB	0f7H
	DB	059H
	DB	0ceH
	DB	0ecH
	DB	05aH
	DB	04H
	DB	021H
	DB	046H
	DB	029H
	DB	0a7H
	DB	031H
	DB	049H
	DB	03aH
	DB	049H
	DB	042H
	DB	0cdH
	DB	0abH
	DB	049H
	DB	042H
	DB	0a7H
	DB	031H
	DB	086H
	DB	029H
	DB	045H
	DB	021H
	DB	04H
	DB	019H
	DB	0e4H
	DB	018H
	DB	0c3H
	DB	018H
	DB	0c3H
	DB	018H
	DB	0e4H
	DB	018H
	DB	0c3H
	DB	010H
	DB	0c3H
	DB	018H
	DB	0e3H
	DB	018H
	DB	0c3H
	DB	010H
	DB	0e4H
	DB	018H
	DB	0e4H
	DB	018H
	DB	0e4H
	DB	018H
	DB	0e4H
	DB	018H
	DB	0e3H
	DB	018H
	DB	0e4H
	DB	018H
	DB	0e4H
	DB	018H
	DB	0e3H
	DB	018H
	DB	04H
	DB	019H
	DB	0e4H
	DB	018H
	DB	0e4H
	DB	018H
	DB	04H
	DB	019H
	DB	0e4H
	DB	018H
	DB	0e4H
	DB	018H
	DB	04H
	DB	019H
	DB	0e4H
	DB	018H
	DB	0e4H
	DB	018H
	DB	04H
	DB	019H
	DB	04H
	DB	019H
	DB	04H
	DB	019H
	DB	0e4H
	DB	018H
	DB	0e4H
	DB	018H
	DB	04H
	DB	019H
	DB	0e4H
	DB	018H
	DB	04H
	DB	019H
	DB	0e4H
	DB	018H
	DB	0e4H
	DB	018H
	DB	024H
	DB	019H
	DB	04H
	DB	019H
	DB	04H
	DB	019H
	DB	0e4H
	DB	018H
	DB	0e4H
	DB	018H
	DB	04H
	DB	019H
	DB	0e4H
	DB	018H
	DB	0e4H
	DB	018H
	DB	04H
	DB	019H
	DB	0e4H
	DB	018H
	DB	04H
	DB	019H
	DB	04H
	DB	019H
	DB	0e4H
	DB	018H
	DB	04H
	DB	019H
	DB	0e4H
	DB	018H
	DB	0e4H
	DB	018H
	DB	04H
	DB	019H
	DB	0e4H
	DB	018H
	DB	04H
	DB	019H
	DB	04H
	DB	019H
	DB	0e4H
	DB	018H
	DB	04H
	DB	019H
	DB	04H
	DB	019H
	DB	0e4H
	DB	018H
	DB	04H
	DB	019H
	DB	0e4H
	DB	018H
	DB	0e4H
	DB	018H
	DB	04H
	DB	019H
	DB	0e4H
	DB	018H
	DB	04H
	DB	021H
	DB	04H
	DB	019H
	DB	0e4H
	DB	018H
	DB	04H
	DB	019H
	DB	0e4H
	DB	018H
	DB	0e4H
	DB	018H
	DB	024H
	DB	019H
	DB	0e4H
	DB	018H
	DB	0e4H
	DB	018H
	DB	04H
	DB	021H
	DB	04H
	DB	019H
	DB	04H
	DB	019H
	DB	04H
	DB	019H
	DB	0e4H
	DB	018H
	DB	04H
	DB	019H
	DB	0e4H
	DB	018H
	DB	04H
	DB	021H
	DB	04H
	DB	019H
	DB	0e4H
	DB	018H
	DB	04H
	DB	019H
	DB	04H
	DB	021H
	DB	04H
	DB	019H
	DB	04H
	DB	019H
	DB	0e4H
	DB	018H
	DB	04H
	DB	019H
	DB	04H
	DB	019H
	DB	04H
	DB	019H
	DB	04H
	DB	019H
	DB	0e4H
	DB	018H
	DB	04H
	DB	019H
	DB	04H
	DB	019H
	DB	04H
	DB	019H
	DB	04H
	DB	019H
	DB	04H
	DB	019H
	DB	0e4H
	DB	018H
	DB	04H
	DB	019H
	DB	04H
	DB	019H
	DB	04H
	DB	019H
	DB	04H
	DB	019H
	DB	0e4H
	DB	018H
	DB	0e4H
	DB	018H
	DB	04H
	DB	019H
	DB	04H
	DB	019H
	DB	0e4H
	DB	018H
	DB	0e4H
	DB	018H
	DB	0e4H
	DB	018H
	DB	04H
	DB	019H
	DB	0e4H
	DB	018H
	DB	0e4H
	DB	018H
	DB	0e4H
	DB	018H
	DB	0e3H
	DB	018H
	DB	0e4H
	DB	018H
	DB	0e4H
	DB	018H
	DB	04H
	DB	019H
	DB	04H
	DB	019H
	DB	04H
	DB	019H
	DB	045H
	DB	021H
	DB	0c7H
	DB	031H
	DB	06aH
	DB	04aH
	DB	0cdH
	DB	0abH
	DB	0cdH
	DB	0abH
	DB	029H
	DB	03aH
	DB	029H
	DB	042H
	DB	0a7H
	DB	031H
	DB	025H
	DB	021H
	DB	04H
	DB	021H
	DB	04H
	DB	019H
	DB	0e4H
	DB	018H
	DB	0e3H
	DB	018H
	DB	0c3H
	DB	010H
	DB	0c3H
	DB	018H
	DB	0e4H
	DB	018H
	DB	0e4H
	DB	018H
	DB	0e4H
	DB	018H
	DB	0c3H
	DB	010H
	DB	0e3H
	DB	018H
	DB	0e4H
	DB	018H
	DB	0e4H
	DB	018H
	DB	0e4H
	DB	018H
	DB	0e3H
	DB	010H
	DB	0e4H
	DB	018H
	DB	0e4H
	DB	018H
	DB	0e4H
	DB	018H
	DB	04H
	DB	019H
	DB	0e4H
	DB	018H
	DB	0c4H
	DB	018H
	DB	0e4H
	DB	018H
	DB	04H
	DB	021H
	DB	04H
	DB	019H
	DB	0e4H
	DB	018H
	DB	0c4H
	DB	018H
	DB	0e4H
	DB	018H
	DB	04H
	DB	021H
	DB	04H
	DB	019H
	DB	04H
	DB	019H
	DB	0e4H
	DB	018H
	DB	0e4H
	DB	018H
	DB	04H
	DB	021H
	DB	04H
	DB	019H
	DB	04H
	DB	019H
	DB	04H
	DB	019H
	DB	0e4H
	DB	018H
	DB	05H
	DB	021H
	DB	04H
	DB	021H
	DB	04H
	DB	019H
	DB	04H
	DB	019H
	DB	0e4H
	DB	018H
	DB	04H
	DB	019H
	DB	024H
	DB	021H
	DB	04H
	DB	019H
	DB	04H
	DB	019H
	DB	0e4H
	DB	018H
	DB	0e4H
	DB	018H
	DB	04H
	DB	019H
	DB	04H
	DB	019H
	DB	04H
	DB	021H
	DB	04H
	DB	019H
	DB	0e4H
	DB	018H
	DB	04H
	DB	019H
	DB	04H
	DB	019H
	DB	0e4H
	DB	018H
	DB	04H
	DB	019H
	DB	0e4H
	DB	018H
	DB	04H
	DB	019H
	DB	04H
	DB	019H
	DB	04H
	DB	019H
	DB	04H
	DB	021H
	DB	0e4H
	DB	018H
	DB	0e4H
	DB	018H
	DB	04H
	DB	021H
	DB	025H
	DB	021H
	DB	04H
	DB	019H
	DB	04H
	DB	019H
	DB	04H
	DB	019H
	DB	04H
	DB	019H
	DB	04H
	DB	021H
	DB	04H
	DB	019H
	DB	04H
	DB	019H
	DB	0e4H
	DB	018H
	DB	04H
	DB	019H
	DB	05H
	DB	021H
	DB	04H
	DB	019H
	DB	04H
	DB	019H
	DB	0e4H
	DB	018H
	DB	04H
	DB	019H
	DB	04H
	DB	019H
	DB	04H
	DB	019H
	DB	04H
	DB	021H
	DB	04H
	DB	019H
	DB	0e4H
	DB	018H
	DB	05H
	DB	021H
	DB	025H
	DB	021H
	DB	04H
	DB	019H
	DB	04H
	DB	019H
	DB	0e4H
	DB	018H
	DB	04H
	DB	019H
	DB	05H
	DB	021H
	DB	04H
	DB	019H
	DB	04H
	DB	019H
	DB	0e4H
	DB	018H
	DB	0e4H
	DB	018H
	DB	04H
	DB	021H
	DB	05H
	DB	021H
	DB	04H
	DB	019H
	DB	04H
	DB	019H
	DB	0e4H
	DB	018H
	DB	04H
	DB	019H
	DB	05H
	DB	021H
	DB	04H
	DB	019H
	DB	0e4H
	DB	018H
	DB	0e4H
	DB	018H
	DB	0e4H
	DB	018H
	DB	04H
	DB	021H
	DB	04H
	DB	019H
	DB	0e4H
	DB	018H
	DB	0e4H
	DB	018H
	DB	0e3H
	DB	018H
	DB	04H
	DB	019H
	DB	0e4H
	DB	018H
	DB	0e4H
	DB	018H
	DB	0e4H
	DB	018H
	DB	0e3H
	DB	018H
	DB	0e4H
	DB	018H
	DB	04H
	DB	019H
	DB	05H
	DB	021H
	DB	025H
	DB	021H
	DB	065H
	DB	021H
	DB	029H
	DB	03aH
	DB	06aH
	DB	04aH
	DB	0cdH
	DB	0abH
	DB	0cdH
	DB	0abH
	DB	0cdH
	DB	0abH
	DB	029H
	DB	03aH
	DB	029H
	DB	03aH
	DB	086H
	DB	029H
	DB	045H
	DB	021H
	DB	05H
	DB	021H
	DB	0e4H
	DB	018H
	DB	04H
	DB	019H
	DB	0e4H
	DB	018H
	DB	0c3H
	DB	010H
	DB	0e4H
	DB	018H
	DB	04H
	DB	019H
	DB	0e4H
	DB	018H
	DB	0e4H
	DB	018H
	DB	0e4H
	DB	018H
	DB	0e4H
	DB	018H
	DB	04H
	DB	019H
	DB	0e4H
	DB	018H
	DB	0e4H
	DB	018H
	DB	04H
	DB	019H
	DB	0e4H
	DB	018H
	DB	04H
	DB	019H
	DB	04H
	DB	019H
	DB	04H
	DB	019H
	DB	0e4H
	DB	018H
	DB	04H
	DB	019H
	DB	04H
	DB	019H
	DB	04H
	DB	019H
	DB	04H
	DB	021H
	DB	04H
	DB	019H
	DB	04H
	DB	019H
	DB	04H
	DB	019H
	DB	04H
	DB	021H
	DB	04H
	DB	021H
	DB	04H
	DB	019H
	DB	0e4H
	DB	018H
	DB	04H
	DB	019H
	DB	025H
	DB	021H
	DB	04H
	DB	021H
	DB	04H
	DB	019H
	DB	04H
	DB	019H
	DB	0e4H
	DB	018H
	DB	04H
	DB	021H
	DB	04H
	DB	021H
	DB	04H
	DB	021H
	DB	04H
	DB	019H
	DB	04H
	DB	021H
	DB	04H
	DB	019H
	DB	05H
	DB	021H
	DB	04H
	DB	021H
	DB	04H
	DB	019H
	DB	04H
	DB	019H
	DB	04H
	DB	021H
	DB	025H
	DB	021H
	DB	04H
	DB	019H
	DB	024H
	DB	021H
	DB	04H
	DB	019H
	DB	04H
	DB	019H
	DB	04H
	DB	021H
	DB	025H
	DB	021H
	DB	04H
	DB	021H
	DB	04H
	DB	019H
	DB	04H
	DB	019H
	DB	04H
	DB	021H
	DB	025H
	DB	021H
	DB	04H
	DB	019H
	DB	04H
	DB	019H
	DB	04H
	DB	019H
	DB	04H
	DB	019H
	DB	025H
	DB	021H
	DB	05H
	DB	021H
	DB	04H
	DB	021H
	DB	025H
	DB	021H
	DB	04H
	DB	019H
	DB	05H
	DB	021H
	DB	05H
	DB	021H
	DB	04H
	DB	019H
	DB	04H
	DB	021H
	DB	04H
	DB	019H
	DB	05H
	DB	019H
	DB	024H
	DB	021H
	DB	04H
	DB	021H
	DB	05H
	DB	021H
	DB	04H
	DB	019H
	DB	04H
	DB	019H
	DB	025H
	DB	021H
	DB	05H
	DB	019H
	DB	04H
	DB	019H
	DB	04H
	DB	019H
	DB	025H
	DB	021H
	DB	024H
	DB	021H
	DB	04H
	DB	019H
	DB	04H
	DB	021H
	DB	04H
	DB	021H
	DB	04H
	DB	019H
	DB	04H
	DB	021H
	DB	05H
	DB	021H
	DB	05H
	DB	021H
	DB	04H
	DB	021H
	DB	04H
	DB	019H
	DB	05H
	DB	021H
	DB	05H
	DB	021H
	DB	04H
	DB	019H
	DB	04H
	DB	019H
	DB	04H
	DB	021H
	DB	04H
	DB	019H
	DB	05H
	DB	021H
	DB	04H
	DB	021H
	DB	04H
	DB	019H
	DB	04H
	DB	019H
	DB	04H
	DB	019H
	DB	04H
	DB	021H
	DB	05H
	DB	019H
	DB	04H
	DB	019H
	DB	0e4H
	DB	018H
	DB	0e4H
	DB	018H
	DB	04H
	DB	019H
	DB	04H
	DB	019H
	DB	04H
	DB	019H
	DB	04H
	DB	019H
	DB	0e4H
	DB	018H
	DB	04H
	DB	019H
	DB	025H
	DB	021H
	DB	045H
	DB	021H
	DB	0a7H
	DB	029H
	DB	08H
	DB	03aH
	DB	08H
	DB	03aH
	DB	0cdH
	DB	0abH
	DB	0cdH
	DB	0abH
	DB	0cdH
	DB	0abH
	DB	0cdH
	DB	0abH
	DB	0cdH
	DB	0abH
	DB	029H
	DB	042H
	DB	08H
	DB	03aH
	DB	0a7H
	DB	029H
	DB	086H
	DB	029H
	DB	086H
	DB	029H
	DB	066H
	DB	029H
	DB	066H
	DB	029H
	DB	045H
	DB	021H
	DB	045H
	DB	021H
	DB	045H
	DB	021H
	DB	045H
	DB	021H
	DB	045H
	DB	021H
	DB	045H
	DB	021H
	DB	025H
	DB	021H
	DB	045H
	DB	021H
	DB	065H
	DB	029H
	DB	066H
	DB	029H
	DB	065H
	DB	029H
	DB	025H
	DB	021H
	DB	045H
	DB	021H
	DB	046H
	DB	029H
	DB	045H
	DB	029H
	DB	045H
	DB	021H
	DB	045H
	DB	021H
	DB	045H
	DB	021H
	DB	045H
	DB	021H
	DB	045H
	DB	021H
	DB	045H
	DB	021H
	DB	045H
	DB	021H
	DB	025H
	DB	021H
	DB	046H
	DB	021H
	DB	066H
	DB	029H
	DB	045H
	DB	021H
	DB	045H
	DB	021H
	DB	045H
	DB	021H
	DB	045H
	DB	021H
	DB	045H
	DB	021H
	DB	045H
	DB	029H
	DB	066H
	DB	029H
	DB	045H
	DB	021H
	DB	025H
	DB	021H
	DB	046H
	DB	021H
	DB	066H
	DB	029H
	DB	066H
	DB	029H
	DB	046H
	DB	021H
	DB	025H
	DB	021H
	DB	045H
	DB	029H
	DB	066H
	DB	029H
	DB	045H
	DB	029H
	DB	045H
	DB	021H
	DB	045H
	DB	021H
	DB	045H
	DB	021H
	DB	066H
	DB	029H
	DB	046H
	DB	029H
	DB	046H
	DB	029H
	DB	045H
	DB	021H
	DB	045H
	DB	021H
	DB	066H
	DB	029H
	DB	066H
	DB	029H
	DB	066H
	DB	029H
	DB	045H
	DB	021H
	DB	045H
	DB	021H
	DB	066H
	DB	029H
	DB	066H
	DB	029H
	DB	066H
	DB	029H
	DB	066H
	DB	029H
	DB	045H
	DB	021H
	DB	045H
	DB	021H
	DB	045H
	DB	021H
	DB	066H
	DB	029H
	DB	066H
	DB	029H
	DB	045H
	DB	021H
	DB	045H
	DB	021H
	DB	066H
	DB	029H
	DB	066H
	DB	029H
	DB	066H
	DB	029H
	DB	045H
	DB	029H
	DB	025H
	DB	021H
	DB	046H
	DB	029H
	DB	066H
	DB	029H
	DB	045H
	DB	021H
	DB	066H
	DB	029H
	DB	045H
	DB	021H
	DB	045H
	DB	021H
	DB	066H
	DB	029H
	DB	065H
	DB	029H
	DB	066H
	DB	029H
	DB	046H
	DB	021H
	DB	045H
	DB	021H
	DB	066H
	DB	021H
	DB	066H
	DB	029H
	DB	066H
	DB	029H
	DB	066H
	DB	021H
	DB	045H
	DB	021H
	DB	045H
	DB	021H
	DB	066H
	DB	029H
	DB	066H
	DB	029H
	DB	066H
	DB	029H
	DB	045H
	DB	021H
	DB	065H
	DB	021H
	DB	066H
	DB	029H
	DB	066H
	DB	029H
	DB	066H
	DB	029H
	DB	045H
	DB	021H
	DB	045H
	DB	021H
	DB	066H
	DB	029H
	DB	066H
	DB	029H
	DB	066H
	DB	029H
	DB	045H
	DB	029H
	DB	045H
	DB	021H
	DB	046H
	DB	029H
	DB	066H
	DB	029H
	DB	065H
	DB	029H
	DB	066H
	DB	029H
	DB	045H
	DB	021H
	DB	046H
	DB	029H
	DB	066H
	DB	029H
	DB	086H
	DB	029H
	DB	086H
	DB	029H
	DB	086H
	DB	029H
	DB	087H
	DB	029H
	DB	0c7H
	DB	031H
	DB	0e8H
	DB	039H
	DB	09H
	DB	03aH
	DB	0cdH
	DB	0abH
	DB	0cdH
	DB	0abH
	DB	0cdH
	DB	0abH
	DB	0cdH
	DB	0abH
	DB	0cdH
	DB	0abH
	DB	0cdH
	DB	0abH
	DB	0cdH
	DB	0abH
	DB	0cdH
	DB	0abH
	DB	0e7H
	DB	031H
	DB	087H
	DB	029H
	DB	0a7H
	DB	031H
	DB	0a7H
	DB	031H
	DB	086H
	DB	029H
	DB	086H
	DB	029H
	DB	066H
	DB	029H
	DB	045H
	DB	021H
	DB	087H
	DB	029H
	DB	086H
	DB	029H
	DB	066H
	DB	029H
	DB	066H
	DB	029H
	DB	066H
	DB	029H
	DB	086H
	DB	029H
	DB	086H
	DB	029H
	DB	066H
	DB	029H
	DB	066H
	DB	029H
	DB	066H
	DB	021H
	DB	086H
	DB	029H
	DB	086H
	DB	029H
	DB	086H
	DB	029H
	DB	086H
	DB	029H
	DB	066H
	DB	021H
	DB	066H
	DB	029H
	DB	086H
	DB	029H
	DB	066H
	DB	029H
	DB	086H
	DB	029H
	DB	066H
	DB	029H
	DB	046H
	DB	021H
	DB	086H
	DB	029H
	DB	086H
	DB	029H
	DB	086H
	DB	029H
	DB	086H
	DB	029H
	DB	046H
	DB	021H
	DB	086H
	DB	029H
	DB	086H
	DB	029H
	DB	066H
	DB	029H
	DB	086H
	DB	029H
	DB	086H
	DB	029H
	DB	066H
	DB	029H
	DB	087H
	DB	029H
	DB	086H
	DB	029H
	DB	086H
	DB	029H
	DB	066H
	DB	029H
	DB	066H
	DB	021H
	DB	0a7H
	DB	029H
	DB	087H
	DB	029H
	DB	086H
	DB	029H
	DB	086H
	DB	029H
	DB	066H
	DB	029H
	DB	086H
	DB	029H
	DB	087H
	DB	029H
	DB	086H
	DB	029H
	DB	087H
	DB	029H
	DB	086H
	DB	029H
	DB	066H
	DB	029H
	DB	086H
	DB	029H
	DB	086H
	DB	029H
	DB	086H
	DB	029H
	DB	086H
	DB	029H
	DB	066H
	DB	029H
	DB	086H
	DB	029H
	DB	0a7H
	DB	031H
	DB	086H
	DB	029H
	DB	086H
	DB	029H
	DB	066H
	DB	029H
	DB	066H
	DB	029H
	DB	0a7H
	DB	031H
	DB	086H
	DB	029H
	DB	086H
	DB	029H
	DB	066H
	DB	029H
	DB	066H
	DB	021H
	DB	0a6H
	DB	029H
	DB	086H
	DB	029H
	DB	086H
	DB	029H
	DB	086H
	DB	029H
	DB	066H
	DB	021H
	DB	086H
	DB	029H
	DB	087H
	DB	029H
	DB	086H
	DB	029H
	DB	086H
	DB	029H
	DB	066H
	DB	029H
	DB	086H
	DB	029H
	DB	087H
	DB	029H
	DB	086H
	DB	029H
	DB	086H
	DB	029H
	DB	066H
	DB	029H
	DB	086H
	DB	029H
	DB	0a7H
	DB	031H
	DB	087H
	DB	029H
	DB	086H
	DB	029H
	DB	086H
	DB	029H
	DB	066H
	DB	029H
	DB	086H
	DB	029H
	DB	0a7H
	DB	029H
	DB	086H
	DB	029H
	DB	086H
	DB	029H
	DB	066H
	DB	029H
	DB	086H
	DB	029H
	DB	0a7H
	DB	029H
	DB	086H
	DB	029H
	DB	087H
	DB	029H
	DB	086H
	DB	029H
	DB	086H
	DB	029H
	DB	0a7H
	DB	029H
	DB	087H
	DB	031H
	DB	086H
	DB	029H
	DB	086H
	DB	029H
	DB	066H
	DB	029H
	DB	087H
	DB	029H
	DB	087H
	DB	029H
	DB	086H
	DB	029H
	DB	086H
	DB	029H
	DB	086H
	DB	029H
	DB	087H
	DB	029H
	DB	0a7H
	DB	031H
	DB	0a7H
	DB	031H
	DB	0c7H
	DB	031H
	DB	0a7H
	DB	031H
	DB	0c7H
	DB	031H
	DB	0cdH
	DB	0abH
	DB	0cdH
	DB	0abH
	DB	0cdH
	DB	0abH
	DB	0cdH
	DB	0abH
	DB	0cdH
	DB	0abH
?_down_btn_alpha_channel@@3QBEB DB 00H			; _down_btn_alpha_channel
	DB	00H
	DB	00H
	DB	0ffH
	DB	0ffH
	DB	0ffH
	DB	0ffH
	DB	0ffH
	DB	0ffH
	DB	0ffH
	DB	0ffH
	DB	0ffH
	DB	0ffH
	DB	0ffH
	DB	0ffH
	DB	0ffH
	DB	0ffH
	DB	0ffH
	DB	0ffH
	DB	0ffH
	DB	0ffH
	DB	0ffH
	DB	0ffH
	DB	0ffH
	DB	0ffH
	DB	0ffH
	DB	0ffH
	DB	0ffH
	DB	0ffH
	DB	0ffH
	DB	0ffH
	DB	0ffH
	DB	0ffH
	DB	0ffH
	DB	0ffH
	DB	0ffH
	DB	0ffH
	DB	0ffH
	DB	0ffH
	DB	0ffH
	DB	0ffH
	DB	0ffH
	DB	0ffH
	DB	0ffH
	DB	0ffH
	DB	0ffH
	DB	0ffH
	DB	0ffH
	DB	0ffH
	DB	0ffH
	DB	0ffH
	DB	0ffH
	DB	0ffH
	DB	0ffH
	DB	0ffH
	DB	0ffH
	DB	0ffH
	DB	0ffH
	DB	0ffH
	DB	0ffH
	DB	0ffH
	DB	0ffH
	DB	0ffH
	DB	0ffH
	DB	0ffH
	DB	0ffH
	DB	0ffH
	DB	0ffH
	DB	0ffH
	DB	0ffH
	DB	0ffH
	DB	0ffH
	DB	0ffH
	DB	0ffH
	DB	0ffH
	DB	0ffH
	DB	0ffH
	DB	0ffH
	DB	0ffH
	DB	0ffH
	DB	0ffH
	DB	0ffH
	DB	0ffH
	DB	0ffH
	DB	0ffH
	DB	0ffH
	DB	0ffH
	DB	0ffH
	DB	0ffH
	DB	0ffH
	DB	0ffH
	DB	0ffH
	DB	0ffH
	DB	0ffH
	DB	0ffH
	DB	0ffH
	DB	0ffH
	DB	0ffH
	DB	0ffH
	DB	0ffH
	DB	0ffH
	DB	0ffH
	DB	0ffH
	DB	0ffH
	DB	0ffH
	DB	0ffH
	DB	0ffH
	DB	0ffH
	DB	0ffH
	DB	0ffH
	DB	0ffH
	DB	0ffH
	DB	0ffH
	DB	0ffH
	DB	0ffH
	DB	0ffH
	DB	0ffH
	DB	0ffH
	DB	0ffH
	DB	0ffH
	DB	0ffH
	DB	0ffH
	DB	0ffH
	DB	0ffH
	DB	0ffH
	DB	0ffH
	DB	0ffH
	DB	00H
	DB	00H
	DB	00H
	DB	00H
	DB	00H
	DB	0ffH
	DB	0ffH
	DB	0ffH
	DB	0ffH
	DB	0ffH
	DB	0ffH
	DB	0ffH
	DB	0ffH
	DB	0ffH
	DB	0ffH
	DB	0ffH
	DB	0ffH
	DB	0ffH
	DB	0ffH
	DB	0ffH
	DB	0ffH
	DB	0ffH
	DB	0ffH
	DB	0ffH
	DB	0ffH
	DB	0ffH
	DB	0ffH
	DB	0ffH
	DB	0ffH
	DB	0ffH
	DB	0ffH
	DB	0ffH
	DB	0ffH
	DB	0ffH
	DB	0ffH
	DB	0ffH
	DB	0ffH
	DB	0ffH
	DB	0ffH
	DB	0ffH
	DB	0ffH
	DB	0ffH
	DB	0ffH
	DB	0ffH
	DB	0ffH
	DB	0ffH
	DB	0ffH
	DB	0ffH
	DB	0ffH
	DB	0ffH
	DB	0ffH
	DB	0ffH
	DB	0ffH
	DB	0ffH
	DB	0ffH
	DB	0ffH
	DB	0ffH
	DB	0ffH
	DB	0ffH
	DB	0ffH
	DB	0ffH
	DB	0ffH
	DB	0ffH
	DB	0ffH
	DB	0ffH
	DB	0ffH
	DB	0ffH
	DB	0ffH
	DB	0ffH
	DB	0ffH
	DB	0ffH
	DB	0ffH
	DB	0ffH
	DB	0ffH
	DB	0ffH
	DB	0ffH
	DB	0ffH
	DB	0ffH
	DB	0ffH
	DB	0ffH
	DB	0ffH
	DB	0ffH
	DB	0ffH
	DB	0ffH
	DB	0ffH
	DB	0ffH
	DB	0ffH
	DB	0ffH
	DB	0ffH
	DB	0ffH
	DB	0ffH
	DB	0ffH
	DB	0ffH
	DB	0ffH
	DB	0ffH
	DB	0ffH
	DB	0ffH
	DB	0ffH
	DB	0ffH
	DB	0ffH
	DB	0ffH
	DB	0ffH
	DB	0ffH
	DB	0ffH
	DB	0ffH
	DB	0ffH
	DB	0ffH
	DB	0ffH
	DB	0ffH
	DB	0ffH
	DB	0ffH
	DB	0ffH
	DB	0ffH
	DB	0ffH
	DB	0ffH
	DB	0ffH
	DB	0ffH
	DB	0ffH
	DB	0ffH
	DB	0ffH
	DB	0ffH
	DB	0ffH
	DB	0ffH
	DB	0ffH
	DB	0ffH
	DB	0ffH
	DB	0ffH
	DB	0ffH
	DB	0ffH
	DB	0ffH
	DB	0ffH
	DB	00H
	DB	00H
	DB	00H
	DB	0ffH
	DB	0ffH
	DB	0ffH
	DB	0ffH
	DB	0ffH
	DB	0ffH
	DB	0ffH
	DB	0ffH
	DB	0ffH
	DB	0ffH
	DB	0ffH
	DB	0ffH
	DB	0ffH
	DB	0ffH
	DB	0ffH
	DB	0ffH
	DB	0ffH
	DB	0ffH
	DB	0ffH
	DB	0ffH
	DB	0ffH
	DB	0ffH
	DB	0ffH
	DB	0ffH
	DB	0ffH
	DB	0ffH
	DB	0ffH
	DB	0ffH
	DB	0ffH
	DB	0ffH
	DB	0ffH
	DB	0ffH
	DB	0ffH
	DB	0ffH
	DB	0ffH
	DB	0ffH
	DB	0ffH
	DB	0ffH
	DB	0ffH
	DB	0ffH
	DB	0ffH
	DB	0ffH
	DB	0ffH
	DB	0ffH
	DB	0ffH
	DB	0ffH
	DB	0ffH
	DB	0ffH
	DB	0ffH
	DB	0ffH
	DB	0ffH
	DB	0ffH
	DB	0ffH
	DB	0ffH
	DB	0ffH
	DB	0ffH
	DB	0ffH
	DB	0ffH
	DB	0ffH
	DB	0ffH
	DB	0ffH
	DB	0ffH
	DB	0ffH
	DB	0ffH
	DB	0ffH
	DB	0ffH
	DB	0ffH
	DB	0ffH
	DB	0ffH
	DB	0ffH
	DB	0ffH
	DB	0ffH
	DB	0ffH
	DB	0ffH
	DB	0ffH
	DB	0ffH
	DB	0ffH
	DB	0ffH
	DB	0ffH
	DB	0ffH
	DB	0ffH
	DB	0ffH
	DB	0ffH
	DB	0ffH
	DB	0ffH
	DB	0ffH
	DB	0ffH
	DB	0ffH
	DB	0ffH
	DB	0ffH
	DB	0ffH
	DB	0ffH
	DB	0ffH
	DB	0ffH
	DB	0ffH
	DB	0ffH
	DB	0ffH
	DB	0ffH
	DB	0ffH
	DB	0ffH
	DB	0ffH
	DB	0ffH
	DB	0ffH
	DB	0ffH
	DB	0ffH
	DB	0ffH
	DB	0ffH
	DB	0ffH
	DB	0ffH
	DB	0ffH
	DB	0ffH
	DB	0ffH
	DB	0ffH
	DB	0ffH
	DB	0ffH
	DB	0ffH
	DB	0ffH
	DB	0ffH
	DB	0ffH
	DB	0ffH
	DB	0ffH
	DB	0ffH
	DB	0ffH
	DB	0ffH
	DB	0ffH
	DB	0ffH
	DB	0ffH
	DB	0ffH
	DB	00H
	DB	0ffH
	DB	0ffH
	DB	0ffH
	DB	0ffH
	DB	0ffH
	DB	0ffH
	DB	0ffH
	DB	0ffH
	DB	0ffH
	DB	0ffH
	DB	0ffH
	DB	0ffH
	DB	0ffH
	DB	0ffH
	DB	0ffH
	DB	0ffH
	DB	0ffH
	DB	0ffH
	DB	0ffH
	DB	0ffH
	DB	0ffH
	DB	0ffH
	DB	0ffH
	DB	0ffH
	DB	0ffH
	DB	0ffH
	DB	0ffH
	DB	0ffH
	DB	0ffH
	DB	0ffH
	DB	0ffH
	DB	0ffH
	DB	0ffH
	DB	0ffH
	DB	0ffH
	DB	0ffH
	DB	0ffH
	DB	0ffH
	DB	0ffH
	DB	0ffH
	DB	0ffH
	DB	0ffH
	DB	0ffH
	DB	0ffH
	DB	0ffH
	DB	0ffH
	DB	0ffH
	DB	0ffH
	DB	0ffH
	DB	0ffH
	DB	0ffH
	DB	0ffH
	DB	0ffH
	DB	0ffH
	DB	0ffH
	DB	0ffH
	DB	0ffH
	DB	0ffH
	DB	0ffH
	DB	0ffH
	DB	0ffH
	DB	0ffH
	DB	0ffH
	DB	0ffH
	DB	0ffH
	DB	0ffH
	DB	0ffH
	DB	0ffH
	DB	0ffH
	DB	0ffH
	DB	0ffH
	DB	0ffH
	DB	0ffH
	DB	0ffH
	DB	0ffH
	DB	0ffH
	DB	0ffH
	DB	0ffH
	DB	0ffH
	DB	0ffH
	DB	0ffH
	DB	0ffH
	DB	0ffH
	DB	0ffH
	DB	0ffH
	DB	0ffH
	DB	0ffH
	DB	0ffH
	DB	0ffH
	DB	0ffH
	DB	0ffH
	DB	0ffH
	DB	0ffH
	DB	0ffH
	DB	0ffH
	DB	0ffH
	DB	0ffH
	DB	0ffH
	DB	0ffH
	DB	0ffH
	DB	0ffH
	DB	0ffH
	DB	0ffH
	DB	0ffH
	DB	0ffH
	DB	0ffH
	DB	0ffH
	DB	0ffH
	DB	0ffH
	DB	0ffH
	DB	0ffH
	DB	0ffH
	DB	0ffH
	DB	0ffH
	DB	0ffH
	DB	0ffH
	DB	0ffH
	DB	0ffH
	DB	0ffH
	DB	0ffH
	DB	0ffH
	DB	0ffH
	DB	0ffH
	DB	0ffH
	DB	0ffH
	DB	0ffH
	DB	0ffH
	DB	0ffH
	DB	0ffH
	DB	0ffH
	DB	0ffH
	DB	0ffH
	DB	0ffH
	DB	0ffH
	DB	0ffH
	DB	0ffH
	DB	0ffH
	DB	0ffH
	DB	0ffH
	DB	0ffH
	DB	0ffH
	DB	0ffH
	DB	0ffH
	DB	0ffH
	DB	0ffH
	DB	0ffH
	DB	0ffH
	DB	0ffH
	DB	0ffH
	DB	0ffH
	DB	0ffH
	DB	0ffH
	DB	0ffH
	DB	0ffH
	DB	0ffH
	DB	0ffH
	DB	0ffH
	DB	0ffH
	DB	0ffH
	DB	0ffH
	DB	0ffH
	DB	0ffH
	DB	0ffH
	DB	0ffH
	DB	0ffH
	DB	0ffH
	DB	0ffH
	DB	0ffH
	DB	0ffH
	DB	0ffH
	DB	0ffH
	DB	0ffH
	DB	0ffH
	DB	0ffH
	DB	0ffH
	DB	0ffH
	DB	0ffH
	DB	0ffH
	DB	0ffH
	DB	0ffH
	DB	0ffH
	DB	0ffH
	DB	0ffH
	DB	0ffH
	DB	0ffH
	DB	0ffH
	DB	0ffH
	DB	0ffH
	DB	0ffH
	DB	0ffH
	DB	0ffH
	DB	0ffH
	DB	0ffH
	DB	0ffH
	DB	0ffH
	DB	0ffH
	DB	0ffH
	DB	0ffH
	DB	0ffH
	DB	0ffH
	DB	0ffH
	DB	0ffH
	DB	0ffH
	DB	0ffH
	DB	0ffH
	DB	0ffH
	DB	0ffH
	DB	0ffH
	DB	0ffH
	DB	0ffH
	DB	0ffH
	DB	0ffH
	DB	0ffH
	DB	0ffH
	DB	0ffH
	DB	0ffH
	DB	0ffH
	DB	0ffH
	DB	0ffH
	DB	0ffH
	DB	0ffH
	DB	0ffH
	DB	0ffH
	DB	0ffH
	DB	0ffH
	DB	0ffH
	DB	0ffH
	DB	0ffH
	DB	0ffH
	DB	0ffH
	DB	0ffH
	DB	0ffH
	DB	0ffH
	DB	0ffH
	DB	0ffH
	DB	0ffH
	DB	0ffH
	DB	0ffH
	DB	0ffH
	DB	0ffH
	DB	0ffH
	DB	0ffH
	DB	0ffH
	DB	0ffH
	DB	0ffH
	DB	0ffH
	DB	0ffH
	DB	0ffH
	DB	0ffH
	DB	0ffH
	DB	0ffH
	DB	0ffH
	DB	0ffH
	DB	0ffH
	DB	0ffH
	DB	0ffH
	DB	0ffH
	DB	0ffH
	DB	0ffH
	DB	0ffH
	DB	0ffH
	DB	0ffH
	DB	0ffH
	DB	0ffH
	DB	0ffH
	DB	0ffH
	DB	0ffH
	DB	0ffH
	DB	0ffH
	DB	0ffH
	DB	0ffH
	DB	0ffH
	DB	0ffH
	DB	0ffH
	DB	0ffH
	DB	0ffH
	DB	0ffH
	DB	0ffH
	DB	0ffH
	DB	0ffH
	DB	0ffH
	DB	0ffH
	DB	0ffH
	DB	0ffH
	DB	0ffH
	DB	0ffH
	DB	0ffH
	DB	0ffH
	DB	0ffH
	DB	0ffH
	DB	0ffH
	DB	0ffH
	DB	0ffH
	DB	0ffH
	DB	0ffH
	DB	0ffH
	DB	0ffH
	DB	0ffH
	DB	0ffH
	DB	0ffH
	DB	0ffH
	DB	0ffH
	DB	0ffH
	DB	0ffH
	DB	0ffH
	DB	0ffH
	DB	0ffH
	DB	0ffH
	DB	0ffH
	DB	0ffH
	DB	0ffH
	DB	0ffH
	DB	0ffH
	DB	0ffH
	DB	0ffH
	DB	0ffH
	DB	0ffH
	DB	0ffH
	DB	0ffH
	DB	0ffH
	DB	0ffH
	DB	0ffH
	DB	0ffH
	DB	0ffH
	DB	0ffH
	DB	0ffH
	DB	0ffH
	DB	0ffH
	DB	0ffH
	DB	0ffH
	DB	0ffH
	DB	0ffH
	DB	0ffH
	DB	0ffH
	DB	0ffH
	DB	0ffH
	DB	0ffH
	DB	0ffH
	DB	0ffH
	DB	0ffH
	DB	0ffH
	DB	0ffH
	DB	0ffH
	DB	0ffH
	DB	0ffH
	DB	0ffH
	DB	0ffH
	DB	0ffH
	DB	0ffH
	DB	0ffH
	DB	0ffH
	DB	0ffH
	DB	0ffH
	DB	0ffH
	DB	0ffH
	DB	0ffH
	DB	0ffH
	DB	0ffH
	DB	0ffH
	DB	0ffH
	DB	0ffH
	DB	0ffH
	DB	0ffH
	DB	0ffH
	DB	0ffH
	DB	0ffH
	DB	0ffH
	DB	0ffH
	DB	0ffH
	DB	0ffH
	DB	0ffH
	DB	0ffH
	DB	0ffH
	DB	0ffH
	DB	0ffH
	DB	0ffH
	DB	0ffH
	DB	0ffH
	DB	0ffH
	DB	0ffH
	DB	0ffH
	DB	0ffH
	DB	0ffH
	DB	0ffH
	DB	0ffH
	DB	0ffH
	DB	0ffH
	DB	0ffH
	DB	0ffH
	DB	0ffH
	DB	0ffH
	DB	0ffH
	DB	0ffH
	DB	0ffH
	DB	0ffH
	DB	0ffH
	DB	0ffH
	DB	0ffH
	DB	0ffH
	DB	0ffH
	DB	0ffH
	DB	0ffH
	DB	0ffH
	DB	0ffH
	DB	0ffH
	DB	0ffH
	DB	0ffH
	DB	0ffH
	DB	0ffH
	DB	0ffH
	DB	0ffH
	DB	0ffH
	DB	0ffH
	DB	0ffH
	DB	0ffH
	DB	0ffH
	DB	0ffH
	DB	0ffH
	DB	0ffH
	DB	0ffH
	DB	0ffH
	DB	0ffH
	DB	0ffH
	DB	0ffH
	DB	0ffH
	DB	0ffH
	DB	0ffH
	DB	0ffH
	DB	0ffH
	DB	0ffH
	DB	0ffH
	DB	0ffH
	DB	0ffH
	DB	0ffH
	DB	0ffH
	DB	0ffH
	DB	0ffH
	DB	0ffH
	DB	0ffH
	DB	0ffH
	DB	0ffH
	DB	0ffH
	DB	0ffH
	DB	0ffH
	DB	0ffH
	DB	0ffH
	DB	0ffH
	DB	0ffH
	DB	0ffH
	DB	0ffH
	DB	0ffH
	DB	0ffH
	DB	0ffH
	DB	0ffH
	DB	0ffH
	DB	0ffH
	DB	0ffH
	DB	0ffH
	DB	0ffH
	DB	0ffH
	DB	0ffH
	DB	0ffH
	DB	0ffH
	DB	0ffH
	DB	0ffH
	DB	0ffH
	DB	0ffH
	DB	0ffH
	DB	0ffH
	DB	0ffH
	DB	0ffH
	DB	0ffH
	DB	0ffH
	DB	0ffH
	DB	0ffH
	DB	0ffH
	DB	0ffH
	DB	0ffH
	DB	0ffH
	DB	0ffH
	DB	0ffH
	DB	0ffH
	DB	0ffH
	DB	0ffH
	DB	0ffH
	DB	0ffH
	DB	0ffH
	DB	0ffH
	DB	0ffH
	DB	0ffH
	DB	0ffH
	DB	0ffH
	DB	0ffH
	DB	0ffH
	DB	0ffH
	DB	0ffH
	DB	0ffH
	DB	0ffH
	DB	0ffH
	DB	0ffH
	DB	0ffH
	DB	0ffH
	DB	0ffH
	DB	0ffH
	DB	0ffH
	DB	0ffH
	DB	0ffH
	DB	0ffH
	DB	0ffH
	DB	0ffH
	DB	0ffH
	DB	0ffH
	DB	0ffH
	DB	0ffH
	DB	0ffH
	DB	0ffH
	DB	0ffH
	DB	0ffH
	DB	0ffH
	DB	0ffH
	DB	0ffH
	DB	0ffH
	DB	0ffH
	DB	0ffH
	DB	0ffH
	DB	0ffH
	DB	0ffH
	DB	0ffH
	DB	0ffH
	DB	0ffH
	DB	0ffH
	DB	0ffH
	DB	0ffH
	DB	0ffH
	DB	0ffH
	DB	0ffH
	DB	0ffH
	DB	0ffH
	DB	0ffH
	DB	0ffH
	DB	0ffH
	DB	0ffH
	DB	0ffH
	DB	0ffH
	DB	0ffH
	DB	0ffH
	DB	0ffH
	DB	0ffH
	DB	0ffH
	DB	0ffH
	DB	0ffH
	DB	0ffH
	DB	0ffH
	DB	0ffH
	DB	0ffH
	DB	0ffH
	DB	0ffH
	DB	0ffH
	DB	0ffH
	DB	0ffH
	DB	0ffH
	DB	0ffH
	DB	0ffH
	DB	0ffH
	DB	0ffH
	DB	0ffH
	DB	0ffH
	DB	0ffH
	DB	0ffH
	DB	0ffH
	DB	0ffH
	DB	0ffH
	DB	0ffH
	DB	0ffH
	DB	0ffH
	DB	0ffH
	DB	0ffH
	DB	0ffH
	DB	0ffH
	DB	0ffH
	DB	0ffH
	DB	0ffH
	DB	0ffH
	DB	0ffH
	DB	0ffH
	DB	0ffH
	DB	0ffH
	DB	0ffH
	DB	0ffH
	DB	0ffH
	DB	0ffH
	DB	0ffH
	DB	0ffH
	DB	0ffH
	DB	0ffH
	DB	0ffH
	DB	0ffH
	DB	0ffH
	DB	0ffH
	DB	0ffH
	DB	0ffH
	DB	0ffH
	DB	0ffH
	DB	0ffH
	DB	0ffH
	DB	0ffH
	DB	0ffH
	DB	0ffH
	DB	0ffH
	DB	0ffH
	DB	0ffH
	DB	0ffH
	DB	0ffH
	DB	0ffH
	DB	0ffH
	DB	0ffH
	DB	0ffH
	DB	0ffH
	DB	0ffH
	DB	0ffH
	DB	0ffH
	DB	0ffH
	DB	0ffH
	DB	0ffH
	DB	0ffH
	DB	0ffH
	DB	0ffH
	DB	0ffH
	DB	0ffH
	DB	0ffH
	DB	0ffH
	DB	0ffH
	DB	0ffH
	DB	0ffH
	DB	0ffH
	DB	0ffH
	DB	0ffH
	DB	0ffH
	DB	0ffH
	DB	0ffH
	DB	0ffH
	DB	0ffH
	DB	0ffH
	DB	0ffH
	DB	0ffH
	DB	0ffH
	DB	0ffH
	DB	0ffH
	DB	0ffH
	DB	0ffH
	DB	0ffH
	DB	0ffH
	DB	0ffH
	DB	0ffH
	DB	0ffH
	DB	0ffH
	DB	0ffH
	DB	0ffH
	DB	0ffH
	DB	0ffH
	DB	0ffH
	DB	0ffH
	DB	0ffH
	DB	0ffH
	DB	0ffH
	DB	0ffH
	DB	0ffH
	DB	0ffH
	DB	0ffH
	DB	0ffH
	DB	0ffH
	DB	0ffH
	DB	0ffH
	DB	0ffH
	DB	0ffH
	DB	0ffH
	DB	0ffH
	DB	0ffH
	DB	0ffH
	DB	0ffH
	DB	0ffH
	DB	0ffH
	DB	0ffH
	DB	0ffH
	DB	0ffH
	DB	0ffH
	DB	0ffH
	DB	0ffH
	DB	0ffH
	DB	0ffH
	DB	0ffH
	DB	0ffH
	DB	0ffH
	DB	0ffH
	DB	0ffH
	DB	0ffH
	DB	0ffH
	DB	0ffH
	DB	0ffH
	DB	0ffH
	DB	0ffH
	DB	0ffH
	DB	0ffH
	DB	0ffH
	DB	0ffH
	DB	0ffH
	DB	0ffH
	DB	0ffH
	DB	0ffH
	DB	0ffH
	DB	0ffH
	DB	0ffH
	DB	0ffH
	DB	0ffH
	DB	0ffH
	DB	0ffH
	DB	0ffH
	DB	0ffH
	DB	0ffH
	DB	0ffH
	DB	0ffH
	DB	0ffH
	DB	0ffH
	DB	0ffH
	DB	0ffH
	DB	0ffH
	DB	0ffH
	DB	0ffH
	DB	0ffH
	DB	0ffH
	DB	0ffH
	DB	0ffH
	DB	0ffH
	DB	0ffH
	DB	0ffH
	DB	0ffH
	DB	0ffH
	DB	0ffH
	DB	0ffH
	DB	0ffH
	DB	0ffH
	DB	0ffH
	DB	0ffH
	DB	0ffH
	DB	0ffH
	DB	0ffH
	DB	0ffH
	DB	0ffH
	DB	0ffH
	DB	0ffH
	DB	0ffH
	DB	0ffH
	DB	0ffH
	DB	0ffH
	DB	0ffH
	DB	0ffH
	DB	0ffH
	DB	0ffH
	DB	0ffH
	DB	0ffH
	DB	0ffH
	DB	0ffH
	DB	0ffH
	DB	0ffH
	DB	0ffH
	DB	0ffH
	DB	0ffH
	DB	0ffH
	DB	0ffH
	DB	0ffH
	DB	0ffH
	DB	0ffH
	DB	0ffH
	DB	0ffH
	DB	0ffH
	DB	0ffH
	DB	0ffH
	DB	0ffH
	DB	0ffH
	DB	0ffH
	DB	0ffH
	DB	0ffH
	DB	0ffH
	DB	0ffH
	DB	0ffH
	DB	0ffH
	DB	0ffH
	DB	0ffH
	DB	0ffH
	DB	0ffH
	DB	0ffH
	DB	0ffH
	DB	0ffH
	DB	0ffH
	DB	0ffH
	DB	0ffH
	DB	0ffH
	DB	0ffH
	DB	0ffH
	DB	0ffH
	DB	0ffH
	DB	0ffH
	DB	0ffH
	DB	0ffH
	DB	0ffH
	DB	0ffH
	DB	0ffH
	DB	0ffH
	DB	0ffH
	DB	0ffH
	DB	0ffH
	DB	0ffH
	DB	0ffH
	DB	0ffH
	DB	0ffH
	DB	0ffH
	DB	0ffH
	DB	0ffH
	DB	0ffH
	DB	0ffH
	DB	0ffH
	DB	0ffH
	DB	0ffH
	DB	0ffH
	DB	0ffH
	DB	0ffH
	DB	0ffH
	DB	0ffH
	DB	0ffH
	DB	0ffH
	DB	0ffH
	DB	0ffH
	DB	0ffH
	DB	0ffH
	DB	0ffH
	DB	0ffH
	DB	0ffH
	DB	0ffH
	DB	0ffH
	DB	0ffH
	DB	0ffH
	DB	0ffH
	DB	0ffH
	DB	0ffH
	DB	0ffH
	DB	0ffH
	DB	0ffH
	DB	0ffH
	DB	0ffH
	DB	0ffH
	DB	0ffH
	DB	0ffH
	DB	0ffH
	DB	0ffH
	DB	0ffH
	DB	0ffH
	DB	0ffH
	DB	0ffH
	DB	0ffH
	DB	0ffH
	DB	0ffH
	DB	0ffH
	DB	0ffH
	DB	0ffH
	DB	0ffH
	DB	0ffH
	DB	0ffH
	DB	0ffH
	DB	0ffH
	DB	0ffH
	DB	0ffH
	DB	0ffH
	DB	0ffH
	DB	0ffH
	DB	0ffH
	DB	0ffH
	DB	0ffH
	DB	0ffH
	DB	0ffH
	DB	0ffH
	DB	0ffH
	DB	0ffH
	DB	0ffH
	DB	0ffH
	DB	0ffH
	DB	0ffH
	DB	0ffH
	DB	0ffH
	DB	0ffH
	DB	0ffH
	DB	0ffH
	DB	0ffH
	DB	0ffH
	DB	0ffH
	DB	0ffH
	DB	0ffH
	DB	0ffH
	DB	0ffH
	DB	0ffH
	DB	0ffH
	DB	0ffH
	DB	0ffH
	DB	0ffH
	DB	0ffH
	DB	0ffH
	DB	0ffH
	DB	0ffH
	DB	0ffH
	DB	0ffH
	DB	0ffH
	DB	0ffH
	DB	0ffH
	DB	0ffH
	DB	0ffH
	DB	0ffH
	DB	0ffH
	DB	0ffH
	DB	0ffH
	DB	0ffH
	DB	0ffH
	DB	0ffH
	DB	0ffH
	DB	0ffH
	DB	0ffH
	DB	0ffH
	DB	0ffH
	DB	0ffH
	DB	0ffH
	DB	0ffH
	DB	0ffH
	DB	0ffH
	DB	0ffH
	DB	0ffH
	DB	0ffH
	DB	0ffH
	DB	0ffH
	DB	0ffH
	DB	0ffH
	DB	0ffH
	DB	0ffH
	DB	0ffH
	DB	0ffH
	DB	0ffH
	DB	0ffH
	DB	0ffH
	DB	0ffH
	DB	0ffH
	DB	0ffH
	DB	0ffH
	DB	0ffH
	DB	0ffH
	DB	0ffH
	DB	0ffH
	DB	0ffH
	DB	0ffH
	DB	0ffH
	DB	0ffH
	DB	0ffH
	DB	0ffH
	DB	0ffH
	DB	0ffH
	DB	0ffH
	DB	0ffH
	DB	0ffH
	DB	0ffH
	DB	0ffH
	DB	0ffH
	DB	0ffH
	DB	0ffH
	DB	0ffH
	DB	0ffH
	DB	0ffH
	DB	0ffH
	DB	0ffH
	DB	0ffH
	DB	0ffH
	DB	0ffH
	DB	0ffH
	DB	0ffH
	DB	0ffH
	DB	0ffH
	DB	0ffH
	DB	0ffH
	DB	0ffH
	DB	0ffH
	DB	0ffH
	DB	0ffH
	DB	0ffH
	DB	0ffH
	DB	0ffH
	DB	0ffH
	DB	0ffH
	DB	0ffH
	DB	0ffH
	DB	0ffH
	DB	0ffH
	DB	0ffH
	DB	0ffH
	DB	0ffH
	DB	0ffH
	DB	0ffH
	DB	0ffH
	DB	0ffH
	DB	0ffH
	DB	0ffH
	DB	0ffH
	DB	0ffH
	DB	0ffH
	DB	0ffH
	DB	0ffH
	DB	0ffH
	DB	0ffH
	DB	0ffH
	DB	0ffH
	DB	0ffH
	DB	0ffH
	DB	0ffH
	DB	0ffH
	DB	0ffH
	DB	0ffH
	DB	0ffH
	DB	0ffH
	DB	0ffH
	DB	0ffH
	DB	0ffH
	DB	0ffH
	DB	0ffH
	DB	0ffH
	DB	0ffH
	DB	0ffH
	DB	0ffH
	DB	0ffH
	DB	0ffH
	DB	0ffH
	DB	0ffH
	DB	0ffH
	DB	0ffH
	DB	0ffH
	DB	0ffH
	DB	0ffH
	DB	0ffH
	DB	0ffH
	DB	0ffH
	DB	0ffH
	DB	0ffH
	DB	0ffH
	DB	0ffH
	DB	0ffH
	DB	0ffH
	DB	0ffH
	DB	0ffH
	DB	0ffH
	DB	0ffH
	DB	0ffH
	DB	0ffH
	DB	0ffH
	DB	0ffH
	DB	0ffH
	DB	0ffH
	DB	0ffH
	DB	0ffH
	DB	0ffH
	DB	0ffH
	DB	0ffH
	DB	0ffH
	DB	0ffH
	DB	0ffH
	DB	0ffH
	DB	0ffH
	DB	0ffH
	DB	0ffH
	DB	0ffH
	DB	0ffH
	DB	0ffH
	DB	0ffH
	DB	0ffH
	DB	0ffH
	DB	0ffH
	DB	0ffH
	DB	0ffH
	DB	0ffH
	DB	0ffH
	DB	0ffH
	DB	0ffH
	DB	0ffH
	DB	0ffH
	DB	0ffH
	DB	0ffH
	DB	0ffH
	DB	0ffH
	DB	0ffH
	DB	0ffH
	DB	0ffH
	DB	0ffH
	DB	0ffH
	DB	0ffH
	DB	0ffH
	DB	0ffH
	DB	0ffH
	DB	0ffH
	DB	0ffH
	DB	0ffH
	DB	0ffH
	DB	0ffH
	DB	0ffH
	DB	0ffH
	DB	0ffH
	DB	0ffH
	DB	0ffH
	DB	0ffH
	DB	0ffH
	DB	0ffH
	DB	0ffH
	DB	0ffH
	DB	0ffH
	DB	0ffH
	DB	0ffH
	DB	0ffH
	DB	0ffH
	DB	0ffH
	DB	0ffH
	DB	0ffH
	DB	0ffH
	DB	0ffH
	DB	0ffH
	DB	0ffH
	DB	0ffH
	DB	0ffH
	DB	0ffH
	DB	0ffH
	DB	0ffH
	DB	0ffH
	DB	0ffH
	DB	0ffH
	DB	0ffH
	DB	0ffH
	DB	0ffH
	DB	0ffH
	DB	0ffH
	DB	0ffH
	DB	0ffH
	DB	0ffH
	DB	0ffH
	DB	0ffH
	DB	0ffH
	DB	0ffH
	DB	0ffH
	DB	0ffH
	DB	0ffH
	DB	0ffH
	DB	0ffH
	DB	0ffH
	DB	0ffH
	DB	0ffH
	DB	0ffH
	DB	0ffH
	DB	0ffH
	DB	0ffH
	DB	0ffH
	DB	0ffH
	DB	0ffH
	DB	0ffH
	DB	0ffH
	DB	0ffH
	DB	0ffH
	DB	0ffH
	DB	0ffH
	DB	0ffH
	DB	0ffH
	DB	0ffH
	DB	0ffH
	DB	0ffH
	DB	0ffH
	DB	0ffH
	DB	0ffH
	DB	0ffH
	DB	0ffH
	DB	0ffH
	DB	0ffH
	DB	0ffH
	DB	0ffH
	DB	0ffH
	DB	0ffH
	DB	0ffH
	DB	0ffH
	DB	0ffH
	DB	0ffH
	DB	0ffH
	DB	0ffH
	DB	0ffH
	DB	0ffH
	DB	0ffH
	DB	0ffH
	DB	0ffH
	DB	0ffH
	DB	0ffH
	DB	0ffH
	DB	0ffH
	DB	0ffH
	DB	0ffH
	DB	0ffH
	DB	0ffH
	DB	0ffH
	DB	0ffH
	DB	0ffH
	DB	0ffH
	DB	0ffH
	DB	0ffH
	DB	0ffH
	DB	0ffH
	DB	0ffH
	DB	0ffH
	DB	0ffH
	DB	0ffH
	DB	0ffH
	DB	0ffH
	DB	0ffH
	DB	0ffH
	DB	0ffH
	DB	0ffH
	DB	0ffH
	DB	0ffH
	DB	0ffH
	DB	0ffH
	DB	0ffH
	DB	0ffH
	DB	0ffH
	DB	0ffH
	DB	0ffH
	DB	0ffH
	DB	0ffH
	DB	0ffH
	DB	0ffH
	DB	0ffH
	DB	0ffH
	DB	0ffH
	DB	0ffH
	DB	0ffH
	DB	0ffH
	DB	0ffH
	DB	0ffH
	DB	0ffH
	DB	0ffH
	DB	0ffH
	DB	0ffH
	DB	0ffH
	DB	0ffH
	DB	0ffH
	DB	0ffH
	DB	0ffH
	DB	0ffH
	DB	0ffH
	DB	0ffH
	DB	0ffH
	DB	0ffH
	DB	0ffH
	DB	0ffH
	DB	0ffH
	DB	0ffH
	DB	0ffH
	DB	0ffH
	DB	0ffH
	DB	0ffH
	DB	0ffH
	DB	0ffH
	DB	0ffH
	DB	0ffH
	DB	0ffH
	DB	0ffH
	DB	0ffH
	DB	0ffH
	DB	0ffH
	DB	0ffH
	DB	0ffH
	DB	0ffH
	DB	0ffH
	DB	0ffH
	DB	0ffH
	DB	0ffH
	DB	0ffH
	DB	0ffH
	DB	0ffH
	DB	0ffH
	DB	0ffH
	DB	0ffH
	DB	0ffH
	DB	0ffH
	DB	0ffH
	DB	0ffH
	DB	0ffH
	DB	0ffH
	DB	0ffH
	DB	0ffH
	DB	0ffH
	DB	0ffH
	DB	0ffH
	DB	0ffH
	DB	0ffH
	DB	0ffH
	DB	0ffH
	DB	0ffH
	DB	0ffH
	DB	0ffH
	DB	0ffH
	DB	0ffH
	DB	0ffH
	DB	0ffH
	DB	0ffH
	DB	0ffH
	DB	0ffH
	DB	0ffH
	DB	0ffH
	DB	0ffH
	DB	0ffH
	DB	0ffH
	DB	0ffH
	DB	0ffH
	DB	0ffH
	DB	0ffH
	DB	0ffH
	DB	0ffH
	DB	0ffH
	DB	0ffH
	DB	0ffH
	DB	0ffH
	DB	0ffH
	DB	0ffH
	DB	0ffH
	DB	0ffH
	DB	0ffH
	DB	0ffH
	DB	0ffH
	DB	0ffH
	DB	0ffH
	DB	0ffH
	DB	0ffH
	DB	0ffH
	DB	0ffH
	DB	0ffH
	DB	0ffH
	DB	0ffH
	DB	0ffH
	DB	0ffH
	DB	0ffH
	DB	0ffH
	DB	0ffH
	DB	0ffH
	DB	0ffH
	DB	0ffH
	DB	0ffH
	DB	0ffH
	DB	0ffH
	DB	0ffH
	DB	0ffH
	DB	0ffH
	DB	0ffH
	DB	0ffH
	DB	0ffH
	DB	0ffH
	DB	0ffH
	DB	0ffH
	DB	0ffH
	DB	0ffH
	DB	0ffH
	DB	0ffH
	DB	0ffH
	DB	0ffH
	DB	0ffH
	DB	0ffH
	DB	0ffH
	DB	0ffH
	DB	0ffH
	DB	0ffH
	DB	0ffH
	DB	0ffH
	DB	0ffH
	DB	0ffH
	DB	0ffH
	DB	0ffH
	DB	0ffH
	DB	0ffH
	DB	0ffH
	DB	0ffH
	DB	0ffH
	DB	0ffH
	DB	0ffH
	DB	0ffH
	DB	0ffH
	DB	0ffH
	DB	0ffH
	DB	0ffH
	DB	0ffH
	DB	0ffH
	DB	0ffH
	DB	0ffH
	DB	0ffH
	DB	0ffH
	DB	0ffH
	DB	0ffH
	DB	0ffH
	DB	0ffH
	DB	0ffH
	DB	0ffH
	DB	0ffH
	DB	0ffH
	DB	0ffH
	DB	0ffH
	DB	0ffH
	DB	0ffH
	DB	0ffH
	DB	0ffH
	DB	0ffH
	DB	0ffH
	DB	0ffH
	DB	0ffH
	DB	0ffH
	DB	0ffH
	DB	0ffH
	DB	0ffH
	DB	0ffH
	DB	0ffH
	DB	0ffH
	DB	0ffH
	DB	0ffH
	DB	0ffH
	DB	0ffH
	DB	0ffH
	DB	0ffH
	DB	0ffH
	DB	0ffH
	DB	0ffH
	DB	0ffH
	DB	0ffH
	DB	0ffH
	DB	0ffH
	DB	0ffH
	DB	0ffH
	DB	0ffH
	DB	0ffH
	DB	0ffH
	DB	0ffH
	DB	0ffH
	DB	0ffH
	DB	0ffH
	DB	0ffH
	DB	0ffH
	DB	0ffH
	DB	0ffH
	DB	0ffH
	DB	0ffH
	DB	0ffH
	DB	0ffH
	DB	0ffH
	DB	0ffH
	DB	0ffH
	DB	0ffH
	DB	0ffH
	DB	0ffH
	DB	0ffH
	DB	0ffH
	DB	0ffH
	DB	0ffH
	DB	0ffH
	DB	0ffH
	DB	0ffH
	DB	0ffH
	DB	0ffH
	DB	0ffH
	DB	0ffH
	DB	0ffH
	DB	0ffH
	DB	0ffH
	DB	0ffH
	DB	0ffH
	DB	0ffH
	DB	0ffH
	DB	0ffH
	DB	0ffH
	DB	0ffH
	DB	0ffH
	DB	0ffH
	DB	0ffH
	DB	0ffH
	DB	0ffH
	DB	0ffH
	DB	0ffH
	DB	0ffH
	DB	0ffH
	DB	0ffH
	DB	0ffH
	DB	0ffH
	DB	0ffH
	DB	0ffH
	DB	0ffH
	DB	0ffH
	DB	0ffH
	DB	0ffH
	DB	0ffH
	DB	0ffH
	DB	0ffH
	DB	0ffH
	DB	0ffH
	DB	0ffH
	DB	0ffH
	DB	0ffH
	DB	0ffH
	DB	0ffH
	DB	0ffH
	DB	0ffH
	DB	0ffH
	DB	0ffH
	DB	0ffH
	DB	0ffH
	DB	0ffH
	DB	0ffH
	DB	0ffH
	DB	0ffH
	DB	0ffH
	DB	0ffH
	DB	0ffH
	DB	0ffH
	DB	0ffH
	DB	0ffH
	DB	0ffH
	DB	0ffH
	DB	0ffH
	DB	0ffH
	DB	0ffH
	DB	0ffH
	DB	0ffH
	DB	0ffH
	DB	0ffH
	DB	0ffH
	DB	0ffH
	DB	0ffH
	DB	0ffH
	DB	0ffH
	DB	0ffH
	DB	0ffH
	DB	0ffH
	DB	0ffH
	DB	0ffH
	DB	0ffH
	DB	0ffH
	DB	0ffH
	DB	0ffH
	DB	0ffH
	DB	0ffH
	DB	0ffH
	DB	0ffH
	DB	0ffH
	DB	0ffH
	DB	0ffH
	DB	0ffH
	DB	0ffH
	DB	0ffH
	DB	0ffH
	DB	0ffH
	DB	0ffH
	DB	0ffH
	DB	0ffH
	DB	0ffH
	DB	0ffH
	DB	0ffH
	DB	0ffH
	DB	0ffH
	DB	0ffH
	DB	0ffH
	DB	0ffH
	DB	0ffH
	DB	0ffH
	DB	0ffH
	DB	0ffH
	DB	0ffH
	DB	0ffH
	DB	0ffH
	DB	0ffH
	DB	0ffH
	DB	0ffH
	DB	0ffH
	DB	0ffH
	DB	0ffH
	DB	0ffH
	DB	0ffH
	DB	0ffH
	DB	0ffH
	DB	0ffH
	DB	0ffH
	DB	0ffH
	DB	0ffH
	DB	0ffH
	DB	0ffH
	DB	0ffH
	DB	0ffH
	DB	0ffH
	DB	0ffH
	DB	0ffH
	DB	0ffH
	DB	0ffH
	DB	0ffH
	DB	0ffH
	DB	0ffH
	DB	0ffH
	DB	0ffH
	DB	0ffH
	DB	0ffH
	DB	0ffH
	DB	0ffH
	DB	0ffH
	DB	0ffH
	DB	0ffH
	DB	0ffH
	DB	0ffH
	DB	0ffH
	DB	0ffH
	DB	0ffH
	DB	0ffH
	DB	0ffH
	DB	0ffH
	DB	0ffH
	DB	0ffH
	DB	0ffH
	DB	0ffH
	DB	0ffH
	DB	0ffH
	DB	0ffH
	DB	0ffH
	DB	0ffH
	DB	0ffH
	DB	0ffH
	DB	0ffH
	DB	0ffH
	DB	0ffH
	DB	0ffH
	DB	0ffH
	DB	0ffH
	DB	0ffH
	DB	0ffH
	DB	0ffH
	DB	0ffH
	DB	0ffH
	DB	0ffH
	DB	0ffH
	DB	0ffH
	DB	0ffH
	DB	0ffH
	DB	0ffH
	DB	0ffH
	DB	0ffH
	DB	0ffH
	DB	0ffH
	DB	0ffH
	DB	0ffH
	DB	0ffH
	DB	0ffH
	DB	0ffH
	DB	0ffH
	DB	0ffH
	DB	0ffH
	DB	0ffH
	DB	0ffH
	DB	0ffH
	DB	0ffH
	DB	0ffH
	DB	0ffH
	DB	0ffH
	DB	0ffH
	DB	0ffH
	DB	0ffH
	DB	0ffH
	DB	0ffH
	DB	0ffH
	DB	0ffH
	DB	0ffH
	DB	0ffH
	DB	0ffH
	DB	0ffH
	DB	0ffH
	DB	0ffH
	DB	0ffH
	DB	0ffH
	DB	0ffH
	DB	0ffH
	DB	0ffH
	DB	0ffH
	DB	0ffH
	DB	0ffH
	DB	0ffH
	DB	0ffH
	DB	0ffH
	DB	0ffH
	DB	0ffH
	DB	0ffH
	DB	0ffH
	DB	0ffH
	DB	0ffH
	DB	0ffH
	DB	0ffH
	DB	0ffH
	DB	0ffH
	DB	0ffH
	DB	0ffH
	DB	0ffH
	DB	0ffH
	DB	0ffH
	DB	0ffH
	DB	0ffH
	DB	0ffH
	DB	0ffH
	DB	0ffH
	DB	0ffH
	DB	0ffH
	DB	0ffH
	DB	0ffH
	DB	0ffH
	DB	0ffH
	DB	0ffH
	DB	0ffH
	DB	0ffH
	DB	0ffH
	DB	0ffH
	DB	0ffH
	DB	0ffH
	DB	0ffH
	DB	0ffH
	DB	0ffH
	DB	0ffH
	DB	0ffH
	DB	0ffH
	DB	0ffH
	DB	0ffH
	DB	0ffH
	DB	0ffH
	DB	0ffH
	DB	0ffH
	DB	0ffH
	DB	0ffH
	DB	0ffH
	DB	0ffH
	DB	0ffH
	DB	0ffH
	DB	0ffH
	DB	0ffH
	DB	0ffH
	DB	0ffH
	DB	0ffH
	DB	0ffH
	DB	0ffH
	DB	0ffH
	DB	0ffH
	DB	0ffH
	DB	0ffH
	DB	0ffH
	DB	0ffH
	DB	0ffH
	DB	0ffH
	DB	0ffH
	DB	0ffH
	DB	0ffH
	DB	0ffH
	DB	0ffH
	DB	0ffH
	DB	0ffH
	DB	0ffH
	DB	0ffH
	DB	0ffH
	DB	0ffH
	DB	0ffH
	DB	0ffH
	DB	0ffH
	DB	0ffH
	DB	0ffH
	DB	0ffH
	DB	0ffH
	DB	0ffH
	DB	0ffH
	DB	0ffH
	DB	0ffH
	DB	0ffH
	DB	0ffH
	DB	0ffH
	DB	0ffH
	DB	0ffH
	DB	0ffH
	DB	0ffH
	DB	0ffH
	DB	0ffH
	DB	0ffH
	DB	0ffH
	DB	0ffH
	DB	0ffH
	DB	0ffH
	DB	0ffH
	DB	0ffH
	DB	0ffH
	DB	0ffH
	DB	0ffH
	DB	0ffH
	DB	0ffH
	DB	0ffH
	DB	0ffH
	DB	0ffH
	DB	0ffH
	DB	0ffH
	DB	0ffH
	DB	0ffH
	DB	0ffH
	DB	0ffH
	DB	0ffH
	DB	0ffH
	DB	0ffH
	DB	0ffH
	DB	0ffH
	DB	0ffH
	DB	0ffH
	DB	0ffH
	DB	0ffH
	DB	0ffH
	DB	0ffH
	DB	0ffH
	DB	0ffH
	DB	0ffH
	DB	0ffH
	DB	0ffH
	DB	0ffH
	DB	0ffH
	DB	0ffH
	DB	0ffH
	DB	0ffH
	DB	0ffH
	DB	0ffH
	DB	0ffH
	DB	0ffH
	DB	0ffH
	DB	0ffH
	DB	0ffH
	DB	0ffH
	DB	0ffH
	DB	0ffH
	DB	0ffH
	DB	0ffH
	DB	0ffH
	DB	0ffH
	DB	0ffH
	DB	0ffH
	DB	0ffH
	DB	0ffH
	DB	0ffH
	DB	0ffH
	DB	0ffH
	DB	0ffH
	DB	0ffH
	DB	0ffH
	DB	0ffH
	DB	0ffH
	DB	0ffH
	DB	0ffH
	DB	0ffH
	DB	0ffH
	DB	0ffH
	DB	0ffH
	DB	0ffH
	DB	0ffH
	DB	0ffH
	DB	0ffH
	DB	0ffH
	DB	0ffH
	DB	0ffH
	DB	0ffH
	DB	0ffH
	DB	0ffH
	DB	0ffH
	DB	0ffH
	DB	0ffH
	DB	0ffH
	DB	0ffH
	DB	0ffH
	DB	0ffH
	DB	0ffH
	DB	0ffH
	DB	0ffH
	DB	0ffH
	DB	0ffH
	DB	0ffH
	DB	0ffH
	DB	0ffH
	DB	0ffH
	DB	0ffH
	DB	0ffH
	DB	0ffH
	DB	0ffH
	DB	0ffH
	DB	0ffH
	DB	0ffH
	DB	0ffH
	DB	0ffH
	DB	0ffH
	DB	0ffH
	DB	0ffH
	DB	0ffH
	DB	0ffH
	DB	0ffH
	DB	0ffH
	DB	0ffH
	DB	0ffH
	DB	0ffH
	DB	0ffH
	DB	0ffH
	DB	0ffH
	DB	0ffH
	DB	0ffH
	DB	0ffH
	DB	0ffH
	DB	0ffH
	DB	0ffH
	DB	0ffH
	DB	0ffH
	DB	0ffH
	DB	0ffH
	DB	0ffH
	DB	0ffH
	DB	0ffH
	DB	0ffH
	DB	0ffH
	DB	0ffH
	DB	0ffH
	DB	0ffH
	DB	0ffH
	DB	0ffH
	DB	0ffH
	DB	0ffH
	DB	0ffH
	DB	0ffH
	DB	0ffH
	DB	0ffH
	DB	0ffH
	DB	0ffH
	DB	0ffH
	DB	0ffH
	DB	0ffH
	DB	0ffH
	DB	0ffH
	DB	0ffH
	DB	0ffH
	DB	0ffH
	DB	0ffH
	DB	0ffH
	DB	0ffH
	DB	0ffH
	DB	0ffH
	DB	0ffH
	DB	0ffH
	DB	0ffH
	DB	0ffH
	DB	0ffH
	DB	0ffH
	DB	0ffH
	DB	0ffH
	DB	0ffH
	DB	0ffH
	DB	0ffH
	DB	0ffH
	DB	0ffH
	DB	0ffH
	DB	0ffH
	DB	0ffH
	DB	0ffH
	DB	0ffH
	DB	0ffH
	DB	0ffH
	DB	0ffH
	DB	0ffH
	DB	0ffH
	DB	0ffH
	DB	0ffH
	DB	0ffH
	DB	0ffH
	DB	0ffH
	DB	0ffH
	DB	0ffH
	DB	0ffH
	DB	0ffH
	DB	0ffH
	DB	0ffH
	DB	0ffH
	DB	0ffH
	DB	0ffH
	DB	0ffH
	DB	0ffH
	DB	0ffH
	DB	0ffH
	DB	0ffH
	DB	0ffH
	DB	0ffH
	DB	0ffH
	DB	0ffH
	DB	0ffH
	DB	0ffH
	DB	0ffH
	DB	0ffH
	DB	0ffH
	DB	0ffH
	DB	0ffH
	DB	0ffH
	DB	0ffH
	DB	0ffH
	DB	0ffH
	DB	0ffH
	DB	0ffH
	DB	0ffH
	DB	0ffH
	DB	0ffH
	DB	0ffH
	DB	0ffH
	DB	0ffH
	DB	0ffH
	DB	0ffH
	DB	0ffH
	DB	0ffH
	DB	0ffH
	DB	0ffH
	DB	0ffH
	DB	0ffH
	DB	0ffH
	DB	0ffH
	DB	0ffH
	DB	0ffH
	DB	0ffH
	DB	0ffH
	DB	0ffH
	DB	0ffH
	DB	0ffH
	DB	0ffH
	DB	0ffH
	DB	0ffH
	DB	0ffH
	DB	0ffH
	DB	0ffH
	DB	0ffH
	DB	0ffH
	DB	0ffH
	DB	0ffH
	DB	0ffH
	DB	0ffH
	DB	0ffH
	DB	0ffH
	DB	0ffH
	DB	0ffH
	DB	0ffH
	DB	0ffH
	DB	0ffH
	DB	0ffH
	DB	0ffH
	DB	0ffH
	DB	0ffH
	DB	0ffH
	DB	0ffH
	DB	0ffH
	DB	0ffH
	DB	0ffH
	DB	0ffH
	DB	0ffH
	DB	0ffH
	DB	0ffH
	DB	0ffH
	DB	0ffH
	DB	0ffH
	DB	0ffH
	DB	0ffH
	DB	0ffH
	DB	0ffH
	DB	0ffH
	DB	0ffH
	DB	0ffH
	DB	0ffH
	DB	0ffH
	DB	0ffH
	DB	0ffH
	DB	0ffH
	DB	0ffH
	DB	0ffH
	DB	0ffH
	DB	0ffH
	DB	0ffH
	DB	0ffH
	DB	0ffH
	DB	0ffH
	DB	0ffH
	DB	0ffH
	DB	0ffH
	DB	0ffH
	DB	0ffH
	DB	0ffH
	DB	0ffH
	DB	0ffH
	DB	0ffH
	DB	0ffH
	DB	0ffH
	DB	0ffH
	DB	0ffH
	DB	0ffH
	DB	0ffH
	DB	0ffH
	DB	0ffH
	DB	0ffH
	DB	0ffH
	DB	0ffH
	DB	0ffH
	DB	0ffH
	DB	0ffH
	DB	0ffH
	DB	0ffH
	DB	0ffH
	DB	0ffH
	DB	0ffH
	DB	0ffH
	DB	0ffH
	DB	0ffH
	DB	0ffH
	DB	0ffH
	DB	0ffH
	DB	0ffH
	DB	0ffH
	DB	0ffH
	DB	0ffH
	DB	0ffH
	DB	0ffH
	DB	0ffH
	DB	0ffH
	DB	0ffH
	DB	0ffH
	DB	0ffH
	DB	0ffH
	DB	0ffH
	DB	0ffH
	DB	0ffH
	DB	0ffH
	DB	0ffH
	DB	0ffH
	DB	0ffH
	DB	0ffH
	DB	0ffH
	DB	0ffH
	DB	0ffH
	DB	0ffH
	DB	0ffH
	DB	0ffH
	DB	0ffH
	DB	0ffH
	DB	0ffH
	DB	0ffH
	DB	0ffH
	DB	0ffH
	DB	0ffH
	DB	0ffH
	DB	0ffH
	DB	0ffH
	DB	0ffH
	DB	0ffH
	DB	0ffH
	DB	0ffH
	DB	0ffH
	DB	0ffH
	DB	0ffH
	DB	0ffH
	DB	0ffH
	DB	0ffH
	DB	0ffH
	DB	0ffH
	DB	0ffH
	DB	0ffH
	DB	0ffH
	DB	0ffH
	DB	0ffH
	DB	0ffH
	DB	0ffH
	DB	0ffH
	DB	0ffH
	DB	0ffH
	DB	0ffH
	DB	0ffH
	DB	0ffH
	DB	0ffH
	DB	0ffH
	DB	0ffH
	DB	0ffH
	DB	0ffH
	DB	0ffH
	DB	0ffH
	DB	0ffH
	DB	0ffH
	DB	0ffH
	DB	0ffH
	DB	0ffH
	DB	0ffH
	DB	0ffH
	DB	0ffH
	DB	0ffH
	DB	0ffH
	DB	0ffH
	DB	0ffH
	DB	0ffH
	DB	0ffH
	DB	0ffH
	DB	0ffH
	DB	0ffH
	DB	0ffH
	DB	0ffH
	DB	0ffH
	DB	0ffH
	DB	0ffH
	DB	0ffH
	DB	0ffH
	DB	0ffH
	DB	0ffH
	DB	0ffH
	DB	0ffH
	DB	0ffH
	DB	0ffH
	DB	0ffH
	DB	0ffH
	DB	0ffH
	DB	0ffH
	DB	0ffH
	DB	0ffH
	DB	0ffH
	DB	0ffH
	DB	0ffH
	DB	0ffH
	DB	0ffH
	DB	0ffH
	DB	0ffH
	DB	0ffH
	DB	0ffH
	DB	0ffH
	DB	0ffH
	DB	0ffH
	DB	0ffH
	DB	0ffH
	DB	0ffH
	DB	0ffH
	DB	0ffH
	DB	0ffH
	DB	0ffH
	DB	0ffH
	DB	0ffH
	DB	0ffH
	DB	0ffH
	DB	0ffH
	DB	0ffH
	DB	0ffH
	DB	0ffH
	DB	0ffH
	DB	0ffH
	DB	0ffH
	DB	0ffH
	DB	0ffH
	DB	0ffH
	DB	0ffH
	DB	0ffH
	DB	0ffH
	DB	0ffH
	DB	0ffH
	DB	0ffH
	DB	0ffH
	DB	0ffH
	DB	0ffH
	DB	0ffH
	DB	0ffH
	DB	0ffH
	DB	0ffH
	DB	0ffH
	DB	0ffH
	DB	0ffH
	DB	0ffH
	DB	0ffH
	DB	0ffH
	DB	0ffH
	DB	0ffH
	DB	0ffH
	DB	0ffH
	DB	0ffH
	DB	0ffH
	DB	0ffH
	DB	0ffH
	DB	0ffH
	DB	0ffH
	DB	0ffH
	DB	0ffH
	DB	0ffH
	DB	0ffH
	DB	0ffH
	DB	0ffH
	DB	0ffH
	DB	0ffH
	DB	0ffH
	DB	0ffH
	DB	0ffH
	DB	0ffH
	DB	0ffH
	DB	0ffH
	DB	0ffH
	DB	0ffH
	DB	0ffH
	DB	0ffH
	DB	0ffH
	DB	0ffH
	DB	0ffH
	DB	0ffH
	DB	0ffH
	DB	0ffH
	DB	0ffH
	DB	0ffH
	DB	0ffH
	DB	0ffH
	DB	0ffH
	DB	0ffH
	DB	0ffH
	DB	0ffH
	DB	0ffH
	DB	0ffH
	DB	0ffH
	DB	0ffH
	DB	0ffH
	DB	0ffH
	DB	0ffH
	DB	0ffH
	DB	0ffH
	DB	0ffH
	DB	0ffH
	DB	0ffH
	DB	0ffH
	DB	0ffH
	DB	0ffH
	DB	0ffH
	DB	0ffH
	DB	0ffH
	DB	0ffH
	DB	0ffH
	DB	0ffH
	DB	0ffH
	DB	0ffH
	DB	0ffH
	DB	0ffH
	DB	0ffH
	DB	0ffH
	DB	0ffH
	DB	0ffH
	DB	0ffH
	DB	0ffH
	DB	0ffH
	DB	0ffH
	DB	0ffH
	DB	0ffH
	DB	0ffH
	DB	0ffH
	DB	0ffH
	DB	0ffH
	DB	0ffH
	DB	0ffH
	DB	0ffH
	DB	0ffH
	DB	0ffH
	DB	0ffH
	DB	0ffH
	DB	0ffH
	DB	0ffH
	DB	0ffH
	DB	0ffH
	DB	0ffH
	DB	0ffH
	DB	0ffH
	DB	0ffH
	DB	0ffH
	DB	0ffH
	DB	0ffH
	DB	0ffH
	DB	0ffH
	DB	0ffH
	DB	0ffH
	DB	0ffH
	DB	0ffH
	DB	0ffH
	DB	0ffH
	DB	0ffH
	DB	0ffH
	DB	0ffH
	DB	0ffH
	DB	0ffH
	DB	0ffH
	DB	0ffH
	DB	0ffH
	DB	0ffH
	DB	0ffH
	DB	0ffH
	DB	0ffH
	DB	0ffH
	DB	0ffH
	DB	0ffH
	DB	0ffH
	DB	0ffH
	DB	0ffH
	DB	0ffH
	DB	0ffH
	DB	0ffH
	DB	0ffH
	DB	0ffH
	DB	0ffH
	DB	0ffH
	DB	0ffH
	DB	0ffH
	DB	0ffH
	DB	0ffH
	DB	0ffH
	DB	0ffH
	DB	0ffH
	DB	0ffH
	DB	0ffH
	DB	0ffH
	DB	0ffH
	DB	0ffH
	DB	0ffH
	DB	0ffH
	DB	0ffH
	DB	0ffH
	DB	0ffH
	DB	0ffH
	DB	0ffH
	DB	0ffH
	DB	0ffH
	DB	0ffH
	DB	0ffH
	DB	0ffH
	DB	0ffH
	DB	0ffH
	DB	0ffH
	DB	0ffH
	DB	0ffH
	DB	0ffH
	DB	0ffH
	DB	0ffH
	DB	0ffH
	DB	0ffH
	DB	0ffH
	DB	0ffH
	DB	0ffH
	DB	0ffH
	DB	0ffH
	DB	0ffH
	DB	0ffH
	DB	0ffH
	DB	0ffH
	DB	0ffH
	DB	0ffH
	DB	0ffH
	DB	0ffH
	DB	0ffH
	DB	0ffH
	DB	0ffH
	DB	0ffH
	DB	0ffH
	DB	0ffH
	DB	0ffH
	DB	0ffH
	DB	0ffH
	DB	0ffH
	DB	0ffH
	DB	0ffH
	DB	0ffH
	DB	0ffH
	DB	0ffH
	DB	0ffH
	DB	0ffH
	DB	0ffH
	DB	0ffH
	DB	0ffH
	DB	0ffH
	DB	0ffH
	DB	0ffH
	DB	0ffH
	DB	0ffH
	DB	0ffH
	DB	0ffH
	DB	0ffH
	DB	0ffH
	DB	0ffH
	DB	0ffH
	DB	0ffH
	DB	0ffH
	DB	0ffH
	DB	0ffH
	DB	0ffH
	DB	0ffH
	DB	0ffH
	DB	0ffH
	DB	0ffH
	DB	0ffH
	DB	0ffH
	DB	0ffH
	DB	0ffH
	DB	0ffH
	DB	0ffH
	DB	0ffH
	DB	0ffH
	DB	0ffH
	DB	0ffH
	DB	0ffH
	DB	0ffH
	DB	0ffH
	DB	0ffH
	DB	0ffH
	DB	0ffH
	DB	0ffH
	DB	0ffH
	DB	0ffH
	DB	0ffH
	DB	0ffH
	DB	0ffH
	DB	0ffH
	DB	0ffH
	DB	0ffH
	DB	0ffH
	DB	0ffH
	DB	0ffH
	DB	0ffH
	DB	0ffH
	DB	0ffH
	DB	0ffH
	DB	0ffH
	DB	0ffH
	DB	0ffH
	DB	0ffH
	DB	0ffH
	DB	0ffH
	DB	0ffH
	DB	0ffH
	DB	0ffH
	DB	0ffH
	DB	0ffH
	DB	0ffH
	DB	0ffH
	DB	0ffH
	DB	0ffH
	DB	0ffH
	DB	0ffH
	DB	0ffH
	DB	0ffH
	DB	0ffH
	DB	0ffH
	DB	0ffH
	DB	0ffH
	DB	0ffH
	DB	0ffH
	DB	0ffH
	DB	0ffH
	DB	0ffH
	DB	0ffH
	DB	0ffH
	DB	0ffH
	DB	0ffH
	DB	0ffH
	DB	0ffH
	DB	0ffH
	DB	0ffH
	DB	0ffH
	DB	0ffH
	DB	0ffH
	DB	0ffH
	DB	0ffH
	DB	0ffH
	DB	0ffH
	DB	0ffH
	DB	0ffH
	DB	0ffH
	DB	0ffH
	DB	0ffH
	DB	0ffH
	DB	0ffH
	DB	0ffH
	DB	0ffH
	DB	0ffH
	DB	0ffH
	DB	0ffH
	DB	0ffH
	DB	0ffH
	DB	0ffH
	DB	0ffH
	DB	0ffH
	DB	0ffH
	DB	0ffH
	DB	0ffH
	DB	0ffH
	DB	0ffH
	DB	0ffH
	DB	0ffH
	DB	0ffH
	DB	0ffH
	DB	0ffH
	DB	0ffH
	DB	0ffH
	DB	0ffH
	DB	0ffH
	DB	0ffH
	DB	0ffH
	DB	0ffH
	DB	0ffH
	DB	0ffH
	DB	0ffH
	DB	0ffH
	DB	0ffH
	DB	0ffH
	DB	0ffH
	DB	0ffH
	DB	0ffH
	DB	0ffH
	DB	0ffH
	DB	0ffH
	DB	0ffH
	DB	0ffH
	DB	0ffH
	DB	0ffH
	DB	0ffH
	DB	0ffH
	DB	0ffH
	DB	0ffH
	DB	0ffH
	DB	0ffH
	DB	0ffH
	DB	0ffH
	DB	0ffH
	DB	0ffH
	DB	0ffH
	DB	0ffH
	DB	0ffH
	DB	0ffH
	DB	0ffH
	DB	0ffH
	DB	0ffH
	DB	0ffH
	DB	0ffH
	DB	0ffH
	DB	0ffH
	DB	0ffH
	DB	0ffH
	DB	0ffH
	DB	0ffH
	DB	0ffH
	DB	0ffH
	DB	0ffH
	DB	0ffH
	DB	0ffH
	DB	0ffH
	DB	0ffH
	DB	0ffH
	DB	0ffH
	DB	0ffH
	DB	0ffH
	DB	0ffH
	DB	0ffH
	DB	0ffH
	DB	0ffH
	DB	0ffH
	DB	0ffH
	DB	0ffH
	DB	0ffH
	DB	0ffH
	DB	0ffH
	DB	0ffH
	DB	0ffH
	DB	0ffH
	DB	0ffH
	DB	0ffH
	DB	0ffH
	DB	0ffH
	DB	0ffH
	DB	0ffH
	DB	0ffH
	DB	0ffH
	DB	0ffH
	DB	0ffH
	DB	0ffH
	DB	0ffH
	DB	0ffH
	DB	0ffH
	DB	0ffH
	DB	0ffH
	DB	0ffH
	DB	0ffH
	DB	0ffH
	DB	0ffH
	DB	0ffH
	DB	0ffH
	DB	0ffH
	DB	0ffH
	DB	0ffH
	DB	0ffH
	DB	0ffH
	DB	0ffH
	DB	0ffH
	DB	0ffH
	DB	0ffH
	DB	0ffH
	DB	0ffH
	DB	0ffH
	DB	0ffH
	DB	0ffH
	DB	0ffH
	DB	0ffH
	DB	0ffH
	DB	0ffH
	DB	0ffH
	DB	0ffH
	DB	0ffH
	DB	0ffH
	DB	0ffH
	DB	0ffH
	DB	0ffH
	DB	0ffH
	DB	0ffH
	DB	0ffH
	DB	0ffH
	DB	0ffH
	DB	0ffH
	DB	0ffH
	DB	0ffH
	DB	0ffH
	DB	0ffH
	DB	0ffH
	DB	0ffH
	DB	0ffH
	DB	0ffH
	DB	0ffH
	DB	0ffH
	DB	0ffH
	DB	0ffH
	DB	0ffH
	DB	0ffH
	DB	0ffH
	DB	0ffH
	DB	0ffH
	DB	0ffH
	DB	0ffH
	DB	0ffH
	DB	0ffH
	DB	0ffH
	DB	0ffH
	DB	0ffH
	DB	0ffH
	DB	0ffH
	DB	0ffH
	DB	0ffH
	DB	0ffH
	DB	0ffH
	DB	0ffH
	DB	0ffH
	DB	0ffH
	DB	0ffH
	DB	0ffH
	DB	0ffH
	DB	0ffH
	DB	0ffH
	DB	0ffH
	DB	0ffH
	DB	0ffH
	DB	0ffH
	DB	0ffH
	DB	0ffH
	DB	0ffH
	DB	0ffH
	DB	0ffH
	DB	0ffH
	DB	0ffH
	DB	0ffH
	DB	0ffH
	DB	0ffH
	DB	0ffH
	DB	0ffH
	DB	0ffH
	DB	0ffH
	DB	0ffH
	DB	0ffH
	DB	0ffH
	DB	0ffH
	DB	0ffH
	DB	0ffH
	DB	0ffH
	DB	0ffH
	DB	0ffH
	DB	0ffH
	DB	0ffH
	DB	0ffH
	DB	0ffH
	DB	0ffH
	DB	0ffH
	DB	0ffH
	DB	0ffH
	DB	0ffH
	DB	0ffH
	DB	0ffH
	DB	0ffH
	DB	0ffH
	DB	0ffH
	DB	0ffH
	DB	0ffH
	DB	0ffH
	DB	0ffH
	DB	0ffH
	DB	0ffH
	DB	0ffH
	DB	0ffH
	DB	0ffH
	DB	0ffH
	DB	0ffH
	DB	0ffH
	DB	0ffH
	DB	0ffH
	DB	0ffH
	DB	0ffH
	DB	0ffH
	DB	0ffH
	DB	0ffH
	DB	0ffH
	DB	0ffH
	DB	0ffH
	DB	0ffH
	DB	0ffH
	DB	0ffH
	DB	0ffH
	DB	0ffH
	DB	0ffH
	DB	0ffH
	DB	0ffH
	DB	0ffH
	DB	0ffH
	DB	0ffH
	DB	0ffH
	DB	0ffH
	DB	0ffH
	DB	0ffH
	DB	0ffH
	DB	0ffH
	DB	0ffH
	DB	0ffH
	DB	0ffH
	DB	0ffH
	DB	0ffH
	DB	0ffH
	DB	0ffH
	DB	0ffH
	DB	0ffH
	DB	0ffH
	DB	0ffH
	DB	0ffH
	DB	0ffH
	DB	0ffH
	DB	0ffH
	DB	0ffH
	DB	0ffH
	DB	0ffH
	DB	0ffH
	DB	0ffH
	DB	0ffH
	DB	0ffH
	DB	0ffH
	DB	0ffH
	DB	0ffH
	DB	0ffH
	DB	0ffH
	DB	0ffH
	DB	0ffH
	DB	0ffH
	DB	0ffH
	DB	0ffH
	DB	0ffH
	DB	0ffH
	DB	0ffH
	DB	0ffH
	DB	0ffH
	DB	0ffH
	DB	0ffH
	DB	0ffH
	DB	0ffH
	DB	0ffH
	DB	0ffH
	DB	0ffH
	DB	0ffH
	DB	0ffH
	DB	0ffH
	DB	0ffH
	DB	0ffH
	DB	0ffH
	DB	0ffH
	DB	0ffH
	DB	0ffH
	DB	0ffH
	DB	0ffH
	DB	0ffH
	DB	0ffH
	DB	0ffH
	DB	0ffH
	DB	0ffH
	DB	0ffH
	DB	0ffH
	DB	0ffH
	DB	0ffH
	DB	0ffH
	DB	0ffH
	DB	0ffH
	DB	0ffH
	DB	0ffH
	DB	0ffH
	DB	0ffH
	DB	0ffH
	DB	0ffH
	DB	0ffH
	DB	0ffH
	DB	0ffH
	DB	0ffH
	DB	0ffH
	DB	0ffH
	DB	0ffH
	DB	0ffH
	DB	0ffH
	DB	0ffH
	DB	0ffH
	DB	0ffH
	DB	0ffH
	DB	0ffH
	DB	0ffH
	DB	0ffH
	DB	0ffH
	DB	0ffH
	DB	0ffH
	DB	0ffH
	DB	0ffH
	DB	0ffH
	DB	0ffH
	DB	0ffH
	DB	0ffH
	DB	0ffH
	DB	0ffH
	DB	0ffH
	DB	0ffH
	DB	0ffH
	DB	0ffH
	DB	0ffH
	DB	0ffH
	DB	0ffH
	DB	0ffH
	DB	0ffH
	DB	0ffH
	DB	0ffH
	DB	0ffH
	DB	0ffH
	DB	0ffH
	DB	0ffH
	DB	0ffH
	DB	0ffH
	DB	0ffH
	DB	0ffH
	DB	0ffH
	DB	0ffH
	DB	0ffH
	DB	0ffH
	DB	0ffH
	DB	0ffH
	DB	0ffH
	DB	0ffH
	DB	0ffH
	DB	0ffH
	DB	0ffH
	DB	0ffH
	DB	0ffH
	DB	0ffH
	DB	0ffH
	DB	0ffH
	DB	0ffH
	DB	0ffH
	DB	0ffH
	DB	0ffH
	DB	0ffH
	DB	0ffH
	DB	0ffH
	DB	0ffH
	DB	0ffH
	DB	0ffH
	DB	0ffH
	DB	0ffH
	DB	0ffH
	DB	0ffH
	DB	0ffH
	DB	0ffH
	DB	0ffH
	DB	0ffH
	DB	0ffH
	DB	0ffH
	DB	0ffH
	DB	0ffH
	DB	0ffH
	DB	0ffH
	DB	0ffH
	DB	0ffH
	DB	0ffH
	DB	0ffH
	DB	0ffH
	DB	0ffH
	DB	0ffH
	DB	0ffH
	DB	0ffH
	DB	0ffH
	DB	0ffH
	DB	0ffH
	DB	0ffH
	DB	0ffH
	DB	0ffH
	DB	0ffH
	DB	0ffH
	DB	0ffH
	DB	0ffH
	DB	0ffH
	DB	0ffH
	DB	0ffH
	DB	0ffH
	DB	0ffH
	DB	0ffH
	DB	0ffH
	DB	0ffH
	DB	0ffH
	DB	0ffH
	DB	0ffH
	DB	0ffH
	DB	0ffH
	DB	0ffH
	DB	0ffH
	DB	0ffH
	DB	0ffH
	DB	0ffH
	DB	0ffH
	DB	0ffH
	DB	0ffH
	DB	0ffH
	DB	0ffH
	DB	0ffH
	DB	0ffH
	DB	0ffH
	DB	0ffH
	DB	0ffH
	DB	0ffH
	DB	0ffH
	DB	0ffH
	DB	0ffH
	DB	0ffH
	DB	0ffH
	DB	0ffH
	DB	0ffH
	DB	0ffH
	DB	0ffH
	DB	0ffH
	DB	0ffH
	DB	0ffH
	DB	0ffH
	DB	0ffH
	DB	0ffH
	DB	0ffH
	DB	0ffH
	DB	0ffH
	DB	0ffH
	DB	0ffH
	DB	0ffH
	DB	0ffH
	DB	0ffH
	DB	0ffH
	DB	0ffH
	DB	0ffH
	DB	0ffH
	DB	0ffH
	DB	0ffH
	DB	0ffH
	DB	0ffH
	DB	0ffH
	DB	0ffH
	DB	0ffH
	DB	0ffH
	DB	0ffH
	DB	0ffH
	DB	0ffH
	DB	0ffH
	DB	0ffH
	DB	0ffH
	DB	0ffH
	DB	0ffH
	DB	0ffH
	DB	0ffH
	DB	0ffH
	DB	0ffH
	DB	0ffH
	DB	0ffH
	DB	0ffH
	DB	0ffH
	DB	0ffH
	DB	0ffH
	DB	0ffH
	DB	0ffH
	DB	0ffH
	DB	0ffH
	DB	0ffH
	DB	0ffH
	DB	0ffH
	DB	0ffH
	DB	0ffH
	DB	0ffH
	DB	0ffH
	DB	0ffH
	DB	0ffH
	DB	0ffH
	DB	0ffH
	DB	0ffH
	DB	0ffH
	DB	0ffH
	DB	0ffH
	DB	0ffH
	DB	0ffH
	DB	0ffH
	DB	0ffH
	DB	0ffH
	DB	0ffH
	DB	0ffH
	DB	0ffH
	DB	0ffH
	DB	0ffH
	DB	0ffH
	DB	0ffH
	DB	0ffH
	DB	0ffH
	DB	0ffH
	DB	0ffH
	DB	0ffH
	DB	0ffH
	DB	0ffH
	DB	0ffH
	DB	0ffH
	DB	0ffH
	DB	0ffH
	DB	0ffH
	DB	0ffH
	DB	0ffH
	DB	0ffH
	DB	0ffH
	DB	0ffH
	DB	0ffH
	DB	0ffH
	DB	0ffH
	DB	0ffH
	DB	0ffH
	DB	0ffH
	DB	0ffH
	DB	0ffH
	DB	0ffH
	DB	0ffH
	DB	0ffH
	DB	0ffH
	DB	0ffH
	DB	0ffH
	DB	0ffH
	DB	0ffH
	DB	0ffH
	DB	0ffH
	DB	0ffH
	DB	0ffH
	DB	0ffH
	DB	0ffH
	DB	0ffH
	DB	0ffH
	DB	0ffH
	DB	0ffH
	DB	0ffH
	DB	0ffH
	DB	0ffH
	DB	0ffH
	DB	0ffH
	DB	0ffH
	DB	0ffH
	DB	0ffH
	DB	0ffH
	DB	0ffH
	DB	0ffH
	DB	0ffH
	DB	0ffH
	DB	0ffH
	DB	0ffH
	DB	0ffH
	DB	0ffH
	DB	0ffH
	DB	0ffH
	DB	0ffH
	DB	0ffH
	DB	0ffH
	DB	0ffH
	DB	0ffH
	DB	0ffH
	DB	0ffH
	DB	0ffH
	DB	0ffH
	DB	0ffH
	DB	0ffH
	DB	0ffH
	DB	0ffH
	DB	0ffH
	DB	0ffH
	DB	0ffH
	DB	0ffH
	DB	0ffH
	DB	0ffH
	DB	0ffH
	DB	0ffH
	DB	0ffH
	DB	0ffH
	DB	0ffH
	DB	0ffH
	DB	0ffH
	DB	0ffH
	DB	0ffH
	DB	0ffH
	DB	0ffH
	DB	0ffH
	DB	0ffH
	DB	0ffH
	DB	0ffH
	DB	0ffH
	DB	0ffH
	DB	0ffH
	DB	0ffH
	DB	0ffH
	DB	0ffH
	DB	0ffH
	DB	0ffH
	DB	0ffH
	DB	0ffH
	DB	0ffH
	DB	0ffH
	DB	0ffH
	DB	0ffH
	DB	0ffH
	DB	0ffH
	DB	0ffH
	DB	0ffH
	DB	0ffH
	DB	0ffH
	DB	0ffH
	DB	0ffH
	DB	0ffH
	DB	0ffH
	DB	0ffH
	DB	0ffH
	DB	0ffH
	DB	0ffH
	DB	0ffH
	DB	0ffH
	DB	0ffH
	DB	0ffH
	DB	0ffH
	DB	0ffH
	DB	0ffH
	DB	0ffH
	DB	0ffH
	DB	0ffH
	DB	0ffH
	DB	0ffH
	DB	0ffH
	DB	0ffH
	DB	0ffH
	DB	0ffH
	DB	0ffH
	DB	0ffH
	DB	0ffH
	DB	0ffH
	DB	0ffH
	DB	0ffH
	DB	0ffH
	DB	0ffH
	DB	0ffH
	DB	0ffH
	DB	0ffH
	DB	0ffH
	DB	0ffH
	DB	0ffH
	DB	0ffH
	DB	0ffH
	DB	0ffH
	DB	0ffH
	DB	0ffH
	DB	0ffH
	DB	0ffH
	DB	0ffH
	DB	0ffH
	DB	0ffH
	DB	0ffH
	DB	0ffH
	DB	0ffH
	DB	0ffH
	DB	0ffH
	DB	0ffH
	DB	0ffH
	DB	0ffH
	DB	0ffH
	DB	0ffH
	DB	0ffH
	DB	0ffH
	DB	0ffH
	DB	0ffH
	DB	0ffH
	DB	0ffH
	DB	0ffH
	DB	0ffH
	DB	0ffH
	DB	0ffH
	DB	0ffH
	DB	0ffH
	DB	0ffH
	DB	0ffH
	DB	0ffH
	DB	0ffH
	DB	0ffH
	DB	0ffH
	DB	0ffH
	DB	0ffH
	DB	0ffH
	DB	0ffH
	DB	0ffH
	DB	0ffH
	DB	0ffH
	DB	0ffH
	DB	0ffH
	DB	0ffH
	DB	0ffH
	DB	0ffH
	DB	0ffH
	DB	0ffH
	DB	0ffH
	DB	0ffH
	DB	0ffH
	DB	0ffH
	DB	0ffH
	DB	0ffH
	DB	0ffH
	DB	0ffH
	DB	0ffH
	DB	0ffH
	DB	0ffH
	DB	0ffH
	DB	0ffH
	DB	0ffH
	DB	0ffH
	DB	0ffH
	DB	0ffH
	DB	0ffH
	DB	0ffH
	DB	0ffH
	DB	0ffH
	DB	0ffH
	DB	0ffH
	DB	0ffH
	DB	0ffH
	DB	0ffH
	DB	0ffH
	DB	0ffH
	DB	0ffH
	DB	0ffH
	DB	0ffH
	DB	0ffH
	DB	0ffH
	DB	0ffH
	DB	0ffH
	DB	0ffH
	DB	0ffH
	DB	0ffH
	DB	0ffH
	DB	0ffH
	DB	0ffH
	DB	0ffH
	DB	0ffH
	DB	0ffH
	DB	0ffH
	DB	0ffH
	DB	0ffH
	DB	0ffH
	DB	0ffH
	DB	0ffH
	DB	0ffH
	DB	0ffH
	DB	0ffH
	DB	0ffH
	DB	0ffH
	DB	0ffH
	DB	0ffH
	DB	0ffH
	DB	0ffH
	DB	0ffH
	DB	0ffH
	DB	0ffH
	DB	0ffH
	DB	0ffH
	DB	0ffH
	DB	0ffH
	DB	0ffH
	DB	0ffH
	DB	0ffH
	DB	0ffH
	DB	0ffH
	DB	0ffH
	DB	0ffH
	DB	0ffH
	DB	0ffH
	DB	0ffH
	DB	0ffH
	DB	0ffH
	DB	0ffH
	DB	0ffH
	DB	0ffH
	DB	0ffH
	DB	0ffH
	DB	0ffH
	DB	0ffH
	DB	0ffH
	DB	0ffH
	DB	0ffH
	DB	0ffH
	DB	0ffH
	DB	0ffH
	DB	0ffH
	DB	0ffH
	DB	0ffH
	DB	0ffH
	DB	0ffH
	DB	0ffH
	DB	0ffH
	DB	0ffH
	DB	0ffH
	DB	0ffH
	DB	0ffH
	DB	0ffH
	DB	0ffH
	DB	0ffH
	DB	0ffH
	DB	0ffH
	DB	0ffH
	DB	0ffH
	DB	0ffH
	DB	0ffH
	DB	0ffH
	DB	0ffH
	DB	0ffH
	DB	0ffH
	DB	0ffH
	DB	0ffH
	DB	0ffH
	DB	0ffH
	DB	0ffH
	DB	0ffH
	DB	0ffH
	DB	0ffH
	DB	0ffH
	DB	0ffH
	DB	0ffH
	DB	0ffH
	DB	0ffH
	DB	0ffH
	DB	0ffH
	DB	0ffH
	DB	0ffH
	DB	0ffH
	DB	0ffH
	DB	0ffH
	DB	0ffH
	DB	0ffH
	DB	0ffH
	DB	0ffH
	DB	0ffH
	DB	0ffH
	DB	0ffH
	DB	0ffH
	DB	0ffH
	DB	0ffH
	DB	0ffH
	DB	0ffH
	DB	0ffH
	DB	0ffH
	DB	0ffH
	DB	0ffH
	DB	0ffH
	DB	0ffH
	DB	0ffH
	DB	0ffH
	DB	0ffH
	DB	0ffH
	DB	0ffH
	DB	0ffH
	DB	0ffH
	DB	0ffH
	DB	0ffH
	DB	0ffH
	DB	0ffH
	DB	0ffH
	DB	0ffH
	DB	0ffH
	DB	0ffH
	DB	0ffH
	DB	0ffH
	DB	0ffH
	DB	0ffH
	DB	0ffH
	DB	0ffH
	DB	0ffH
	DB	0ffH
	DB	0ffH
	DB	0ffH
	DB	0ffH
	DB	0ffH
	DB	0ffH
	DB	0ffH
	DB	0ffH
	DB	0ffH
	DB	0ffH
	DB	0ffH
	DB	0ffH
	DB	0ffH
	DB	0ffH
	DB	0ffH
	DB	0ffH
	DB	0ffH
	DB	0ffH
	DB	0ffH
	DB	0ffH
	DB	0ffH
	DB	0ffH
	DB	0ffH
	DB	0ffH
	DB	0ffH
	DB	0ffH
	DB	0ffH
	DB	0ffH
	DB	0ffH
	DB	0ffH
	DB	0ffH
	DB	0ffH
	DB	0ffH
	DB	0ffH
	DB	0ffH
	DB	0ffH
	DB	0ffH
	DB	0ffH
	DB	0ffH
	DB	0ffH
	DB	0ffH
	DB	0ffH
	DB	0ffH
	DB	0ffH
	DB	0ffH
	DB	0ffH
	DB	0ffH
	DB	0ffH
	DB	0ffH
	DB	0ffH
	DB	0ffH
	DB	0ffH
	DB	0ffH
	DB	0ffH
	DB	0ffH
	DB	0ffH
	DB	0ffH
	DB	0ffH
	DB	0ffH
	DB	0ffH
	DB	0ffH
	DB	0ffH
	DB	0ffH
	DB	0ffH
	DB	0ffH
	DB	0ffH
	DB	0ffH
	DB	0ffH
	DB	0ffH
	DB	0ffH
	DB	0ffH
	DB	0ffH
	DB	0ffH
	DB	0ffH
	DB	0ffH
	DB	0ffH
	DB	0ffH
	DB	0ffH
	DB	0ffH
	DB	0ffH
	DB	0ffH
	DB	0ffH
	DB	0ffH
	DB	0ffH
	DB	0ffH
	DB	0ffH
	DB	0ffH
	DB	0ffH
	DB	0ffH
	DB	0ffH
	DB	0ffH
	DB	0ffH
	DB	0ffH
	DB	0ffH
	DB	0ffH
	DB	0ffH
	DB	0ffH
	DB	0ffH
	DB	0ffH
	DB	0ffH
	DB	0ffH
	DB	0ffH
	DB	0ffH
	DB	0ffH
	DB	0ffH
	DB	0ffH
	DB	0ffH
	DB	0ffH
	DB	0ffH
	DB	0ffH
	DB	0ffH
	DB	0ffH
	DB	0ffH
	DB	0ffH
	DB	0ffH
	DB	0ffH
	DB	0ffH
	DB	0ffH
	DB	0ffH
	DB	0ffH
	DB	0ffH
	DB	0ffH
	DB	0ffH
	DB	0ffH
	DB	0ffH
	DB	0ffH
	DB	0ffH
	DB	0ffH
	DB	0ffH
	DB	0ffH
	DB	0ffH
	DB	0ffH
	DB	0ffH
	DB	0ffH
	DB	0ffH
	DB	0ffH
	DB	0ffH
	DB	0ffH
	DB	0ffH
	DB	0ffH
	DB	0ffH
	DB	0ffH
	DB	0ffH
	DB	0ffH
	DB	0ffH
	DB	0ffH
	DB	0ffH
	DB	0ffH
	DB	0ffH
	DB	0ffH
	DB	0ffH
	DB	0ffH
	DB	0ffH
	DB	0ffH
	DB	0ffH
	DB	0ffH
	DB	0ffH
	DB	0ffH
	DB	0ffH
	DB	0ffH
	DB	0ffH
	DB	0ffH
	DB	0ffH
	DB	0ffH
	DB	0ffH
	DB	0ffH
	DB	0ffH
	DB	0ffH
	DB	0ffH
	DB	0ffH
	DB	0ffH
	DB	0ffH
	DB	0ffH
	DB	0ffH
	DB	0ffH
	DB	0ffH
	DB	0ffH
	DB	0ffH
	DB	0ffH
	DB	0ffH
	DB	0ffH
	DB	0ffH
	DB	0ffH
	DB	0ffH
	DB	0ffH
	DB	0ffH
	DB	0ffH
	DB	0ffH
	DB	0ffH
	DB	0ffH
	DB	0ffH
	DB	0ffH
	DB	0ffH
	DB	0ffH
	DB	0ffH
	DB	0ffH
	DB	0ffH
	DB	0ffH
	DB	0ffH
	DB	0ffH
	DB	0ffH
	DB	0ffH
	DB	0ffH
	DB	0ffH
	DB	0ffH
	DB	0ffH
	DB	0ffH
	DB	0ffH
	DB	0ffH
	DB	0ffH
	DB	0ffH
	DB	0ffH
	DB	0ffH
	DB	0ffH
	DB	0ffH
	DB	0ffH
	DB	0ffH
	DB	0ffH
	DB	0ffH
	DB	0ffH
	DB	0ffH
	DB	0ffH
	DB	0ffH
	DB	0ffH
	DB	0ffH
	DB	0ffH
	DB	0ffH
	DB	0ffH
	DB	0ffH
	DB	0ffH
	DB	0ffH
	DB	0ffH
	DB	0ffH
	DB	0ffH
	DB	0ffH
	DB	0ffH
	DB	0ffH
	DB	0ffH
	DB	0ffH
	DB	0ffH
	DB	0ffH
	DB	0ffH
	DB	0ffH
	DB	0ffH
	DB	0ffH
	DB	0ffH
	DB	0ffH
	DB	0ffH
	DB	0ffH
	DB	0ffH
	DB	0ffH
	DB	0ffH
	DB	0ffH
	DB	0ffH
	DB	0ffH
	DB	0ffH
	DB	0ffH
	DB	0ffH
	DB	0ffH
	DB	0ffH
	DB	0ffH
	DB	0ffH
	DB	0ffH
	DB	0ffH
	DB	0ffH
	DB	0ffH
	DB	0ffH
	DB	0ffH
	DB	0ffH
	DB	0ffH
	DB	0ffH
	DB	0ffH
	DB	0ffH
	DB	0ffH
	DB	0ffH
	DB	0ffH
	DB	0ffH
	DB	0ffH
	DB	0ffH
	DB	0ffH
	DB	0ffH
	DB	0ffH
	DB	0ffH
	DB	0ffH
	DB	0ffH
	DB	0ffH
	DB	0ffH
	DB	0ffH
	DB	0ffH
	DB	0ffH
	DB	0ffH
	DB	0ffH
	DB	0ffH
	DB	0ffH
	DB	0ffH
	DB	0ffH
	DB	0ffH
	DB	0ffH
	DB	0ffH
	DB	0ffH
	DB	0ffH
	DB	0ffH
	DB	0ffH
	DB	0ffH
	DB	0ffH
	DB	0ffH
	DB	0ffH
	DB	0ffH
	DB	0ffH
	DB	0ffH
	DB	0ffH
	DB	0ffH
	DB	0ffH
	DB	0ffH
	DB	0ffH
	DB	0ffH
	DB	0ffH
	DB	0ffH
	DB	0ffH
	DB	0ffH
	DB	0ffH
	DB	0ffH
	DB	0ffH
	DB	0ffH
	DB	0ffH
	DB	0ffH
	DB	0ffH
	DB	0ffH
	DB	0ffH
	DB	0ffH
	DB	0ffH
	DB	0ffH
	DB	0ffH
	DB	0ffH
	DB	0ffH
	DB	0ffH
	DB	0ffH
	DB	0ffH
	DB	0ffH
	DB	0ffH
	DB	0ffH
	DB	0ffH
	DB	0ffH
	DB	0ffH
	DB	0ffH
	DB	0ffH
	DB	0ffH
	DB	0ffH
	DB	0ffH
	DB	0ffH
	DB	0ffH
	DB	0ffH
	DB	0ffH
	DB	0ffH
	DB	0ffH
	DB	0ffH
	DB	0ffH
	DB	0ffH
	DB	0ffH
	DB	0ffH
	DB	0ffH
	DB	0ffH
	DB	0ffH
	DB	0ffH
	DB	0ffH
	DB	0ffH
	DB	0ffH
	DB	0ffH
	DB	0ffH
	DB	0ffH
	DB	0ffH
	DB	0ffH
	DB	0ffH
	DB	0ffH
	DB	0ffH
	DB	0ffH
	DB	0ffH
	DB	0ffH
	DB	0ffH
	DB	0ffH
	DB	0ffH
	DB	0ffH
	DB	0ffH
	DB	0ffH
	DB	0ffH
	DB	0ffH
	DB	0ffH
	DB	0ffH
	DB	0ffH
	DB	0ffH
	DB	0ffH
	DB	0ffH
	DB	0ffH
	DB	0ffH
	DB	0ffH
	DB	0ffH
	DB	0ffH
	DB	0ffH
	DB	0ffH
	DB	0ffH
	DB	0ffH
	DB	0ffH
	DB	0ffH
	DB	0ffH
	DB	0ffH
	DB	0ffH
	DB	0ffH
	DB	0ffH
	DB	0ffH
	DB	0ffH
	DB	0ffH
	DB	0ffH
	DB	0ffH
	DB	0ffH
	DB	0ffH
	DB	0ffH
	DB	0ffH
	DB	0ffH
	DB	0ffH
	DB	0ffH
	DB	0ffH
	DB	0ffH
	DB	0ffH
	DB	0ffH
	DB	0ffH
	DB	0ffH
	DB	0ffH
	DB	0ffH
	DB	0ffH
	DB	0ffH
	DB	0ffH
	DB	0ffH
	DB	0ffH
	DB	0ffH
	DB	0ffH
	DB	0ffH
	DB	0ffH
	DB	0ffH
	DB	0ffH
	DB	0ffH
	DB	0ffH
	DB	0ffH
	DB	0ffH
	DB	0ffH
	DB	0ffH
	DB	0ffH
	DB	0ffH
	DB	0ffH
	DB	0ffH
	DB	0ffH
	DB	0ffH
	DB	0ffH
	DB	0ffH
	DB	0ffH
	DB	0ffH
	DB	0ffH
	DB	0ffH
	DB	0ffH
	DB	0ffH
	DB	0ffH
	DB	0ffH
	DB	0ffH
	DB	0ffH
	DB	0ffH
	DB	0ffH
	DB	0ffH
	DB	0ffH
	DB	0ffH
	DB	0ffH
	DB	0ffH
	DB	0ffH
	DB	0ffH
	DB	0ffH
	DB	0ffH
	DB	0ffH
	DB	0ffH
	DB	0ffH
	DB	0ffH
	DB	0ffH
	DB	0ffH
	DB	0ffH
	DB	0ffH
	DB	0ffH
	DB	0ffH
	DB	0ffH
	DB	0ffH
	DB	0ffH
	DB	0ffH
	DB	0ffH
	DB	0ffH
	DB	0ffH
	DB	0ffH
	DB	0ffH
	DB	0ffH
	DB	0ffH
	DB	0ffH
	DB	0ffH
	DB	0ffH
	DB	0ffH
	DB	0ffH
	DB	0ffH
	DB	0ffH
	DB	0ffH
	DB	0ffH
	DB	0ffH
	DB	0ffH
	DB	0ffH
	DB	0ffH
	DB	0ffH
	DB	0ffH
	DB	0ffH
	DB	0ffH
	DB	0ffH
	DB	0ffH
	DB	0ffH
	DB	0ffH
	DB	0ffH
	DB	0ffH
	DB	0ffH
	DB	0ffH
	DB	0ffH
	DB	0ffH
	DB	0ffH
	DB	0ffH
	DB	0ffH
	DB	0ffH
	DB	0ffH
	DB	0ffH
	DB	0ffH
	DB	0ffH
	DB	0ffH
	DB	0ffH
	DB	0ffH
	DB	0ffH
	DB	0ffH
	DB	0ffH
	DB	0ffH
	DB	0ffH
	DB	0ffH
	DB	0ffH
	DB	0ffH
	DB	0ffH
	DB	0ffH
	DB	0ffH
	DB	0ffH
	DB	0ffH
	DB	0ffH
	DB	0ffH
	DB	0ffH
	DB	0ffH
	DB	0ffH
	DB	0ffH
	DB	0ffH
	DB	0ffH
	DB	0ffH
	DB	0ffH
	DB	0ffH
	DB	0ffH
	DB	0ffH
	DB	0ffH
	DB	0ffH
	DB	0ffH
	DB	0ffH
	DB	0ffH
	DB	0ffH
	DB	0ffH
	DB	0ffH
	DB	0ffH
	DB	0ffH
	DB	0ffH
	DB	0ffH
	DB	0ffH
	DB	0ffH
	DB	0ffH
	DB	0ffH
	DB	0ffH
	DB	0ffH
	DB	0ffH
	DB	0ffH
	DB	0ffH
	DB	0ffH
	DB	0ffH
	DB	0ffH
	DB	0ffH
	DB	0ffH
	DB	0ffH
	DB	0ffH
	DB	0ffH
	DB	0ffH
	DB	0ffH
	DB	0ffH
	DB	0ffH
	DB	0ffH
	DB	0ffH
	DB	0ffH
	DB	0ffH
	DB	0ffH
	DB	0ffH
	DB	0ffH
	DB	0ffH
	DB	0ffH
	DB	0ffH
	DB	0ffH
	DB	0ffH
	DB	0ffH
	DB	0ffH
	DB	0ffH
	DB	0ffH
	DB	0ffH
	DB	0ffH
	DB	0ffH
	DB	0ffH
	DB	0ffH
	DB	0ffH
	DB	0ffH
	DB	0ffH
	DB	0ffH
	DB	0ffH
	DB	0ffH
	DB	0ffH
	DB	0ffH
	DB	0ffH
	DB	0ffH
	DB	0ffH
	DB	0ffH
	DB	0ffH
	DB	0ffH
	DB	0ffH
	DB	0ffH
	DB	0ffH
	DB	0ffH
	DB	0ffH
	DB	0ffH
	DB	0ffH
	DB	0ffH
	DB	0ffH
	DB	0ffH
	DB	0ffH
	DB	0ffH
	DB	0ffH
	DB	0ffH
	DB	0ffH
	DB	0ffH
	DB	0ffH
	DB	0ffH
	DB	0ffH
	DB	0ffH
	DB	0ffH
	DB	0ffH
	DB	0ffH
	DB	0ffH
	DB	0ffH
	DB	0ffH
	DB	0ffH
	DB	0ffH
	DB	0ffH
	DB	0ffH
	DB	0ffH
	DB	0ffH
	DB	0ffH
	DB	0ffH
	DB	0ffH
	DB	0ffH
	DB	0ffH
	DB	0ffH
	DB	0ffH
	DB	0ffH
	DB	0ffH
	DB	0ffH
	DB	0ffH
	DB	0ffH
	DB	0ffH
	DB	0ffH
	DB	0ffH
	DB	0ffH
	DB	0ffH
	DB	0ffH
	DB	0ffH
	DB	0ffH
	DB	0ffH
	DB	0ffH
	DB	0ffH
	DB	0ffH
	DB	0ffH
	DB	0ffH
	DB	0ffH
	DB	0ffH
	DB	0ffH
	DB	0ffH
	DB	0ffH
	DB	0ffH
	DB	0ffH
	DB	0ffH
	DB	0ffH
	DB	0ffH
	DB	0ffH
	DB	0ffH
	DB	0ffH
	DB	0ffH
	DB	0ffH
	DB	0ffH
	DB	0ffH
	DB	0ffH
	DB	0ffH
	DB	0ffH
	DB	0ffH
	DB	0ffH
	DB	0ffH
	DB	0ffH
	DB	0ffH
	DB	0ffH
	DB	0ffH
	DB	0ffH
	DB	0ffH
	DB	0ffH
	DB	0ffH
	DB	0ffH
	DB	0ffH
	DB	0ffH
	DB	0ffH
	DB	0ffH
	DB	0ffH
	DB	0ffH
	DB	0ffH
	DB	0ffH
	DB	0ffH
	DB	0ffH
	DB	0ffH
	DB	0ffH
	DB	0ffH
	DB	0ffH
	DB	0ffH
	DB	0ffH
	DB	0ffH
	DB	0ffH
	DB	0ffH
	DB	0ffH
	DB	0ffH
	DB	0ffH
	DB	0ffH
	DB	0ffH
	DB	0ffH
	DB	0ffH
	DB	0ffH
	DB	0ffH
	DB	0ffH
	DB	0ffH
	DB	0ffH
	DB	0ffH
	DB	0ffH
	DB	0ffH
	DB	0ffH
	DB	0ffH
	DB	0ffH
	DB	0ffH
	DB	0ffH
	DB	0ffH
	DB	0ffH
	DB	0ffH
	DB	0ffH
	DB	0ffH
	DB	0ffH
	DB	0ffH
	DB	0ffH
	DB	0ffH
	DB	0ffH
	DB	0ffH
	DB	0ffH
	DB	0ffH
	DB	0ffH
	DB	0ffH
	DB	0ffH
	DB	0ffH
	DB	0ffH
	DB	0ffH
	DB	0ffH
	DB	0ffH
	DB	0ffH
	DB	0ffH
	DB	0ffH
	DB	0ffH
	DB	0ffH
	DB	0ffH
	DB	0ffH
	DB	0ffH
	DB	0ffH
	DB	0ffH
	DB	0ffH
	DB	0ffH
	DB	0ffH
	DB	0ffH
	DB	0ffH
	DB	0ffH
	DB	0ffH
	DB	0ffH
	DB	0ffH
	DB	0ffH
	DB	0ffH
	DB	0ffH
	DB	0ffH
	DB	0ffH
	DB	0ffH
	DB	0ffH
	DB	0ffH
	DB	0ffH
	DB	0ffH
	DB	0ffH
	DB	0ffH
	DB	0ffH
	DB	0ffH
	DB	0ffH
	DB	0ffH
	DB	0ffH
	DB	0ffH
	DB	0ffH
	DB	0ffH
	DB	0ffH
	DB	0ffH
	DB	0ffH
	DB	0ffH
	DB	0ffH
	DB	0ffH
	DB	0ffH
	DB	0ffH
	DB	0ffH
	DB	0ffH
	DB	0ffH
	DB	0ffH
	DB	0ffH
	DB	0ffH
	DB	0ffH
	DB	0ffH
	DB	0ffH
	DB	0ffH
	DB	0ffH
	DB	0ffH
	DB	0ffH
	DB	0ffH
	DB	0ffH
	DB	0ffH
	DB	0ffH
	DB	0ffH
	DB	0ffH
	DB	0ffH
	DB	0ffH
	DB	0ffH
	DB	0ffH
	DB	0ffH
	DB	0ffH
	DB	0ffH
	DB	0ffH
	DB	0ffH
	DB	0ffH
	DB	0ffH
	DB	0ffH
	DB	0ffH
	DB	0ffH
	DB	0ffH
	DB	0ffH
	DB	0ffH
	DB	0ffH
	DB	0ffH
	DB	0ffH
	DB	0ffH
	DB	0ffH
	DB	0ffH
	DB	0ffH
	DB	0ffH
	DB	0ffH
	DB	0ffH
	DB	0ffH
	DB	0ffH
	DB	0ffH
	DB	0ffH
	DB	0ffH
	DB	0ffH
	DB	0ffH
	DB	0ffH
	DB	0ffH
	DB	0ffH
	DB	0ffH
	DB	0ffH
	DB	0ffH
	DB	0ffH
	DB	0ffH
	DB	0ffH
	DB	0ffH
	DB	0ffH
	DB	0ffH
	DB	0ffH
	DB	0ffH
	DB	0ffH
	DB	0ffH
	DB	0ffH
	DB	0ffH
	DB	0ffH
	DB	0ffH
	DB	0ffH
	DB	0ffH
	DB	0ffH
	DB	0ffH
	DB	0ffH
	DB	0ffH
	DB	0ffH
	DB	0ffH
	DB	0ffH
	DB	0ffH
	DB	0ffH
	DB	0ffH
	DB	0ffH
	DB	0ffH
	DB	0ffH
	DB	0ffH
	DB	0ffH
	DB	0ffH
	DB	0ffH
	DB	0ffH
	DB	0ffH
	DB	0ffH
	DB	0ffH
	DB	0ffH
	DB	0ffH
	DB	0ffH
	DB	0ffH
	DB	0ffH
	DB	0ffH
	DB	0ffH
	DB	0ffH
	DB	0ffH
	DB	0ffH
	DB	0ffH
	DB	0ffH
	DB	0ffH
	DB	0ffH
	DB	0ffH
	DB	0ffH
	DB	0ffH
	DB	0ffH
	DB	0ffH
	DB	0ffH
	DB	0ffH
	DB	0ffH
	DB	0ffH
	DB	0ffH
	DB	0ffH
	DB	0ffH
	DB	0ffH
	DB	0ffH
	DB	0ffH
	DB	0ffH
	DB	0ffH
	DB	0ffH
	DB	0ffH
	DB	0ffH
	DB	0ffH
	DB	0ffH
	DB	0ffH
	DB	0ffH
	DB	0ffH
	DB	0ffH
	DB	0ffH
	DB	0ffH
	DB	0ffH
	DB	0ffH
	DB	0ffH
	DB	0ffH
	DB	0ffH
	DB	0ffH
	DB	0ffH
	DB	0ffH
	DB	0ffH
	DB	0ffH
	DB	0ffH
	DB	0ffH
	DB	0ffH
	DB	0ffH
	DB	0ffH
	DB	0ffH
	DB	0ffH
	DB	0ffH
	DB	0ffH
	DB	0ffH
	DB	0ffH
	DB	0ffH
	DB	0ffH
	DB	0ffH
	DB	0ffH
	DB	0ffH
	DB	0ffH
	DB	0ffH
	DB	0ffH
	DB	0ffH
	DB	0ffH
	DB	0ffH
	DB	0ffH
	DB	0ffH
	DB	0ffH
	DB	0ffH
	DB	0ffH
	DB	0ffH
	DB	0ffH
	DB	0ffH
	DB	0ffH
	DB	0ffH
	DB	0ffH
	DB	0ffH
	DB	0ffH
	DB	0ffH
	DB	0ffH
	DB	0ffH
	DB	0ffH
	DB	0ffH
	DB	0ffH
	DB	0ffH
	DB	0ffH
	DB	0ffH
	DB	0ffH
	DB	0ffH
	DB	0ffH
	DB	0ffH
	DB	0ffH
	DB	0ffH
	DB	0ffH
	DB	0ffH
	DB	0ffH
	DB	0ffH
	DB	0ffH
	DB	0ffH
	DB	0ffH
	DB	0ffH
	DB	0ffH
	DB	0ffH
	DB	0ffH
	DB	0ffH
	DB	0ffH
	DB	0ffH
	DB	0ffH
	DB	0ffH
	DB	0ffH
	DB	0ffH
	DB	0ffH
	DB	0ffH
	DB	0ffH
	DB	0ffH
	DB	0ffH
	DB	0ffH
	DB	0ffH
	DB	0ffH
	DB	0ffH
	DB	0ffH
	DB	0ffH
	DB	0ffH
	DB	0ffH
	DB	0ffH
	DB	0ffH
	DB	0ffH
	DB	0ffH
	DB	0ffH
	DB	0ffH
	DB	0ffH
	DB	0ffH
	DB	0ffH
	DB	0ffH
	DB	0ffH
	DB	0ffH
	DB	0ffH
	DB	0ffH
	DB	0ffH
	DB	0ffH
	DB	0ffH
	DB	0ffH
	DB	0ffH
	DB	0ffH
	DB	0ffH
	DB	0ffH
	DB	0ffH
	DB	0ffH
	DB	0ffH
	DB	0ffH
	DB	0ffH
	DB	0ffH
	DB	0ffH
	DB	0ffH
	DB	0ffH
	DB	0ffH
	DB	0ffH
	DB	0ffH
	DB	0ffH
	DB	0ffH
	DB	0ffH
	DB	0ffH
	DB	0ffH
	DB	0ffH
	DB	0ffH
	DB	0ffH
	DB	0ffH
	DB	0ffH
	DB	0ffH
	DB	0ffH
	DB	0ffH
	DB	0ffH
	DB	0ffH
	DB	0ffH
	DB	0ffH
	DB	0ffH
	DB	0ffH
	DB	0ffH
	DB	0ffH
	DB	0ffH
	DB	0ffH
	DB	0ffH
	DB	0ffH
	DB	0ffH
	DB	0ffH
	DB	0ffH
	DB	0ffH
	DB	0ffH
	DB	0ffH
	DB	0ffH
	DB	0ffH
	DB	0ffH
	DB	0ffH
	DB	0ffH
	DB	0ffH
	DB	0ffH
	DB	0ffH
	DB	0ffH
	DB	0ffH
	DB	0ffH
	DB	0ffH
	DB	0ffH
	DB	0ffH
	DB	0ffH
	DB	0ffH
	DB	0ffH
	DB	0ffH
	DB	0ffH
	DB	0ffH
	DB	0ffH
	DB	0ffH
	DB	0ffH
	DB	0ffH
	DB	0ffH
	DB	0ffH
	DB	0ffH
	DB	0ffH
	DB	0ffH
	DB	0ffH
	DB	0ffH
	DB	0ffH
	DB	0ffH
	DB	0ffH
	DB	0ffH
	DB	0ffH
	DB	0ffH
	DB	0ffH
	DB	0ffH
	DB	0ffH
	DB	0ffH
	DB	0ffH
	DB	0ffH
	DB	0ffH
	DB	0ffH
	DB	0ffH
	DB	0ffH
	DB	0ffH
	DB	0ffH
	DB	0ffH
	DB	0ffH
	DB	0ffH
	DB	0ffH
	DB	0ffH
	DB	0ffH
	DB	0ffH
	DB	0ffH
	DB	0ffH
	DB	0ffH
	DB	0ffH
	DB	0ffH
	DB	0ffH
	DB	0ffH
	DB	0ffH
	DB	0ffH
	DB	0ffH
	DB	0ffH
	DB	0ffH
	DB	0ffH
	DB	0ffH
	DB	0ffH
	DB	0ffH
	DB	0ffH
	DB	0ffH
	DB	0ffH
	DB	0ffH
	DB	0ffH
	DB	0ffH
	DB	0ffH
	DB	0ffH
	DB	0ffH
	DB	0ffH
	DB	0ffH
	DB	0ffH
	DB	0ffH
	DB	0ffH
	DB	0ffH
	DB	0ffH
	DB	0ffH
	DB	0ffH
	DB	0ffH
	DB	0ffH
	DB	0ffH
	DB	0ffH
	DB	0ffH
	DB	0ffH
	DB	0ffH
	DB	0ffH
	DB	0ffH
	DB	0ffH
	DB	0ffH
	DB	0ffH
	DB	0ffH
	DB	0ffH
	DB	0ffH
	DB	0ffH
	DB	0ffH
	DB	0ffH
	DB	0ffH
	DB	0ffH
	DB	0ffH
	DB	0ffH
	DB	0ffH
	DB	0ffH
	DB	0ffH
	DB	0ffH
	DB	0ffH
	DB	0ffH
	DB	0ffH
	DB	0ffH
	DB	0ffH
	DB	0ffH
	DB	0ffH
	DB	0ffH
	DB	0ffH
	DB	0ffH
	DB	0ffH
	DB	0ffH
	DB	0ffH
	DB	0ffH
	DB	0ffH
	DB	0ffH
	DB	0ffH
	DB	0ffH
	DB	0ffH
	DB	0ffH
	DB	0ffH
	DB	0ffH
	DB	0ffH
	DB	0ffH
	DB	0ffH
	DB	0ffH
	DB	0ffH
	DB	0ffH
	DB	0ffH
	DB	0ffH
	DB	0ffH
	DB	0ffH
	DB	0ffH
	DB	0ffH
	DB	0ffH
	DB	0ffH
	DB	0ffH
	DB	0ffH
	DB	0ffH
	DB	0ffH
	DB	0ffH
	DB	0ffH
	DB	0ffH
	DB	0ffH
	DB	0ffH
	DB	0ffH
	DB	0ffH
	DB	0ffH
	DB	0ffH
	DB	0ffH
	DB	0ffH
	DB	0ffH
	DB	0ffH
	DB	0ffH
	DB	0ffH
	DB	0ffH
	DB	0ffH
	DB	0ffH
	DB	0ffH
	DB	0ffH
	DB	0ffH
	DB	0ffH
	DB	0ffH
	DB	0ffH
	DB	0ffH
	DB	0ffH
	DB	0ffH
	DB	0ffH
	DB	0ffH
	DB	0ffH
	DB	0ffH
	DB	0ffH
	DB	0ffH
	DB	0ffH
	DB	0ffH
	DB	0ffH
	DB	0ffH
	DB	0ffH
	DB	0ffH
	DB	0ffH
	DB	0ffH
	DB	0ffH
	DB	0ffH
	DB	0ffH
	DB	0ffH
	DB	0ffH
	DB	0ffH
	DB	0ffH
	DB	0ffH
	DB	0ffH
	DB	0ffH
	DB	0ffH
	DB	0ffH
	DB	0ffH
	DB	0ffH
	DB	0ffH
	DB	0ffH
	DB	0ffH
	DB	0ffH
	DB	0ffH
	DB	0ffH
	DB	0ffH
	DB	0ffH
	DB	0ffH
	DB	0ffH
	DB	0ffH
	DB	0ffH
	DB	0ffH
	DB	0ffH
	DB	0ffH
	DB	0ffH
	DB	0ffH
	DB	0ffH
	DB	0ffH
	DB	0ffH
	DB	0ffH
	DB	0ffH
	DB	0ffH
	DB	0ffH
	DB	0ffH
	DB	0ffH
	DB	0ffH
	DB	0ffH
	DB	0ffH
	DB	0ffH
	DB	0ffH
	DB	0ffH
	DB	0ffH
	DB	0ffH
	DB	0ffH
	DB	0ffH
	DB	0ffH
	DB	0ffH
	DB	0ffH
	DB	0ffH
	DB	0ffH
	DB	0ffH
	DB	0ffH
	DB	0ffH
	DB	0ffH
	DB	0ffH
	DB	0ffH
	DB	0ffH
	DB	0ffH
	DB	0ffH
	DB	0ffH
	DB	0ffH
	DB	0ffH
	DB	0ffH
	DB	0ffH
	DB	0ffH
	DB	0ffH
	DB	0ffH
	DB	0ffH
	DB	0ffH
	DB	0ffH
	DB	0ffH
	DB	0ffH
	DB	0ffH
	DB	0ffH
	DB	0ffH
	DB	0ffH
	DB	0ffH
	DB	0ffH
	DB	0ffH
	DB	0ffH
	DB	0ffH
	DB	0ffH
	DB	0ffH
	DB	0ffH
	DB	0ffH
	DB	0ffH
	DB	0ffH
	DB	0ffH
	DB	0ffH
	DB	0ffH
	DB	0ffH
	DB	0ffH
	DB	0ffH
	DB	0ffH
	DB	0ffH
	DB	0ffH
	DB	0ffH
	DB	0ffH
	DB	0ffH
	DB	0ffH
	DB	0ffH
	DB	0ffH
	DB	0ffH
	DB	0ffH
	DB	0ffH
	DB	0ffH
	DB	0ffH
	DB	0ffH
	DB	0ffH
	DB	0ffH
	DB	0ffH
	DB	0ffH
	DB	0ffH
	DB	0ffH
	DB	0ffH
	DB	0ffH
	DB	0ffH
	DB	0ffH
	DB	0ffH
	DB	0ffH
	DB	0ffH
	DB	0ffH
	DB	0ffH
	DB	0ffH
	DB	0ffH
	DB	0ffH
	DB	0ffH
	DB	0ffH
	DB	0ffH
	DB	0ffH
	DB	0ffH
	DB	0ffH
	DB	0ffH
	DB	0ffH
	DB	0ffH
	DB	0ffH
	DB	0ffH
	DB	0ffH
	DB	0ffH
	DB	0ffH
	DB	0ffH
	DB	0ffH
	DB	0ffH
	DB	0ffH
	DB	0ffH
	DB	0ffH
	DB	0ffH
	DB	0ffH
	DB	0ffH
	DB	0ffH
	DB	0ffH
	DB	0ffH
	DB	0ffH
	DB	0ffH
	DB	0ffH
	DB	0ffH
	DB	0ffH
	DB	0ffH
	DB	0ffH
	DB	0ffH
	DB	0ffH
	DB	0ffH
	DB	0ffH
	DB	0ffH
	DB	0ffH
	DB	0ffH
	DB	0ffH
	DB	0ffH
	DB	0ffH
	DB	0ffH
	DB	0ffH
	DB	0ffH
	DB	0ffH
	DB	0ffH
	DB	0ffH
	DB	0ffH
	DB	0ffH
	DB	0ffH
	DB	0ffH
	DB	0ffH
	DB	0ffH
	DB	0ffH
	DB	0ffH
	DB	0ffH
	DB	0ffH
	DB	0ffH
	DB	0ffH
	DB	0ffH
	DB	0ffH
	DB	0ffH
	DB	0ffH
	DB	0ffH
	DB	0ffH
	DB	0ffH
	DB	0ffH
	DB	0ffH
	DB	0ffH
	DB	0ffH
	DB	0ffH
	DB	0ffH
	DB	0ffH
	DB	0ffH
	DB	0ffH
	DB	0ffH
	DB	0ffH
	DB	0ffH
	DB	0ffH
	DB	0ffH
	DB	0ffH
	DB	0ffH
	DB	0ffH
	DB	0ffH
	DB	0ffH
	DB	0ffH
	DB	0ffH
	DB	0ffH
	DB	0ffH
	DB	0ffH
	DB	0ffH
	DB	0ffH
	DB	0ffH
	DB	0ffH
	DB	0ffH
	DB	0ffH
	DB	0ffH
	DB	0ffH
	DB	0ffH
	DB	0ffH
	DB	0ffH
	DB	0ffH
	DB	0ffH
	DB	0ffH
	DB	0ffH
	DB	0ffH
	DB	0ffH
	DB	0ffH
	DB	0ffH
	DB	0ffH
	DB	0ffH
	DB	0ffH
	DB	0ffH
	DB	0ffH
	DB	0ffH
	DB	0ffH
	DB	0ffH
	DB	0ffH
	DB	0ffH
	DB	0ffH
	DB	0ffH
	DB	0ffH
	DB	0ffH
	DB	0ffH
	DB	0ffH
	DB	0ffH
	DB	0ffH
	DB	0ffH
	DB	0ffH
	DB	0ffH
	DB	0ffH
	DB	0ffH
	DB	0ffH
	DB	0ffH
	DB	0ffH
	DB	0ffH
	DB	0ffH
	DB	0ffH
	DB	0ffH
	DB	0ffH
	DB	0ffH
	DB	0ffH
	DB	0ffH
	DB	0ffH
	DB	0ffH
	DB	0ffH
	DB	0ffH
	DB	0ffH
	DB	0ffH
	DB	0ffH
	DB	0ffH
	DB	0ffH
	DB	0ffH
	DB	0ffH
	DB	0ffH
	DB	0ffH
	DB	0ffH
	DB	0ffH
	DB	0ffH
	DB	0ffH
	DB	0ffH
	DB	0ffH
	DB	0ffH
	DB	0ffH
	DB	0ffH
	DB	0ffH
	DB	0ffH
	DB	0ffH
	DB	0ffH
	DB	0ffH
	DB	0ffH
	DB	0ffH
	DB	0ffH
	DB	0ffH
	DB	0ffH
	DB	0ffH
	DB	0ffH
	DB	0ffH
	DB	0ffH
	DB	0ffH
	DB	0ffH
	DB	0ffH
	DB	0ffH
	DB	0ffH
	DB	0ffH
	DB	0ffH
	DB	0ffH
	DB	0ffH
	DB	0ffH
	DB	0ffH
	DB	0ffH
	DB	0ffH
	DB	0ffH
	DB	0ffH
	DB	0ffH
	DB	0ffH
	DB	0ffH
	DB	0ffH
	DB	0ffH
	DB	0ffH
	DB	0ffH
	DB	0ffH
	DB	0ffH
	DB	0ffH
	DB	0ffH
	DB	0ffH
	DB	0ffH
	DB	0ffH
	DB	0ffH
	DB	0ffH
	DB	0ffH
	DB	0ffH
	DB	0ffH
	DB	0ffH
	DB	0ffH
	DB	0ffH
	DB	0ffH
	DB	0ffH
	DB	0ffH
	DB	0ffH
	DB	0ffH
	DB	0ffH
	DB	0ffH
	DB	0ffH
	DB	0ffH
	DB	0ffH
	DB	0ffH
	DB	0ffH
	DB	0ffH
	DB	0ffH
	DB	0ffH
	DB	0ffH
	DB	0ffH
	DB	0ffH
	DB	0ffH
	DB	0ffH
	DB	0ffH
	DB	0ffH
	DB	0ffH
	DB	0ffH
	DB	0ffH
	DB	0ffH
	DB	0ffH
	DB	0ffH
	DB	0ffH
	DB	0ffH
	DB	0ffH
	DB	0ffH
	DB	0ffH
	DB	0ffH
	DB	0ffH
	DB	0ffH
	DB	0ffH
	DB	0ffH
	DB	0ffH
	DB	0ffH
	DB	0ffH
	DB	0ffH
	DB	0ffH
	DB	0ffH
	DB	0ffH
	DB	0ffH
	DB	0ffH
	DB	0ffH
	DB	0ffH
	DB	0ffH
	DB	0ffH
	DB	0ffH
	DB	0ffH
	DB	0ffH
	DB	0ffH
	DB	0ffH
	DB	0ffH
	DB	0ffH
	DB	0ffH
	DB	0ffH
	DB	0ffH
	DB	0ffH
	DB	0ffH
	DB	0ffH
	DB	0ffH
	DB	0ffH
	DB	0ffH
	DB	0ffH
	DB	0ffH
	DB	0ffH
	DB	0ffH
	DB	0ffH
	DB	0ffH
	DB	0ffH
	DB	0ffH
	DB	0ffH
	DB	0ffH
	DB	0ffH
	DB	0ffH
	DB	0ffH
	DB	0ffH
	DB	0ffH
	DB	0ffH
	DB	0ffH
	DB	0ffH
	DB	0ffH
	DB	0ffH
	DB	0ffH
	DB	0ffH
	DB	0ffH
	DB	0ffH
	DB	0ffH
	DB	0ffH
	DB	0ffH
	DB	0ffH
	DB	0ffH
	DB	0ffH
	DB	0ffH
	DB	0ffH
	DB	0ffH
	DB	0ffH
	DB	0ffH
	DB	0ffH
	DB	0ffH
	DB	0ffH
	DB	0ffH
	DB	0ffH
	DB	0ffH
	DB	0ffH
	DB	0ffH
	DB	0ffH
	DB	0ffH
	DB	0ffH
	DB	0ffH
	DB	0ffH
	DB	0ffH
	DB	0ffH
	DB	0ffH
	DB	0ffH
	DB	0ffH
	DB	0ffH
	DB	0ffH
	DB	0ffH
	DB	0ffH
	DB	0ffH
	DB	0ffH
	DB	0ffH
	DB	0ffH
	DB	0ffH
	DB	0ffH
	DB	0ffH
	DB	0ffH
	DB	0ffH
	DB	0ffH
	DB	0ffH
	DB	0ffH
	DB	0ffH
	DB	0ffH
	DB	0ffH
	DB	0ffH
	DB	0ffH
	DB	0ffH
	DB	0ffH
	DB	0ffH
	DB	0ffH
	DB	0ffH
	DB	0ffH
	DB	0ffH
	DB	0ffH
	DB	0ffH
	DB	0ffH
	DB	0ffH
	DB	0ffH
	DB	0ffH
	DB	0ffH
	DB	0ffH
	DB	0ffH
	DB	0ffH
	DB	0ffH
	DB	0ffH
	DB	0ffH
	DB	0ffH
	DB	0ffH
	DB	0ffH
	DB	0ffH
	DB	0ffH
	DB	0ffH
	DB	0ffH
	DB	0ffH
	DB	0ffH
	DB	0ffH
	DB	0ffH
	DB	0ffH
	DB	0ffH
	DB	0ffH
	DB	0ffH
	DB	0ffH
	DB	0ffH
	DB	0ffH
	DB	0ffH
	DB	0ffH
	DB	0ffH
	DB	0ffH
	DB	0ffH
	DB	0ffH
	DB	0ffH
	DB	0ffH
	DB	0ffH
	DB	0ffH
	DB	0ffH
	DB	0ffH
	DB	0ffH
	DB	0ffH
	DB	0ffH
	DB	0ffH
	DB	0ffH
	DB	0ffH
	DB	0ffH
	DB	0ffH
	DB	0ffH
	DB	0ffH
	DB	0ffH
	DB	0ffH
	DB	0ffH
	DB	0ffH
	DB	0ffH
	DB	0ffH
	DB	0ffH
	DB	0ffH
	DB	0ffH
	DB	0ffH
	DB	0ffH
	DB	0ffH
	DB	0ffH
	DB	0ffH
	DB	0ffH
	DB	0ffH
	DB	0ffH
	DB	0ffH
	DB	0ffH
	DB	0ffH
	DB	0ffH
	DB	0ffH
	DB	0ffH
	DB	0ffH
	DB	0ffH
	DB	0ffH
	DB	0ffH
	DB	0ffH
	DB	0ffH
	DB	0ffH
	DB	0ffH
	DB	0ffH
	DB	0ffH
	DB	0ffH
	DB	0ffH
	DB	0ffH
	DB	0ffH
	DB	0ffH
	DB	0ffH
	DB	0ffH
	DB	0ffH
	DB	0ffH
	DB	0ffH
	DB	0ffH
	DB	0ffH
	DB	0ffH
	DB	0ffH
	DB	0ffH
	DB	0ffH
	DB	0ffH
	DB	0ffH
	DB	0ffH
	DB	0ffH
	DB	0ffH
	DB	0ffH
	DB	0ffH
	DB	0ffH
	DB	0ffH
	DB	0ffH
	DB	0ffH
	DB	0ffH
	DB	0ffH
	DB	0ffH
	DB	0ffH
	DB	0ffH
	DB	0ffH
	DB	0ffH
	DB	0ffH
	DB	0ffH
	DB	0ffH
	DB	0ffH
	DB	0ffH
	DB	0ffH
	DB	0ffH
	DB	0ffH
	DB	0ffH
	DB	0ffH
	DB	0ffH
	DB	0ffH
	DB	0ffH
	DB	0ffH
	DB	0ffH
	DB	0ffH
	DB	0ffH
	DB	0ffH
	DB	0ffH
	DB	0ffH
	DB	0ffH
	DB	0ffH
	DB	0ffH
	DB	0ffH
	DB	0ffH
	DB	0ffH
	DB	0ffH
	DB	0ffH
	DB	0ffH
	DB	0ffH
	DB	0ffH
	DB	0ffH
	DB	0ffH
	DB	0ffH
	DB	0ffH
	DB	0ffH
	DB	0ffH
	DB	0ffH
	DB	0ffH
	DB	0ffH
	DB	0ffH
	DB	0ffH
	DB	0ffH
	DB	0ffH
	DB	0ffH
	DB	0ffH
	DB	0ffH
	DB	0ffH
	DB	0ffH
	DB	0ffH
	DB	0ffH
	DB	0ffH
	DB	0ffH
	DB	0ffH
	DB	0ffH
	DB	0ffH
	DB	0ffH
	DB	0ffH
	DB	0ffH
	DB	0ffH
	DB	0ffH
	DB	0ffH
	DB	0ffH
	DB	0ffH
	DB	0ffH
	DB	0ffH
	DB	0ffH
	DB	0ffH
	DB	0ffH
	DB	0ffH
	DB	0ffH
	DB	0ffH
	DB	0ffH
	DB	0ffH
	DB	0ffH
	DB	0ffH
	DB	0ffH
	DB	0ffH
	DB	0ffH
	DB	0ffH
	DB	0ffH
	DB	0ffH
	DB	0ffH
	DB	0ffH
	DB	0ffH
	DB	0ffH
	DB	0ffH
	DB	0ffH
	DB	0ffH
	DB	0ffH
	DB	0ffH
	DB	0ffH
	DB	0ffH
	DB	0ffH
	DB	0ffH
	DB	0ffH
	DB	0ffH
	DB	0ffH
	DB	0ffH
	DB	0ffH
	DB	0ffH
	DB	0ffH
	DB	0ffH
	DB	0ffH
	DB	0ffH
	DB	0ffH
	DB	0ffH
	DB	0ffH
	DB	0ffH
	DB	0ffH
	DB	0ffH
	DB	0ffH
	DB	0ffH
	DB	0ffH
	DB	0ffH
	DB	0ffH
	DB	0ffH
	DB	0ffH
	DB	0ffH
	DB	0ffH
	DB	0ffH
	DB	0ffH
	DB	0ffH
	DB	0ffH
	DB	0ffH
	DB	0ffH
	DB	0ffH
	DB	0ffH
	DB	0ffH
	DB	0ffH
	DB	0ffH
	DB	0ffH
	DB	0ffH
	DB	0ffH
	DB	0ffH
	DB	0ffH
	DB	0ffH
	DB	0ffH
	DB	0ffH
	DB	0ffH
	DB	0ffH
	DB	0ffH
	DB	0ffH
	DB	0ffH
	DB	0ffH
	DB	0ffH
	DB	0ffH
	DB	0ffH
	DB	0ffH
	DB	0ffH
	DB	0ffH
	DB	0ffH
	DB	0ffH
	DB	0ffH
	DB	0ffH
	DB	0ffH
	DB	0ffH
	DB	0ffH
	DB	0ffH
	DB	0ffH
	DB	0ffH
	DB	0ffH
	DB	0ffH
	DB	0ffH
	DB	0ffH
	DB	0ffH
	DB	0ffH
	DB	0ffH
	DB	0ffH
	DB	0ffH
	DB	0ffH
	DB	0ffH
	DB	0ffH
	DB	0ffH
	DB	0ffH
	DB	0ffH
	DB	0ffH
	DB	0ffH
	DB	0ffH
	DB	0ffH
	DB	0ffH
	DB	0ffH
	DB	0ffH
	DB	0ffH
	DB	0ffH
	DB	0ffH
	DB	0ffH
	DB	0ffH
	DB	0ffH
	DB	0ffH
	DB	0ffH
	DB	0ffH
	DB	0ffH
	DB	0ffH
	DB	0ffH
	DB	0ffH
	DB	0ffH
	DB	0ffH
	DB	0ffH
	DB	0ffH
	DB	0ffH
	DB	0ffH
	DB	0ffH
	DB	0ffH
	DB	0ffH
	DB	0ffH
	DB	0ffH
	DB	0ffH
	DB	0ffH
	DB	0ffH
	DB	0ffH
	DB	0ffH
	DB	0ffH
	DB	0ffH
	DB	0ffH
	DB	0ffH
	DB	0ffH
	DB	0ffH
	DB	0ffH
	DB	0ffH
	DB	0ffH
	DB	0ffH
	DB	0ffH
	DB	0ffH
	DB	0ffH
	DB	0ffH
	DB	0ffH
	DB	0ffH
	DB	0ffH
	DB	0ffH
	DB	0ffH
	DB	0ffH
	DB	0ffH
	DB	0ffH
	DB	0ffH
	DB	0ffH
	DB	0ffH
	DB	0ffH
	DB	0ffH
	DB	0ffH
	DB	0ffH
	DB	0ffH
	DB	0ffH
	DB	0ffH
	DB	0ffH
	DB	0ffH
	DB	0ffH
	DB	0ffH
	DB	0ffH
	DB	0ffH
	DB	0ffH
	DB	0ffH
	DB	0ffH
	DB	0ffH
	DB	0ffH
	DB	0ffH
	DB	0ffH
	DB	0ffH
	DB	0ffH
	DB	0ffH
	DB	0ffH
	DB	0ffH
	DB	0ffH
	DB	0ffH
	DB	0ffH
	DB	0ffH
	DB	0ffH
	DB	0ffH
	DB	0ffH
	DB	0ffH
	DB	0ffH
	DB	0ffH
	DB	0ffH
	DB	0ffH
	DB	0ffH
	DB	0ffH
	DB	0ffH
	DB	0ffH
	DB	0ffH
	DB	0ffH
	DB	0ffH
	DB	0ffH
	DB	0ffH
	DB	0ffH
	DB	0ffH
	DB	0ffH
	DB	0ffH
	DB	0ffH
	DB	0ffH
	DB	0ffH
	DB	0ffH
	DB	0ffH
	DB	0ffH
	DB	0ffH
	DB	0ffH
	DB	0ffH
	DB	0ffH
	DB	0ffH
	DB	0ffH
	DB	0ffH
	DB	0ffH
	DB	0ffH
	DB	0ffH
	DB	0ffH
	DB	0ffH
	DB	0ffH
	DB	0ffH
	DB	0ffH
	DB	0ffH
	DB	0ffH
	DB	0ffH
	DB	0ffH
	DB	0ffH
	DB	0ffH
	DB	0ffH
	DB	0ffH
	DB	0ffH
	DB	0ffH
	DB	0ffH
	DB	0ffH
	DB	0ffH
	DB	0ffH
	DB	0ffH
	DB	0ffH
	DB	0ffH
	DB	0ffH
	DB	0ffH
	DB	0ffH
	DB	0ffH
	DB	0ffH
	DB	0ffH
	DB	0ffH
	DB	0ffH
	DB	0ffH
	DB	0ffH
	DB	0ffH
	DB	0ffH
	DB	0ffH
	DB	0ffH
	DB	0ffH
	DB	0ffH
	DB	0ffH
	DB	0ffH
	DB	0ffH
	DB	0ffH
	DB	0ffH
	DB	0ffH
	DB	0ffH
	DB	0ffH
	DB	0ffH
	DB	0ffH
	DB	0ffH
	DB	0ffH
	DB	0ffH
	DB	0ffH
	DB	0ffH
	DB	0ffH
	DB	0ffH
	DB	0ffH
	DB	0ffH
	DB	0ffH
	DB	0ffH
	DB	0ffH
	DB	0ffH
	DB	0ffH
	DB	0ffH
	DB	0ffH
	DB	0ffH
	DB	0ffH
	DB	0ffH
	DB	0ffH
	DB	0ffH
	DB	0ffH
	DB	0ffH
	DB	0ffH
	DB	0ffH
	DB	0ffH
	DB	0ffH
	DB	0ffH
	DB	0ffH
	DB	0ffH
	DB	0ffH
	DB	0ffH
	DB	0ffH
	DB	0ffH
	DB	0ffH
	DB	0ffH
	DB	0ffH
	DB	0ffH
	DB	0ffH
	DB	0ffH
	DB	0ffH
	DB	0ffH
	DB	0ffH
	DB	0ffH
	DB	0ffH
	DB	0ffH
	DB	0ffH
	DB	0ffH
	DB	0ffH
	DB	0ffH
	DB	0ffH
	DB	0ffH
	DB	0ffH
	DB	0ffH
	DB	0ffH
	DB	0ffH
	DB	0ffH
	DB	0ffH
	DB	0ffH
	DB	0ffH
	DB	0ffH
	DB	0ffH
	DB	0ffH
	DB	0ffH
	DB	0ffH
	DB	0ffH
	DB	0ffH
	DB	0ffH
	DB	0ffH
	DB	0ffH
	DB	0ffH
	DB	0ffH
	DB	0ffH
	DB	0ffH
	DB	0ffH
	DB	0ffH
	DB	0ffH
	DB	0ffH
	DB	0ffH
	DB	0ffH
	DB	0ffH
	DB	0ffH
	DB	0ffH
	DB	0ffH
	DB	0ffH
	DB	0ffH
	DB	0ffH
	DB	0ffH
	DB	0ffH
	DB	0ffH
	DB	0ffH
	DB	0ffH
	DB	0ffH
	DB	0ffH
	DB	0ffH
	DB	0ffH
	DB	0ffH
	DB	0ffH
	DB	0ffH
	DB	0ffH
	DB	0ffH
	DB	0ffH
	DB	0ffH
	DB	0ffH
	DB	0ffH
	DB	0ffH
	DB	0ffH
	DB	0ffH
	DB	0ffH
	DB	0ffH
	DB	0ffH
	DB	0ffH
	DB	0ffH
	DB	0ffH
	DB	0ffH
	DB	0ffH
	DB	0ffH
	DB	0ffH
	DB	0ffH
	DB	0ffH
	DB	0ffH
	DB	0ffH
	DB	0ffH
	DB	0ffH
	DB	0ffH
	DB	0ffH
	DB	0ffH
	DB	0ffH
	DB	0ffH
	DB	0ffH
	DB	0ffH
	DB	0ffH
	DB	0ffH
	DB	0ffH
	DB	0ffH
	DB	0ffH
	DB	0ffH
	DB	0ffH
	DB	0ffH
	DB	0ffH
	DB	0ffH
	DB	0ffH
	DB	0ffH
	DB	0ffH
	DB	0ffH
	DB	0ffH
	DB	0ffH
	DB	0ffH
	DB	0ffH
	DB	0ffH
	DB	0ffH
	DB	0ffH
	DB	0ffH
	DB	0ffH
	DB	0ffH
	DB	0ffH
	DB	0ffH
	DB	0ffH
	DB	0ffH
	DB	0ffH
	DB	0ffH
	DB	0ffH
	DB	0ffH
	DB	0ffH
	DB	0ffH
	DB	0ffH
	DB	0ffH
	DB	0ffH
	DB	0ffH
	DB	0ffH
	DB	0ffH
	DB	0ffH
	DB	0ffH
	DB	0ffH
	DB	0ffH
	DB	0ffH
	DB	0ffH
	DB	0ffH
	DB	0ffH
	DB	0ffH
	DB	0ffH
	DB	0ffH
	DB	0ffH
	DB	0ffH
	DB	0ffH
	DB	0ffH
	DB	0ffH
	DB	0ffH
	DB	0ffH
	DB	0ffH
	DB	0ffH
	DB	0ffH
	DB	0ffH
	DB	0ffH
	DB	0ffH
	DB	0ffH
	DB	0ffH
	DB	0ffH
	DB	0ffH
	DB	0ffH
	DB	0ffH
	DB	0ffH
	DB	0ffH
	DB	0ffH
	DB	0ffH
	DB	0ffH
	DB	0ffH
	DB	0ffH
	DB	0ffH
	DB	0ffH
	DB	0ffH
	DB	0ffH
	DB	0ffH
	DB	0ffH
	DB	0ffH
	DB	0ffH
	DB	0ffH
	DB	0ffH
	DB	0ffH
	DB	0ffH
	DB	0ffH
	DB	0ffH
	DB	0ffH
	DB	0ffH
	DB	0ffH
	DB	0ffH
	DB	0ffH
	DB	0ffH
	DB	0ffH
	DB	0ffH
	DB	0ffH
	DB	0ffH
	DB	0ffH
	DB	0ffH
	DB	0ffH
	DB	0ffH
	DB	0ffH
	DB	0ffH
	DB	0ffH
	DB	0ffH
	DB	0ffH
	DB	0ffH
	DB	0ffH
	DB	0ffH
	DB	0ffH
	DB	0ffH
	DB	0ffH
	DB	0ffH
	DB	0ffH
	DB	0ffH
	DB	0ffH
	DB	0ffH
	DB	0ffH
	DB	0ffH
	DB	0ffH
	DB	0ffH
	DB	0ffH
	DB	0ffH
	DB	0ffH
	DB	0ffH
	DB	0ffH
	DB	0ffH
	DB	0ffH
	DB	0ffH
	DB	0ffH
	DB	0ffH
	DB	0ffH
	DB	0ffH
	DB	0ffH
	DB	0ffH
	DB	0ffH
	DB	0ffH
	DB	0ffH
	DB	0ffH
	DB	0ffH
	DB	0ffH
	DB	0ffH
	DB	0ffH
	DB	0ffH
	DB	0ffH
	DB	0ffH
	DB	0ffH
	DB	0ffH
	DB	0ffH
	DB	0ffH
	DB	0ffH
	DB	0ffH
	DB	0ffH
	DB	0ffH
	DB	0ffH
	DB	0ffH
	DB	0ffH
	DB	0ffH
	DB	0ffH
	DB	0ffH
	DB	0ffH
	DB	0ffH
	DB	0ffH
	DB	0ffH
	DB	0ffH
	DB	0ffH
	DB	0ffH
	DB	0ffH
	DB	0ffH
	DB	0ffH
	DB	0ffH
	DB	0ffH
	DB	0ffH
	DB	0ffH
	DB	0ffH
	DB	0ffH
	DB	0ffH
	DB	0ffH
	DB	0ffH
	DB	0ffH
	DB	0ffH
	DB	0ffH
	DB	0ffH
	DB	0ffH
	DB	0ffH
	DB	0ffH
	DB	0ffH
	DB	0ffH
	DB	0ffH
	DB	0ffH
	DB	0ffH
	DB	0ffH
	DB	0ffH
	DB	0ffH
	DB	0ffH
	DB	0ffH
	DB	0ffH
	DB	0ffH
	DB	0ffH
	DB	0ffH
	DB	0ffH
	DB	0ffH
	DB	0ffH
	DB	0ffH
	DB	0ffH
	DB	0ffH
	DB	0ffH
	DB	0ffH
	DB	0ffH
	DB	0ffH
	DB	0ffH
	DB	0ffH
	DB	0ffH
	DB	0ffH
	DB	0ffH
	DB	0ffH
	DB	0ffH
	DB	0ffH
	DB	0ffH
	DB	0ffH
	DB	0ffH
	DB	0ffH
	DB	0ffH
	DB	0ffH
	DB	0ffH
	DB	0ffH
	DB	0ffH
	DB	0ffH
	DB	0ffH
	DB	0ffH
	DB	0ffH
	DB	0ffH
	DB	0ffH
	DB	0ffH
	DB	0ffH
	DB	0ffH
	DB	0ffH
	DB	0ffH
	DB	0ffH
	DB	0ffH
	DB	0ffH
	DB	0ffH
	DB	0ffH
	DB	0ffH
	DB	0ffH
	DB	0ffH
	DB	0ffH
	DB	0ffH
	DB	0ffH
	DB	0ffH
	DB	0ffH
	DB	0ffH
	DB	0ffH
	DB	0ffH
	DB	0ffH
	DB	0ffH
	DB	0ffH
	DB	0ffH
	DB	0ffH
	DB	0ffH
	DB	0ffH
	DB	0ffH
	DB	0ffH
	DB	0ffH
	DB	0ffH
	DB	0ffH
	DB	0ffH
	DB	0ffH
	DB	0ffH
	DB	0ffH
	DB	0ffH
	DB	0ffH
	DB	0ffH
	DB	0ffH
	DB	0ffH
	DB	0ffH
	DB	0ffH
	DB	0ffH
	DB	0ffH
	DB	0ffH
	DB	0ffH
	DB	0ffH
	DB	0ffH
	DB	0ffH
	DB	0ffH
	DB	0ffH
	DB	0ffH
	DB	0ffH
	DB	0ffH
	DB	0ffH
	DB	0ffH
	DB	0ffH
	DB	0ffH
	DB	0ffH
	DB	0ffH
	DB	0ffH
	DB	0ffH
	DB	0ffH
	DB	0ffH
	DB	0ffH
	DB	0ffH
	DB	0ffH
	DB	0ffH
	DB	0ffH
	DB	0ffH
	DB	0ffH
	DB	0ffH
	DB	0ffH
	DB	0ffH
	DB	00H
	DB	0ffH
	DB	0ffH
	DB	0ffH
	DB	0ffH
	DB	0ffH
	DB	0ffH
	DB	0ffH
	DB	0ffH
	DB	0ffH
	DB	0ffH
	DB	0ffH
	DB	0ffH
	DB	0ffH
	DB	0ffH
	DB	0ffH
	DB	0ffH
	DB	0ffH
	DB	0ffH
	DB	0ffH
	DB	0ffH
	DB	0ffH
	DB	0ffH
	DB	0ffH
	DB	0ffH
	DB	0ffH
	DB	0ffH
	DB	0ffH
	DB	0ffH
	DB	0ffH
	DB	0ffH
	DB	0ffH
	DB	0ffH
	DB	0ffH
	DB	0ffH
	DB	0ffH
	DB	0ffH
	DB	0ffH
	DB	0ffH
	DB	0ffH
	DB	0ffH
	DB	0ffH
	DB	0ffH
	DB	0ffH
	DB	0ffH
	DB	0ffH
	DB	0ffH
	DB	0ffH
	DB	0ffH
	DB	0ffH
	DB	0ffH
	DB	0ffH
	DB	0ffH
	DB	0ffH
	DB	0ffH
	DB	0ffH
	DB	0ffH
	DB	0ffH
	DB	0ffH
	DB	0ffH
	DB	0ffH
	DB	0ffH
	DB	0ffH
	DB	0ffH
	DB	0ffH
	DB	0ffH
	DB	0ffH
	DB	0ffH
	DB	0ffH
	DB	0ffH
	DB	0ffH
	DB	0ffH
	DB	0ffH
	DB	0ffH
	DB	0ffH
	DB	0ffH
	DB	0ffH
	DB	0ffH
	DB	0ffH
	DB	0ffH
	DB	0ffH
	DB	0ffH
	DB	0ffH
	DB	0ffH
	DB	0ffH
	DB	0ffH
	DB	0ffH
	DB	0ffH
	DB	0ffH
	DB	0ffH
	DB	0ffH
	DB	0ffH
	DB	0ffH
	DB	0ffH
	DB	0ffH
	DB	0ffH
	DB	0ffH
	DB	0ffH
	DB	0ffH
	DB	0ffH
	DB	0ffH
	DB	0ffH
	DB	0ffH
	DB	0ffH
	DB	0ffH
	DB	0ffH
	DB	0ffH
	DB	0ffH
	DB	0ffH
	DB	0ffH
	DB	0ffH
	DB	0ffH
	DB	0ffH
	DB	0ffH
	DB	0ffH
	DB	0ffH
	DB	0ffH
	DB	0ffH
	DB	0ffH
	DB	0ffH
	DB	0ffH
	DB	0ffH
	DB	0ffH
	DB	0ffH
	DB	0ffH
	DB	0ffH
	DB	0ffH
	DB	0ffH
	DB	0ffH
	DB	00H
	DB	00H
	DB	0ffH
	DB	0ffH
	DB	0ffH
	DB	0ffH
	DB	0ffH
	DB	0ffH
	DB	0ffH
	DB	0ffH
	DB	0ffH
	DB	0ffH
	DB	0ffH
	DB	0ffH
	DB	0ffH
	DB	0ffH
	DB	0ffH
	DB	0ffH
	DB	0ffH
	DB	0ffH
	DB	0ffH
	DB	0ffH
	DB	0ffH
	DB	0ffH
	DB	0ffH
	DB	0ffH
	DB	0ffH
	DB	0ffH
	DB	0ffH
	DB	0ffH
	DB	0ffH
	DB	0ffH
	DB	0ffH
	DB	0ffH
	DB	0ffH
	DB	0ffH
	DB	0ffH
	DB	0ffH
	DB	0ffH
	DB	0ffH
	DB	0ffH
	DB	0ffH
	DB	0ffH
	DB	0ffH
	DB	0ffH
	DB	0ffH
	DB	0ffH
	DB	0ffH
	DB	0ffH
	DB	0ffH
	DB	0ffH
	DB	0ffH
	DB	0ffH
	DB	0ffH
	DB	0ffH
	DB	0ffH
	DB	0ffH
	DB	0ffH
	DB	0ffH
	DB	0ffH
	DB	0ffH
	DB	0ffH
	DB	0ffH
	DB	0ffH
	DB	0ffH
	DB	0ffH
	DB	0ffH
	DB	0ffH
	DB	0ffH
	DB	0ffH
	DB	0ffH
	DB	0ffH
	DB	0ffH
	DB	0ffH
	DB	0ffH
	DB	0ffH
	DB	0ffH
	DB	0ffH
	DB	0ffH
	DB	0ffH
	DB	0ffH
	DB	0ffH
	DB	0ffH
	DB	0ffH
	DB	0ffH
	DB	0ffH
	DB	0ffH
	DB	0ffH
	DB	0ffH
	DB	0ffH
	DB	0ffH
	DB	0ffH
	DB	0ffH
	DB	0ffH
	DB	0ffH
	DB	0ffH
	DB	0ffH
	DB	0ffH
	DB	0ffH
	DB	0ffH
	DB	0ffH
	DB	0ffH
	DB	0ffH
	DB	0ffH
	DB	0ffH
	DB	0ffH
	DB	0ffH
	DB	0ffH
	DB	0ffH
	DB	0ffH
	DB	0ffH
	DB	0ffH
	DB	0ffH
	DB	0ffH
	DB	0ffH
	DB	0ffH
	DB	0ffH
	DB	0ffH
	DB	0ffH
	DB	0ffH
	DB	0ffH
	DB	0ffH
	DB	0ffH
	DB	0ffH
	DB	0ffH
	DB	0ffH
	DB	0ffH
	DB	0ffH
	DB	0ffH
	DB	0ffH
	DB	00H
	DB	00H
	DB	00H
	DB	0ffH
	DB	0ffH
	DB	0ffH
	DB	0ffH
	DB	0ffH
	DB	0ffH
	DB	0ffH
	DB	0ffH
	DB	0ffH
	DB	0ffH
	DB	0ffH
	DB	0ffH
	DB	0ffH
	DB	0ffH
	DB	0ffH
	DB	0ffH
	DB	0ffH
	DB	0ffH
	DB	0ffH
	DB	0ffH
	DB	0ffH
	DB	0ffH
	DB	0ffH
	DB	0ffH
	DB	0ffH
	DB	0ffH
	DB	0ffH
	DB	0ffH
	DB	0ffH
	DB	0ffH
	DB	0ffH
	DB	0ffH
	DB	0ffH
	DB	0ffH
	DB	0ffH
	DB	0ffH
	DB	0ffH
	DB	0ffH
	DB	0ffH
	DB	0ffH
	DB	0ffH
	DB	0ffH
	DB	0ffH
	DB	0ffH
	DB	0ffH
	DB	0ffH
	DB	0ffH
	DB	0ffH
	DB	0ffH
	DB	0ffH
	DB	0ffH
	DB	0ffH
	DB	0ffH
	DB	0ffH
	DB	0ffH
	DB	0ffH
	DB	0ffH
	DB	0ffH
	DB	0ffH
	DB	0ffH
	DB	0ffH
	DB	0ffH
	DB	0ffH
	DB	0ffH
	DB	0ffH
	DB	0ffH
	DB	0ffH
	DB	0ffH
	DB	0ffH
	DB	0ffH
	DB	0ffH
	DB	0ffH
	DB	0ffH
	DB	0ffH
	DB	0ffH
	DB	0ffH
	DB	0ffH
	DB	0ffH
	DB	0ffH
	DB	0ffH
	DB	0ffH
	DB	0ffH
	DB	0ffH
	DB	0ffH
	DB	0ffH
	DB	0ffH
	DB	0ffH
	DB	0ffH
	DB	0ffH
	DB	0ffH
	DB	0ffH
	DB	0ffH
	DB	0ffH
	DB	0ffH
	DB	0ffH
	DB	0ffH
	DB	0ffH
	DB	0ffH
	DB	0ffH
	DB	0ffH
	DB	0ffH
	DB	0ffH
	DB	0ffH
	DB	0ffH
	DB	0ffH
	DB	0ffH
	DB	0ffH
	DB	0ffH
	DB	0ffH
	DB	0ffH
	DB	0ffH
	DB	0ffH
	DB	0ffH
	DB	0ffH
	DB	0ffH
	DB	0ffH
	DB	0ffH
	DB	0ffH
	DB	0ffH
	DB	0ffH
	DB	0ffH
	DB	0ffH
	DB	0ffH
	DB	0ffH
	DB	0ffH
	DB	0ffH
	DB	00H
	DB	00H
	DB	00H
	DB	00H
	DB	00H
	DB	0ffH
	DB	0ffH
	DB	0ffH
	DB	0ffH
	DB	0ffH
	DB	0ffH
	DB	0ffH
	DB	0ffH
	DB	0ffH
	DB	0ffH
	DB	0ffH
	DB	0ffH
	DB	0ffH
	DB	0ffH
	DB	0ffH
	DB	0ffH
	DB	0ffH
	DB	0ffH
	DB	0ffH
	DB	0ffH
	DB	0ffH
	DB	0ffH
	DB	0ffH
	DB	0ffH
	DB	0ffH
	DB	0ffH
	DB	0ffH
	DB	0ffH
	DB	0ffH
	DB	0ffH
	DB	0ffH
	DB	0ffH
	DB	0ffH
	DB	0ffH
	DB	0ffH
	DB	0ffH
	DB	0ffH
	DB	0ffH
	DB	0ffH
	DB	0ffH
	DB	0ffH
	DB	0ffH
	DB	0ffH
	DB	0ffH
	DB	0ffH
	DB	0ffH
	DB	0ffH
	DB	0ffH
	DB	0ffH
	DB	0ffH
	DB	0ffH
	DB	0ffH
	DB	0ffH
	DB	0ffH
	DB	0ffH
	DB	0ffH
	DB	0ffH
	DB	0ffH
	DB	0ffH
	DB	0ffH
	DB	0ffH
	DB	0ffH
	DB	0ffH
	DB	0ffH
	DB	0ffH
	DB	0ffH
	DB	0ffH
	DB	0ffH
	DB	0ffH
	DB	0ffH
	DB	0ffH
	DB	0ffH
	DB	0ffH
	DB	0ffH
	DB	0ffH
	DB	0ffH
	DB	0ffH
	DB	0ffH
	DB	0ffH
	DB	0ffH
	DB	0ffH
	DB	0ffH
	DB	0ffH
	DB	0ffH
	DB	0ffH
	DB	0ffH
	DB	0ffH
	DB	0ffH
	DB	0ffH
	DB	0ffH
	DB	0ffH
	DB	0ffH
	DB	0ffH
	DB	0ffH
	DB	0ffH
	DB	0ffH
	DB	0ffH
	DB	0ffH
	DB	0ffH
	DB	0ffH
	DB	0ffH
	DB	0ffH
	DB	0ffH
	DB	0ffH
	DB	0ffH
	DB	0ffH
	DB	0ffH
	DB	0ffH
	DB	0ffH
	DB	0ffH
	DB	0ffH
	DB	0ffH
	DB	0ffH
	DB	0ffH
	DB	0ffH
	DB	0ffH
	DB	0ffH
	DB	0ffH
	DB	0ffH
	DB	0ffH
	DB	0ffH
	DB	0ffH
	DB	0ffH
	DB	0ffH
	DB	00H
	DB	00H
	DB	00H
	DB	00H
	DB	00H
	DB	00H
	DB	00H
	DB	00H
	DB	0ffH
	DB	0ffH
	DB	0ffH
	DB	0ffH
	DB	0ffH
	DB	0ffH
	DB	0ffH
	DB	0ffH
	DB	0ffH
	DB	0ffH
	DB	0ffH
	DB	0ffH
	DB	0ffH
	DB	0ffH
	DB	0ffH
	DB	0ffH
	DB	0ffH
	DB	0ffH
	DB	0ffH
	DB	0ffH
	DB	0ffH
	DB	0ffH
	DB	0ffH
	DB	0ffH
	DB	0ffH
	DB	0ffH
	DB	0ffH
	DB	0ffH
	DB	0ffH
	DB	0ffH
	DB	0ffH
	DB	0ffH
	DB	0ffH
	DB	0ffH
	DB	0ffH
	DB	0ffH
	DB	0ffH
	DB	0ffH
	DB	0ffH
	DB	0ffH
	DB	0ffH
	DB	0ffH
	DB	0ffH
	DB	0ffH
	DB	0ffH
	DB	0ffH
	DB	0ffH
	DB	0ffH
	DB	0ffH
	DB	0ffH
	DB	0ffH
	DB	0ffH
	DB	0ffH
	DB	0ffH
	DB	0ffH
	DB	0ffH
	DB	0ffH
	DB	0ffH
	DB	0ffH
	DB	0ffH
	DB	0ffH
	DB	0ffH
	DB	0ffH
	DB	0ffH
	DB	0ffH
	DB	0ffH
	DB	0ffH
	DB	0ffH
	DB	0ffH
	DB	0ffH
	DB	0ffH
	DB	0ffH
	DB	0ffH
	DB	0ffH
	DB	0ffH
	DB	0ffH
	DB	0ffH
	DB	0ffH
	DB	0ffH
	DB	0ffH
	DB	0ffH
	DB	0ffH
	DB	0ffH
	DB	0ffH
	DB	0ffH
	DB	0ffH
	DB	0ffH
	DB	0ffH
	DB	0ffH
	DB	0ffH
	DB	0ffH
	DB	0ffH
	DB	0ffH
	DB	0ffH
	DB	0ffH
	DB	0ffH
	DB	0ffH
	DB	0ffH
	DB	0ffH
	DB	0ffH
	DB	0ffH
	DB	0ffH
	DB	0ffH
	DB	0ffH
	DB	0ffH
	DB	0ffH
	DB	0ffH
	DB	0ffH
	DB	0ffH
	DB	0ffH
	DB	0ffH
	DB	0ffH
	DB	0ffH
	DB	0ffH
	DB	0ffH
	DB	0ffH
	DB	0ffH
	DB	0ffH
	DB	0ffH
	DB	0ffH
	DB	00H
	DB	00H
	DB	00H
	DB	00H
	DB	00H
CONST	ENDS
END
