; Listing generated by Microsoft (R) Optimizing Compiler Version 19.00.24210.0 

	TITLE	C:\MyFiles\SoftwareTeam\Technology\TouchGFX\Project_template\Project\STM32F769_Keil\Graphic\generated\images\src\down_btn_disabled.cpp
	.686P
	.XMM
	include listing.inc
	.model	flat

INCLUDELIB MSVCRTD
INCLUDELIB OLDNAMES

PUBLIC	?_down_btn_disabled@@3QBEB			; _down_btn_disabled
PUBLIC	?_down_btn_disabled_alpha_channel@@3QBEB	; _down_btn_disabled_alpha_channel
CONST	SEGMENT
?_down_btn_disabled@@3QBEB DB 0cdH			; _down_btn_disabled
	DB	0abH
	DB	0cdH
	DB	0abH
	DB	0cdH
	DB	0abH
	DB	08aH
	DB	04aH
	DB	08aH
	DB	04aH
	DB	08bH
	DB	04aH
	DB	0cbH
	DB	052H
	DB	0abH
	DB	04aH
	DB	0abH
	DB	04aH
	DB	0abH
	DB	04aH
	DB	08aH
	DB	04aH
	DB	0abH
	DB	04aH
	DB	0abH
	DB	052H
	DB	0abH
	DB	04aH
	DB	0abH
	DB	052H
	DB	08aH
	DB	04aH
	DB	08bH
	DB	04aH
	DB	0cbH
	DB	052H
	DB	08bH
	DB	04aH
	DB	0abH
	DB	04aH
	DB	0abH
	DB	04aH
	DB	08aH
	DB	04aH
	DB	0abH
	DB	04aH
	DB	08bH
	DB	04aH
	DB	08bH
	DB	04aH
	DB	0abH
	DB	04aH
	DB	08bH
	DB	04aH
	DB	08bH
	DB	04aH
	DB	0abH
	DB	04aH
	DB	0abH
	DB	04aH
	DB	08bH
	DB	04aH
	DB	08aH
	DB	04aH
	DB	0abH
	DB	04aH
	DB	0cbH
	DB	052H
	DB	08bH
	DB	04aH
	DB	08bH
	DB	04aH
	DB	0abH
	DB	052H
	DB	08aH
	DB	04aH
	DB	0cbH
	DB	052H
	DB	0abH
	DB	04aH
	DB	0abH
	DB	04aH
	DB	0abH
	DB	04aH
	DB	08aH
	DB	04aH
	DB	0abH
	DB	04aH
	DB	0cbH
	DB	052H
	DB	0abH
	DB	04aH
	DB	0cbH
	DB	052H
	DB	0abH
	DB	052H
	DB	08bH
	DB	04aH
	DB	0cbH
	DB	052H
	DB	0abH
	DB	04aH
	DB	0abH
	DB	04aH
	DB	0abH
	DB	04aH
	DB	08bH
	DB	04aH
	DB	0cbH
	DB	052H
	DB	0cbH
	DB	052H
	DB	0abH
	DB	04aH
	DB	0cbH
	DB	052H
	DB	0abH
	DB	04aH
	DB	0abH
	DB	052H
	DB	0cbH
	DB	052H
	DB	0abH
	DB	052H
	DB	0abH
	DB	04aH
	DB	0abH
	DB	04aH
	DB	0abH
	DB	04aH
	DB	0abH
	DB	052H
	DB	0abH
	DB	04aH
	DB	0cbH
	DB	052H
	DB	0cbH
	DB	052H
	DB	08aH
	DB	04aH
	DB	0cbH
	DB	052H
	DB	0cbH
	DB	052H
	DB	0abH
	DB	04aH
	DB	0abH
	DB	052H
	DB	0abH
	DB	04aH
	DB	0cbH
	DB	04aH
	DB	0cbH
	DB	052H
	DB	0cbH
	DB	052H
	DB	0cbH
	DB	04aH
	DB	0abH
	DB	04aH
	DB	0abH
	DB	052H
	DB	0cbH
	DB	052H
	DB	0ccH
	DB	052H
	DB	0cbH
	DB	052H
	DB	0abH
	DB	04aH
	DB	08bH
	DB	04aH
	DB	0cbH
	DB	052H
	DB	0abH
	DB	052H
	DB	08bH
	DB	04aH
	DB	0ecH
	DB	052H
	DB	0abH
	DB	04aH
	DB	0cbH
	DB	04aH
	DB	0ccH
	DB	052H
	DB	0cbH
	DB	052H
	DB	0cbH
	DB	052H
	DB	0abH
	DB	04aH
	DB	0abH
	DB	04aH
	DB	0ccH
	DB	052H
	DB	0abH
	DB	04aH
	DB	0cbH
	DB	052H
	DB	0cbH
	DB	052H
	DB	08bH
	DB	04aH
	DB	0ccH
	DB	052H
	DB	0cbH
	DB	052H
	DB	0cbH
	DB	052H
	DB	0cbH
	DB	04aH
	DB	0abH
	DB	04aH
	DB	0cbH
	DB	052H
	DB	0ccH
	DB	052H
	DB	0abH
	DB	04aH
	DB	0cbH
	DB	052H
	DB	0cbH
	DB	052H
	DB	0abH
	DB	04aH
	DB	0ccH
	DB	052H
	DB	0abH
	DB	04aH
	DB	0abH
	DB	04aH
	DB	0cbH
	DB	052H
	DB	0abH
	DB	04aH
	DB	0cbH
	DB	052H
	DB	0cbH
	DB	052H
	DB	0cbH
	DB	052H
	DB	0ccH
	DB	052H
	DB	0abH
	DB	04aH
	DB	0cbH
	DB	052H
	DB	0ecH
	DB	052H
	DB	0cbH
	DB	052H
	DB	0abH
	DB	04aH
	DB	0cdH
	DB	0abH
	DB	0cdH
	DB	0abH
	DB	0cdH
	DB	0abH
	DB	0cdH
	DB	0abH
	DB	0cdH
	DB	0abH
	DB	08bH
	DB	04aH
	DB	08bH
	DB	04aH
	DB	029H
	DB	03aH
	DB	0c7H
	DB	031H
	DB	066H
	DB	029H
	DB	086H
	DB	029H
	DB	0a7H
	DB	031H
	DB	086H
	DB	029H
	DB	086H
	DB	029H
	DB	066H
	DB	029H
	DB	086H
	DB	029H
	DB	087H
	DB	029H
	DB	0a7H
	DB	029H
	DB	086H
	DB	029H
	DB	086H
	DB	029H
	DB	086H
	DB	029H
	DB	087H
	DB	029H
	DB	0a7H
	DB	031H
	DB	086H
	DB	029H
	DB	0a7H
	DB	029H
	DB	066H
	DB	029H
	DB	086H
	DB	029H
	DB	0c7H
	DB	031H
	DB	0a7H
	DB	031H
	DB	0a7H
	DB	031H
	DB	0a6H
	DB	029H
	DB	0c7H
	DB	031H
	DB	0a7H
	DB	031H
	DB	087H
	DB	031H
	DB	0a7H
	DB	031H
	DB	086H
	DB	029H
	DB	086H
	DB	029H
	DB	0a7H
	DB	031H
	DB	0a7H
	DB	031H
	DB	0c7H
	DB	031H
	DB	0a7H
	DB	029H
	DB	086H
	DB	029H
	DB	0a7H
	DB	029H
	DB	0c7H
	DB	031H
	DB	0a7H
	DB	031H
	DB	0a7H
	DB	029H
	DB	086H
	DB	029H
	DB	0c7H
	DB	031H
	DB	0c7H
	DB	031H
	DB	0a7H
	DB	031H
	DB	0a7H
	DB	031H
	DB	0a7H
	DB	029H
	DB	086H
	DB	029H
	DB	0a7H
	DB	031H
	DB	0c7H
	DB	031H
	DB	0a7H
	DB	031H
	DB	0a7H
	DB	031H
	DB	087H
	DB	029H
	DB	0c7H
	DB	031H
	DB	0c7H
	DB	031H
	DB	0a7H
	DB	031H
	DB	0c7H
	DB	031H
	DB	0a7H
	DB	031H
	DB	0a7H
	DB	029H
	DB	0a7H
	DB	031H
	DB	0c7H
	DB	031H
	DB	0c7H
	DB	031H
	DB	0a7H
	DB	031H
	DB	0a7H
	DB	031H
	DB	0e7H
	DB	031H
	DB	0c7H
	DB	031H
	DB	0a7H
	DB	031H
	DB	0a7H
	DB	029H
	DB	087H
	DB	029H
	DB	0c7H
	DB	031H
	DB	0e8H
	DB	031H
	DB	0c7H
	DB	031H
	DB	0c7H
	DB	031H
	DB	087H
	DB	029H
	DB	0c7H
	DB	031H
	DB	0c8H
	DB	031H
	DB	0c7H
	DB	031H
	DB	0c7H
	DB	031H
	DB	087H
	DB	029H
	DB	0a7H
	DB	031H
	DB	0e8H
	DB	031H
	DB	0c7H
	DB	031H
	DB	0c7H
	DB	031H
	DB	0a7H
	DB	031H
	DB	087H
	DB	029H
	DB	0a7H
	DB	031H
	DB	0c7H
	DB	031H
	DB	0a7H
	DB	031H
	DB	0c7H
	DB	031H
	DB	087H
	DB	029H
	DB	0a7H
	DB	031H
	DB	0e8H
	DB	039H
	DB	0c7H
	DB	031H
	DB	0c7H
	DB	031H
	DB	0a7H
	DB	031H
	DB	0a7H
	DB	029H
	DB	0c7H
	DB	031H
	DB	0c8H
	DB	031H
	DB	0c7H
	DB	031H
	DB	0a7H
	DB	031H
	DB	087H
	DB	029H
	DB	0c7H
	DB	031H
	DB	0e8H
	DB	031H
	DB	0a7H
	DB	031H
	DB	0a7H
	DB	031H
	DB	087H
	DB	029H
	DB	0a7H
	DB	031H
	DB	0c7H
	DB	031H
	DB	0c7H
	DB	031H
	DB	0c7H
	DB	031H
	DB	0a7H
	DB	031H
	DB	0a7H
	DB	031H
	DB	0c8H
	DB	031H
	DB	0c7H
	DB	031H
	DB	0c7H
	DB	031H
	DB	087H
	DB	031H
	DB	0a7H
	DB	029H
	DB	0a7H
	DB	031H
	DB	0a7H
	DB	031H
	DB	0a7H
	DB	031H
	DB	0a7H
	DB	031H
	DB	086H
	DB	029H
	DB	0e8H
	DB	031H
	DB	04aH
	DB	042H
	DB	0cbH
	DB	052H
	DB	0cbH
	DB	052H
	DB	0cdH
	DB	0abH
	DB	0cdH
	DB	0abH
	DB	0cdH
	DB	0abH
	DB	04aH
	DB	042H
	DB	08aH
	DB	04aH
	DB	0c7H
	DB	031H
	DB	0a7H
	DB	029H
	DB	086H
	DB	029H
	DB	066H
	DB	029H
	DB	086H
	DB	029H
	DB	0a7H
	DB	029H
	DB	086H
	DB	029H
	DB	087H
	DB	029H
	DB	086H
	DB	029H
	DB	066H
	DB	029H
	DB	0a7H
	DB	029H
	DB	087H
	DB	029H
	DB	087H
	DB	029H
	DB	0a7H
	DB	031H
	DB	086H
	DB	029H
	DB	0a7H
	DB	031H
	DB	0a7H
	DB	031H
	DB	0a7H
	DB	031H
	DB	0a7H
	DB	031H
	DB	086H
	DB	029H
	DB	087H
	DB	029H
	DB	0c7H
	DB	031H
	DB	0a7H
	DB	031H
	DB	0c7H
	DB	031H
	DB	0a7H
	DB	029H
	DB	087H
	DB	031H
	DB	0c7H
	DB	031H
	DB	0a7H
	DB	031H
	DB	0a7H
	DB	029H
	DB	0c7H
	DB	031H
	DB	0a7H
	DB	029H
	DB	087H
	DB	031H
	DB	0c7H
	DB	031H
	DB	0a7H
	DB	029H
	DB	0c7H
	DB	031H
	DB	0a7H
	DB	031H
	DB	0a7H
	DB	031H
	DB	0a7H
	DB	031H
	DB	0c7H
	DB	031H
	DB	0a7H
	DB	031H
	DB	0a7H
	DB	031H
	DB	0a7H
	DB	031H
	DB	0c8H
	DB	031H
	DB	0c7H
	DB	031H
	DB	0a7H
	DB	031H
	DB	0a7H
	DB	029H
	DB	086H
	DB	029H
	DB	0c7H
	DB	031H
	DB	0c7H
	DB	031H
	DB	0c7H
	DB	031H
	DB	0c7H
	DB	031H
	DB	0a7H
	DB	031H
	DB	0a7H
	DB	029H
	DB	0c7H
	DB	031H
	DB	0c7H
	DB	031H
	DB	0c7H
	DB	031H
	DB	0c7H
	DB	031H
	DB	0a7H
	DB	029H
	DB	0a7H
	DB	031H
	DB	0c8H
	DB	031H
	DB	0c7H
	DB	031H
	DB	0c7H
	DB	031H
	DB	0a7H
	DB	029H
	DB	0a7H
	DB	031H
	DB	0e8H
	DB	031H
	DB	0a7H
	DB	031H
	DB	0a7H
	DB	031H
	DB	0a7H
	DB	031H
	DB	0c7H
	DB	031H
	DB	0c8H
	DB	031H
	DB	0c7H
	DB	031H
	DB	0a7H
	DB	031H
	DB	0a7H
	DB	029H
	DB	0a7H
	DB	031H
	DB	0c7H
	DB	031H
	DB	0e8H
	DB	039H
	DB	0c7H
	DB	031H
	DB	0c7H
	DB	031H
	DB	0a7H
	DB	031H
	DB	0c7H
	DB	031H
	DB	0e8H
	DB	031H
	DB	0c7H
	DB	031H
	DB	0a7H
	DB	031H
	DB	0a7H
	DB	029H
	DB	0a7H
	DB	031H
	DB	0e8H
	DB	031H
	DB	0c7H
	DB	031H
	DB	0c7H
	DB	031H
	DB	0c7H
	DB	031H
	DB	0a7H
	DB	031H
	DB	0c7H
	DB	031H
	DB	0c8H
	DB	031H
	DB	0c8H
	DB	031H
	DB	0a7H
	DB	031H
	DB	0a7H
	DB	031H
	DB	0e8H
	DB	031H
	DB	0c8H
	DB	031H
	DB	0c7H
	DB	031H
	DB	0c7H
	DB	031H
	DB	0a7H
	DB	031H
	DB	0a7H
	DB	029H
	DB	0c8H
	DB	031H
	DB	0c7H
	DB	031H
	DB	0c7H
	DB	031H
	DB	0c7H
	DB	031H
	DB	0a7H
	DB	031H
	DB	0c7H
	DB	031H
	DB	0c8H
	DB	031H
	DB	0a7H
	DB	031H
	DB	0a7H
	DB	031H
	DB	0a7H
	DB	029H
	DB	0a7H
	DB	031H
	DB	0c7H
	DB	031H
	DB	0c7H
	DB	031H
	DB	0c7H
	DB	031H
	DB	0c7H
	DB	031H
	DB	0a7H
	DB	031H
	DB	0c7H
	DB	031H
	DB	0a7H
	DB	029H
	DB	0a7H
	DB	031H
	DB	0a7H
	DB	029H
	DB	087H
	DB	029H
	DB	0a7H
	DB	031H
	DB	0e8H
	DB	031H
	DB	0cbH
	DB	052H
	DB	0abH
	DB	04aH
	DB	0cdH
	DB	0abH
	DB	04aH
	DB	042H
	DB	0abH
	DB	04aH
	DB	0a7H
	DB	031H
	DB	086H
	DB	029H
	DB	087H
	DB	031H
	DB	066H
	DB	029H
	DB	087H
	DB	029H
	DB	086H
	DB	029H
	DB	066H
	DB	029H
	DB	0a7H
	DB	031H
	DB	087H
	DB	031H
	DB	0a7H
	DB	031H
	DB	0a7H
	DB	029H
	DB	066H
	DB	029H
	DB	0a6H
	DB	031H
	DB	0a7H
	DB	031H
	DB	0a7H
	DB	029H
	DB	0a7H
	DB	031H
	DB	086H
	DB	029H
	DB	086H
	DB	029H
	DB	0a7H
	DB	031H
	DB	087H
	DB	029H
	DB	0a7H
	DB	031H
	DB	0a7H
	DB	031H
	DB	0a7H
	DB	029H
	DB	0c7H
	DB	031H
	DB	0a7H
	DB	029H
	DB	0a7H
	DB	031H
	DB	0c7H
	DB	031H
	DB	0a7H
	DB	029H
	DB	0c7H
	DB	031H
	DB	0c7H
	DB	031H
	DB	0a7H
	DB	029H
	DB	0c7H
	DB	031H
	DB	0a7H
	DB	031H
	DB	0a7H
	DB	031H
	DB	0c7H
	DB	031H
	DB	087H
	DB	031H
	DB	0e8H
	DB	031H
	DB	0a7H
	DB	031H
	DB	087H
	DB	029H
	DB	0a7H
	DB	031H
	DB	0a7H
	DB	031H
	DB	0c7H
	DB	031H
	DB	0c7H
	DB	031H
	DB	0a7H
	DB	029H
	DB	0c7H
	DB	031H
	DB	0c7H
	DB	031H
	DB	0c7H
	DB	031H
	DB	0e8H
	DB	039H
	DB	087H
	DB	029H
	DB	0a7H
	DB	031H
	DB	0e8H
	DB	031H
	DB	0a7H
	DB	029H
	DB	0a7H
	DB	031H
	DB	0a7H
	DB	031H
	DB	0a7H
	DB	031H
	DB	0c8H
	DB	031H
	DB	0a7H
	DB	031H
	DB	0c8H
	DB	031H
	DB	0c7H
	DB	031H
	DB	0a7H
	DB	029H
	DB	0c7H
	DB	031H
	DB	0a7H
	DB	031H
	DB	0a7H
	DB	031H
	DB	0e8H
	DB	031H
	DB	0a7H
	DB	031H
	DB	0a7H
	DB	031H
	DB	0c7H
	DB	031H
	DB	0c7H
	DB	031H
	DB	0e8H
	DB	031H
	DB	0c8H
	DB	031H
	DB	0a7H
	DB	031H
	DB	0c8H
	DB	031H
	DB	0a7H
	DB	031H
	DB	0c7H
	DB	031H
	DB	0c7H
	DB	031H
	DB	0a7H
	DB	031H
	DB	0e8H
	DB	031H
	DB	0c7H
	DB	031H
	DB	0e8H
	DB	031H
	DB	0e8H
	DB	031H
	DB	0a7H
	DB	031H
	DB	0a7H
	DB	031H
	DB	0e8H
	DB	031H
	DB	0c7H
	DB	031H
	DB	0c7H
	DB	031H
	DB	0c7H
	DB	031H
	DB	0a7H
	DB	031H
	DB	0c8H
	DB	031H
	DB	0e8H
	DB	031H
	DB	08H
	DB	03aH
	DB	0e8H
	DB	039H
	DB	0a7H
	DB	031H
	DB	0c7H
	DB	031H
	DB	0e8H
	DB	031H
	DB	0c7H
	DB	031H
	DB	0c7H
	DB	031H
	DB	0c7H
	DB	031H
	DB	0c7H
	DB	031H
	DB	0c8H
	DB	039H
	DB	0e8H
	DB	031H
	DB	0e7H
	DB	031H
	DB	0c7H
	DB	031H
	DB	0a7H
	DB	031H
	DB	0e8H
	DB	031H
	DB	0e8H
	DB	031H
	DB	0c7H
	DB	031H
	DB	0c7H
	DB	031H
	DB	0a7H
	DB	031H
	DB	0c7H
	DB	031H
	DB	0c8H
	DB	031H
	DB	0c7H
	DB	031H
	DB	0c8H
	DB	031H
	DB	0a7H
	DB	031H
	DB	0a7H
	DB	031H
	DB	0c8H
	DB	031H
	DB	0c7H
	DB	031H
	DB	0c7H
	DB	031H
	DB	0a7H
	DB	029H
	DB	0a7H
	DB	029H
	DB	0c7H
	DB	031H
	DB	087H
	DB	029H
	DB	0c7H
	DB	031H
	DB	0c7H
	DB	031H
	DB	086H
	DB	029H
	DB	0a7H
	DB	031H
	DB	0c8H
	DB	031H
	DB	0abH
	DB	04aH
	DB	0abH
	DB	04aH
	DB	08bH
	DB	04aH
	DB	09H
	DB	03aH
	DB	086H
	DB	029H
	DB	066H
	DB	029H
	DB	086H
	DB	029H
	DB	0e8H
	DB	039H
	DB	08bH
	DB	04aH
	DB	0ecH
	DB	052H
	DB	0ecH
	DB	052H
	DB	0ecH
	DB	052H
	DB	0ecH
	DB	052H
	DB	0ecH
	DB	052H
	DB	0ecH
	DB	052H
	DB	0ecH
	DB	052H
	DB	0ecH
	DB	052H
	DB	0ecH
	DB	052H
	DB	0ecH
	DB	052H
	DB	0ecH
	DB	052H
	DB	0ecH
	DB	052H
	DB	0ecH
	DB	052H
	DB	0ecH
	DB	052H
	DB	0ecH
	DB	052H
	DB	0ecH
	DB	052H
	DB	0ecH
	DB	052H
	DB	0ecH
	DB	052H
	DB	0ecH
	DB	052H
	DB	0ecH
	DB	052H
	DB	0ecH
	DB	052H
	DB	0ecH
	DB	052H
	DB	0ecH
	DB	052H
	DB	0ecH
	DB	052H
	DB	0ecH
	DB	052H
	DB	0ecH
	DB	052H
	DB	0ecH
	DB	052H
	DB	0ecH
	DB	052H
	DB	0ecH
	DB	052H
	DB	0ecH
	DB	052H
	DB	0ecH
	DB	052H
	DB	0ecH
	DB	052H
	DB	0ecH
	DB	052H
	DB	0ecH
	DB	052H
	DB	0ecH
	DB	052H
	DB	0ecH
	DB	052H
	DB	0ecH
	DB	052H
	DB	0ecH
	DB	052H
	DB	0ecH
	DB	052H
	DB	0ecH
	DB	052H
	DB	0ecH
	DB	052H
	DB	0ecH
	DB	052H
	DB	0ecH
	DB	052H
	DB	0ecH
	DB	052H
	DB	0ecH
	DB	052H
	DB	0ecH
	DB	052H
	DB	0ecH
	DB	052H
	DB	0ecH
	DB	052H
	DB	0ecH
	DB	052H
	DB	0ecH
	DB	052H
	DB	0ecH
	DB	052H
	DB	0ecH
	DB	052H
	DB	0ecH
	DB	052H
	DB	0ecH
	DB	052H
	DB	0ecH
	DB	052H
	DB	0ecH
	DB	052H
	DB	0ecH
	DB	052H
	DB	0ecH
	DB	052H
	DB	0ecH
	DB	052H
	DB	0ecH
	DB	052H
	DB	0ecH
	DB	052H
	DB	0ecH
	DB	052H
	DB	0ecH
	DB	052H
	DB	0ecH
	DB	052H
	DB	0ecH
	DB	052H
	DB	0ecH
	DB	052H
	DB	0ecH
	DB	052H
	DB	0ecH
	DB	052H
	DB	0ecH
	DB	052H
	DB	0ecH
	DB	052H
	DB	0ecH
	DB	052H
	DB	0ecH
	DB	052H
	DB	0ecH
	DB	052H
	DB	0ecH
	DB	052H
	DB	0ecH
	DB	052H
	DB	0ecH
	DB	052H
	DB	0ecH
	DB	052H
	DB	0ccH
	DB	052H
	DB	0ecH
	DB	052H
	DB	0ecH
	DB	052H
	DB	0ecH
	DB	052H
	DB	0ecH
	DB	052H
	DB	0ecH
	DB	052H
	DB	0ecH
	DB	052H
	DB	0ecH
	DB	052H
	DB	0ecH
	DB	052H
	DB	0ecH
	DB	052H
	DB	0ecH
	DB	052H
	DB	0ecH
	DB	052H
	DB	0ecH
	DB	052H
	DB	0ecH
	DB	052H
	DB	0ecH
	DB	052H
	DB	0ecH
	DB	052H
	DB	0ecH
	DB	052H
	DB	0ecH
	DB	052H
	DB	0ecH
	DB	052H
	DB	0ecH
	DB	052H
	DB	0ecH
	DB	052H
	DB	0ecH
	DB	052H
	DB	0ecH
	DB	052H
	DB	0ecH
	DB	052H
	DB	0ecH
	DB	052H
	DB	0ecH
	DB	052H
	DB	0ecH
	DB	052H
	DB	0ecH
	DB	052H
	DB	0ecH
	DB	052H
	DB	0ecH
	DB	052H
	DB	0ecH
	DB	052H
	DB	0ecH
	DB	052H
	DB	0ecH
	DB	052H
	DB	0ecH
	DB	052H
	DB	0ecH
	DB	052H
	DB	0ecH
	DB	052H
	DB	0ecH
	DB	052H
	DB	0ecH
	DB	052H
	DB	0ccH
	DB	052H
	DB	0abH
	DB	04aH
	DB	08H
	DB	03aH
	DB	0a7H
	DB	031H
	DB	086H
	DB	029H
	DB	087H
	DB	029H
	DB	06aH
	DB	04aH
	DB	0cbH
	DB	052H
	DB	0aaH
	DB	04aH
	DB	0c7H
	DB	031H
	DB	086H
	DB	029H
	DB	086H
	DB	029H
	DB	0c8H
	DB	031H
	DB	0cH
	DB	053H
	DB	04dH
	DB	05bH
	DB	04eH
	DB	063H
	DB	06eH
	DB	063H
	DB	06dH
	DB	063H
	DB	06eH
	DB	063H
	DB	06eH
	DB	063H
	DB	06dH
	DB	063H
	DB	06eH
	DB	063H
	DB	04eH
	DB	063H
	DB	06eH
	DB	063H
	DB	04dH
	DB	063H
	DB	06eH
	DB	063H
	DB	06eH
	DB	063H
	DB	06eH
	DB	063H
	DB	04eH
	DB	063H
	DB	06eH
	DB	063H
	DB	06eH
	DB	063H
	DB	06eH
	DB	063H
	DB	06eH
	DB	063H
	DB	06eH
	DB	063H
	DB	04eH
	DB	063H
	DB	06eH
	DB	063H
	DB	04eH
	DB	063H
	DB	06eH
	DB	063H
	DB	06eH
	DB	063H
	DB	04eH
	DB	063H
	DB	06eH
	DB	063H
	DB	06eH
	DB	063H
	DB	06eH
	DB	063H
	DB	06eH
	DB	063H
	DB	06eH
	DB	063H
	DB	06eH
	DB	063H
	DB	06eH
	DB	063H
	DB	06eH
	DB	063H
	DB	06eH
	DB	063H
	DB	06eH
	DB	063H
	DB	06eH
	DB	063H
	DB	06eH
	DB	063H
	DB	04eH
	DB	063H
	DB	06eH
	DB	063H
	DB	06eH
	DB	063H
	DB	04eH
	DB	063H
	DB	06eH
	DB	063H
	DB	06eH
	DB	063H
	DB	06eH
	DB	063H
	DB	04eH
	DB	063H
	DB	06eH
	DB	063H
	DB	06eH
	DB	063H
	DB	06eH
	DB	063H
	DB	06eH
	DB	063H
	DB	06eH
	DB	063H
	DB	06eH
	DB	063H
	DB	06eH
	DB	063H
	DB	06eH
	DB	063H
	DB	06eH
	DB	063H
	DB	04eH
	DB	063H
	DB	06eH
	DB	063H
	DB	06eH
	DB	063H
	DB	06eH
	DB	063H
	DB	06eH
	DB	063H
	DB	04eH
	DB	063H
	DB	06eH
	DB	063H
	DB	06eH
	DB	063H
	DB	06eH
	DB	063H
	DB	06eH
	DB	063H
	DB	06eH
	DB	063H
	DB	06eH
	DB	063H
	DB	06eH
	DB	063H
	DB	06eH
	DB	063H
	DB	06eH
	DB	063H
	DB	06eH
	DB	063H
	DB	06eH
	DB	063H
	DB	06eH
	DB	063H
	DB	04eH
	DB	063H
	DB	06eH
	DB	063H
	DB	04dH
	DB	063H
	DB	06eH
	DB	063H
	DB	06eH
	DB	063H
	DB	06eH
	DB	063H
	DB	06eH
	DB	063H
	DB	06eH
	DB	063H
	DB	06eH
	DB	063H
	DB	06eH
	DB	063H
	DB	06eH
	DB	063H
	DB	04dH
	DB	063H
	DB	06eH
	DB	063H
	DB	06eH
	DB	063H
	DB	06eH
	DB	063H
	DB	06eH
	DB	063H
	DB	06eH
	DB	063H
	DB	06eH
	DB	063H
	DB	06eH
	DB	063H
	DB	06eH
	DB	063H
	DB	06eH
	DB	063H
	DB	04eH
	DB	063H
	DB	06eH
	DB	063H
	DB	06eH
	DB	063H
	DB	04eH
	DB	063H
	DB	06eH
	DB	063H
	DB	04eH
	DB	063H
	DB	04eH
	DB	063H
	DB	06eH
	DB	063H
	DB	06eH
	DB	063H
	DB	06eH
	DB	063H
	DB	06eH
	DB	063H
	DB	06eH
	DB	063H
	DB	06eH
	DB	063H
	DB	06eH
	DB	063H
	DB	06eH
	DB	063H
	DB	06eH
	DB	063H
	DB	06eH
	DB	063H
	DB	04eH
	DB	063H
	DB	06eH
	DB	063H
	DB	06eH
	DB	063H
	DB	06eH
	DB	063H
	DB	06eH
	DB	063H
	DB	04eH
	DB	063H
	DB	04dH
	DB	05bH
	DB	0ecH
	DB	052H
	DB	08H
	DB	03aH
	DB	0a7H
	DB	031H
	DB	0a7H
	DB	029H
	DB	0e8H
	DB	039H
	DB	0ecH
	DB	052H
	DB	08aH
	DB	04aH
	DB	086H
	DB	029H
	DB	066H
	DB	029H
	DB	086H
	DB	029H
	DB	0abH
	DB	04aH
	DB	04eH
	DB	063H
	DB	06eH
	DB	063H
	DB	06eH
	DB	063H
	DB	04eH
	DB	063H
	DB	06eH
	DB	063H
	DB	04eH
	DB	063H
	DB	04eH
	DB	063H
	DB	06dH
	DB	063H
	DB	04eH
	DB	063H
	DB	06eH
	DB	063H
	DB	06dH
	DB	063H
	DB	06eH
	DB	063H
	DB	04eH
	DB	063H
	DB	06dH
	DB	063H
	DB	06eH
	DB	063H
	DB	06dH
	DB	063H
	DB	06eH
	DB	063H
	DB	06dH
	DB	063H
	DB	04dH
	DB	063H
	DB	06eH
	DB	063H
	DB	06eH
	DB	063H
	DB	06dH
	DB	063H
	DB	06dH
	DB	063H
	DB	06eH
	DB	063H
	DB	04dH
	DB	063H
	DB	06eH
	DB	063H
	DB	06eH
	DB	063H
	DB	06dH
	DB	063H
	DB	04eH
	DB	063H
	DB	06eH
	DB	063H
	DB	06dH
	DB	063H
	DB	04eH
	DB	063H
	DB	04eH
	DB	063H
	DB	06dH
	DB	063H
	DB	04eH
	DB	063H
	DB	06eH
	DB	063H
	DB	04eH
	DB	063H
	DB	06eH
	DB	063H
	DB	06eH
	DB	063H
	DB	04eH
	DB	063H
	DB	06eH
	DB	063H
	DB	06eH
	DB	063H
	DB	06eH
	DB	063H
	DB	04eH
	DB	063H
	DB	06eH
	DB	063H
	DB	06dH
	DB	063H
	DB	04eH
	DB	063H
	DB	06eH
	DB	063H
	DB	04dH
	DB	063H
	DB	04eH
	DB	063H
	DB	06eH
	DB	063H
	DB	04eH
	DB	063H
	DB	04eH
	DB	063H
	DB	06eH
	DB	063H
	DB	06eH
	DB	063H
	DB	04eH
	DB	063H
	DB	06eH
	DB	063H
	DB	06eH
	DB	063H
	DB	04eH
	DB	063H
	DB	06eH
	DB	063H
	DB	06eH
	DB	063H
	DB	04eH
	DB	063H
	DB	06eH
	DB	063H
	DB	06eH
	DB	063H
	DB	06eH
	DB	063H
	DB	06eH
	DB	063H
	DB	06dH
	DB	063H
	DB	06eH
	DB	063H
	DB	04eH
	DB	063H
	DB	06dH
	DB	063H
	DB	06eH
	DB	063H
	DB	04eH
	DB	063H
	DB	06eH
	DB	063H
	DB	06eH
	DB	063H
	DB	06eH
	DB	063H
	DB	06eH
	DB	063H
	DB	04eH
	DB	063H
	DB	06eH
	DB	063H
	DB	06dH
	DB	063H
	DB	04eH
	DB	063H
	DB	06eH
	DB	063H
	DB	04dH
	DB	063H
	DB	04eH
	DB	063H
	DB	06eH
	DB	063H
	DB	06eH
	DB	063H
	DB	04eH
	DB	063H
	DB	06eH
	DB	063H
	DB	04dH
	DB	063H
	DB	06eH
	DB	063H
	DB	06eH
	DB	063H
	DB	04dH
	DB	063H
	DB	06eH
	DB	063H
	DB	06eH
	DB	063H
	DB	04dH
	DB	063H
	DB	06eH
	DB	063H
	DB	06eH
	DB	063H
	DB	04dH
	DB	063H
	DB	06eH
	DB	063H
	DB	06eH
	DB	063H
	DB	06eH
	DB	063H
	DB	06dH
	DB	063H
	DB	06eH
	DB	063H
	DB	04eH
	DB	063H
	DB	06eH
	DB	063H
	DB	04eH
	DB	063H
	DB	06eH
	DB	063H
	DB	04eH
	DB	063H
	DB	06eH
	DB	063H
	DB	04dH
	DB	063H
	DB	06eH
	DB	063H
	DB	06eH
	DB	063H
	DB	04eH
	DB	063H
	DB	06eH
	DB	063H
	DB	06eH
	DB	063H
	DB	04eH
	DB	063H
	DB	06eH
	DB	063H
	DB	06eH
	DB	063H
	DB	06eH
	DB	063H
	DB	06eH
	DB	063H
	DB	04eH
	DB	063H
	DB	0cbH
	DB	052H
	DB	0c7H
	DB	031H
	DB	087H
	DB	029H
	DB	086H
	DB	029H
	DB	0cbH
	DB	052H
	DB	08aH
	DB	04aH
	DB	066H
	DB	029H
	DB	087H
	DB	029H
	DB	0a7H
	DB	031H
	DB	04dH
	DB	05bH
	DB	06eH
	DB	063H
	DB	02dH
	DB	05bH
	DB	0dH
	DB	05bH
	DB	0cH
	DB	05bH
	DB	0dH
	DB	05bH
	DB	02dH
	DB	05bH
	DB	0cH
	DB	05bH
	DB	0dH
	DB	05bH
	DB	0dH
	DB	05bH
	DB	0dH
	DB	05bH
	DB	02cH
	DB	05bH
	DB	0dH
	DB	05bH
	DB	0dH
	DB	05bH
	DB	0dH
	DB	05bH
	DB	0cH
	DB	05bH
	DB	0dH
	DB	05bH
	DB	0dH
	DB	05bH
	DB	0dH
	DB	05bH
	DB	0dH
	DB	05bH
	DB	0dH
	DB	05bH
	DB	0cH
	DB	05bH
	DB	0dH
	DB	05bH
	DB	0dH
	DB	05bH
	DB	0dH
	DB	05bH
	DB	0dH
	DB	05bH
	DB	0cH
	DB	05bH
	DB	0dH
	DB	05bH
	DB	0dH
	DB	05bH
	DB	0cH
	DB	05bH
	DB	0cH
	DB	05bH
	DB	0dH
	DB	05bH
	DB	0dH
	DB	05bH
	DB	02cH
	DB	05bH
	DB	0dH
	DB	05bH
	DB	0dH
	DB	05bH
	DB	0cH
	DB	05bH
	DB	0cH
	DB	05bH
	DB	0dH
	DB	05bH
	DB	0cH
	DB	05bH
	DB	0dH
	DB	05bH
	DB	0cH
	DB	05bH
	DB	0dH
	DB	05bH
	DB	0cH
	DB	05bH
	DB	0dH
	DB	05bH
	DB	0dH
	DB	05bH
	DB	0cH
	DB	05bH
	DB	02dH
	DB	05bH
	DB	0dH
	DB	05bH
	DB	0cH
	DB	05bH
	DB	02dH
	DB	05bH
	DB	0cH
	DB	05bH
	DB	0cH
	DB	05bH
	DB	0cH
	DB	05bH
	DB	0dH
	DB	05bH
	DB	0cH
	DB	05bH
	DB	0dH
	DB	05bH
	DB	0dH
	DB	05bH
	DB	0cH
	DB	05bH
	DB	0dH
	DB	05bH
	DB	0cH
	DB	05bH
	DB	0dH
	DB	05bH
	DB	0cH
	DB	05bH
	DB	0dH
	DB	05bH
	DB	0cH
	DB	05bH
	DB	0dH
	DB	05bH
	DB	0dH
	DB	05bH
	DB	0cH
	DB	05bH
	DB	0dH
	DB	05bH
	DB	0dH
	DB	05bH
	DB	0dH
	DB	05bH
	DB	0cH
	DB	05bH
	DB	0dH
	DB	05bH
	DB	0cH
	DB	05bH
	DB	0cH
	DB	05bH
	DB	0cH
	DB	05bH
	DB	0dH
	DB	05bH
	DB	0dH
	DB	05bH
	DB	0cH
	DB	05bH
	DB	0dH
	DB	05bH
	DB	0dH
	DB	05bH
	DB	0cH
	DB	05bH
	DB	0dH
	DB	05bH
	DB	0dH
	DB	05bH
	DB	0cH
	DB	05bH
	DB	0cH
	DB	05bH
	DB	02dH
	DB	05bH
	DB	0dH
	DB	053H
	DB	0dH
	DB	05bH
	DB	0cH
	DB	05bH
	DB	0dH
	DB	05bH
	DB	0dH
	DB	05bH
	DB	0dH
	DB	05bH
	DB	0dH
	DB	05bH
	DB	0cH
	DB	05bH
	DB	0dH
	DB	05bH
	DB	0dH
	DB	05bH
	DB	0cH
	DB	05bH
	DB	0dH
	DB	05bH
	DB	0dH
	DB	05bH
	DB	0cH
	DB	05bH
	DB	0dH
	DB	05bH
	DB	0dH
	DB	05bH
	DB	02cH
	DB	05bH
	DB	0cH
	DB	05bH
	DB	0dH
	DB	05bH
	DB	0cH
	DB	05bH
	DB	0dH
	DB	05bH
	DB	0dH
	DB	05bH
	DB	0cH
	DB	05bH
	DB	0dH
	DB	05bH
	DB	0cH
	DB	05bH
	DB	0dH
	DB	05bH
	DB	0cH
	DB	05bH
	DB	0dH
	DB	05bH
	DB	0dH
	DB	05bH
	DB	0cH
	DB	05bH
	DB	0dH
	DB	05bH
	DB	0cH
	DB	05bH
	DB	02dH
	DB	05bH
	DB	06eH
	DB	063H
	DB	04dH
	DB	05bH
	DB	0c7H
	DB	031H
	DB	0a7H
	DB	031H
	DB	0a6H
	DB	029H
	DB	08aH
	DB	04aH
	DB	08aH
	DB	04aH
	DB	087H
	DB	029H
	DB	086H
	DB	029H
	DB	0a7H
	DB	031H
	DB	04eH
	DB	063H
	DB	02dH
	DB	05bH
	DB	0dH
	DB	05bH
	DB	02dH
	DB	05bH
	DB	02cH
	DB	05bH
	DB	02dH
	DB	05bH
	DB	0dH
	DB	05bH
	DB	02dH
	DB	053H
	DB	0dH
	DB	05bH
	DB	02cH
	DB	05bH
	DB	0dH
	DB	05bH
	DB	0dH
	DB	053H
	DB	0dH
	DB	05bH
	DB	02dH
	DB	05bH
	DB	02dH
	DB	05bH
	DB	0dH
	DB	05bH
	DB	0dH
	DB	053H
	DB	02dH
	DB	05bH
	DB	02cH
	DB	05bH
	DB	0dH
	DB	05bH
	DB	0dH
	DB	05bH
	DB	02dH
	DB	05bH
	DB	0dH
	DB	05bH
	DB	0dH
	DB	05bH
	DB	0cH
	DB	053H
	DB	0dH
	DB	05bH
	DB	02dH
	DB	05bH
	DB	02dH
	DB	05bH
	DB	0dH
	DB	05bH
	DB	02dH
	DB	05bH
	DB	02dH
	DB	05bH
	DB	0dH
	DB	053H
	DB	02dH
	DB	05bH
	DB	02dH
	DB	05bH
	DB	0dH
	DB	053H
	DB	02dH
	DB	05bH
	DB	02dH
	DB	05bH
	DB	0dH
	DB	053H
	DB	02dH
	DB	05bH
	DB	02dH
	DB	05bH
	DB	02cH
	DB	05bH
	DB	0dH
	DB	053H
	DB	0cH
	DB	05bH
	DB	02dH
	DB	05bH
	DB	02dH
	DB	053H
	DB	02dH
	DB	05bH
	DB	0dH
	DB	05bH
	DB	02dH
	DB	05bH
	DB	02dH
	DB	05bH
	DB	0dH
	DB	05bH
	DB	02dH
	DB	05bH
	DB	0dH
	DB	053H
	DB	02dH
	DB	05bH
	DB	0dH
	DB	05bH
	DB	02dH
	DB	05bH
	DB	0cH
	DB	053H
	DB	02dH
	DB	05bH
	DB	0dH
	DB	05bH
	DB	0dH
	DB	05bH
	DB	0dH
	DB	053H
	DB	0dH
	DB	05bH
	DB	02cH
	DB	05bH
	DB	02dH
	DB	05bH
	DB	02dH
	DB	05bH
	DB	0dH
	DB	053H
	DB	0cH
	DB	05bH
	DB	0dH
	DB	05bH
	DB	02dH
	DB	05bH
	DB	02dH
	DB	05bH
	DB	02dH
	DB	05bH
	DB	0dH
	DB	05bH
	DB	0cH
	DB	053H
	DB	0dH
	DB	05bH
	DB	02dH
	DB	05bH
	DB	0dH
	DB	053H
	DB	0dH
	DB	05bH
	DB	02dH
	DB	05bH
	DB	02cH
	DB	05bH
	DB	0dH
	DB	05bH
	DB	02dH
	DB	05bH
	DB	0dH
	DB	053H
	DB	0dH
	DB	05bH
	DB	02dH
	DB	05bH
	DB	02dH
	DB	05bH
	DB	02dH
	DB	05bH
	DB	0dH
	DB	05bH
	DB	02cH
	DB	05bH
	DB	02dH
	DB	05bH
	DB	0dH
	DB	05bH
	DB	02dH
	DB	05bH
	DB	0dH
	DB	053H
	DB	02cH
	DB	05bH
	DB	0dH
	DB	05bH
	DB	02dH
	DB	05bH
	DB	02dH
	DB	05bH
	DB	02dH
	DB	05bH
	DB	0dH
	DB	05bH
	DB	02dH
	DB	05bH
	DB	0dH
	DB	05bH
	DB	02dH
	DB	05bH
	DB	02dH
	DB	05bH
	DB	0dH
	DB	05bH
	DB	0dH
	DB	05bH
	DB	02dH
	DB	05bH
	DB	0dH
	DB	053H
	DB	02dH
	DB	05bH
	DB	02dH
	DB	05bH
	DB	02cH
	DB	05bH
	DB	0dH
	DB	053H
	DB	0dH
	DB	05bH
	DB	0dH
	DB	053H
	DB	02dH
	DB	05bH
	DB	02dH
	DB	05bH
	DB	02dH
	DB	05bH
	DB	0cH
	DB	05bH
	DB	0cH
	DB	05bH
	DB	02dH
	DB	05bH
	DB	02dH
	DB	05bH
	DB	0dH
	DB	05bH
	DB	0dH
	DB	05bH
	DB	02dH
	DB	05bH
	DB	06eH
	DB	063H
	DB	0c7H
	DB	031H
	DB	0a7H
	DB	031H
	DB	0a7H
	DB	031H
	DB	0ccH
	DB	052H
	DB	0abH
	DB	04aH
	DB	086H
	DB	029H
	DB	086H
	DB	029H
	DB	086H
	DB	029H
	DB	06eH
	DB	063H
	DB	02dH
	DB	05bH
	DB	0dH
	DB	05bH
	DB	0cH
	DB	05bH
	DB	02dH
	DB	05bH
	DB	0dH
	DB	05bH
	DB	0cH
	DB	05bH
	DB	02dH
	DB	05bH
	DB	02dH
	DB	053H
	DB	0dH
	DB	05bH
	DB	0cH
	DB	05bH
	DB	02dH
	DB	05bH
	DB	0cH
	DB	053H
	DB	02cH
	DB	05bH
	DB	02dH
	DB	05bH
	DB	0dH
	DB	05bH
	DB	02cH
	DB	05bH
	DB	02dH
	DB	05bH
	DB	0dH
	DB	053H
	DB	02cH
	DB	05bH
	DB	02dH
	DB	05bH
	DB	02dH
	DB	05bH
	DB	02cH
	DB	05bH
	DB	0cH
	DB	053H
	DB	0dH
	DB	05bH
	DB	02dH
	DB	05bH
	DB	0cH
	DB	053H
	DB	02dH
	DB	05bH
	DB	0cH
	DB	053H
	DB	0dH
	DB	05bH
	DB	02dH
	DB	05bH
	DB	0cH
	DB	05bH
	DB	0cH
	DB	05bH
	DB	0dH
	DB	05bH
	DB	0cH
	DB	05bH
	DB	0dH
	DB	05bH
	DB	0dH
	DB	05bH
	DB	02cH
	DB	05bH
	DB	0dH
	DB	05bH
	DB	0dH
	DB	053H
	DB	02dH
	DB	05bH
	DB	02dH
	DB	05bH
	DB	0dH
	DB	05bH
	DB	02dH
	DB	05bH
	DB	0cH
	DB	05bH
	DB	0cH
	DB	05bH
	DB	02dH
	DB	05bH
	DB	0cH
	DB	05bH
	DB	0dH
	DB	053H
	DB	02dH
	DB	05bH
	DB	0cH
	DB	05bH
	DB	02dH
	DB	05bH
	DB	0dH
	DB	053H
	DB	02dH
	DB	05bH
	DB	0dH
	DB	05bH
	DB	0dH
	DB	05bH
	DB	0cH
	DB	053H
	DB	02dH
	DB	05bH
	DB	02cH
	DB	05bH
	DB	02dH
	DB	05bH
	DB	0dH
	DB	053H
	DB	0cH
	DB	05bH
	DB	0dH
	DB	053H
	DB	02dH
	DB	05bH
	DB	02dH
	DB	05bH
	DB	02dH
	DB	05bH
	DB	0cH
	DB	05bH
	DB	0cH
	DB	053H
	DB	02dH
	DB	05bH
	DB	0dH
	DB	05bH
	DB	02cH
	DB	05bH
	DB	0dH
	DB	053H
	DB	02dH
	DB	05bH
	DB	0dH
	DB	05bH
	DB	0dH
	DB	05bH
	DB	0dH
	DB	053H
	DB	02dH
	DB	05bH
	DB	02dH
	DB	05bH
	DB	0dH
	DB	053H
	DB	02cH
	DB	05bH
	DB	0dH
	DB	05bH
	DB	0cH
	DB	053H
	DB	0cH
	DB	05bH
	DB	0cH
	DB	053H
	DB	0dH
	DB	053H
	DB	02dH
	DB	05bH
	DB	0dH
	DB	05bH
	DB	0cH
	DB	05bH
	DB	0dH
	DB	053H
	DB	0cH
	DB	05bH
	DB	0dH
	DB	05bH
	DB	02dH
	DB	05bH
	DB	02cH
	DB	05bH
	DB	0cH
	DB	053H
	DB	02dH
	DB	05bH
	DB	0cH
	DB	05bH
	DB	02dH
	DB	05bH
	DB	0cH
	DB	053H
	DB	0dH
	DB	053H
	DB	0cH
	DB	05bH
	DB	0dH
	DB	05bH
	DB	02cH
	DB	05bH
	DB	02dH
	DB	05bH
	DB	0dH
	DB	05bH
	DB	0cH
	DB	053H
	DB	02dH
	DB	05bH
	DB	0dH
	DB	05bH
	DB	0cH
	DB	053H
	DB	0dH
	DB	05bH
	DB	02dH
	DB	05bH
	DB	02cH
	DB	05bH
	DB	0cH
	DB	053H
	DB	02dH
	DB	05bH
	DB	02dH
	DB	05bH
	DB	0dH
	DB	05bH
	DB	0dH
	DB	053H
	DB	02dH
	DB	05bH
	DB	02dH
	DB	05bH
	DB	0dH
	DB	05bH
	DB	02dH
	DB	05bH
	DB	0dH
	DB	05bH
	DB	04eH
	DB	063H
	DB	0a7H
	DB	031H
	DB	0a7H
	DB	029H
	DB	0c8H
	DB	031H
	DB	0ecH
	DB	052H
	DB	08bH
	DB	04aH
	DB	087H
	DB	029H
	DB	086H
	DB	029H
	DB	086H
	DB	029H
	DB	06eH
	DB	063H
	DB	02dH
	DB	05bH
	DB	0cH
	DB	05bH
	DB	0dH
	DB	05bH
	DB	02dH
	DB	05bH
	DB	0dH
	DB	05bH
	DB	0cH
	DB	053H
	DB	0dH
	DB	05bH
	DB	0dH
	DB	05bH
	DB	02cH
	DB	05bH
	DB	02dH
	DB	05bH
	DB	0dH
	DB	05bH
	DB	0dH
	DB	05bH
	DB	0dH
	DB	05bH
	DB	0cH
	DB	053H
	DB	02dH
	DB	05bH
	DB	0dH
	DB	05bH
	DB	0dH
	DB	05bH
	DB	0dH
	DB	05bH
	DB	0cH
	DB	05bH
	DB	0dH
	DB	053H
	DB	0dH
	DB	05bH
	DB	02dH
	DB	05bH
	DB	0dH
	DB	05bH
	DB	0dH
	DB	05bH
	DB	02dH
	DB	05bH
	DB	0dH
	DB	05bH
	DB	0dH
	DB	05bH
	DB	0cH
	DB	05bH
	DB	02dH
	DB	05bH
	DB	0dH
	DB	05bH
	DB	02dH
	DB	05bH
	DB	0dH
	DB	053H
	DB	02dH
	DB	05bH
	DB	02cH
	DB	05bH
	DB	0cH
	DB	053H
	DB	0dH
	DB	05bH
	DB	02dH
	DB	05bH
	DB	0cH
	DB	05bH
	DB	0dH
	DB	05bH
	DB	0dH
	DB	05bH
	DB	0cH
	DB	05bH
	DB	02dH
	DB	05bH
	DB	0dH
	DB	05bH
	DB	0cH
	DB	053H
	DB	02dH
	DB	05bH
	DB	02dH
	DB	05bH
	DB	0dH
	DB	053H
	DB	0cH
	DB	05bH
	DB	02dH
	DB	05bH
	DB	02dH
	DB	05bH
	DB	0cH
	DB	05bH
	DB	02dH
	DB	05bH
	DB	0cH
	DB	05bH
	DB	02dH
	DB	05bH
	DB	02dH
	DB	05bH
	DB	02dH
	DB	05bH
	DB	0dH
	DB	05bH
	DB	0cH
	DB	05bH
	DB	02dH
	DB	05bH
	DB	0dH
	DB	05bH
	DB	02dH
	DB	05bH
	DB	0dH
	DB	05bH
	DB	0cH
	DB	05bH
	DB	02dH
	DB	05bH
	DB	0dH
	DB	05bH
	DB	0cH
	DB	053H
	DB	0dH
	DB	05bH
	DB	0dH
	DB	053H
	DB	02cH
	DB	05bH
	DB	0dH
	DB	05bH
	DB	0dH
	DB	05bH
	DB	0cH
	DB	05bH
	DB	02dH
	DB	05bH
	DB	02cH
	DB	05bH
	DB	0cH
	DB	05bH
	DB	0cH
	DB	05bH
	DB	0dH
	DB	05bH
	DB	0dH
	DB	05bH
	DB	0dH
	DB	05bH
	DB	02dH
	DB	05bH
	DB	02dH
	DB	05bH
	DB	0cH
	DB	05bH
	DB	02dH
	DB	05bH
	DB	0dH
	DB	05bH
	DB	0dH
	DB	05bH
	DB	02dH
	DB	05bH
	DB	02dH
	DB	05bH
	DB	02dH
	DB	05bH
	DB	0dH
	DB	05bH
	DB	02dH
	DB	05bH
	DB	0dH
	DB	053H
	DB	0dH
	DB	05bH
	DB	0dH
	DB	05bH
	DB	0dH
	DB	05bH
	DB	02dH
	DB	05bH
	DB	0cH
	DB	053H
	DB	0dH
	DB	05bH
	DB	0cH
	DB	05bH
	DB	0dH
	DB	05bH
	DB	02dH
	DB	05bH
	DB	0dH
	DB	053H
	DB	02cH
	DB	05bH
	DB	0dH
	DB	05bH
	DB	0dH
	DB	05bH
	DB	02dH
	DB	05bH
	DB	0cH
	DB	05bH
	DB	0dH
	DB	05bH
	DB	0dH
	DB	05bH
	DB	02dH
	DB	05bH
	DB	02dH
	DB	05bH
	DB	0dH
	DB	05bH
	DB	0dH
	DB	05bH
	DB	0cH
	DB	053H
	DB	0dH
	DB	05bH
	DB	0dH
	DB	05bH
	DB	0cH
	DB	053H
	DB	0cH
	DB	05bH
	DB	0cH
	DB	05bH
	DB	02dH
	DB	05bH
	DB	02dH
	DB	05bH
	DB	06eH
	DB	063H
	DB	0a7H
	DB	031H
	DB	0a7H
	DB	029H
	DB	0c7H
	DB	031H
	DB	0cbH
	DB	052H
	DB	08aH
	DB	04aH
	DB	0a7H
	DB	031H
	DB	086H
	DB	029H
	DB	086H
	DB	029H
	DB	06eH
	DB	063H
	DB	0dH
	DB	05bH
	DB	0cH
	DB	053H
	DB	02dH
	DB	05bH
	DB	0cH
	DB	053H
	DB	02dH
	DB	05bH
	DB	02dH
	DB	05bH
	DB	0cH
	DB	05bH
	DB	0cH
	DB	053H
	DB	0dH
	DB	053H
	DB	02dH
	DB	05bH
	DB	0cH
	DB	053H
	DB	02dH
	DB	05bH
	DB	02dH
	DB	05bH
	DB	0cH
	DB	05bH
	DB	0cH
	DB	053H
	DB	02dH
	DB	05bH
	DB	02cH
	DB	053H
	DB	0cH
	DB	053H
	DB	02dH
	DB	05bH
	DB	0cH
	DB	053H
	DB	02cH
	DB	05bH
	DB	0dH
	DB	05bH
	DB	02cH
	DB	053H
	DB	02cH
	DB	05bH
	DB	0dH
	DB	053H
	DB	0cH
	DB	053H
	DB	02dH
	DB	05bH
	DB	0dH
	DB	053H
	DB	0cH
	DB	053H
	DB	0cH
	DB	05bH
	DB	02dH
	DB	05bH
	DB	0dH
	DB	053H
	DB	0cH
	DB	053H
	DB	0dH
	DB	05bH
	DB	02dH
	DB	05bH
	DB	02cH
	DB	053H
	DB	0dH
	DB	05bH
	DB	02cH
	DB	053H
	DB	02dH
	DB	05bH
	DB	0cH
	DB	053H
	DB	0cH
	DB	053H
	DB	0cH
	DB	053H
	DB	02dH
	DB	05bH
	DB	0dH
	DB	05bH
	DB	02cH
	DB	053H
	DB	0dH
	DB	05bH
	DB	0dH
	DB	05bH
	DB	0cH
	DB	053H
	DB	02dH
	DB	05bH
	DB	0dH
	DB	053H
	DB	0cH
	DB	053H
	DB	0dH
	DB	05bH
	DB	02cH
	DB	05bH
	DB	0cH
	DB	053H
	DB	0dH
	DB	05bH
	DB	0cH
	DB	053H
	DB	0dH
	DB	053H
	DB	02dH
	DB	05bH
	DB	0cH
	DB	05bH
	DB	0cH
	DB	053H
	DB	02dH
	DB	053H
	DB	0cH
	DB	05bH
	DB	0cH
	DB	053H
	DB	02dH
	DB	053H
	DB	0dH
	DB	05bH
	DB	02cH
	DB	05bH
	DB	02dH
	DB	05bH
	DB	0dH
	DB	053H
	DB	0cH
	DB	05bH
	DB	02dH
	DB	053H
	DB	02dH
	DB	05bH
	DB	02cH
	DB	05bH
	DB	0dH
	DB	053H
	DB	02dH
	DB	05bH
	DB	0cH
	DB	053H
	DB	0cH
	DB	053H
	DB	02dH
	DB	05bH
	DB	0cH
	DB	053H
	DB	02cH
	DB	05bH
	DB	0cH
	DB	053H
	DB	0dH
	DB	053H
	DB	02dH
	DB	05bH
	DB	0cH
	DB	05bH
	DB	0cH
	DB	053H
	DB	0cH
	DB	053H
	DB	0cH
	DB	053H
	DB	02dH
	DB	05bH
	DB	0cH
	DB	05bH
	DB	02cH
	DB	053H
	DB	02cH
	DB	05bH
	DB	0cH
	DB	053H
	DB	0dH
	DB	053H
	DB	0cH
	DB	05bH
	DB	0dH
	DB	053H
	DB	0cH
	DB	053H
	DB	0cH
	DB	05bH
	DB	0dH
	DB	05bH
	DB	02dH
	DB	053H
	DB	02cH
	DB	05bH
	DB	0dH
	DB	05bH
	DB	0cH
	DB	053H
	DB	0dH
	DB	053H
	DB	02cH
	DB	05bH
	DB	0dH
	DB	05bH
	DB	02cH
	DB	053H
	DB	02dH
	DB	05bH
	DB	0cH
	DB	053H
	DB	02cH
	DB	05bH
	DB	0cH
	DB	053H
	DB	0dH
	DB	05bH
	DB	0cH
	DB	05bH
	DB	0cH
	DB	053H
	DB	02dH
	DB	05bH
	DB	02cH
	DB	05bH
	DB	0cH
	DB	053H
	DB	02dH
	DB	05bH
	DB	0dH
	DB	053H
	DB	0cH
	DB	053H
	DB	02cH
	DB	05bH
	DB	0cH
	DB	05bH
	DB	06eH
	DB	063H
	DB	0e8H
	DB	031H
	DB	0a7H
	DB	031H
	DB	0a7H
	DB	029H
	DB	0cbH
	DB	052H
	DB	06aH
	DB	042H
	DB	086H
	DB	029H
	DB	0a7H
	DB	031H
	DB	0a7H
	DB	031H
	DB	06eH
	DB	063H
	DB	0cH
	DB	05bH
	DB	0cH
	DB	05bH
	DB	0dH
	DB	053H
	DB	0dH
	DB	05bH
	DB	0cH
	DB	05bH
	DB	0dH
	DB	05bH
	DB	0cH
	DB	053H
	DB	0dH
	DB	05bH
	DB	0dH
	DB	05bH
	DB	0cH
	DB	05bH
	DB	0cH
	DB	053H
	DB	0dH
	DB	05bH
	DB	0dH
	DB	05bH
	DB	0cH
	DB	053H
	DB	0dH
	DB	05bH
	DB	0dH
	DB	05bH
	DB	0cH
	DB	053H
	DB	0dH
	DB	05bH
	DB	0dH
	DB	05bH
	DB	0dH
	DB	05bH
	DB	0cH
	DB	053H
	DB	0dH
	DB	05bH
	DB	0dH
	DB	053H
	DB	0cH
	DB	05bH
	DB	0dH
	DB	05bH
	DB	0cH
	DB	05bH
	DB	02cH
	DB	05bH
	DB	0dH
	DB	05bH
	DB	0dH
	DB	053H
	DB	0cH
	DB	05bH
	DB	0dH
	DB	05bH
	DB	0cH
	DB	05bH
	DB	0dH
	DB	053H
	DB	0dH
	DB	05bH
	DB	0cH
	DB	05bH
	DB	0dH
	DB	053H
	DB	0dH
	DB	05bH
	DB	0dH
	DB	05bH
	DB	0cH
	DB	053H
	DB	0dH
	DB	05bH
	DB	0dH
	DB	05bH
	DB	0dH
	DB	05bH
	DB	0dH
	DB	05bH
	DB	0cH
	DB	05bH
	DB	0dH
	DB	05bH
	DB	0cH
	DB	05bH
	DB	0dH
	DB	05bH
	DB	0cH
	DB	053H
	DB	0dH
	DB	05bH
	DB	0dH
	DB	05bH
	DB	0cH
	DB	053H
	DB	0dH
	DB	05bH
	DB	0dH
	DB	05bH
	DB	0dH
	DB	053H
	DB	0cH
	DB	05bH
	DB	0cH
	DB	05bH
	DB	0dH
	DB	05bH
	DB	0dH
	DB	05bH
	DB	0cH
	DB	053H
	DB	0dH
	DB	05bH
	DB	0dH
	DB	05bH
	DB	0dH
	DB	05bH
	DB	0cH
	DB	053H
	DB	0cH
	DB	05bH
	DB	0dH
	DB	05bH
	DB	0cH
	DB	053H
	DB	0dH
	DB	05bH
	DB	0cH
	DB	05bH
	DB	0dH
	DB	05bH
	DB	0cH
	DB	053H
	DB	0dH
	DB	053H
	DB	0dH
	DB	05bH
	DB	0cH
	DB	053H
	DB	0dH
	DB	05bH
	DB	0dH
	DB	05bH
	DB	0dH
	DB	05bH
	DB	0cH
	DB	053H
	DB	0dH
	DB	05bH
	DB	0dH
	DB	05bH
	DB	0cH
	DB	05bH
	DB	0dH
	DB	053H
	DB	0dH
	DB	05bH
	DB	0dH
	DB	05bH
	DB	0dH
	DB	053H
	DB	0dH
	DB	05bH
	DB	0dH
	DB	05bH
	DB	0cH
	DB	05bH
	DB	0dH
	DB	053H
	DB	0dH
	DB	05bH
	DB	0dH
	DB	05bH
	DB	0dH
	DB	05bH
	DB	0cH
	DB	05bH
	DB	02dH
	DB	05bH
	DB	0dH
	DB	05bH
	DB	0dH
	DB	05bH
	DB	02dH
	DB	05bH
	DB	0dH
	DB	05bH
	DB	0cH
	DB	053H
	DB	0cH
	DB	053H
	DB	0dH
	DB	05bH
	DB	0dH
	DB	05bH
	DB	0cH
	DB	053H
	DB	0dH
	DB	05bH
	DB	0cH
	DB	053H
	DB	0dH
	DB	05bH
	DB	0dH
	DB	05bH
	DB	0dH
	DB	05bH
	DB	0cH
	DB	053H
	DB	0dH
	DB	05bH
	DB	0dH
	DB	05bH
	DB	0cH
	DB	053H
	DB	0dH
	DB	05bH
	DB	0dH
	DB	05bH
	DB	0dH
	DB	05bH
	DB	0dH
	DB	053H
	DB	0dH
	DB	05bH
	DB	0dH
	DB	05bH
	DB	0dH
	DB	05bH
	DB	0cH
	DB	053H
	DB	0dH
	DB	05bH
	DB	04dH
	DB	063H
	DB	0c7H
	DB	031H
	DB	0c7H
	DB	031H
	DB	0a7H
	DB	031H
	DB	08bH
	DB	04aH
	DB	06aH
	DB	04aH
	DB	086H
	DB	029H
	DB	0a7H
	DB	029H
	DB	0a7H
	DB	031H
	DB	04eH
	DB	063H
	DB	0cH
	DB	053H
	DB	0dH
	DB	05bH
	DB	0cH
	DB	05bH
	DB	0cH
	DB	053H
	DB	0dH
	DB	053H
	DB	0cH
	DB	05bH
	DB	0cH
	DB	05bH
	DB	02dH
	DB	05bH
	DB	0cH
	DB	05bH
	DB	0dH
	DB	05bH
	DB	0cH
	DB	053H
	DB	0cH
	DB	05bH
	DB	0dH
	DB	053H
	DB	0cH
	DB	05bH
	DB	0dH
	DB	05bH
	DB	0cH
	DB	053H
	DB	0cH
	DB	05bH
	DB	0cH
	DB	05bH
	DB	0dH
	DB	05bH
	DB	0cH
	DB	05bH
	DB	0cH
	DB	053H
	DB	0cH
	DB	05bH
	DB	0dH
	DB	05bH
	DB	0dH
	DB	053H
	DB	0cH
	DB	05bH
	DB	0dH
	DB	05bH
	DB	0cH
	DB	05bH
	DB	0dH
	DB	05bH
	DB	0cH
	DB	05bH
	DB	02dH
	DB	053H
	DB	0cH
	DB	05bH
	DB	0cH
	DB	05bH
	DB	0dH
	DB	05bH
	DB	0cH
	DB	053H
	DB	0cH
	DB	05bH
	DB	0cH
	DB	05bH
	DB	0cH
	DB	053H
	DB	0dH
	DB	05bH
	DB	0cH
	DB	05bH
	DB	0cH
	DB	05bH
	DB	0cH
	DB	05bH
	DB	02dH
	DB	05bH
	DB	0cH
	DB	053H
	DB	0cH
	DB	053H
	DB	0dH
	DB	05bH
	DB	02cH
	DB	05bH
	DB	0cH
	DB	053H
	DB	0dH
	DB	05bH
	DB	0cH
	DB	05bH
	DB	02cH
	DB	05bH
	DB	0cH
	DB	05bH
	DB	0dH
	DB	05bH
	DB	0cH
	DB	053H
	DB	0dH
	DB	05bH
	DB	02cH
	DB	05bH
	DB	0dH
	DB	05bH
	DB	0cH
	DB	05bH
	DB	0cH
	DB	053H
	DB	02dH
	DB	05bH
	DB	0cH
	DB	05bH
	DB	0cH
	DB	053H
	DB	0dH
	DB	05bH
	DB	0dH
	DB	05bH
	DB	0cH
	DB	05bH
	DB	0dH
	DB	05bH
	DB	0cH
	DB	053H
	DB	0cH
	DB	05bH
	DB	0dH
	DB	05bH
	DB	0cH
	DB	053H
	DB	0cH
	DB	05bH
	DB	0cH
	DB	05bH
	DB	0cH
	DB	05bH
	DB	0cH
	DB	05bH
	DB	0cH
	DB	053H
	DB	0dH
	DB	05bH
	DB	0cH
	DB	05bH
	DB	0cH
	DB	05bH
	DB	02dH
	DB	05bH
	DB	0dH
	DB	05bH
	DB	0cH
	DB	05bH
	DB	0cH
	DB	05bH
	DB	0cH
	DB	053H
	DB	0cH
	DB	05bH
	DB	02dH
	DB	05bH
	DB	0cH
	DB	05bH
	DB	0cH
	DB	05bH
	DB	0dH
	DB	053H
	DB	0cH
	DB	05bH
	DB	0cH
	DB	05bH
	DB	0dH
	DB	05bH
	DB	0cH
	DB	053H
	DB	0cH
	DB	05bH
	DB	0cH
	DB	05bH
	DB	0cH
	DB	053H
	DB	0cH
	DB	05bH
	DB	0cH
	DB	053H
	DB	0dH
	DB	05bH
	DB	0cH
	DB	05bH
	DB	0dH
	DB	05bH
	DB	0dH
	DB	05bH
	DB	0cH
	DB	05bH
	DB	0cH
	DB	05bH
	DB	0dH
	DB	05bH
	DB	0cH
	DB	053H
	DB	0cH
	DB	05bH
	DB	0cH
	DB	05bH
	DB	0dH
	DB	05bH
	DB	0cH
	DB	05bH
	DB	0cH
	DB	053H
	DB	02dH
	DB	05bH
	DB	0cH
	DB	053H
	DB	0cH
	DB	05bH
	DB	0dH
	DB	053H
	DB	0cH
	DB	05bH
	DB	0cH
	DB	05bH
	DB	0cH
	DB	053H
	DB	02cH
	DB	05bH
	DB	0dH
	DB	05bH
	DB	0cH
	DB	053H
	DB	0dH
	DB	05bH
	DB	06eH
	DB	063H
	DB	0e8H
	DB	031H
	DB	0c7H
	DB	031H
	DB	0a7H
	DB	031H
	DB	0cbH
	DB	052H
	DB	08bH
	DB	04aH
	DB	086H
	DB	029H
	DB	086H
	DB	029H
	DB	087H
	DB	029H
	DB	06eH
	DB	063H
	DB	0cH
	DB	053H
	DB	0dH
	DB	05bH
	DB	0dH
	DB	05bH
	DB	0cH
	DB	053H
	DB	0dH
	DB	05bH
	DB	0cH
	DB	053H
	DB	0cH
	DB	053H
	DB	0dH
	DB	053H
	DB	0cH
	DB	05bH
	DB	0dH
	DB	053H
	DB	02dH
	DB	05bH
	DB	0cH
	DB	053H
	DB	0cH
	DB	053H
	DB	0dH
	DB	05bH
	DB	0cH
	DB	053H
	DB	0dH
	DB	053H
	DB	0cH
	DB	05bH
	DB	0cH
	DB	053H
	DB	0dH
	DB	053H
	DB	0cH
	DB	053H
	DB	0dH
	DB	05bH
	DB	0cH
	DB	053H
	DB	0cH
	DB	05bH
	DB	0cH
	DB	053H
	DB	0dH
	DB	053H
	DB	02dH
	DB	05bH
	DB	0cH
	DB	053H
	DB	0cH
	DB	053H
	DB	0dH
	DB	053H
	DB	0dH
	DB	053H
	DB	0cH
	DB	053H
	DB	0dH
	DB	053H
	DB	0cH
	DB	053H
	DB	0dH
	DB	05bH
	DB	0dH
	DB	05bH
	DB	0cH
	DB	053H
	DB	0dH
	DB	05bH
	DB	0cH
	DB	053H
	DB	0dH
	DB	05bH
	DB	02dH
	DB	053H
	DB	0cH
	DB	053H
	DB	0cH
	DB	053H
	DB	0dH
	DB	053H
	DB	0cH
	DB	053H
	DB	0dH
	DB	053H
	DB	0dH
	DB	053H
	DB	0cH
	DB	053H
	DB	0dH
	DB	05bH
	DB	0dH
	DB	053H
	DB	0cH
	DB	053H
	DB	0dH
	DB	05bH
	DB	0cH
	DB	053H
	DB	0cH
	DB	053H
	DB	0dH
	DB	053H
	DB	0dH
	DB	053H
	DB	0cH
	DB	053H
	DB	0dH
	DB	053H
	DB	0cH
	DB	053H
	DB	0dH
	DB	05bH
	DB	0cH
	DB	053H
	DB	0cH
	DB	053H
	DB	02dH
	DB	05bH
	DB	0cH
	DB	053H
	DB	0dH
	DB	053H
	DB	0dH
	DB	053H
	DB	0cH
	DB	053H
	DB	0dH
	DB	05bH
	DB	0dH
	DB	053H
	DB	0cH
	DB	05bH
	DB	0dH
	DB	053H
	DB	0dH
	DB	05bH
	DB	0dH
	DB	053H
	DB	0dH
	DB	053H
	DB	0cH
	DB	05bH
	DB	02dH
	DB	053H
	DB	0dH
	DB	053H
	DB	0cH
	DB	05bH
	DB	0cH
	DB	053H
	DB	0cH
	DB	053H
	DB	02dH
	DB	053H
	DB	0dH
	DB	053H
	DB	0cH
	DB	05bH
	DB	0dH
	DB	053H
	DB	0cH
	DB	053H
	DB	0cH
	DB	053H
	DB	0dH
	DB	05bH
	DB	02dH
	DB	053H
	DB	0cH
	DB	05bH
	DB	0cH
	DB	053H
	DB	0dH
	DB	053H
	DB	0cH
	DB	053H
	DB	0dH
	DB	053H
	DB	0dH
	DB	053H
	DB	0cH
	DB	053H
	DB	0dH
	DB	053H
	DB	02cH
	DB	05bH
	DB	0dH
	DB	053H
	DB	0cH
	DB	053H
	DB	02cH
	DB	05bH
	DB	0dH
	DB	053H
	DB	0cH
	DB	053H
	DB	02dH
	DB	05bH
	DB	0cH
	DB	053H
	DB	0dH
	DB	05bH
	DB	0dH
	DB	053H
	DB	0cH
	DB	053H
	DB	0cH
	DB	053H
	DB	0dH
	DB	05bH
	DB	0dH
	DB	053H
	DB	0cH
	DB	053H
	DB	0cH
	DB	05bH
	DB	0dH
	DB	053H
	DB	02cH
	DB	053H
	DB	0cH
	DB	053H
	DB	0dH
	DB	05bH
	DB	02cH
	DB	05bH
	DB	0dH
	DB	053H
	DB	0cH
	DB	053H
	DB	0dH
	DB	05bH
	DB	0cH
	DB	053H
	DB	04eH
	DB	063H
	DB	0c7H
	DB	031H
	DB	0c7H
	DB	031H
	DB	0c7H
	DB	031H
	DB	0ccH
	DB	052H
	DB	0abH
	DB	04aH
	DB	087H
	DB	029H
	DB	0a7H
	DB	029H
	DB	0a6H
	DB	031H
	DB	04eH
	DB	063H
	DB	0cH
	DB	053H
	DB	0cH
	DB	053H
	DB	0dH
	DB	05bH
	DB	0cH
	DB	05bH
	DB	0dH
	DB	053H
	DB	0dH
	DB	05bH
	DB	0cH
	DB	053H
	DB	0dH
	DB	05bH
	DB	0cH
	DB	053H
	DB	0cH
	DB	053H
	DB	0dH
	DB	05bH
	DB	0dH
	DB	05bH
	DB	0cH
	DB	05bH
	DB	0dH
	DB	053H
	DB	0cH
	DB	05bH
	DB	0dH
	DB	05bH
	DB	0cH
	DB	053H
	DB	0dH
	DB	05bH
	DB	0dH
	DB	053H
	DB	0cH
	DB	05bH
	DB	0dH
	DB	05bH
	DB	0dH
	DB	053H
	DB	0cH
	DB	05bH
	DB	0dH
	DB	05bH
	DB	0cH
	DB	05bH
	DB	0cH
	DB	053H
	DB	0dH
	DB	053H
	DB	0cH
	DB	05bH
	DB	0dH
	DB	05bH
	DB	0cH
	DB	05bH
	DB	0cH
	DB	05bH
	DB	0dH
	DB	053H
	DB	0cH
	DB	05bH
	DB	0cH
	DB	05bH
	DB	0dH
	DB	053H
	DB	0dH
	DB	05bH
	DB	0cH
	DB	053H
	DB	0cH
	DB	053H
	DB	0cH
	DB	05bH
	DB	0dH
	DB	053H
	DB	0dH
	DB	05bH
	DB	0cH
	DB	05bH
	DB	0dH
	DB	05bH
	DB	0cH
	DB	05bH
	DB	0cH
	DB	05bH
	DB	0dH
	DB	05bH
	DB	0cH
	DB	05bH
	DB	0cH
	DB	05bH
	DB	0dH
	DB	053H
	DB	0dH
	DB	053H
	DB	0cH
	DB	05bH
	DB	0dH
	DB	05bH
	DB	0cH
	DB	05bH
	DB	0cH
	DB	05bH
	DB	0dH
	DB	053H
	DB	0cH
	DB	05bH
	DB	0cH
	DB	05bH
	DB	0dH
	DB	05bH
	DB	0dH
	DB	053H
	DB	0dH
	DB	05bH
	DB	0cH
	DB	053H
	DB	0dH
	DB	05bH
	DB	0cH
	DB	05bH
	DB	0cH
	DB	053H
	DB	0cH
	DB	05bH
	DB	0dH
	DB	05bH
	DB	0cH
	DB	053H
	DB	0cH
	DB	053H
	DB	0dH
	DB	05bH
	DB	0cH
	DB	053H
	DB	0cH
	DB	053H
	DB	0dH
	DB	05bH
	DB	0cH
	DB	053H
	DB	0cH
	DB	05bH
	DB	0cH
	DB	053H
	DB	0dH
	DB	053H
	DB	0cH
	DB	05bH
	DB	0dH
	DB	053H
	DB	0dH
	DB	05bH
	DB	0cH
	DB	05bH
	DB	0dH
	DB	05bH
	DB	0dH
	DB	053H
	DB	0cH
	DB	05bH
	DB	0dH
	DB	05bH
	DB	0dH
	DB	05bH
	DB	0cH
	DB	05bH
	DB	0cH
	DB	05bH
	DB	0dH
	DB	053H
	DB	0dH
	DB	05bH
	DB	0cH
	DB	05bH
	DB	0dH
	DB	05bH
	DB	0dH
	DB	05bH
	DB	0cH
	DB	05bH
	DB	0dH
	DB	05bH
	DB	0dH
	DB	05bH
	DB	0dH
	DB	053H
	DB	0cH
	DB	05bH
	DB	0cH
	DB	053H
	DB	0dH
	DB	05bH
	DB	0cH
	DB	053H
	DB	0cH
	DB	053H
	DB	0dH
	DB	05bH
	DB	0cH
	DB	053H
	DB	0dH
	DB	053H
	DB	0dH
	DB	05bH
	DB	0cH
	DB	05bH
	DB	0cH
	DB	053H
	DB	0dH
	DB	053H
	DB	0dH
	DB	05bH
	DB	0cH
	DB	05bH
	DB	0dH
	DB	05bH
	DB	0dH
	DB	05bH
	DB	0dH
	DB	05bH
	DB	0dH
	DB	05bH
	DB	0cH
	DB	053H
	DB	0dH
	DB	05bH
	DB	0dH
	DB	05bH
	DB	0cH
	DB	05bH
	DB	0cH
	DB	053H
	DB	0dH
	DB	053H
	DB	04eH
	DB	063H
	DB	0a7H
	DB	029H
	DB	0c8H
	DB	031H
	DB	0e8H
	DB	039H
	DB	0abH
	DB	04aH
	DB	08aH
	DB	04aH
	DB	0a7H
	DB	031H
	DB	0a7H
	DB	031H
	DB	0c7H
	DB	031H
	DB	04eH
	DB	063H
	DB	0cH
	DB	053H
	DB	0cH
	DB	053H
	DB	0cH
	DB	053H
	DB	0cH
	DB	053H
	DB	0cH
	DB	053H
	DB	0cH
	DB	05bH
	DB	0cH
	DB	053H
	DB	0dH
	DB	05bH
	DB	0cH
	DB	053H
	DB	0cH
	DB	05bH
	DB	0cH
	DB	053H
	DB	0cH
	DB	053H
	DB	0dH
	DB	05bH
	DB	0cH
	DB	053H
	DB	0cH
	DB	053H
	DB	0cH
	DB	053H
	DB	0dH
	DB	05bH
	DB	0cH
	DB	053H
	DB	0cH
	DB	053H
	DB	0cH
	DB	053H
	DB	0cH
	DB	053H
	DB	0cH
	DB	05bH
	DB	0cH
	DB	053H
	DB	0dH
	DB	053H
	DB	0cH
	DB	053H
	DB	0cH
	DB	053H
	DB	0dH
	DB	05bH
	DB	0cH
	DB	053H
	DB	0cH
	DB	05bH
	DB	0cH
	DB	053H
	DB	0dH
	DB	053H
	DB	0cH
	DB	05bH
	DB	0cH
	DB	053H
	DB	0cH
	DB	053H
	DB	0cH
	DB	05bH
	DB	0cH
	DB	053H
	DB	0cH
	DB	053H
	DB	0dH
	DB	05bH
	DB	0cH
	DB	05bH
	DB	0cH
	DB	053H
	DB	0cH
	DB	053H
	DB	0dH
	DB	05bH
	DB	0cH
	DB	053H
	DB	0cH
	DB	053H
	DB	0cH
	DB	053H
	DB	0cH
	DB	053H
	DB	0dH
	DB	05bH
	DB	0cH
	DB	053H
	DB	0cH
	DB	053H
	DB	0cH
	DB	05bH
	DB	0cH
	DB	053H
	DB	0cH
	DB	053H
	DB	0cH
	DB	053H
	DB	0cH
	DB	053H
	DB	0cH
	DB	05bH
	DB	0cH
	DB	053H
	DB	0cH
	DB	053H
	DB	0cH
	DB	053H
	DB	0cH
	DB	053H
	DB	0cH
	DB	053H
	DB	0cH
	DB	05bH
	DB	0dH
	DB	053H
	DB	0cH
	DB	053H
	DB	0cH
	DB	05bH
	DB	0cH
	DB	053H
	DB	0dH
	DB	053H
	DB	0cH
	DB	05bH
	DB	0cH
	DB	05bH
	DB	0dH
	DB	053H
	DB	0cH
	DB	053H
	DB	0cH
	DB	05bH
	DB	0cH
	DB	053H
	DB	0cH
	DB	053H
	DB	0dH
	DB	05bH
	DB	0cH
	DB	053H
	DB	0cH
	DB	05bH
	DB	0cH
	DB	053H
	DB	0cH
	DB	05bH
	DB	0cH
	DB	053H
	DB	0cH
	DB	05bH
	DB	0cH
	DB	053H
	DB	0cH
	DB	053H
	DB	0cH
	DB	053H
	DB	0cH
	DB	053H
	DB	0cH
	DB	053H
	DB	0cH
	DB	053H
	DB	0cH
	DB	053H
	DB	0cH
	DB	053H
	DB	0cH
	DB	053H
	DB	0cH
	DB	05bH
	DB	0cH
	DB	053H
	DB	0cH
	DB	053H
	DB	0cH
	DB	05bH
	DB	0cH
	DB	053H
	DB	0cH
	DB	053H
	DB	0cH
	DB	053H
	DB	0cH
	DB	053H
	DB	0dH
	DB	05bH
	DB	0cH
	DB	053H
	DB	0cH
	DB	053H
	DB	0cH
	DB	05bH
	DB	0cH
	DB	05bH
	DB	0cH
	DB	053H
	DB	0cH
	DB	053H
	DB	0cH
	DB	05bH
	DB	0dH
	DB	053H
	DB	0cH
	DB	053H
	DB	0cH
	DB	05bH
	DB	0cH
	DB	053H
	DB	0cH
	DB	053H
	DB	0cH
	DB	053H
	DB	0cH
	DB	053H
	DB	0cH
	DB	053H
	DB	0cH
	DB	053H
	DB	0cH
	DB	053H
	DB	0cH
	DB	053H
	DB	0cH
	DB	053H
	DB	0cH
	DB	05bH
	DB	0cH
	DB	05bH
	DB	0cH
	DB	053H
	DB	04dH
	DB	063H
	DB	0c8H
	DB	031H
	DB	0c7H
	DB	031H
	DB	0c7H
	DB	031H
	DB	0cbH
	DB	052H
	DB	06aH
	DB	042H
	DB	087H
	DB	031H
	DB	0c7H
	DB	031H
	DB	0c7H
	DB	031H
	DB	04dH
	DB	063H
	DB	0cH
	DB	053H
	DB	0dH
	DB	05bH
	DB	0cH
	DB	05bH
	DB	0cH
	DB	053H
	DB	0ecH
	DB	05aH
	DB	0cH
	DB	053H
	DB	0cH
	DB	05bH
	DB	0cH
	DB	053H
	DB	0ecH
	DB	052H
	DB	0dH
	DB	05bH
	DB	0ecH
	DB	052H
	DB	0cH
	DB	053H
	DB	0ecH
	DB	052H
	DB	0ecH
	DB	05aH
	DB	0cH
	DB	053H
	DB	0ecH
	DB	052H
	DB	0cH
	DB	05bH
	DB	0ecH
	DB	052H
	DB	0cH
	DB	05bH
	DB	0dH
	DB	05bH
	DB	0cH
	DB	053H
	DB	0cH
	DB	05bH
	DB	0ecH
	DB	052H
	DB	0ecH
	DB	052H
	DB	0cH
	DB	05bH
	DB	0ecH
	DB	05aH
	DB	0cH
	DB	053H
	DB	0cH
	DB	053H
	DB	0cH
	DB	053H
	DB	0ecH
	DB	052H
	DB	0cH
	DB	05bH
	DB	0cH
	DB	053H
	DB	0edH
	DB	052H
	DB	0cH
	DB	053H
	DB	0cH
	DB	05bH
	DB	0cH
	DB	05bH
	DB	0ecH
	DB	052H
	DB	0cH
	DB	053H
	DB	0ecH
	DB	052H
	DB	0ecH
	DB	052H
	DB	0cH
	DB	05bH
	DB	0ecH
	DB	052H
	DB	0cH
	DB	053H
	DB	0edH
	DB	05aH
	DB	0cH
	DB	053H
	DB	0cH
	DB	053H
	DB	0cH
	DB	053H
	DB	0ecH
	DB	052H
	DB	0cH
	DB	05bH
	DB	0cH
	DB	053H
	DB	0ecH
	DB	052H
	DB	0dH
	DB	05bH
	DB	0cH
	DB	053H
	DB	0edH
	DB	052H
	DB	0cH
	DB	05bH
	DB	0cH
	DB	053H
	DB	0edH
	DB	052H
	DB	0cH
	DB	05bH
	DB	0cH
	DB	05bH
	DB	0ecH
	DB	052H
	DB	0cH
	DB	053H
	DB	0cH
	DB	05bH
	DB	0cH
	DB	05bH
	DB	0ecH
	DB	052H
	DB	0ecH
	DB	052H
	DB	0cH
	DB	053H
	DB	0ecH
	DB	052H
	DB	0cH
	DB	05bH
	DB	0cH
	DB	053H
	DB	0ecH
	DB	05aH
	DB	0ecH
	DB	052H
	DB	0dH
	DB	053H
	DB	0ecH
	DB	05aH
	DB	0cH
	DB	05bH
	DB	0dH
	DB	05bH
	DB	0ecH
	DB	052H
	DB	0ecH
	DB	052H
	DB	0cH
	DB	053H
	DB	0edH
	DB	052H
	DB	0cH
	DB	053H
	DB	0ecH
	DB	05aH
	DB	0cH
	DB	053H
	DB	0ecH
	DB	05aH
	DB	0cH
	DB	053H
	DB	0edH
	DB	052H
	DB	0cH
	DB	05bH
	DB	0cH
	DB	05bH
	DB	0edH
	DB	052H
	DB	0cH
	DB	053H
	DB	0cH
	DB	05bH
	DB	0cH
	DB	053H
	DB	0cH
	DB	053H
	DB	0cH
	DB	053H
	DB	0ecH
	DB	052H
	DB	0ecH
	DB	05aH
	DB	0ecH
	DB	05aH
	DB	0ecH
	DB	052H
	DB	0cH
	DB	053H
	DB	0ecH
	DB	05aH
	DB	0dH
	DB	05bH
	DB	0ecH
	DB	052H
	DB	0cH
	DB	053H
	DB	0ecH
	DB	05aH
	DB	0cH
	DB	05bH
	DB	0cH
	DB	053H
	DB	0ecH
	DB	052H
	DB	0cH
	DB	05bH
	DB	0cH
	DB	053H
	DB	0ecH
	DB	052H
	DB	0dH
	DB	05bH
	DB	0ecH
	DB	052H
	DB	0ecH
	DB	052H
	DB	0cH
	DB	05bH
	DB	0ecH
	DB	052H
	DB	0cH
	DB	05bH
	DB	0ecH
	DB	052H
	DB	0cH
	DB	053H
	DB	0dH
	DB	05bH
	DB	0cH
	DB	053H
	DB	0cH
	DB	053H
	DB	04eH
	DB	063H
	DB	0e8H
	DB	039H
	DB	0c7H
	DB	031H
	DB	0c7H
	DB	031H
	DB	0abH
	DB	04aH
	DB	08bH
	DB	04aH
	DB	0a7H
	DB	029H
	DB	0c7H
	DB	031H
	DB	0c8H
	DB	031H
	DB	04dH
	DB	05bH
	DB	0ecH
	DB	052H
	DB	0edH
	DB	05aH
	DB	0ecH
	DB	052H
	DB	0ecH
	DB	052H
	DB	0dH
	DB	053H
	DB	0edH
	DB	052H
	DB	0ecH
	DB	052H
	DB	0ecH
	DB	052H
	DB	0dH
	DB	05bH
	DB	0ecH
	DB	052H
	DB	0ecH
	DB	052H
	DB	0ecH
	DB	052H
	DB	0dH
	DB	05bH
	DB	0ecH
	DB	052H
	DB	0cH
	DB	053H
	DB	0ecH
	DB	052H
	DB	0edH
	DB	052H
	DB	0ecH
	DB	052H
	DB	0ecH
	DB	052H
	DB	0edH
	DB	052H
	DB	0ecH
	DB	052H
	DB	0ecH
	DB	052H
	DB	0ecH
	DB	052H
	DB	0dH
	DB	05bH
	DB	0ecH
	DB	052H
	DB	0ecH
	DB	052H
	DB	0ecH
	DB	052H
	DB	0edH
	DB	05aH
	DB	0edH
	DB	052H
	DB	0ecH
	DB	052H
	DB	0ecH
	DB	052H
	DB	0dH
	DB	05bH
	DB	0ecH
	DB	052H
	DB	0ecH
	DB	052H
	DB	0ecH
	DB	052H
	DB	0edH
	DB	052H
	DB	0edH
	DB	052H
	DB	0ecH
	DB	052H
	DB	0ecH
	DB	052H
	DB	0dH
	DB	05bH
	DB	0ecH
	DB	052H
	DB	0cH
	DB	053H
	DB	0edH
	DB	052H
	DB	0ecH
	DB	05aH
	DB	0cH
	DB	05bH
	DB	0edH
	DB	052H
	DB	0ecH
	DB	052H
	DB	0ecH
	DB	05aH
	DB	0ecH
	DB	052H
	DB	0dH
	DB	053H
	DB	0ecH
	DB	052H
	DB	0ecH
	DB	05aH
	DB	0ecH
	DB	052H
	DB	0ecH
	DB	052H
	DB	0dH
	DB	053H
	DB	0ecH
	DB	052H
	DB	0ecH
	DB	052H
	DB	0ecH
	DB	052H
	DB	0ecH
	DB	052H
	DB	0edH
	DB	052H
	DB	0ecH
	DB	05aH
	DB	0ecH
	DB	052H
	DB	0ecH
	DB	052H
	DB	0dH
	DB	053H
	DB	0ecH
	DB	05aH
	DB	0ecH
	DB	052H
	DB	0edH
	DB	052H
	DB	0ecH
	DB	052H
	DB	0ecH
	DB	052H
	DB	0dH
	DB	053H
	DB	0ecH
	DB	052H
	DB	0ecH
	DB	052H
	DB	0ecH
	DB	052H
	DB	0ecH
	DB	052H
	DB	0ecH
	DB	052H
	DB	0dH
	DB	053H
	DB	0ecH
	DB	052H
	DB	0ecH
	DB	05aH
	DB	0dH
	DB	053H
	DB	0ecH
	DB	052H
	DB	0ecH
	DB	052H
	DB	0dH
	DB	053H
	DB	0ecH
	DB	052H
	DB	0ecH
	DB	05aH
	DB	0dH
	DB	053H
	DB	0ecH
	DB	052H
	DB	0ecH
	DB	05aH
	DB	0ecH
	DB	052H
	DB	0edH
	DB	052H
	DB	0ecH
	DB	05aH
	DB	0edH
	DB	052H
	DB	0edH
	DB	052H
	DB	0cH
	DB	053H
	DB	0ecH
	DB	052H
	DB	0dH
	DB	053H
	DB	0edH
	DB	052H
	DB	0ecH
	DB	052H
	DB	0cH
	DB	053H
	DB	0edH
	DB	052H
	DB	0ecH
	DB	052H
	DB	0ecH
	DB	052H
	DB	0edH
	DB	052H
	DB	0edH
	DB	052H
	DB	0ecH
	DB	052H
	DB	0ecH
	DB	052H
	DB	0ecH
	DB	052H
	DB	0edH
	DB	052H
	DB	0ecH
	DB	052H
	DB	0ecH
	DB	05aH
	DB	0ecH
	DB	052H
	DB	0edH
	DB	052H
	DB	0ecH
	DB	05aH
	DB	0ecH
	DB	052H
	DB	0edH
	DB	052H
	DB	0edH
	DB	05aH
	DB	0cH
	DB	053H
	DB	0ecH
	DB	052H
	DB	0edH
	DB	052H
	DB	0ecH
	DB	052H
	DB	0ecH
	DB	052H
	DB	04eH
	DB	063H
	DB	0e8H
	DB	031H
	DB	0c7H
	DB	031H
	DB	0e8H
	DB	039H
	DB	0abH
	DB	04aH
	DB	08aH
	DB	04aH
	DB	0a7H
	DB	031H
	DB	087H
	DB	029H
	DB	0a7H
	DB	031H
	DB	04dH
	DB	063H
	DB	0ecH
	DB	052H
	DB	0ecH
	DB	052H
	DB	0ecH
	DB	052H
	DB	0ecH
	DB	052H
	DB	0ecH
	DB	05aH
	DB	0ecH
	DB	052H
	DB	0ecH
	DB	052H
	DB	0cH
	DB	05bH
	DB	0ecH
	DB	052H
	DB	0ecH
	DB	052H
	DB	0cH
	DB	05bH
	DB	0ecH
	DB	052H
	DB	0ecH
	DB	052H
	DB	0ecH
	DB	052H
	DB	0ecH
	DB	05aH
	DB	0cH
	DB	053H
	DB	0ecH
	DB	052H
	DB	0cH
	DB	05bH
	DB	0cH
	DB	05bH
	DB	0ecH
	DB	052H
	DB	0ecH
	DB	052H
	DB	0ecH
	DB	052H
	DB	0ecH
	DB	05aH
	DB	0ecH
	DB	052H
	DB	0ecH
	DB	052H
	DB	0ecH
	DB	052H
	DB	0cH
	DB	05bH
	DB	0ecH
	DB	052H
	DB	0ecH
	DB	052H
	DB	0ecH
	DB	05aH
	DB	0ecH
	DB	052H
	DB	0ecH
	DB	052H
	DB	0cH
	DB	05bH
	DB	0ecH
	DB	052H
	DB	0ecH
	DB	052H
	DB	0cH
	DB	05bH
	DB	0ecH
	DB	052H
	DB	0ecH
	DB	05aH
	DB	0cH
	DB	053H
	DB	0cH
	DB	05bH
	DB	0ecH
	DB	052H
	DB	0cH
	DB	053H
	DB	0ecH
	DB	052H
	DB	0ecH
	DB	052H
	DB	0ecH
	DB	052H
	DB	0ecH
	DB	052H
	DB	0cH
	DB	05bH
	DB	0ecH
	DB	052H
	DB	0ecH
	DB	052H
	DB	0ecH
	DB	052H
	DB	0cH
	DB	05bH
	DB	0ecH
	DB	052H
	DB	0ecH
	DB	052H
	DB	0cH
	DB	05bH
	DB	0ecH
	DB	052H
	DB	0ecH
	DB	05aH
	DB	0cH
	DB	05bH
	DB	0ecH
	DB	052H
	DB	0cH
	DB	05bH
	DB	0cH
	DB	053H
	DB	0ecH
	DB	052H
	DB	0ecH
	DB	052H
	DB	0cH
	DB	053H
	DB	0ecH
	DB	052H
	DB	0ecH
	DB	05aH
	DB	0ecH
	DB	052H
	DB	0ecH
	DB	052H
	DB	0ecH
	DB	05aH
	DB	0cH
	DB	05bH
	DB	0cH
	DB	053H
	DB	0ecH
	DB	05aH
	DB	0ecH
	DB	052H
	DB	0ecH
	DB	052H
	DB	0ecH
	DB	052H
	DB	0ecH
	DB	052H
	DB	0ecH
	DB	05aH
	DB	0ecH
	DB	052H
	DB	0ecH
	DB	052H
	DB	0ecH
	DB	05aH
	DB	0ecH
	DB	052H
	DB	0ecH
	DB	052H
	DB	0ecH
	DB	05aH
	DB	0ecH
	DB	052H
	DB	0cH
	DB	05bH
	DB	0ecH
	DB	052H
	DB	0ecH
	DB	052H
	DB	0ecH
	DB	052H
	DB	0ecH
	DB	052H
	DB	0cH
	DB	05bH
	DB	0ecH
	DB	052H
	DB	0ecH
	DB	052H
	DB	0ecH
	DB	05aH
	DB	0cH
	DB	05bH
	DB	0ecH
	DB	052H
	DB	0ecH
	DB	052H
	DB	0ecH
	DB	05aH
	DB	0ecH
	DB	052H
	DB	0ecH
	DB	052H
	DB	0cH
	DB	05bH
	DB	0ecH
	DB	052H
	DB	0ecH
	DB	052H
	DB	0cH
	DB	05bH
	DB	0ecH
	DB	052H
	DB	0ecH
	DB	052H
	DB	0ecH
	DB	05aH
	DB	0ecH
	DB	052H
	DB	0ecH
	DB	052H
	DB	0ecH
	DB	05aH
	DB	0cH
	DB	053H
	DB	0ecH
	DB	052H
	DB	0cH
	DB	05bH
	DB	0cH
	DB	053H
	DB	0ecH
	DB	052H
	DB	0ecH
	DB	052H
	DB	0ecH
	DB	052H
	DB	0cH
	DB	053H
	DB	0ecH
	DB	05aH
	DB	0ecH
	DB	052H
	DB	0cH
	DB	053H
	DB	0ecH
	DB	05aH
	DB	02dH
	DB	063H
	DB	0e8H
	DB	039H
	DB	0e8H
	DB	039H
	DB	0e8H
	DB	031H
	DB	0cbH
	DB	052H
	DB	0abH
	DB	052H
	DB	0a7H
	DB	029H
	DB	0a7H
	DB	031H
	DB	0a7H
	DB	031H
	DB	04dH
	DB	05bH
	DB	0ecH
	DB	052H
	DB	0ecH
	DB	052H
	DB	0ecH
	DB	052H
	DB	0ecH
	DB	052H
	DB	0ecH
	DB	052H
	DB	0ecH
	DB	052H
	DB	0ecH
	DB	052H
	DB	0ecH
	DB	052H
	DB	0ecH
	DB	052H
	DB	0ecH
	DB	052H
	DB	0ecH
	DB	052H
	DB	0ecH
	DB	052H
	DB	0ecH
	DB	052H
	DB	0ecH
	DB	052H
	DB	0ecH
	DB	052H
	DB	0ecH
	DB	052H
	DB	0ecH
	DB	052H
	DB	0ecH
	DB	052H
	DB	0ecH
	DB	052H
	DB	0ecH
	DB	052H
	DB	0ecH
	DB	052H
	DB	0ecH
	DB	052H
	DB	0cH
	DB	053H
	DB	0ecH
	DB	052H
	DB	0ecH
	DB	052H
	DB	0ecH
	DB	052H
	DB	0ecH
	DB	052H
	DB	0ecH
	DB	052H
	DB	0ecH
	DB	052H
	DB	0ecH
	DB	052H
	DB	0ecH
	DB	052H
	DB	0ecH
	DB	052H
	DB	0ecH
	DB	052H
	DB	0ecH
	DB	052H
	DB	0ecH
	DB	052H
	DB	0ecH
	DB	052H
	DB	0ecH
	DB	052H
	DB	0ecH
	DB	052H
	DB	0ecH
	DB	052H
	DB	0ecH
	DB	052H
	DB	0ecH
	DB	052H
	DB	0ecH
	DB	052H
	DB	0ecH
	DB	052H
	DB	0ecH
	DB	052H
	DB	0ecH
	DB	052H
	DB	0ecH
	DB	052H
	DB	0ecH
	DB	052H
	DB	0ecH
	DB	052H
	DB	0ecH
	DB	052H
	DB	0ecH
	DB	052H
	DB	0ecH
	DB	05aH
	DB	0ecH
	DB	052H
	DB	0ecH
	DB	052H
	DB	0ecH
	DB	052H
	DB	0ecH
	DB	052H
	DB	0ecH
	DB	052H
	DB	0ecH
	DB	052H
	DB	0ecH
	DB	052H
	DB	0ecH
	DB	052H
	DB	0ecH
	DB	052H
	DB	0ecH
	DB	052H
	DB	0ecH
	DB	052H
	DB	0ecH
	DB	052H
	DB	0ecH
	DB	052H
	DB	0ecH
	DB	052H
	DB	0cH
	DB	053H
	DB	0ecH
	DB	052H
	DB	0ecH
	DB	052H
	DB	0ecH
	DB	052H
	DB	0ecH
	DB	052H
	DB	0ecH
	DB	052H
	DB	0ecH
	DB	052H
	DB	0ecH
	DB	052H
	DB	0ecH
	DB	05aH
	DB	0cH
	DB	053H
	DB	0ecH
	DB	052H
	DB	0ecH
	DB	052H
	DB	0ecH
	DB	052H
	DB	0ecH
	DB	052H
	DB	0ecH
	DB	052H
	DB	0ecH
	DB	052H
	DB	0ecH
	DB	052H
	DB	0ecH
	DB	052H
	DB	0ecH
	DB	052H
	DB	0ecH
	DB	052H
	DB	0ecH
	DB	052H
	DB	0ecH
	DB	052H
	DB	0cH
	DB	053H
	DB	0ecH
	DB	052H
	DB	0ecH
	DB	052H
	DB	0ecH
	DB	052H
	DB	0ecH
	DB	052H
	DB	0ecH
	DB	052H
	DB	0ecH
	DB	052H
	DB	0ecH
	DB	052H
	DB	0ecH
	DB	052H
	DB	0ecH
	DB	052H
	DB	0ecH
	DB	052H
	DB	0ecH
	DB	052H
	DB	0ecH
	DB	052H
	DB	0ecH
	DB	052H
	DB	0ecH
	DB	052H
	DB	0ecH
	DB	052H
	DB	0cH
	DB	053H
	DB	0ecH
	DB	052H
	DB	0ecH
	DB	052H
	DB	0ecH
	DB	052H
	DB	0ecH
	DB	052H
	DB	0ecH
	DB	052H
	DB	0ecH
	DB	052H
	DB	0ecH
	DB	052H
	DB	0ecH
	DB	052H
	DB	0ecH
	DB	052H
	DB	0cH
	DB	053H
	DB	0ecH
	DB	052H
	DB	0ecH
	DB	052H
	DB	0ecH
	DB	052H
	DB	0ecH
	DB	052H
	DB	0ecH
	DB	052H
	DB	0ecH
	DB	052H
	DB	04dH
	DB	05bH
	DB	0c8H
	DB	031H
	DB	0c8H
	DB	031H
	DB	0e8H
	DB	031H
	DB	0abH
	DB	052H
	DB	08bH
	DB	04aH
	DB	0c7H
	DB	031H
	DB	0a7H
	DB	031H
	DB	0a7H
	DB	031H
	DB	02dH
	DB	05bH
	DB	0ecH
	DB	052H
	DB	0ecH
	DB	052H
	DB	0ecH
	DB	052H
	DB	0ecH
	DB	05aH
	DB	0ecH
	DB	052H
	DB	0ecH
	DB	052H
	DB	0ecH
	DB	052H
	DB	0ecH
	DB	052H
	DB	0ecH
	DB	052H
	DB	0ecH
	DB	052H
	DB	0ecH
	DB	052H
	DB	0ecH
	DB	052H
	DB	0ecH
	DB	05aH
	DB	0ecH
	DB	052H
	DB	0ecH
	DB	052H
	DB	0ecH
	DB	052H
	DB	0ecH
	DB	052H
	DB	0ecH
	DB	052H
	DB	0ecH
	DB	052H
	DB	0ecH
	DB	052H
	DB	0ecH
	DB	052H
	DB	0ecH
	DB	052H
	DB	0ecH
	DB	052H
	DB	0ecH
	DB	052H
	DB	0ecH
	DB	052H
	DB	0ecH
	DB	052H
	DB	0ecH
	DB	052H
	DB	0ecH
	DB	052H
	DB	0ecH
	DB	052H
	DB	0ecH
	DB	052H
	DB	0ecH
	DB	052H
	DB	0ecH
	DB	052H
	DB	0ecH
	DB	052H
	DB	0ecH
	DB	052H
	DB	0ecH
	DB	052H
	DB	0ecH
	DB	052H
	DB	0ecH
	DB	052H
	DB	0ecH
	DB	052H
	DB	0ecH
	DB	052H
	DB	0ecH
	DB	052H
	DB	0ecH
	DB	052H
	DB	0ecH
	DB	052H
	DB	0ecH
	DB	05aH
	DB	0ecH
	DB	052H
	DB	0ecH
	DB	052H
	DB	0ecH
	DB	052H
	DB	0ecH
	DB	052H
	DB	0ecH
	DB	052H
	DB	0ecH
	DB	052H
	DB	0ecH
	DB	052H
	DB	0ecH
	DB	052H
	DB	0ecH
	DB	052H
	DB	0ecH
	DB	052H
	DB	0ecH
	DB	052H
	DB	0ecH
	DB	052H
	DB	0ecH
	DB	052H
	DB	0ecH
	DB	052H
	DB	0ecH
	DB	052H
	DB	0ecH
	DB	052H
	DB	0ecH
	DB	052H
	DB	0ecH
	DB	052H
	DB	0ecH
	DB	05aH
	DB	0ecH
	DB	052H
	DB	0ecH
	DB	052H
	DB	0ecH
	DB	052H
	DB	0ecH
	DB	052H
	DB	0ecH
	DB	052H
	DB	0ecH
	DB	052H
	DB	0ecH
	DB	052H
	DB	0ecH
	DB	052H
	DB	0ecH
	DB	052H
	DB	0ecH
	DB	052H
	DB	0ecH
	DB	052H
	DB	0ecH
	DB	052H
	DB	0ecH
	DB	052H
	DB	0ecH
	DB	052H
	DB	0ecH
	DB	052H
	DB	0ecH
	DB	052H
	DB	0ecH
	DB	052H
	DB	0ecH
	DB	052H
	DB	0ecH
	DB	052H
	DB	0ecH
	DB	052H
	DB	0ecH
	DB	052H
	DB	0ecH
	DB	052H
	DB	0ecH
	DB	052H
	DB	0ecH
	DB	052H
	DB	0ecH
	DB	052H
	DB	0ecH
	DB	052H
	DB	0ecH
	DB	052H
	DB	0ecH
	DB	052H
	DB	0ecH
	DB	052H
	DB	0ecH
	DB	052H
	DB	0ecH
	DB	052H
	DB	0ecH
	DB	052H
	DB	0ecH
	DB	052H
	DB	0ecH
	DB	05aH
	DB	0ecH
	DB	052H
	DB	0ecH
	DB	052H
	DB	0ecH
	DB	05aH
	DB	0ecH
	DB	052H
	DB	0ecH
	DB	052H
	DB	0ecH
	DB	052H
	DB	0ecH
	DB	052H
	DB	0ecH
	DB	052H
	DB	0ecH
	DB	052H
	DB	0ecH
	DB	052H
	DB	0ecH
	DB	052H
	DB	0ecH
	DB	05aH
	DB	0ecH
	DB	052H
	DB	0ecH
	DB	052H
	DB	0ecH
	DB	052H
	DB	0ecH
	DB	052H
	DB	0ecH
	DB	052H
	DB	0ecH
	DB	05aH
	DB	0ecH
	DB	052H
	DB	0ecH
	DB	052H
	DB	0ecH
	DB	052H
	DB	0ecH
	DB	052H
	DB	0ecH
	DB	052H
	DB	0ecH
	DB	052H
	DB	02dH
	DB	05bH
	DB	0e8H
	DB	031H
	DB	0c7H
	DB	031H
	DB	0c7H
	DB	031H
	DB	0ccH
	DB	052H
	DB	06aH
	DB	042H
	DB	0c7H
	DB	031H
	DB	0c7H
	DB	031H
	DB	0c7H
	DB	031H
	DB	02dH
	DB	05bH
	DB	0ecH
	DB	052H
	DB	0ecH
	DB	052H
	DB	0ecH
	DB	052H
	DB	0ecH
	DB	052H
	DB	0ecH
	DB	052H
	DB	0ecH
	DB	052H
	DB	0ecH
	DB	052H
	DB	0ecH
	DB	052H
	DB	0ecH
	DB	052H
	DB	0ecH
	DB	052H
	DB	0ecH
	DB	052H
	DB	0ecH
	DB	052H
	DB	0ecH
	DB	052H
	DB	0ecH
	DB	052H
	DB	0ecH
	DB	052H
	DB	0ecH
	DB	052H
	DB	0ecH
	DB	052H
	DB	0ecH
	DB	052H
	DB	0ecH
	DB	052H
	DB	0ecH
	DB	052H
	DB	0ecH
	DB	052H
	DB	0ecH
	DB	052H
	DB	0ecH
	DB	052H
	DB	0ecH
	DB	052H
	DB	0ecH
	DB	052H
	DB	0ecH
	DB	052H
	DB	0ecH
	DB	052H
	DB	0ecH
	DB	052H
	DB	0ecH
	DB	052H
	DB	0ecH
	DB	052H
	DB	0ecH
	DB	052H
	DB	0ecH
	DB	052H
	DB	0ecH
	DB	052H
	DB	0ecH
	DB	052H
	DB	0ecH
	DB	052H
	DB	0ecH
	DB	052H
	DB	0ecH
	DB	052H
	DB	0ecH
	DB	052H
	DB	0ecH
	DB	052H
	DB	0ecH
	DB	052H
	DB	0ccH
	DB	052H
	DB	0ecH
	DB	052H
	DB	0ecH
	DB	052H
	DB	0ecH
	DB	052H
	DB	0ecH
	DB	052H
	DB	0ecH
	DB	052H
	DB	0ecH
	DB	052H
	DB	0ecH
	DB	052H
	DB	0ecH
	DB	052H
	DB	06aH
	DB	04aH
	DB	06aH
	DB	042H
	DB	06aH
	DB	042H
	DB	06aH
	DB	04aH
	DB	06aH
	DB	04aH
	DB	06aH
	DB	04aH
	DB	06aH
	DB	04aH
	DB	06aH
	DB	04aH
	DB	06aH
	DB	04aH
	DB	06aH
	DB	04aH
	DB	06aH
	DB	04aH
	DB	06aH
	DB	04aH
	DB	06aH
	DB	04aH
	DB	06aH
	DB	04aH
	DB	08aH
	DB	04aH
	DB	06aH
	DB	04aH
	DB	06aH
	DB	04aH
	DB	06aH
	DB	04aH
	DB	06aH
	DB	04aH
	DB	06aH
	DB	04aH
	DB	06aH
	DB	042H
	DB	04aH
	DB	042H
	DB	04aH
	DB	042H
	DB	08aH
	DB	04aH
	DB	0ecH
	DB	052H
	DB	0ecH
	DB	052H
	DB	0ecH
	DB	052H
	DB	0ecH
	DB	052H
	DB	0ecH
	DB	052H
	DB	0ecH
	DB	052H
	DB	0ecH
	DB	052H
	DB	0ecH
	DB	052H
	DB	0ecH
	DB	052H
	DB	0ecH
	DB	052H
	DB	0ecH
	DB	052H
	DB	0ecH
	DB	052H
	DB	0ecH
	DB	052H
	DB	0ecH
	DB	052H
	DB	0ecH
	DB	052H
	DB	0ecH
	DB	052H
	DB	0ecH
	DB	052H
	DB	0ecH
	DB	052H
	DB	0ecH
	DB	052H
	DB	0ecH
	DB	052H
	DB	0ecH
	DB	052H
	DB	0ecH
	DB	052H
	DB	0ecH
	DB	052H
	DB	0ecH
	DB	052H
	DB	0ecH
	DB	052H
	DB	0ecH
	DB	052H
	DB	0ecH
	DB	052H
	DB	0ecH
	DB	052H
	DB	0ecH
	DB	052H
	DB	0ecH
	DB	052H
	DB	0ecH
	DB	052H
	DB	0ecH
	DB	052H
	DB	0ecH
	DB	052H
	DB	0ecH
	DB	052H
	DB	0ecH
	DB	052H
	DB	0ecH
	DB	052H
	DB	0ecH
	DB	052H
	DB	0ecH
	DB	052H
	DB	0ecH
	DB	052H
	DB	0ecH
	DB	052H
	DB	0ecH
	DB	052H
	DB	0ecH
	DB	052H
	DB	0ecH
	DB	052H
	DB	0ecH
	DB	052H
	DB	0ecH
	DB	052H
	DB	0ecH
	DB	052H
	DB	0ecH
	DB	052H
	DB	02dH
	DB	063H
	DB	0e8H
	DB	039H
	DB	0c8H
	DB	031H
	DB	0c7H
	DB	031H
	DB	0abH
	DB	052H
	DB	08aH
	DB	04aH
	DB	0a7H
	DB	031H
	DB	0c7H
	DB	031H
	DB	0e8H
	DB	031H
	DB	02dH
	DB	063H
	DB	0ecH
	DB	052H
	DB	0ecH
	DB	052H
	DB	0ebH
	DB	052H
	DB	0ecH
	DB	052H
	DB	0ecH
	DB	052H
	DB	0ebH
	DB	052H
	DB	0cbH
	DB	052H
	DB	0ecH
	DB	052H
	DB	0ecH
	DB	052H
	DB	0ecH
	DB	052H
	DB	0ccH
	DB	052H
	DB	0ebH
	DB	052H
	DB	0ecH
	DB	052H
	DB	0ccH
	DB	052H
	DB	0ecH
	DB	052H
	DB	0ecH
	DB	052H
	DB	0ccH
	DB	052H
	DB	0ccH
	DB	052H
	DB	0ecH
	DB	052H
	DB	0ccH
	DB	052H
	DB	0ecH
	DB	052H
	DB	0ccH
	DB	052H
	DB	0ecH
	DB	052H
	DB	0ecH
	DB	052H
	DB	0ecH
	DB	052H
	DB	0ecH
	DB	052H
	DB	0ecH
	DB	052H
	DB	0ebH
	DB	052H
	DB	0ecH
	DB	052H
	DB	0ecH
	DB	052H
	DB	0ebH
	DB	052H
	DB	0ccH
	DB	052H
	DB	0ecH
	DB	052H
	DB	0ebH
	DB	052H
	DB	0ccH
	DB	052H
	DB	0ebH
	DB	052H
	DB	0ecH
	DB	052H
	DB	0cbH
	DB	052H
	DB	0ecH
	DB	052H
	DB	0ecH
	DB	052H
	DB	0ecH
	DB	052H
	DB	0ccH
	DB	052H
	DB	0ecH
	DB	052H
	DB	0cbH
	DB	052H
	DB	0ecH
	DB	052H
	DB	0ecH
	DB	052H
	DB	0ccH
	DB	052H
	DB	0ecH
	DB	052H
	DB	0ecH
	DB	052H
	DB	02dH
	DB	063H
	DB	08aH
	DB	04aH
	DB	06aH
	DB	042H
	DB	06aH
	DB	04aH
	DB	06aH
	DB	04aH
	DB	08aH
	DB	04aH
	DB	08bH
	DB	04aH
	DB	08bH
	DB	04aH
	DB	08aH
	DB	04aH
	DB	08aH
	DB	04aH
	DB	08bH
	DB	04aH
	DB	08aH
	DB	04aH
	DB	08bH
	DB	04aH
	DB	08bH
	DB	04aH
	DB	08aH
	DB	04aH
	DB	08bH
	DB	04aH
	DB	08bH
	DB	04aH
	DB	08aH
	DB	04aH
	DB	08aH
	DB	04aH
	DB	08aH
	DB	04aH
	DB	06aH
	DB	04aH
	DB	06aH
	DB	042H
	DB	08aH
	DB	04aH
	DB	02dH
	DB	063H
	DB	0ecH
	DB	052H
	DB	0ecH
	DB	052H
	DB	0ccH
	DB	052H
	DB	0ebH
	DB	052H
	DB	0ecH
	DB	052H
	DB	0ecH
	DB	052H
	DB	0ecH
	DB	052H
	DB	0ecH
	DB	052H
	DB	0ecH
	DB	052H
	DB	0ccH
	DB	052H
	DB	0ecH
	DB	052H
	DB	0ecH
	DB	052H
	DB	0ccH
	DB	052H
	DB	0ecH
	DB	052H
	DB	0ebH
	DB	052H
	DB	0ecH
	DB	052H
	DB	0ccH
	DB	052H
	DB	0ebH
	DB	052H
	DB	0ecH
	DB	052H
	DB	0ecH
	DB	052H
	DB	0ebH
	DB	052H
	DB	0ecH
	DB	052H
	DB	0ecH
	DB	052H
	DB	0ebH
	DB	052H
	DB	0ecH
	DB	052H
	DB	0ccH
	DB	052H
	DB	0ecH
	DB	052H
	DB	0ebH
	DB	052H
	DB	0ccH
	DB	052H
	DB	0ecH
	DB	052H
	DB	0ebH
	DB	052H
	DB	0ccH
	DB	052H
	DB	0ecH
	DB	052H
	DB	0ecH
	DB	052H
	DB	0cbH
	DB	052H
	DB	0ecH
	DB	052H
	DB	0ecH
	DB	052H
	DB	0cbH
	DB	052H
	DB	0ecH
	DB	052H
	DB	0ccH
	DB	052H
	DB	0ebH
	DB	052H
	DB	0ecH
	DB	052H
	DB	0ccH
	DB	052H
	DB	0ebH
	DB	052H
	DB	0ccH
	DB	052H
	DB	0ecH
	DB	052H
	DB	0ecH
	DB	052H
	DB	02dH
	DB	063H
	DB	08H
	DB	03aH
	DB	0e8H
	DB	039H
	DB	0c7H
	DB	031H
	DB	08aH
	DB	04aH
	DB	08aH
	DB	04aH
	DB	0a7H
	DB	031H
	DB	0a7H
	DB	029H
	DB	0c7H
	DB	031H
	DB	02dH
	DB	05bH
	DB	0cbH
	DB	052H
	DB	0cbH
	DB	052H
	DB	0cbH
	DB	052H
	DB	0ccH
	DB	052H
	DB	0cbH
	DB	052H
	DB	0cbH
	DB	052H
	DB	0ccH
	DB	052H
	DB	0cbH
	DB	052H
	DB	0cbH
	DB	052H
	DB	0cbH
	DB	052H
	DB	0cbH
	DB	052H
	DB	0ecH
	DB	052H
	DB	0cbH
	DB	052H
	DB	0cbH
	DB	052H
	DB	0cbH
	DB	052H
	DB	0cbH
	DB	052H
	DB	0ecH
	DB	052H
	DB	0cbH
	DB	052H
	DB	0cbH
	DB	052H
	DB	0ebH
	DB	052H
	DB	0ccH
	DB	052H
	DB	0cbH
	DB	052H
	DB	0cbH
	DB	052H
	DB	0cbH
	DB	052H
	DB	0cbH
	DB	052H
	DB	0ccH
	DB	052H
	DB	0cbH
	DB	052H
	DB	0cbH
	DB	052H
	DB	0ccH
	DB	052H
	DB	0cbH
	DB	052H
	DB	0cbH
	DB	052H
	DB	0ccH
	DB	052H
	DB	0cbH
	DB	052H
	DB	0cbH
	DB	052H
	DB	0ccH
	DB	052H
	DB	0cbH
	DB	052H
	DB	0cbH
	DB	052H
	DB	0ccH
	DB	052H
	DB	0cbH
	DB	052H
	DB	0cbH
	DB	052H
	DB	0cbH
	DB	052H
	DB	0ebH
	DB	052H
	DB	0cbH
	DB	052H
	DB	0cbH
	DB	052H
	DB	0ccH
	DB	052H
	DB	0cbH
	DB	052H
	DB	0cbH
	DB	052H
	DB	0cbH
	DB	052H
	DB	0cbH
	DB	052H
	DB	0ecH
	DB	052H
	DB	02cH
	DB	05bH
	DB	049H
	DB	042H
	DB	06aH
	DB	042H
	DB	08aH
	DB	042H
	DB	08aH
	DB	042H
	DB	08aH
	DB	04aH
	DB	08bH
	DB	04aH
	DB	08bH
	DB	04aH
	DB	08aH
	DB	04aH
	DB	08bH
	DB	04aH
	DB	08bH
	DB	04aH
	DB	08aH
	DB	042H
	DB	08aH
	DB	04aH
	DB	08aH
	DB	04aH
	DB	08bH
	DB	04aH
	DB	08aH
	DB	04aH
	DB	08aH
	DB	04aH
	DB	08aH
	DB	042H
	DB	08aH
	DB	042H
	DB	06aH
	DB	042H
	DB	06aH
	DB	042H
	DB	02cH
	DB	05bH
	DB	0ecH
	DB	052H
	DB	0cbH
	DB	052H
	DB	0ccH
	DB	052H
	DB	0cbH
	DB	052H
	DB	0cbH
	DB	052H
	DB	0ccH
	DB	052H
	DB	0cbH
	DB	052H
	DB	0cbH
	DB	052H
	DB	0cbH
	DB	052H
	DB	0cbH
	DB	052H
	DB	0cbH
	DB	052H
	DB	0cbH
	DB	052H
	DB	0cbH
	DB	052H
	DB	0ccH
	DB	052H
	DB	0cbH
	DB	052H
	DB	0cbH
	DB	052H
	DB	0ccH
	DB	052H
	DB	0cbH
	DB	052H
	DB	0cbH
	DB	052H
	DB	0ccH
	DB	052H
	DB	0cbH
	DB	052H
	DB	0cbH
	DB	052H
	DB	0cbH
	DB	052H
	DB	0cbH
	DB	052H
	DB	0cbH
	DB	052H
	DB	0cbH
	DB	052H
	DB	0cbH
	DB	052H
	DB	0cbH
	DB	052H
	DB	0cbH
	DB	052H
	DB	0ccH
	DB	052H
	DB	0cbH
	DB	052H
	DB	0cbH
	DB	052H
	DB	0ccH
	DB	052H
	DB	0cbH
	DB	052H
	DB	0cbH
	DB	052H
	DB	0cbH
	DB	052H
	DB	0ccH
	DB	052H
	DB	0cbH
	DB	052H
	DB	0ebH
	DB	052H
	DB	0cbH
	DB	052H
	DB	0cbH
	DB	052H
	DB	0ccH
	DB	052H
	DB	0cbH
	DB	052H
	DB	0ebH
	DB	052H
	DB	0ccH
	DB	052H
	DB	0cbH
	DB	052H
	DB	0cbH
	DB	052H
	DB	0ecH
	DB	052H
	DB	02dH
	DB	05bH
	DB	0e8H
	DB	039H
	DB	08H
	DB	03aH
	DB	0e8H
	DB	031H
	DB	0abH
	DB	052H
	DB	08bH
	DB	04aH
	DB	0a7H
	DB	031H
	DB	0c7H
	DB	031H
	DB	0a7H
	DB	029H
	DB	02dH
	DB	05bH
	DB	0ccH
	DB	052H
	DB	0cbH
	DB	052H
	DB	0ccH
	DB	052H
	DB	0ccH
	DB	052H
	DB	0ccH
	DB	052H
	DB	0ebH
	DB	052H
	DB	0ccH
	DB	052H
	DB	0ccH
	DB	052H
	DB	0cbH
	DB	052H
	DB	0ccH
	DB	052H
	DB	0ccH
	DB	052H
	DB	0ccH
	DB	052H
	DB	0ccH
	DB	052H
	DB	0cbH
	DB	052H
	DB	0ccH
	DB	052H
	DB	0cbH
	DB	052H
	DB	0cbH
	DB	052H
	DB	0ccH
	DB	052H
	DB	0ccH
	DB	052H
	DB	0cbH
	DB	052H
	DB	0cbH
	DB	052H
	DB	0ccH
	DB	052H
	DB	0ccH
	DB	052H
	DB	0cbH
	DB	052H
	DB	0ccH
	DB	052H
	DB	0cbH
	DB	052H
	DB	0ccH
	DB	052H
	DB	0ccH
	DB	052H
	DB	0cbH
	DB	052H
	DB	0ccH
	DB	052H
	DB	0cbH
	DB	052H
	DB	0ecH
	DB	052H
	DB	0ccH
	DB	052H
	DB	0cbH
	DB	052H
	DB	0ecH
	DB	052H
	DB	0ccH
	DB	052H
	DB	0cbH
	DB	052H
	DB	0ecH
	DB	052H
	DB	0ccH
	DB	052H
	DB	0cbH
	DB	052H
	DB	0ccH
	DB	052H
	DB	0ccH
	DB	052H
	DB	0cbH
	DB	052H
	DB	0ccH
	DB	052H
	DB	0ecH
	DB	052H
	DB	0ccH
	DB	052H
	DB	0cbH
	DB	052H
	DB	0ccH
	DB	052H
	DB	0cbH
	DB	052H
	DB	0ccH
	DB	052H
	DB	0ecH
	DB	052H
	DB	0ecH
	DB	05aH
	DB	06aH
	DB	042H
	DB	06aH
	DB	042H
	DB	08aH
	DB	04aH
	DB	08aH
	DB	04aH
	DB	08bH
	DB	04aH
	DB	08aH
	DB	042H
	DB	0abH
	DB	04aH
	DB	08aH
	DB	04aH
	DB	08aH
	DB	042H
	DB	0abH
	DB	04aH
	DB	08bH
	DB	04aH
	DB	08bH
	DB	04aH
	DB	0aaH
	DB	042H
	DB	08bH
	DB	04aH
	DB	08bH
	DB	04aH
	DB	08aH
	DB	042H
	DB	06aH
	DB	04aH
	DB	06aH
	DB	042H
	DB	0ecH
	DB	05aH
	DB	0ecH
	DB	052H
	DB	0cbH
	DB	052H
	DB	0cbH
	DB	052H
	DB	0ccH
	DB	052H
	DB	0ccH
	DB	052H
	DB	0cbH
	DB	052H
	DB	0ccH
	DB	052H
	DB	0cbH
	DB	052H
	DB	0ccH
	DB	052H
	DB	0ccH
	DB	052H
	DB	0ccH
	DB	052H
	DB	0ebH
	DB	052H
	DB	0ccH
	DB	052H
	DB	0cbH
	DB	052H
	DB	0ecH
	DB	052H
	DB	0ccH
	DB	052H
	DB	0cbH
	DB	052H
	DB	0ccH
	DB	052H
	DB	0ecH
	DB	052H
	DB	0cbH
	DB	052H
	DB	0ccH
	DB	052H
	DB	0ccH
	DB	052H
	DB	0ccH
	DB	052H
	DB	0ccH
	DB	052H
	DB	0ccH
	DB	052H
	DB	0ccH
	DB	052H
	DB	0ccH
	DB	052H
	DB	0ecH
	DB	052H
	DB	0ccH
	DB	052H
	DB	0ccH
	DB	052H
	DB	0ebH
	DB	052H
	DB	0ccH
	DB	052H
	DB	0ccH
	DB	052H
	DB	0ebH
	DB	052H
	DB	0ccH
	DB	052H
	DB	0ccH
	DB	052H
	DB	0ecH
	DB	052H
	DB	0cbH
	DB	052H
	DB	0ccH
	DB	052H
	DB	0ccH
	DB	052H
	DB	0ccH
	DB	052H
	DB	0cbH
	DB	052H
	DB	0ccH
	DB	052H
	DB	0ccH
	DB	052H
	DB	0ccH
	DB	052H
	DB	0cbH
	DB	052H
	DB	0ccH
	DB	052H
	DB	0ccH
	DB	052H
	DB	0ccH
	DB	052H
	DB	02dH
	DB	05bH
	DB	0a7H
	DB	031H
	DB	0c7H
	DB	031H
	DB	08H
	DB	03aH
	DB	0ccH
	DB	052H
	DB	08bH
	DB	04aH
	DB	0c7H
	DB	031H
	DB	0c7H
	DB	031H
	DB	0a7H
	DB	031H
	DB	02dH
	DB	05bH
	DB	0cbH
	DB	052H
	DB	0ecH
	DB	052H
	DB	0ebH
	DB	052H
	DB	0ccH
	DB	04aH
	DB	0cbH
	DB	052H
	DB	0ebH
	DB	052H
	DB	0cbH
	DB	052H
	DB	0ecH
	DB	052H
	DB	0ecH
	DB	052H
	DB	0cbH
	DB	04aH
	DB	0ebH
	DB	052H
	DB	0cbH
	DB	052H
	DB	0ebH
	DB	04aH
	DB	0ecH
	DB	052H
	DB	0cbH
	DB	052H
	DB	0ecH
	DB	04aH
	DB	0cbH
	DB	052H
	DB	0ebH
	DB	052H
	DB	0ccH
	DB	052H
	DB	0ebH
	DB	052H
	DB	0cbH
	DB	052H
	DB	0ecH
	DB	052H
	DB	0ebH
	DB	052H
	DB	0ccH
	DB	052H
	DB	0ebH
	DB	052H
	DB	0cbH
	DB	052H
	DB	0ebH
	DB	052H
	DB	0ebH
	DB	052H
	DB	0cbH
	DB	052H
	DB	0ccH
	DB	052H
	DB	0ebH
	DB	052H
	DB	0cbH
	DB	052H
	DB	0cbH
	DB	04aH
	DB	0ebH
	DB	052H
	DB	0ccH
	DB	052H
	DB	0cbH
	DB	052H
	DB	0ebH
	DB	052H
	DB	0ccH
	DB	052H
	DB	0cbH
	DB	052H
	DB	0ebH
	DB	052H
	DB	0ccH
	DB	04aH
	DB	0cbH
	DB	052H
	DB	0ebH
	DB	04aH
	DB	0cbH
	DB	052H
	DB	0cbH
	DB	052H
	DB	0ebH
	DB	052H
	DB	0ecH
	DB	052H
	DB	0cbH
	DB	04aH
	DB	0cbH
	DB	052H
	DB	0ccH
	DB	052H
	DB	0ccH
	DB	052H
	DB	0cH
	DB	05bH
	DB	0cbH
	DB	052H
	DB	06aH
	DB	042H
	DB	08aH
	DB	042H
	DB	08aH
	DB	04aH
	DB	08aH
	DB	04aH
	DB	0abH
	DB	04aH
	DB	0abH
	DB	04aH
	DB	0aaH
	DB	04aH
	DB	08aH
	DB	04aH
	DB	0abH
	DB	04aH
	DB	0aaH
	DB	04aH
	DB	0aaH
	DB	04aH
	DB	0abH
	DB	04aH
	DB	08aH
	DB	04aH
	DB	08aH
	DB	042H
	DB	08aH
	DB	04aH
	DB	06aH
	DB	042H
	DB	0abH
	DB	052H
	DB	0cH
	DB	05bH
	DB	0cbH
	DB	052H
	DB	0ccH
	DB	052H
	DB	0ccH
	DB	052H
	DB	0cbH
	DB	04aH
	DB	0ebH
	DB	052H
	DB	0ecH
	DB	052H
	DB	0cbH
	DB	04aH
	DB	0ebH
	DB	052H
	DB	0ebH
	DB	052H
	DB	0ccH
	DB	052H
	DB	0cbH
	DB	052H
	DB	0ebH
	DB	04aH
	DB	0ccH
	DB	052H
	DB	0cbH
	DB	052H
	DB	0ebH
	DB	052H
	DB	0ccH
	DB	052H
	DB	0cbH
	DB	052H
	DB	0ebH
	DB	052H
	DB	0cbH
	DB	052H
	DB	0cbH
	DB	052H
	DB	0ebH
	DB	052H
	DB	0cbH
	DB	052H
	DB	0ebH
	DB	052H
	DB	0cbH
	DB	04aH
	DB	0ebH
	DB	052H
	DB	0cbH
	DB	052H
	DB	0ccH
	DB	052H
	DB	0ebH
	DB	052H
	DB	0cbH
	DB	052H
	DB	0ccH
	DB	052H
	DB	0ebH
	DB	04aH
	DB	0ccH
	DB	052H
	DB	0cbH
	DB	052H
	DB	0ebH
	DB	052H
	DB	0cbH
	DB	04aH
	DB	0ccH
	DB	052H
	DB	0ebH
	DB	052H
	DB	0cbH
	DB	052H
	DB	0cbH
	DB	04aH
	DB	0ebH
	DB	04aH
	DB	0cbH
	DB	052H
	DB	0ecH
	DB	052H
	DB	0ebH
	DB	052H
	DB	0cbH
	DB	04aH
	DB	0ccH
	DB	052H
	DB	0ebH
	DB	052H
	DB	0cbH
	DB	04aH
	DB	0cbH
	DB	052H
	DB	0cbH
	DB	052H
	DB	02cH
	DB	05bH
	DB	0e8H
	DB	031H
	DB	0c7H
	DB	031H
	DB	0e8H
	DB	031H
	DB	0cbH
	DB	052H
	DB	06aH
	DB	042H
	DB	0c7H
	DB	031H
	DB	0a7H
	DB	031H
	DB	0c7H
	DB	031H
	DB	02cH
	DB	05bH
	DB	0cbH
	DB	052H
	DB	0cbH
	DB	04aH
	DB	0cbH
	DB	04aH
	DB	0cbH
	DB	04aH
	DB	0ccH
	DB	04aH
	DB	0ccH
	DB	052H
	DB	0cbH
	DB	04aH
	DB	0cbH
	DB	04aH
	DB	0cbH
	DB	04aH
	DB	0cbH
	DB	04aH
	DB	0ccH
	DB	052H
	DB	0cbH
	DB	04aH
	DB	0ccH
	DB	052H
	DB	0cbH
	DB	04aH
	DB	0cbH
	DB	04aH
	DB	0ccH
	DB	04aH
	DB	0cbH
	DB	052H
	DB	0ccH
	DB	04aH
	DB	0cbH
	DB	04aH
	DB	0ccH
	DB	052H
	DB	0cbH
	DB	04aH
	DB	0cbH
	DB	04aH
	DB	0ccH
	DB	04aH
	DB	0cbH
	DB	04aH
	DB	0ccH
	DB	052H
	DB	0cbH
	DB	04aH
	DB	0ccH
	DB	04aH
	DB	0cbH
	DB	04aH
	DB	0ccH
	DB	04aH
	DB	0cbH
	DB	04aH
	DB	0ccH
	DB	04aH
	DB	0cbH
	DB	04aH
	DB	0ccH
	DB	052H
	DB	0cbH
	DB	052H
	DB	0cbH
	DB	04aH
	DB	0ccH
	DB	04aH
	DB	0cbH
	DB	04aH
	DB	0cbH
	DB	04aH
	DB	0ccH
	DB	052H
	DB	0cbH
	DB	04aH
	DB	0ccH
	DB	052H
	DB	0cbH
	DB	04aH
	DB	0ccH
	DB	04aH
	DB	0cbH
	DB	052H
	DB	0ccH
	DB	04aH
	DB	0cbH
	DB	04aH
	DB	0ccH
	DB	052H
	DB	0cbH
	DB	04aH
	DB	0ccH
	DB	04aH
	DB	0cbH
	DB	04aH
	DB	0cbH
	DB	04aH
	DB	0cbH
	DB	04aH
	DB	0dH
	DB	05bH
	DB	08aH
	DB	04aH
	DB	06aH
	DB	042H
	DB	06aH
	DB	042H
	DB	08bH
	DB	04aH
	DB	08aH
	DB	04aH
	DB	08bH
	DB	042H
	DB	08bH
	DB	04aH
	DB	08bH
	DB	04aH
	DB	08bH
	DB	04aH
	DB	08aH
	DB	042H
	DB	08bH
	DB	04aH
	DB	08aH
	DB	04aH
	DB	08bH
	DB	04aH
	DB	08aH
	DB	042H
	DB	06aH
	DB	042H
	DB	08aH
	DB	04aH
	DB	02dH
	DB	05bH
	DB	0ccH
	DB	04aH
	DB	0cbH
	DB	04aH
	DB	0cbH
	DB	052H
	DB	0ccH
	DB	04aH
	DB	0cbH
	DB	04aH
	DB	0cbH
	DB	052H
	DB	0ccH
	DB	04aH
	DB	0ccH
	DB	052H
	DB	0cbH
	DB	04aH
	DB	0cbH
	DB	04aH
	DB	0cbH
	DB	04aH
	DB	0ccH
	DB	052H
	DB	0cbH
	DB	04aH
	DB	0ccH
	DB	052H
	DB	0ccH
	DB	04aH
	DB	0cbH
	DB	04aH
	DB	0cbH
	DB	04aH
	DB	0ccH
	DB	052H
	DB	0ccH
	DB	04aH
	DB	0cbH
	DB	04aH
	DB	0ccH
	DB	04aH
	DB	0ccH
	DB	04aH
	DB	0ccH
	DB	052H
	DB	0cbH
	DB	04aH
	DB	0ccH
	DB	04aH
	DB	0ccH
	DB	052H
	DB	0cbH
	DB	04aH
	DB	0cbH
	DB	04aH
	DB	0ccH
	DB	04aH
	DB	0cbH
	DB	04aH
	DB	0cbH
	DB	04aH
	DB	0cbH
	DB	04aH
	DB	0cbH
	DB	052H
	DB	0ccH
	DB	04aH
	DB	0cbH
	DB	04aH
	DB	0ccH
	DB	052H
	DB	0cbH
	DB	04aH
	DB	0cbH
	DB	04aH
	DB	0ccH
	DB	052H
	DB	0cbH
	DB	052H
	DB	0cbH
	DB	04aH
	DB	0ccH
	DB	052H
	DB	0cbH
	DB	04aH
	DB	0cbH
	DB	04aH
	DB	0ccH
	DB	052H
	DB	0cbH
	DB	04aH
	DB	0cbH
	DB	052H
	DB	0ccH
	DB	04aH
	DB	0ccH
	DB	052H
	DB	0cbH
	DB	052H
	DB	02dH
	DB	05bH
	DB	08H
	DB	03aH
	DB	0e8H
	DB	039H
	DB	0c8H
	DB	031H
	DB	0cbH
	DB	04aH
	DB	06aH
	DB	042H
	DB	086H
	DB	029H
	DB	0c8H
	DB	031H
	DB	0e8H
	DB	031H
	DB	0dH
	DB	05bH
	DB	0cbH
	DB	04aH
	DB	0acH
	DB	052H
	DB	0ccH
	DB	052H
	DB	0cbH
	DB	052H
	DB	0cbH
	DB	052H
	DB	0cbH
	DB	04aH
	DB	0cbH
	DB	052H
	DB	0acH
	DB	052H
	DB	0cbH
	DB	052H
	DB	0cbH
	DB	04aH
	DB	0abH
	DB	052H
	DB	0cbH
	DB	04aH
	DB	0cbH
	DB	052H
	DB	0cbH
	DB	052H
	DB	0ccH
	DB	052H
	DB	0cbH
	DB	052H
	DB	0cbH
	DB	052H
	DB	0cbH
	DB	04aH
	DB	0cbH
	DB	04aH
	DB	0ccH
	DB	052H
	DB	0cbH
	DB	052H
	DB	0cbH
	DB	04aH
	DB	0cbH
	DB	052H
	DB	0cbH
	DB	052H
	DB	0ccH
	DB	04aH
	DB	0abH
	DB	052H
	DB	0cbH
	DB	052H
	DB	0cbH
	DB	052H
	DB	0cbH
	DB	052H
	DB	0cbH
	DB	052H
	DB	0cbH
	DB	04aH
	DB	0cbH
	DB	052H
	DB	0cbH
	DB	04aH
	DB	0ccH
	DB	04aH
	DB	0cbH
	DB	052H
	DB	0cbH
	DB	052H
	DB	0ccH
	DB	052H
	DB	0cbH
	DB	04aH
	DB	0cbH
	DB	04aH
	DB	0cbH
	DB	052H
	DB	0cbH
	DB	04aH
	DB	0cbH
	DB	052H
	DB	0cbH
	DB	052H
	DB	0cbH
	DB	04aH
	DB	0cbH
	DB	04aH
	DB	0cbH
	DB	052H
	DB	0cbH
	DB	052H
	DB	0cbH
	DB	052H
	DB	0cbH
	DB	052H
	DB	0cbH
	DB	052H
	DB	0cbH
	DB	052H
	DB	0ccH
	DB	04aH
	DB	0cbH
	DB	052H
	DB	0cH
	DB	05bH
	DB	06aH
	DB	042H
	DB	06aH
	DB	042H
	DB	06aH
	DB	04aH
	DB	08aH
	DB	04aH
	DB	08aH
	DB	042H
	DB	08aH
	DB	04aH
	DB	08aH
	DB	04aH
	DB	08aH
	DB	04aH
	DB	08aH
	DB	04aH
	DB	06aH
	DB	042H
	DB	08aH
	DB	04aH
	DB	06aH
	DB	042H
	DB	06aH
	DB	042H
	DB	04aH
	DB	042H
	DB	0dH
	DB	05bH
	DB	0cbH
	DB	052H
	DB	0cbH
	DB	04aH
	DB	0cbH
	DB	052H
	DB	0cbH
	DB	04aH
	DB	0cbH
	DB	052H
	DB	0cbH
	DB	052H
	DB	0cbH
	DB	052H
	DB	0cbH
	DB	052H
	DB	0cbH
	DB	04aH
	DB	0cbH
	DB	052H
	DB	0ccH
	DB	052H
	DB	0cbH
	DB	04aH
	DB	0cbH
	DB	052H
	DB	0cbH
	DB	052H
	DB	0cbH
	DB	04aH
	DB	0cbH
	DB	052H
	DB	0cbH
	DB	052H
	DB	0cbH
	DB	052H
	DB	0cbH
	DB	04aH
	DB	0cbH
	DB	04aH
	DB	0abH
	DB	052H
	DB	0cbH
	DB	04aH
	DB	0cbH
	DB	052H
	DB	0cbH
	DB	052H
	DB	0cbH
	DB	052H
	DB	0ccH
	DB	052H
	DB	0cbH
	DB	052H
	DB	0cbH
	DB	052H
	DB	0cbH
	DB	052H
	DB	0cbH
	DB	052H
	DB	0cbH
	DB	04aH
	DB	0cbH
	DB	052H
	DB	0cbH
	DB	052H
	DB	0cbH
	DB	04aH
	DB	0cbH
	DB	052H
	DB	0cbH
	DB	052H
	DB	0cbH
	DB	052H
	DB	0ccH
	DB	052H
	DB	0cbH
	DB	04aH
	DB	0cbH
	DB	04aH
	DB	0ccH
	DB	052H
	DB	0cbH
	DB	04aH
	DB	0ccH
	DB	052H
	DB	0cbH
	DB	052H
	DB	0cbH
	DB	052H
	DB	0cbH
	DB	04aH
	DB	0cbH
	DB	052H
	DB	0cbH
	DB	052H
	DB	0cbH
	DB	04aH
	DB	0cbH
	DB	052H
	DB	0cbH
	DB	04aH
	DB	0dH
	DB	05bH
	DB	08H
	DB	032H
	DB	0e8H
	DB	031H
	DB	0c8H
	DB	031H
	DB	08aH
	DB	04aH
	DB	08aH
	DB	04aH
	DB	0a7H
	DB	031H
	DB	0c7H
	DB	031H
	DB	0e8H
	DB	031H
	DB	0cH
	DB	05bH
	DB	0abH
	DB	052H
	DB	0cbH
	DB	04aH
	DB	0cbH
	DB	052H
	DB	0abH
	DB	04aH
	DB	0cbH
	DB	052H
	DB	0cbH
	DB	052H
	DB	0cbH
	DB	04aH
	DB	0abH
	DB	052H
	DB	0cbH
	DB	04aH
	DB	0cbH
	DB	052H
	DB	0cbH
	DB	052H
	DB	0cbH
	DB	04aH
	DB	0cbH
	DB	052H
	DB	0abH
	DB	04aH
	DB	0cbH
	DB	04aH
	DB	0abH
	DB	052H
	DB	0cbH
	DB	052H
	DB	0abH
	DB	04aH
	DB	0cbH
	DB	052H
	DB	0cbH
	DB	052H
	DB	0abH
	DB	04aH
	DB	0cbH
	DB	052H
	DB	0abH
	DB	052H
	DB	0cbH
	DB	052H
	DB	0cbH
	DB	04aH
	DB	0cbH
	DB	052H
	DB	0abH
	DB	04aH
	DB	0cbH
	DB	04aH
	DB	0cbH
	DB	052H
	DB	0cbH
	DB	052H
	DB	0abH
	DB	052H
	DB	0cbH
	DB	04aH
	DB	0cbH
	DB	052H
	DB	0cbH
	DB	052H
	DB	0cbH
	DB	04aH
	DB	0cbH
	DB	04aH
	DB	0cbH
	DB	052H
	DB	0cbH
	DB	052H
	DB	0abH
	DB	04aH
	DB	0abH
	DB	052H
	DB	0cbH
	DB	052H
	DB	0cbH
	DB	04aH
	DB	0abH
	DB	052H
	DB	0cbH
	DB	052H
	DB	0cbH
	DB	052H
	DB	0abH
	DB	04aH
	DB	0abH
	DB	04aH
	DB	0ccH
	DB	052H
	DB	0cbH
	DB	04aH
	DB	0cbH
	DB	04aH
	DB	0cbH
	DB	052H
	DB	0abH
	DB	052H
	DB	0cbH
	DB	04aH
	DB	0ccH
	DB	052H
	DB	0ecH
	DB	052H
	DB	06aH
	DB	042H
	DB	06aH
	DB	042H
	DB	06aH
	DB	04aH
	DB	08aH
	DB	04aH
	DB	08aH
	DB	042H
	DB	08aH
	DB	04aH
	DB	08aH
	DB	04aH
	DB	08bH
	DB	04aH
	DB	08aH
	DB	04aH
	DB	08aH
	DB	042H
	DB	06aH
	DB	04aH
	DB	049H
	DB	042H
	DB	0ecH
	DB	052H
	DB	0cbH
	DB	052H
	DB	0cbH
	DB	052H
	DB	0cbH
	DB	052H
	DB	0cbH
	DB	052H
	DB	0abH
	DB	04aH
	DB	0cbH
	DB	052H
	DB	0abH
	DB	04aH
	DB	0cbH
	DB	04aH
	DB	0cbH
	DB	052H
	DB	0abH
	DB	04aH
	DB	0abH
	DB	052H
	DB	0cbH
	DB	052H
	DB	0cbH
	DB	052H
	DB	0cbH
	DB	04aH
	DB	0cbH
	DB	04aH
	DB	0abH
	DB	052H
	DB	0cbH
	DB	052H
	DB	0abH
	DB	04aH
	DB	0cbH
	DB	052H
	DB	0cbH
	DB	052H
	DB	0cbH
	DB	052H
	DB	0cbH
	DB	052H
	DB	0cbH
	DB	052H
	DB	0cbH
	DB	04aH
	DB	0cbH
	DB	04aH
	DB	0cbH
	DB	04aH
	DB	0abH
	DB	04aH
	DB	0cbH
	DB	052H
	DB	0cbH
	DB	04aH
	DB	0abH
	DB	052H
	DB	0cbH
	DB	052H
	DB	0abH
	DB	04aH
	DB	0ccH
	DB	052H
	DB	0abH
	DB	052H
	DB	0cbH
	DB	052H
	DB	0cbH
	DB	04aH
	DB	0cbH
	DB	052H
	DB	0cbH
	DB	04aH
	DB	0abH
	DB	052H
	DB	0cbH
	DB	052H
	DB	0cbH
	DB	04aH
	DB	0cbH
	DB	052H
	DB	0cbH
	DB	052H
	DB	0cbH
	DB	04aH
	DB	0cbH
	DB	052H
	DB	0cbH
	DB	052H
	DB	0cbH
	DB	04aH
	DB	0abH
	DB	04aH
	DB	0cbH
	DB	052H
	DB	0cbH
	DB	052H
	DB	0abH
	DB	04aH
	DB	0cbH
	DB	052H
	DB	0cH
	DB	05bH
	DB	08H
	DB	03aH
	DB	0e8H
	DB	031H
	DB	0e8H
	DB	039H
	DB	0cbH
	DB	052H
	DB	08bH
	DB	04aH
	DB	0c7H
	DB	031H
	DB	0a7H
	DB	031H
	DB	0a7H
	DB	031H
	DB	0cH
	DB	05bH
	DB	0abH
	DB	04aH
	DB	0cbH
	DB	04aH
	DB	0abH
	DB	04aH
	DB	0abH
	DB	04aH
	DB	0acH
	DB	04aH
	DB	0abH
	DB	04aH
	DB	0cbH
	DB	04aH
	DB	0abH
	DB	04aH
	DB	0abH
	DB	04aH
	DB	0acH
	DB	04aH
	DB	0abH
	DB	04aH
	DB	0abH
	DB	052H
	DB	0acH
	DB	04aH
	DB	0abH
	DB	04aH
	DB	0abH
	DB	04aH
	DB	0abH
	DB	04aH
	DB	0abH
	DB	04aH
	DB	0abH
	DB	04aH
	DB	0acH
	DB	052H
	DB	0abH
	DB	04aH
	DB	0abH
	DB	04aH
	DB	0abH
	DB	04aH
	DB	0abH
	DB	04aH
	DB	0acH
	DB	04aH
	DB	0cbH
	DB	052H
	DB	0abH
	DB	04aH
	DB	0abH
	DB	04aH
	DB	0acH
	DB	04aH
	DB	0abH
	DB	04aH
	DB	0abH
	DB	04aH
	DB	0acH
	DB	04aH
	DB	0abH
	DB	04aH
	DB	0abH
	DB	052H
	DB	0abH
	DB	04aH
	DB	0abH
	DB	052H
	DB	0abH
	DB	04aH
	DB	0abH
	DB	04aH
	DB	0abH
	DB	052H
	DB	0abH
	DB	04aH
	DB	0acH
	DB	04aH
	DB	0cbH
	DB	052H
	DB	0abH
	DB	04aH
	DB	0acH
	DB	04aH
	DB	0abH
	DB	04aH
	DB	0abH
	DB	04aH
	DB	0acH
	DB	04aH
	DB	0abH
	DB	04aH
	DB	0abH
	DB	04aH
	DB	0abH
	DB	052H
	DB	0abH
	DB	04aH
	DB	0abH
	DB	04aH
	DB	0cbH
	DB	04aH
	DB	0abH
	DB	04aH
	DB	0abH
	DB	052H
	DB	0ecH
	DB	052H
	DB	0abH
	DB	04aH
	DB	049H
	DB	042H
	DB	06aH
	DB	042H
	DB	06aH
	DB	042H
	DB	06aH
	DB	04aH
	DB	08bH
	DB	04aH
	DB	08aH
	DB	042H
	DB	06aH
	DB	042H
	DB	06aH
	DB	042H
	DB	06aH
	DB	042H
	DB	04aH
	DB	042H
	DB	0abH
	DB	04aH
	DB	0ecH
	DB	05aH
	DB	0cbH
	DB	04aH
	DB	0abH
	DB	04aH
	DB	0abH
	DB	04aH
	DB	0abH
	DB	04aH
	DB	0acH
	DB	052H
	DB	0abH
	DB	04aH
	DB	0cbH
	DB	04aH
	DB	0acH
	DB	052H
	DB	0abH
	DB	04aH
	DB	0ccH
	DB	04aH
	DB	0abH
	DB	04aH
	DB	0abH
	DB	04aH
	DB	0abH
	DB	052H
	DB	0abH
	DB	04aH
	DB	0acH
	DB	04aH
	DB	0cbH
	DB	052H
	DB	0abH
	DB	04aH
	DB	0acH
	DB	04aH
	DB	0abH
	DB	04aH
	DB	0abH
	DB	04aH
	DB	0acH
	DB	04aH
	DB	0abH
	DB	04aH
	DB	0abH
	DB	052H
	DB	0abH
	DB	04aH
	DB	0abH
	DB	04aH
	DB	0abH
	DB	052H
	DB	0abH
	DB	04aH
	DB	0abH
	DB	04aH
	DB	0acH
	DB	04aH
	DB	0cbH
	DB	04aH
	DB	0abH
	DB	04aH
	DB	0abH
	DB	04aH
	DB	0abH
	DB	04aH
	DB	0acH
	DB	04aH
	DB	0abH
	DB	04aH
	DB	0abH
	DB	052H
	DB	0acH
	DB	04aH
	DB	0abH
	DB	04aH
	DB	0abH
	DB	04aH
	DB	0abH
	DB	052H
	DB	0abH
	DB	04aH
	DB	0abH
	DB	04aH
	DB	0abH
	DB	04aH
	DB	0abH
	DB	04aH
	DB	0abH
	DB	04aH
	DB	0abH
	DB	04aH
	DB	0acH
	DB	052H
	DB	0abH
	DB	04aH
	DB	0abH
	DB	04aH
	DB	0ccH
	DB	04aH
	DB	0abH
	DB	04aH
	DB	0abH
	DB	04aH
	DB	0dH
	DB	05bH
	DB	0e8H
	DB	031H
	DB	0e8H
	DB	039H
	DB	0e8H
	DB	031H
	DB	0cbH
	DB	052H
	DB	08aH
	DB	04aH
	DB	0c7H
	DB	031H
	DB	0a7H
	DB	031H
	DB	0a7H
	DB	031H
	DB	0dH
	DB	05bH
	DB	0abH
	DB	04aH
	DB	0abH
	DB	04aH
	DB	0abH
	DB	052H
	DB	0abH
	DB	052H
	DB	0abH
	DB	04aH
	DB	0abH
	DB	04aH
	DB	0abH
	DB	052H
	DB	0abH
	DB	04aH
	DB	0abH
	DB	04aH
	DB	0abH
	DB	04aH
	DB	0abH
	DB	04aH
	DB	0abH
	DB	04aH
	DB	0abH
	DB	04aH
	DB	0abH
	DB	052H
	DB	0cbH
	DB	052H
	DB	0abH
	DB	04aH
	DB	0abH
	DB	04aH
	DB	0abH
	DB	04aH
	DB	0abH
	DB	04aH
	DB	0abH
	DB	04aH
	DB	0cbH
	DB	052H
	DB	0abH
	DB	04aH
	DB	0abH
	DB	04aH
	DB	0abH
	DB	04aH
	DB	0abH
	DB	052H
	DB	0abH
	DB	04aH
	DB	0abH
	DB	052H
	DB	0abH
	DB	052H
	DB	0abH
	DB	04aH
	DB	0abH
	DB	04aH
	DB	0abH
	DB	04aH
	DB	0abH
	DB	04aH
	DB	0abH
	DB	04aH
	DB	0abH
	DB	04aH
	DB	0abH
	DB	052H
	DB	0abH
	DB	04aH
	DB	0abH
	DB	04aH
	DB	0abH
	DB	04aH
	DB	0abH
	DB	04aH
	DB	0abH
	DB	04aH
	DB	0abH
	DB	04aH
	DB	0abH
	DB	04aH
	DB	0abH
	DB	04aH
	DB	0abH
	DB	04aH
	DB	0abH
	DB	052H
	DB	0abH
	DB	052H
	DB	0cbH
	DB	04aH
	DB	0abH
	DB	04aH
	DB	0abH
	DB	04aH
	DB	0abH
	DB	052H
	DB	0abH
	DB	04aH
	DB	0abH
	DB	04aH
	DB	0abH
	DB	04aH
	DB	0abH
	DB	04aH
	DB	0abH
	DB	052H
	DB	0cH
	DB	05bH
	DB	06aH
	DB	042H
	DB	04aH
	DB	042H
	DB	06aH
	DB	042H
	DB	06aH
	DB	04aH
	DB	06aH
	DB	042H
	DB	06aH
	DB	042H
	DB	06aH
	DB	042H
	DB	06aH
	DB	042H
	DB	04aH
	DB	042H
	DB	06aH
	DB	04aH
	DB	0cH
	DB	05bH
	DB	0abH
	DB	04aH
	DB	0abH
	DB	04aH
	DB	0abH
	DB	04aH
	DB	0abH
	DB	04aH
	DB	0abH
	DB	04aH
	DB	0abH
	DB	04aH
	DB	0abH
	DB	04aH
	DB	0abH
	DB	04aH
	DB	0abH
	DB	052H
	DB	0abH
	DB	04aH
	DB	0abH
	DB	052H
	DB	0abH
	DB	04aH
	DB	0abH
	DB	04aH
	DB	0abH
	DB	04aH
	DB	0abH
	DB	04aH
	DB	0abH
	DB	052H
	DB	0abH
	DB	04aH
	DB	0abH
	DB	04aH
	DB	0abH
	DB	04aH
	DB	0abH
	DB	052H
	DB	0abH
	DB	04aH
	DB	0abH
	DB	04aH
	DB	0abH
	DB	04aH
	DB	0abH
	DB	04aH
	DB	0abH
	DB	04aH
	DB	0abH
	DB	052H
	DB	0abH
	DB	04aH
	DB	0abH
	DB	052H
	DB	0abH
	DB	04aH
	DB	0abH
	DB	04aH
	DB	0abH
	DB	04aH
	DB	0abH
	DB	052H
	DB	0abH
	DB	052H
	DB	0abH
	DB	04aH
	DB	0cbH
	DB	04aH
	DB	0abH
	DB	04aH
	DB	0abH
	DB	04aH
	DB	0abH
	DB	052H
	DB	0abH
	DB	04aH
	DB	0abH
	DB	04aH
	DB	0abH
	DB	04aH
	DB	0abH
	DB	04aH
	DB	0abH
	DB	04aH
	DB	0abH
	DB	04aH
	DB	0abH
	DB	052H
	DB	0abH
	DB	04aH
	DB	0abH
	DB	04aH
	DB	0abH
	DB	052H
	DB	0abH
	DB	04aH
	DB	0abH
	DB	052H
	DB	0abH
	DB	04aH
	DB	0abH
	DB	04aH
	DB	0abH
	DB	04aH
	DB	0cH
	DB	05bH
	DB	0c7H
	DB	031H
	DB	0c8H
	DB	031H
	DB	0e8H
	DB	039H
	DB	0cbH
	DB	052H
	DB	06aH
	DB	042H
	DB	0c7H
	DB	031H
	DB	0c7H
	DB	031H
	DB	0c8H
	DB	031H
	DB	0ecH
	DB	052H
	DB	0abH
	DB	04aH
	DB	0abH
	DB	04aH
	DB	0abH
	DB	04aH
	DB	0abH
	DB	04aH
	DB	0abH
	DB	04aH
	DB	0abH
	DB	052H
	DB	0abH
	DB	04aH
	DB	0abH
	DB	04aH
	DB	0abH
	DB	052H
	DB	0abH
	DB	052H
	DB	0abH
	DB	04aH
	DB	0abH
	DB	04aH
	DB	0abH
	DB	04aH
	DB	0abH
	DB	04aH
	DB	0abH
	DB	04aH
	DB	0abH
	DB	052H
	DB	0abH
	DB	04aH
	DB	0abH
	DB	052H
	DB	0abH
	DB	04aH
	DB	0abH
	DB	04aH
	DB	0abH
	DB	052H
	DB	0abH
	DB	04aH
	DB	0abH
	DB	04aH
	DB	0abH
	DB	052H
	DB	0abH
	DB	04aH
	DB	0abH
	DB	04aH
	DB	0abH
	DB	04aH
	DB	0abH
	DB	04aH
	DB	0abH
	DB	04aH
	DB	0abH
	DB	052H
	DB	0abH
	DB	052H
	DB	0abH
	DB	052H
	DB	0abH
	DB	04aH
	DB	0abH
	DB	04aH
	DB	0abH
	DB	04aH
	DB	0abH
	DB	04aH
	DB	0abH
	DB	052H
	DB	0abH
	DB	04aH
	DB	0abH
	DB	04aH
	DB	0abH
	DB	052H
	DB	0abH
	DB	04aH
	DB	0abH
	DB	04aH
	DB	0abH
	DB	052H
	DB	0abH
	DB	04aH
	DB	0abH
	DB	04aH
	DB	0abH
	DB	04aH
	DB	0abH
	DB	052H
	DB	0abH
	DB	052H
	DB	0abH
	DB	04aH
	DB	0abH
	DB	04aH
	DB	0abH
	DB	052H
	DB	0abH
	DB	052H
	DB	0abH
	DB	04aH
	DB	0abH
	DB	052H
	DB	0abH
	DB	04aH
	DB	0abH
	DB	04aH
	DB	0ecH
	DB	05aH
	DB	049H
	DB	042H
	DB	049H
	DB	042H
	DB	06aH
	DB	042H
	DB	06aH
	DB	042H
	DB	06aH
	DB	04aH
	DB	06aH
	DB	04aH
	DB	049H
	DB	042H
	DB	049H
	DB	042H
	DB	0ecH
	DB	05aH
	DB	0abH
	DB	04aH
	DB	0abH
	DB	04aH
	DB	0abH
	DB	052H
	DB	0abH
	DB	052H
	DB	0abH
	DB	04aH
	DB	0abH
	DB	052H
	DB	0abH
	DB	04aH
	DB	0abH
	DB	04aH
	DB	0abH
	DB	04aH
	DB	0abH
	DB	052H
	DB	0abH
	DB	04aH
	DB	0abH
	DB	04aH
	DB	0abH
	DB	052H
	DB	0abH
	DB	04aH
	DB	0abH
	DB	052H
	DB	0abH
	DB	04aH
	DB	0abH
	DB	04aH
	DB	0abH
	DB	04aH
	DB	0abH
	DB	04aH
	DB	0abH
	DB	052H
	DB	0abH
	DB	04aH
	DB	0abH
	DB	04aH
	DB	0abH
	DB	052H
	DB	0abH
	DB	04aH
	DB	0abH
	DB	052H
	DB	0abH
	DB	04aH
	DB	0abH
	DB	04aH
	DB	0abH
	DB	052H
	DB	0abH
	DB	04aH
	DB	0abH
	DB	04aH
	DB	0abH
	DB	052H
	DB	0abH
	DB	052H
	DB	0abH
	DB	04aH
	DB	0abH
	DB	04aH
	DB	0abH
	DB	04aH
	DB	0abH
	DB	052H
	DB	0abH
	DB	04aH
	DB	0abH
	DB	04aH
	DB	0abH
	DB	04aH
	DB	0abH
	DB	052H
	DB	0abH
	DB	04aH
	DB	0abH
	DB	052H
	DB	0abH
	DB	04aH
	DB	0abH
	DB	052H
	DB	0abH
	DB	04aH
	DB	0abH
	DB	052H
	DB	0abH
	DB	052H
	DB	0abH
	DB	04aH
	DB	0abH
	DB	04aH
	DB	0abH
	DB	04aH
	DB	0abH
	DB	04aH
	DB	0abH
	DB	052H
	DB	0abH
	DB	04aH
	DB	0abH
	DB	052H
	DB	0ecH
	DB	052H
	DB	08H
	DB	03aH
	DB	0c8H
	DB	031H
	DB	0c8H
	DB	031H
	DB	0cbH
	DB	052H
	DB	06aH
	DB	042H
	DB	0a7H
	DB	031H
	DB	0c8H
	DB	031H
	DB	0e8H
	DB	039H
	DB	0ecH
	DB	052H
	DB	0abH
	DB	04aH
	DB	0abH
	DB	04aH
	DB	0abH
	DB	052H
	DB	0abH
	DB	04aH
	DB	0abH
	DB	04aH
	DB	0abH
	DB	04aH
	DB	0abH
	DB	04aH
	DB	0abH
	DB	04aH
	DB	0abH
	DB	04aH
	DB	0abH
	DB	04aH
	DB	0abH
	DB	04aH
	DB	0abH
	DB	052H
	DB	0abH
	DB	04aH
	DB	0abH
	DB	04aH
	DB	0abH
	DB	04aH
	DB	0abH
	DB	04aH
	DB	0abH
	DB	04aH
	DB	0abH
	DB	04aH
	DB	0abH
	DB	04aH
	DB	0abH
	DB	04aH
	DB	0abH
	DB	04aH
	DB	0abH
	DB	04aH
	DB	0abH
	DB	04aH
	DB	0abH
	DB	04aH
	DB	0abH
	DB	04aH
	DB	0abH
	DB	04aH
	DB	0abH
	DB	04aH
	DB	0abH
	DB	04aH
	DB	0abH
	DB	04aH
	DB	0abH
	DB	04aH
	DB	0abH
	DB	04aH
	DB	0abH
	DB	04aH
	DB	0abH
	DB	04aH
	DB	0abH
	DB	04aH
	DB	0abH
	DB	04aH
	DB	0abH
	DB	04aH
	DB	0abH
	DB	04aH
	DB	0abH
	DB	04aH
	DB	0abH
	DB	04aH
	DB	0abH
	DB	04aH
	DB	0abH
	DB	04aH
	DB	0abH
	DB	052H
	DB	0abH
	DB	04aH
	DB	0abH
	DB	04aH
	DB	0abH
	DB	04aH
	DB	0abH
	DB	04aH
	DB	0abH
	DB	04aH
	DB	0abH
	DB	04aH
	DB	0abH
	DB	04aH
	DB	0abH
	DB	04aH
	DB	0abH
	DB	04aH
	DB	0abH
	DB	04aH
	DB	0abH
	DB	04aH
	DB	0abH
	DB	04aH
	DB	0abH
	DB	04aH
	DB	0abH
	DB	04aH
	DB	0abH
	DB	052H
	DB	0cbH
	DB	052H
	DB	049H
	DB	042H
	DB	049H
	DB	042H
	DB	049H
	DB	042H
	DB	04aH
	DB	042H
	DB	049H
	DB	042H
	DB	029H
	DB	042H
	DB	0cbH
	DB	052H
	DB	0cbH
	DB	052H
	DB	0abH
	DB	04aH
	DB	0abH
	DB	04aH
	DB	0abH
	DB	04aH
	DB	0abH
	DB	04aH
	DB	0abH
	DB	04aH
	DB	0abH
	DB	04aH
	DB	0abH
	DB	052H
	DB	0abH
	DB	04aH
	DB	0abH
	DB	04aH
	DB	0abH
	DB	04aH
	DB	0abH
	DB	04aH
	DB	0abH
	DB	04aH
	DB	0abH
	DB	04aH
	DB	0abH
	DB	04aH
	DB	0abH
	DB	04aH
	DB	0abH
	DB	052H
	DB	0abH
	DB	04aH
	DB	0abH
	DB	04aH
	DB	0abH
	DB	04aH
	DB	0abH
	DB	04aH
	DB	0abH
	DB	04aH
	DB	0abH
	DB	04aH
	DB	0abH
	DB	04aH
	DB	0abH
	DB	04aH
	DB	0abH
	DB	04aH
	DB	0abH
	DB	04aH
	DB	0abH
	DB	04aH
	DB	0abH
	DB	04aH
	DB	0abH
	DB	04aH
	DB	0abH
	DB	04aH
	DB	0abH
	DB	04aH
	DB	0abH
	DB	04aH
	DB	0abH
	DB	04aH
	DB	0abH
	DB	04aH
	DB	0abH
	DB	04aH
	DB	0abH
	DB	04aH
	DB	0abH
	DB	04aH
	DB	0abH
	DB	04aH
	DB	0abH
	DB	04aH
	DB	0abH
	DB	04aH
	DB	0abH
	DB	04aH
	DB	0abH
	DB	04aH
	DB	0abH
	DB	04aH
	DB	0abH
	DB	04aH
	DB	0abH
	DB	04aH
	DB	0abH
	DB	04aH
	DB	0abH
	DB	04aH
	DB	0abH
	DB	04aH
	DB	0abH
	DB	04aH
	DB	0abH
	DB	04aH
	DB	0abH
	DB	04aH
	DB	0abH
	DB	04aH
	DB	0abH
	DB	04aH
	DB	0abH
	DB	04aH
	DB	0cH
	DB	05bH
	DB	08H
	DB	03aH
	DB	0e8H
	DB	039H
	DB	0c8H
	DB	031H
	DB	0abH
	DB	04aH
	DB	08aH
	DB	04aH
	DB	0a7H
	DB	031H
	DB	0c7H
	DB	031H
	DB	0e8H
	DB	039H
	DB	0ecH
	DB	05aH
	DB	0abH
	DB	04aH
	DB	0aaH
	DB	04aH
	DB	0abH
	DB	04aH
	DB	0abH
	DB	04aH
	DB	0aaH
	DB	04aH
	DB	08bH
	DB	04aH
	DB	08aH
	DB	04aH
	DB	08bH
	DB	04aH
	DB	0abH
	DB	04aH
	DB	0abH
	DB	04aH
	DB	0abH
	DB	04aH
	DB	0aaH
	DB	04aH
	DB	0abH
	DB	04aH
	DB	0abH
	DB	04aH
	DB	08aH
	DB	04aH
	DB	0abH
	DB	052H
	DB	0abH
	DB	04aH
	DB	0abH
	DB	04aH
	DB	0aaH
	DB	04aH
	DB	0abH
	DB	04aH
	DB	0abH
	DB	04aH
	DB	08bH
	DB	04aH
	DB	0abH
	DB	04aH
	DB	08bH
	DB	04aH
	DB	0abH
	DB	04aH
	DB	0abH
	DB	04aH
	DB	08aH
	DB	04aH
	DB	0abH
	DB	04aH
	DB	0abH
	DB	04aH
	DB	08bH
	DB	04aH
	DB	0abH
	DB	04aH
	DB	0aaH
	DB	04aH
	DB	08bH
	DB	04aH
	DB	0abH
	DB	052H
	DB	08bH
	DB	04aH
	DB	0abH
	DB	04aH
	DB	08bH
	DB	04aH
	DB	0abH
	DB	04aH
	DB	0abH
	DB	04aH
	DB	0abH
	DB	04aH
	DB	0abH
	DB	04aH
	DB	08aH
	DB	04aH
	DB	0abH
	DB	04aH
	DB	08bH
	DB	04aH
	DB	0abH
	DB	04aH
	DB	08bH
	DB	04aH
	DB	0abH
	DB	04aH
	DB	0abH
	DB	04aH
	DB	0abH
	DB	04aH
	DB	08bH
	DB	04aH
	DB	0abH
	DB	04aH
	DB	0aaH
	DB	04aH
	DB	0abH
	DB	04aH
	DB	08bH
	DB	04aH
	DB	08bH
	DB	04aH
	DB	0abH
	DB	04aH
	DB	0abH
	DB	04aH
	DB	0cbH
	DB	052H
	DB	08bH
	DB	04aH
	DB	049H
	DB	042H
	DB	049H
	DB	042H
	DB	049H
	DB	042H
	DB	029H
	DB	042H
	DB	08aH
	DB	04aH
	DB	0ccH
	DB	052H
	DB	08bH
	DB	04aH
	DB	0abH
	DB	04aH
	DB	0aaH
	DB	04aH
	DB	0abH
	DB	04aH
	DB	0abH
	DB	04aH
	DB	08bH
	DB	04aH
	DB	0abH
	DB	04aH
	DB	08bH
	DB	04aH
	DB	0abH
	DB	04aH
	DB	0aaH
	DB	04aH
	DB	08bH
	DB	04aH
	DB	0abH
	DB	04aH
	DB	0aaH
	DB	04aH
	DB	0abH
	DB	04aH
	DB	0abH
	DB	04aH
	DB	0abH
	DB	04aH
	DB	0abH
	DB	04aH
	DB	08bH
	DB	04aH
	DB	0abH
	DB	04aH
	DB	08aH
	DB	04aH
	DB	08bH
	DB	04aH
	DB	0abH
	DB	04aH
	DB	0abH
	DB	04aH
	DB	08bH
	DB	04aH
	DB	0abH
	DB	04aH
	DB	08aH
	DB	04aH
	DB	08bH
	DB	04aH
	DB	0abH
	DB	04aH
	DB	0aaH
	DB	04aH
	DB	08bH
	DB	04aH
	DB	0abH
	DB	04aH
	DB	0abH
	DB	04aH
	DB	0abH
	DB	04aH
	DB	08bH
	DB	04aH
	DB	0abH
	DB	04aH
	DB	0aaH
	DB	04aH
	DB	08bH
	DB	04aH
	DB	0abH
	DB	052H
	DB	0abH
	DB	052H
	DB	08bH
	DB	04aH
	DB	0abH
	DB	04aH
	DB	0abH
	DB	04aH
	DB	0aaH
	DB	04aH
	DB	0abH
	DB	04aH
	DB	0abH
	DB	04aH
	DB	08bH
	DB	04aH
	DB	0abH
	DB	04aH
	DB	0abH
	DB	04aH
	DB	0abH
	DB	04aH
	DB	08bH
	DB	04aH
	DB	0aaH
	DB	052H
	DB	0abH
	DB	04aH
	DB	08bH
	DB	04aH
	DB	0abH
	DB	04aH
	DB	0abH
	DB	04aH
	DB	0ecH
	DB	052H
	DB	08H
	DB	03aH
	DB	08H
	DB	03aH
	DB	0e8H
	DB	031H
	DB	08aH
	DB	04aH
	DB	08bH
	DB	04aH
	DB	0c7H
	DB	031H
	DB	0a7H
	DB	031H
	DB	0a7H
	DB	031H
	DB	0ecH
	DB	052H
	DB	08aH
	DB	04aH
	DB	08bH
	DB	04aH
	DB	08aH
	DB	04aH
	DB	08aH
	DB	04aH
	DB	08bH
	DB	04aH
	DB	08bH
	DB	04aH
	DB	08aH
	DB	04aH
	DB	08aH
	DB	04aH
	DB	08bH
	DB	04aH
	DB	08aH
	DB	04aH
	DB	08aH
	DB	04aH
	DB	08aH
	DB	04aH
	DB	08bH
	DB	04aH
	DB	08aH
	DB	04aH
	DB	08bH
	DB	04aH
	DB	08aH
	DB	04aH
	DB	08aH
	DB	04aH
	DB	08aH
	DB	04aH
	DB	08bH
	DB	04aH
	DB	08aH
	DB	04aH
	DB	08aH
	DB	04aH
	DB	08aH
	DB	04aH
	DB	08aH
	DB	04aH
	DB	08aH
	DB	04aH
	DB	08aH
	DB	04aH
	DB	08bH
	DB	04aH
	DB	08aH
	DB	04aH
	DB	08aH
	DB	04aH
	DB	08aH
	DB	04aH
	DB	0abH
	DB	04aH
	DB	08aH
	DB	04aH
	DB	08bH
	DB	04aH
	DB	0aaH
	DB	04aH
	DB	08aH
	DB	04aH
	DB	08aH
	DB	04aH
	DB	08aH
	DB	04aH
	DB	0aaH
	DB	04aH
	DB	08aH
	DB	04aH
	DB	08aH
	DB	04aH
	DB	0abH
	DB	04aH
	DB	08aH
	DB	04aH
	DB	08bH
	DB	04aH
	DB	08aH
	DB	04aH
	DB	08aH
	DB	04aH
	DB	0aaH
	DB	04aH
	DB	08aH
	DB	04aH
	DB	08aH
	DB	04aH
	DB	08aH
	DB	04aH
	DB	08aH
	DB	04aH
	DB	0abH
	DB	04aH
	DB	08aH
	DB	04aH
	DB	08aH
	DB	04aH
	DB	08aH
	DB	04aH
	DB	0abH
	DB	04aH
	DB	08aH
	DB	04aH
	DB	08aH
	DB	04aH
	DB	0abH
	DB	04aH
	DB	08bH
	DB	04aH
	DB	0ecH
	DB	052H
	DB	049H
	DB	042H
	DB	029H
	DB	042H
	DB	029H
	DB	03aH
	DB	049H
	DB	042H
	DB	0ecH
	DB	052H
	DB	0abH
	DB	04aH
	DB	08aH
	DB	04aH
	DB	08aH
	DB	04aH
	DB	08bH
	DB	04aH
	DB	08aH
	DB	04aH
	DB	08aH
	DB	04aH
	DB	08aH
	DB	04aH
	DB	08aH
	DB	04aH
	DB	08bH
	DB	04aH
	DB	08aH
	DB	04aH
	DB	08aH
	DB	04aH
	DB	08aH
	DB	04aH
	DB	08bH
	DB	04aH
	DB	08aH
	DB	04aH
	DB	08aH
	DB	04aH
	DB	08aH
	DB	04aH
	DB	0aaH
	DB	04aH
	DB	08aH
	DB	04aH
	DB	0aaH
	DB	04aH
	DB	08bH
	DB	04aH
	DB	08aH
	DB	04aH
	DB	08aH
	DB	04aH
	DB	08aH
	DB	04aH
	DB	08aH
	DB	04aH
	DB	08aH
	DB	04aH
	DB	08bH
	DB	04aH
	DB	08aH
	DB	04aH
	DB	08bH
	DB	04aH
	DB	08bH
	DB	04aH
	DB	0aaH
	DB	04aH
	DB	08aH
	DB	04aH
	DB	08bH
	DB	04aH
	DB	0aaH
	DB	04aH
	DB	08aH
	DB	04aH
	DB	08bH
	DB	04aH
	DB	0aaH
	DB	04aH
	DB	08aH
	DB	04aH
	DB	08bH
	DB	04aH
	DB	0aaH
	DB	04aH
	DB	08aH
	DB	04aH
	DB	08aH
	DB	04aH
	DB	08aH
	DB	04aH
	DB	08aH
	DB	04aH
	DB	08bH
	DB	04aH
	DB	08aH
	DB	04aH
	DB	08aH
	DB	04aH
	DB	08aH
	DB	04aH
	DB	08aH
	DB	04aH
	DB	08aH
	DB	04aH
	DB	08bH
	DB	04aH
	DB	0aaH
	DB	04aH
	DB	08bH
	DB	04aH
	DB	08aH
	DB	04aH
	DB	08aH
	DB	04aH
	DB	08aH
	DB	04aH
	DB	08bH
	DB	04aH
	DB	0ecH
	DB	052H
	DB	0e8H
	DB	039H
	DB	0e8H
	DB	039H
	DB	0c8H
	DB	031H
	DB	0cbH
	DB	052H
	DB	08bH
	DB	04aH
	DB	0c7H
	DB	031H
	DB	0c7H
	DB	031H
	DB	0c7H
	DB	031H
	DB	0ecH
	DB	052H
	DB	08aH
	DB	04aH
	DB	08aH
	DB	04aH
	DB	08bH
	DB	04aH
	DB	0aaH
	DB	04aH
	DB	0abH
	DB	04aH
	DB	08aH
	DB	04aH
	DB	08aH
	DB	04aH
	DB	0aaH
	DB	04aH
	DB	08aH
	DB	04aH
	DB	08bH
	DB	04aH
	DB	0abH
	DB	04aH
	DB	08aH
	DB	04aH
	DB	08aH
	DB	04aH
	DB	08bH
	DB	04aH
	DB	08aH
	DB	04aH
	DB	08aH
	DB	04aH
	DB	08bH
	DB	04aH
	DB	08aH
	DB	04aH
	DB	0abH
	DB	04aH
	DB	0abH
	DB	04aH
	DB	08aH
	DB	04aH
	DB	0abH
	DB	04aH
	DB	08bH
	DB	04aH
	DB	08aH
	DB	04aH
	DB	08aH
	DB	04aH
	DB	08aH
	DB	04aH
	DB	0abH
	DB	04aH
	DB	08aH
	DB	04aH
	DB	08bH
	DB	04aH
	DB	08aH
	DB	04aH
	DB	08aH
	DB	04aH
	DB	08aH
	DB	04aH
	DB	08bH
	DB	04aH
	DB	08bH
	DB	04aH
	DB	08aH
	DB	04aH
	DB	08aH
	DB	04aH
	DB	08bH
	DB	04aH
	DB	08bH
	DB	04aH
	DB	08aH
	DB	04aH
	DB	08aH
	DB	04aH
	DB	08aH
	DB	04aH
	DB	0abH
	DB	04aH
	DB	08aH
	DB	04aH
	DB	0abH
	DB	04aH
	DB	08bH
	DB	04aH
	DB	08aH
	DB	04aH
	DB	08bH
	DB	04aH
	DB	0aaH
	DB	04aH
	DB	08aH
	DB	04aH
	DB	08bH
	DB	04aH
	DB	0abH
	DB	04aH
	DB	08aH
	DB	04aH
	DB	08aH
	DB	04aH
	DB	08bH
	DB	04aH
	DB	08aH
	DB	04aH
	DB	0aaH
	DB	04aH
	DB	08aH
	DB	04aH
	DB	08aH
	DB	04aH
	DB	0abH
	DB	04aH
	DB	0ccH
	DB	052H
	DB	029H
	DB	042H
	DB	029H
	DB	03aH
	DB	0ccH
	DB	052H
	DB	0aaH
	DB	04aH
	DB	08aH
	DB	04aH
	DB	0abH
	DB	04aH
	DB	0abH
	DB	04aH
	DB	08aH
	DB	04aH
	DB	0abH
	DB	04aH
	DB	0abH
	DB	04aH
	DB	08aH
	DB	04aH
	DB	0abH
	DB	04aH
	DB	08aH
	DB	04aH
	DB	08aH
	DB	04aH
	DB	0abH
	DB	04aH
	DB	08bH
	DB	04aH
	DB	08aH
	DB	04aH
	DB	0abH
	DB	04aH
	DB	08aH
	DB	04aH
	DB	0abH
	DB	04aH
	DB	08bH
	DB	04aH
	DB	08aH
	DB	04aH
	DB	08aH
	DB	04aH
	DB	08aH
	DB	04aH
	DB	0abH
	DB	04aH
	DB	0abH
	DB	04aH
	DB	08aH
	DB	04aH
	DB	0abH
	DB	04aH
	DB	08aH
	DB	04aH
	DB	0aaH
	DB	04aH
	DB	08bH
	DB	04aH
	DB	0aaH
	DB	04aH
	DB	08aH
	DB	04aH
	DB	08aH
	DB	04aH
	DB	0abH
	DB	04aH
	DB	08aH
	DB	04aH
	DB	08aH
	DB	04aH
	DB	08bH
	DB	04aH
	DB	0aaH
	DB	04aH
	DB	08aH
	DB	04aH
	DB	08bH
	DB	04aH
	DB	08aH
	DB	04aH
	DB	0abH
	DB	04aH
	DB	0aaH
	DB	04aH
	DB	08aH
	DB	04aH
	DB	0abH
	DB	04aH
	DB	08aH
	DB	04aH
	DB	0abH
	DB	04aH
	DB	0abH
	DB	04aH
	DB	08aH
	DB	04aH
	DB	08bH
	DB	04aH
	DB	08aH
	DB	04aH
	DB	08aH
	DB	04aH
	DB	08bH
	DB	04aH
	DB	0aaH
	DB	04aH
	DB	08bH
	DB	04aH
	DB	08aH
	DB	04aH
	DB	08aH
	DB	04aH
	DB	08aH
	DB	04aH
	DB	08bH
	DB	04aH
	DB	0ecH
	DB	05aH
	DB	0c7H
	DB	031H
	DB	0e8H
	DB	031H
	DB	08H
	DB	03aH
	DB	0abH
	DB	04aH
	DB	08aH
	DB	04aH
	DB	0c8H
	DB	031H
	DB	0c7H
	DB	031H
	DB	0c7H
	DB	031H
	DB	0ecH
	DB	052H
	DB	08bH
	DB	04aH
	DB	08bH
	DB	04aH
	DB	08aH
	DB	04aH
	DB	08bH
	DB	04aH
	DB	08aH
	DB	04aH
	DB	08bH
	DB	04aH
	DB	08bH
	DB	04aH
	DB	08aH
	DB	04aH
	DB	08bH
	DB	04aH
	DB	08bH
	DB	04aH
	DB	08aH
	DB	04aH
	DB	08bH
	DB	04aH
	DB	08aH
	DB	04aH
	DB	08aH
	DB	04aH
	DB	08bH
	DB	04aH
	DB	08aH
	DB	04aH
	DB	08bH
	DB	04aH
	DB	08bH
	DB	04aH
	DB	08aH
	DB	04aH
	DB	08aH
	DB	04aH
	DB	08bH
	DB	04aH
	DB	08aH
	DB	04aH
	DB	08aH
	DB	04aH
	DB	08bH
	DB	04aH
	DB	08bH
	DB	04aH
	DB	08aH
	DB	04aH
	DB	08bH
	DB	04aH
	DB	08bH
	DB	04aH
	DB	08aH
	DB	04aH
	DB	08bH
	DB	04aH
	DB	08aH
	DB	04aH
	DB	08bH
	DB	04aH
	DB	0abH
	DB	04aH
	DB	08aH
	DB	04aH
	DB	08bH
	DB	04aH
	DB	08bH
	DB	04aH
	DB	08aH
	DB	04aH
	DB	08bH
	DB	04aH
	DB	08bH
	DB	04aH
	DB	08aH
	DB	04aH
	DB	08bH
	DB	04aH
	DB	08bH
	DB	04aH
	DB	08aH
	DB	04aH
	DB	08bH
	DB	04aH
	DB	08aH
	DB	04aH
	DB	08bH
	DB	04aH
	DB	08aH
	DB	04aH
	DB	08bH
	DB	04aH
	DB	08bH
	DB	04aH
	DB	08aH
	DB	04aH
	DB	08bH
	DB	04aH
	DB	08bH
	DB	04aH
	DB	08aH
	DB	04aH
	DB	08aH
	DB	04aH
	DB	08bH
	DB	04aH
	DB	08bH
	DB	04aH
	DB	08aH
	DB	04aH
	DB	08bH
	DB	04aH
	DB	08aH
	DB	04aH
	DB	0abH
	DB	04aH
	DB	0abH
	DB	052H
	DB	0abH
	DB	04aH
	DB	0abH
	DB	052H
	DB	08aH
	DB	04aH
	DB	08bH
	DB	04aH
	DB	08aH
	DB	04aH
	DB	08aH
	DB	04aH
	DB	08aH
	DB	04aH
	DB	08aH
	DB	04aH
	DB	08bH
	DB	04aH
	DB	08bH
	DB	04aH
	DB	08aH
	DB	04aH
	DB	08aH
	DB	04aH
	DB	08bH
	DB	04aH
	DB	08aH
	DB	04aH
	DB	08aH
	DB	04aH
	DB	08bH
	DB	04aH
	DB	08aH
	DB	04aH
	DB	08bH
	DB	04aH
	DB	08bH
	DB	04aH
	DB	08aH
	DB	04aH
	DB	08bH
	DB	04aH
	DB	08bH
	DB	04aH
	DB	08bH
	DB	04aH
	DB	08aH
	DB	04aH
	DB	08bH
	DB	04aH
	DB	08bH
	DB	04aH
	DB	08aH
	DB	04aH
	DB	08bH
	DB	04aH
	DB	08aH
	DB	04aH
	DB	08bH
	DB	04aH
	DB	08aH
	DB	04aH
	DB	08bH
	DB	04aH
	DB	08bH
	DB	04aH
	DB	08aH
	DB	04aH
	DB	08bH
	DB	04aH
	DB	08bH
	DB	04aH
	DB	08aH
	DB	04aH
	DB	08bH
	DB	04aH
	DB	08aH
	DB	04aH
	DB	08bH
	DB	04aH
	DB	08aH
	DB	04aH
	DB	08bH
	DB	04aH
	DB	08bH
	DB	04aH
	DB	08bH
	DB	04aH
	DB	08bH
	DB	04aH
	DB	08aH
	DB	04aH
	DB	08aH
	DB	04aH
	DB	08aH
	DB	04aH
	DB	08bH
	DB	04aH
	DB	08aH
	DB	04aH
	DB	08bH
	DB	04aH
	DB	08bH
	DB	04aH
	DB	08aH
	DB	04aH
	DB	08bH
	DB	04aH
	DB	08aH
	DB	04aH
	DB	08bH
	DB	04aH
	DB	0abH
	DB	04aH
	DB	08aH
	DB	04aH
	DB	08aH
	DB	04aH
	DB	0ecH
	DB	052H
	DB	0e8H
	DB	031H
	DB	0c7H
	DB	031H
	DB	0e8H
	DB	039H
	DB	0cbH
	DB	052H
	DB	06aH
	DB	042H
	DB	0a7H
	DB	031H
	DB	0c7H
	DB	031H
	DB	0c8H
	DB	031H
	DB	0ecH
	DB	052H
	DB	08aH
	DB	04aH
	DB	08aH
	DB	04aH
	DB	08aH
	DB	04aH
	DB	08aH
	DB	04aH
	DB	08aH
	DB	04aH
	DB	08aH
	DB	04aH
	DB	08aH
	DB	04aH
	DB	08bH
	DB	04aH
	DB	08aH
	DB	04aH
	DB	08aH
	DB	04aH
	DB	08aH
	DB	04aH
	DB	08bH
	DB	04aH
	DB	08aH
	DB	04aH
	DB	08aH
	DB	04aH
	DB	08aH
	DB	04aH
	DB	08bH
	DB	04aH
	DB	08aH
	DB	04aH
	DB	08aH
	DB	04aH
	DB	08aH
	DB	04aH
	DB	08aH
	DB	04aH
	DB	08bH
	DB	04aH
	DB	08aH
	DB	04aH
	DB	08aH
	DB	04aH
	DB	08bH
	DB	04aH
	DB	08aH
	DB	04aH
	DB	08aH
	DB	04aH
	DB	08aH
	DB	04aH
	DB	08aH
	DB	04aH
	DB	08aH
	DB	04aH
	DB	08aH
	DB	04aH
	DB	08aH
	DB	04aH
	DB	08aH
	DB	04aH
	DB	08aH
	DB	04aH
	DB	08aH
	DB	04aH
	DB	08aH
	DB	04aH
	DB	08aH
	DB	04aH
	DB	08aH
	DB	04aH
	DB	08aH
	DB	04aH
	DB	08aH
	DB	04aH
	DB	08aH
	DB	04aH
	DB	08aH
	DB	04aH
	DB	08aH
	DB	04aH
	DB	08aH
	DB	04aH
	DB	08aH
	DB	04aH
	DB	08aH
	DB	04aH
	DB	08aH
	DB	04aH
	DB	08aH
	DB	04aH
	DB	08aH
	DB	04aH
	DB	08aH
	DB	04aH
	DB	08aH
	DB	04aH
	DB	08aH
	DB	04aH
	DB	08aH
	DB	04aH
	DB	08aH
	DB	04aH
	DB	08aH
	DB	04aH
	DB	08bH
	DB	04aH
	DB	08aH
	DB	04aH
	DB	08aH
	DB	04aH
	DB	08aH
	DB	04aH
	DB	08aH
	DB	04aH
	DB	08aH
	DB	04aH
	DB	0abH
	DB	052H
	DB	0cbH
	DB	052H
	DB	08aH
	DB	04aH
	DB	08aH
	DB	04aH
	DB	08bH
	DB	04aH
	DB	08aH
	DB	04aH
	DB	08aH
	DB	04aH
	DB	08bH
	DB	04aH
	DB	08aH
	DB	04aH
	DB	08aH
	DB	04aH
	DB	08aH
	DB	04aH
	DB	08aH
	DB	04aH
	DB	08bH
	DB	04aH
	DB	08aH
	DB	04aH
	DB	08aH
	DB	04aH
	DB	08aH
	DB	04aH
	DB	08aH
	DB	04aH
	DB	08aH
	DB	04aH
	DB	08aH
	DB	04aH
	DB	08aH
	DB	04aH
	DB	08aH
	DB	04aH
	DB	08aH
	DB	04aH
	DB	08aH
	DB	04aH
	DB	08aH
	DB	04aH
	DB	08aH
	DB	04aH
	DB	08aH
	DB	04aH
	DB	08aH
	DB	04aH
	DB	08aH
	DB	04aH
	DB	08aH
	DB	04aH
	DB	08bH
	DB	04aH
	DB	08aH
	DB	04aH
	DB	08aH
	DB	04aH
	DB	08aH
	DB	04aH
	DB	08aH
	DB	04aH
	DB	08aH
	DB	04aH
	DB	08aH
	DB	04aH
	DB	08aH
	DB	04aH
	DB	08aH
	DB	04aH
	DB	08bH
	DB	04aH
	DB	08aH
	DB	04aH
	DB	08aH
	DB	04aH
	DB	08aH
	DB	04aH
	DB	08aH
	DB	04aH
	DB	08aH
	DB	04aH
	DB	08aH
	DB	04aH
	DB	08aH
	DB	04aH
	DB	08aH
	DB	04aH
	DB	08bH
	DB	04aH
	DB	08aH
	DB	04aH
	DB	08aH
	DB	04aH
	DB	08aH
	DB	04aH
	DB	08aH
	DB	04aH
	DB	08aH
	DB	04aH
	DB	08aH
	DB	04aH
	DB	08aH
	DB	04aH
	DB	08aH
	DB	04aH
	DB	08aH
	DB	04aH
	DB	08aH
	DB	04aH
	DB	08aH
	DB	04aH
	DB	08aH
	DB	04aH
	DB	0ccH
	DB	052H
	DB	08H
	DB	03aH
	DB	0e8H
	DB	031H
	DB	0c7H
	DB	031H
	DB	0abH
	DB	04aH
	DB	06aH
	DB	042H
	DB	087H
	DB	029H
	DB	0c7H
	DB	031H
	DB	0e8H
	DB	039H
	DB	0cbH
	DB	052H
	DB	08aH
	DB	04aH
	DB	08aH
	DB	04aH
	DB	08aH
	DB	04aH
	DB	08aH
	DB	042H
	DB	08bH
	DB	04aH
	DB	08aH
	DB	04aH
	DB	08aH
	DB	04aH
	DB	08aH
	DB	04aH
	DB	08aH
	DB	04aH
	DB	08aH
	DB	04aH
	DB	08aH
	DB	04aH
	DB	08aH
	DB	04aH
	DB	08aH
	DB	04aH
	DB	08aH
	DB	04aH
	DB	08aH
	DB	04aH
	DB	08aH
	DB	04aH
	DB	08aH
	DB	04aH
	DB	08aH
	DB	04aH
	DB	08aH
	DB	04aH
	DB	08aH
	DB	04aH
	DB	08aH
	DB	04aH
	DB	08aH
	DB	04aH
	DB	08aH
	DB	04aH
	DB	08aH
	DB	04aH
	DB	08aH
	DB	04aH
	DB	08aH
	DB	04aH
	DB	08aH
	DB	04aH
	DB	08aH
	DB	04aH
	DB	08bH
	DB	04aH
	DB	08aH
	DB	04aH
	DB	08aH
	DB	04aH
	DB	08aH
	DB	04aH
	DB	08aH
	DB	04aH
	DB	08aH
	DB	04aH
	DB	08aH
	DB	04aH
	DB	08aH
	DB	04aH
	DB	08aH
	DB	04aH
	DB	08aH
	DB	04aH
	DB	08aH
	DB	04aH
	DB	08aH
	DB	04aH
	DB	08bH
	DB	04aH
	DB	08aH
	DB	04aH
	DB	08aH
	DB	04aH
	DB	08aH
	DB	04aH
	DB	08aH
	DB	04aH
	DB	08aH
	DB	04aH
	DB	08aH
	DB	04aH
	DB	08aH
	DB	04aH
	DB	08aH
	DB	04aH
	DB	08aH
	DB	04aH
	DB	08aH
	DB	04aH
	DB	08aH
	DB	04aH
	DB	08aH
	DB	04aH
	DB	08aH
	DB	04aH
	DB	08aH
	DB	042H
	DB	08aH
	DB	04aH
	DB	08aH
	DB	04aH
	DB	08bH
	DB	04aH
	DB	08aH
	DB	04aH
	DB	08aH
	DB	04aH
	DB	08aH
	DB	04aH
	DB	08aH
	DB	04aH
	DB	06aH
	DB	042H
	DB	08aH
	DB	04aH
	DB	08aH
	DB	04aH
	DB	06aH
	DB	04aH
	DB	08aH
	DB	042H
	DB	08aH
	DB	04aH
	DB	06aH
	DB	04aH
	DB	08aH
	DB	04aH
	DB	08aH
	DB	042H
	DB	08aH
	DB	04aH
	DB	08aH
	DB	04aH
	DB	08aH
	DB	04aH
	DB	08aH
	DB	04aH
	DB	08bH
	DB	04aH
	DB	08aH
	DB	04aH
	DB	08aH
	DB	04aH
	DB	08aH
	DB	04aH
	DB	08aH
	DB	04aH
	DB	08aH
	DB	04aH
	DB	08aH
	DB	04aH
	DB	08aH
	DB	04aH
	DB	08aH
	DB	04aH
	DB	08aH
	DB	04aH
	DB	08aH
	DB	04aH
	DB	08aH
	DB	04aH
	DB	08aH
	DB	04aH
	DB	08aH
	DB	04aH
	DB	08aH
	DB	04aH
	DB	08aH
	DB	04aH
	DB	08aH
	DB	04aH
	DB	08aH
	DB	04aH
	DB	08aH
	DB	04aH
	DB	08aH
	DB	04aH
	DB	06aH
	DB	04aH
	DB	08aH
	DB	04aH
	DB	08aH
	DB	04aH
	DB	08aH
	DB	04aH
	DB	08aH
	DB	04aH
	DB	08aH
	DB	04aH
	DB	08aH
	DB	04aH
	DB	08aH
	DB	04aH
	DB	08aH
	DB	04aH
	DB	08aH
	DB	04aH
	DB	08aH
	DB	042H
	DB	08aH
	DB	04aH
	DB	08aH
	DB	04aH
	DB	08aH
	DB	04aH
	DB	08aH
	DB	04aH
	DB	08aH
	DB	04aH
	DB	08aH
	DB	04aH
	DB	08aH
	DB	04aH
	DB	08aH
	DB	04aH
	DB	08aH
	DB	04aH
	DB	08aH
	DB	04aH
	DB	08aH
	DB	04aH
	DB	08aH
	DB	04aH
	DB	08bH
	DB	04aH
	DB	08aH
	DB	04aH
	DB	0cbH
	DB	052H
	DB	0e8H
	DB	039H
	DB	0e8H
	DB	039H
	DB	0c8H
	DB	031H
	DB	08aH
	DB	04aH
	DB	06aH
	DB	042H
	DB	0c7H
	DB	031H
	DB	0c7H
	DB	031H
	DB	0c7H
	DB	031H
	DB	0cbH
	DB	052H
	DB	08aH
	DB	04aH
	DB	06aH
	DB	042H
	DB	06aH
	DB	04aH
	DB	06aH
	DB	04aH
	DB	06aH
	DB	04aH
	DB	06aH
	DB	04aH
	DB	06aH
	DB	042H
	DB	06aH
	DB	04aH
	DB	06aH
	DB	04aH
	DB	06aH
	DB	042H
	DB	06aH
	DB	04aH
	DB	06aH
	DB	04aH
	DB	06aH
	DB	042H
	DB	06aH
	DB	04aH
	DB	06aH
	DB	042H
	DB	06bH
	DB	04aH
	DB	06aH
	DB	04aH
	DB	06aH
	DB	042H
	DB	06bH
	DB	04aH
	DB	06aH
	DB	04aH
	DB	06aH
	DB	042H
	DB	06aH
	DB	04aH
	DB	06aH
	DB	04aH
	DB	06aH
	DB	04aH
	DB	06aH
	DB	04aH
	DB	06bH
	DB	04aH
	DB	06aH
	DB	042H
	DB	06aH
	DB	04aH
	DB	06aH
	DB	04aH
	DB	06aH
	DB	042H
	DB	06aH
	DB	04aH
	DB	06bH
	DB	04aH
	DB	06bH
	DB	042H
	DB	06aH
	DB	04aH
	DB	08bH
	DB	04aH
	DB	06aH
	DB	042H
	DB	06aH
	DB	042H
	DB	06aH
	DB	04aH
	DB	06aH
	DB	04aH
	DB	06aH
	DB	04aH
	DB	06bH
	DB	04aH
	DB	06aH
	DB	04aH
	DB	06aH
	DB	042H
	DB	06bH
	DB	04aH
	DB	06aH
	DB	042H
	DB	06aH
	DB	04aH
	DB	06bH
	DB	04aH
	DB	06aH
	DB	04aH
	DB	06bH
	DB	04aH
	DB	06aH
	DB	04aH
	DB	06bH
	DB	042H
	DB	06bH
	DB	04aH
	DB	06aH
	DB	04aH
	DB	06aH
	DB	04aH
	DB	06aH
	DB	042H
	DB	06bH
	DB	04aH
	DB	06aH
	DB	04aH
	DB	06aH
	DB	042H
	DB	06bH
	DB	04aH
	DB	06aH
	DB	042H
	DB	06aH
	DB	042H
	DB	06aH
	DB	04aH
	DB	06aH
	DB	04aH
	DB	06aH
	DB	042H
	DB	06aH
	DB	04aH
	DB	06aH
	DB	04aH
	DB	06aH
	DB	04aH
	DB	06aH
	DB	04aH
	DB	06aH
	DB	04aH
	DB	06aH
	DB	04aH
	DB	06aH
	DB	04aH
	DB	06aH
	DB	042H
	DB	06aH
	DB	042H
	DB	06aH
	DB	04aH
	DB	06bH
	DB	04aH
	DB	06aH
	DB	042H
	DB	06aH
	DB	04aH
	DB	06aH
	DB	042H
	DB	06bH
	DB	04aH
	DB	06aH
	DB	04aH
	DB	06bH
	DB	042H
	DB	06aH
	DB	04aH
	DB	06aH
	DB	042H
	DB	06aH
	DB	04aH
	DB	06aH
	DB	04aH
	DB	06aH
	DB	04aH
	DB	06bH
	DB	04aH
	DB	06aH
	DB	04aH
	DB	06aH
	DB	04aH
	DB	06bH
	DB	04aH
	DB	06aH
	DB	04aH
	DB	06aH
	DB	042H
	DB	06bH
	DB	04aH
	DB	06aH
	DB	042H
	DB	06bH
	DB	04aH
	DB	06aH
	DB	04aH
	DB	06aH
	DB	042H
	DB	06aH
	DB	04aH
	DB	06aH
	DB	04aH
	DB	06aH
	DB	042H
	DB	06aH
	DB	04aH
	DB	06aH
	DB	04aH
	DB	06bH
	DB	042H
	DB	06aH
	DB	04aH
	DB	06aH
	DB	04aH
	DB	06aH
	DB	04aH
	DB	06bH
	DB	04aH
	DB	06aH
	DB	042H
	DB	06aH
	DB	04aH
	DB	06aH
	DB	04aH
	DB	06bH
	DB	042H
	DB	06aH
	DB	04aH
	DB	06aH
	DB	042H
	DB	06bH
	DB	04aH
	DB	06bH
	DB	04aH
	DB	06aH
	DB	042H
	DB	06aH
	DB	04aH
	DB	06aH
	DB	042H
	DB	06aH
	DB	04aH
	DB	08aH
	DB	04aH
	DB	0ccH
	DB	052H
	DB	0e8H
	DB	039H
	DB	0e8H
	DB	031H
	DB	0c8H
	DB	031H
	DB	0cbH
	DB	052H
	DB	08aH
	DB	04aH
	DB	0c7H
	DB	031H
	DB	0a7H
	DB	031H
	DB	0a7H
	DB	029H
	DB	0ccH
	DB	052H
	DB	08aH
	DB	04aH
	DB	08aH
	DB	042H
	DB	06bH
	DB	042H
	DB	08aH
	DB	042H
	DB	06aH
	DB	042H
	DB	08bH
	DB	04aH
	DB	08aH
	DB	042H
	DB	06aH
	DB	042H
	DB	08bH
	DB	04aH
	DB	08aH
	DB	042H
	DB	06bH
	DB	042H
	DB	08aH
	DB	042H
	DB	08aH
	DB	042H
	DB	06aH
	DB	042H
	DB	08aH
	DB	04aH
	DB	06aH
	DB	042H
	DB	08aH
	DB	042H
	DB	08aH
	DB	042H
	DB	06aH
	DB	042H
	DB	08aH
	DB	04aH
	DB	08aH
	DB	042H
	DB	06aH
	DB	042H
	DB	08bH
	DB	042H
	DB	08aH
	DB	042H
	DB	08aH
	DB	042H
	DB	08aH
	DB	042H
	DB	06bH
	DB	04aH
	DB	08aH
	DB	042H
	DB	06aH
	DB	042H
	DB	08aH
	DB	042H
	DB	08aH
	DB	04aH
	DB	08aH
	DB	042H
	DB	06aH
	DB	042H
	DB	08aH
	DB	04aH
	DB	06aH
	DB	042H
	DB	08bH
	DB	04aH
	DB	06aH
	DB	042H
	DB	08aH
	DB	04aH
	DB	08aH
	DB	042H
	DB	08aH
	DB	042H
	DB	06aH
	DB	042H
	DB	06aH
	DB	042H
	DB	08aH
	DB	04aH
	DB	08aH
	DB	04aH
	DB	06aH
	DB	042H
	DB	06aH
	DB	042H
	DB	08aH
	DB	042H
	DB	08aH
	DB	042H
	DB	06aH
	DB	04aH
	DB	08aH
	DB	042H
	DB	08aH
	DB	042H
	DB	06aH
	DB	042H
	DB	06aH
	DB	042H
	DB	08bH
	DB	04aH
	DB	08aH
	DB	04aH
	DB	06aH
	DB	042H
	DB	08aH
	DB	042H
	DB	08aH
	DB	04aH
	DB	06aH
	DB	04aH
	DB	08aH
	DB	042H
	DB	08bH
	DB	04aH
	DB	06aH
	DB	04aH
	DB	08bH
	DB	042H
	DB	06aH
	DB	042H
	DB	08aH
	DB	04aH
	DB	08bH
	DB	042H
	DB	08aH
	DB	042H
	DB	08bH
	DB	042H
	DB	08aH
	DB	042H
	DB	06aH
	DB	042H
	DB	08bH
	DB	04aH
	DB	08bH
	DB	04aH
	DB	06aH
	DB	042H
	DB	08aH
	DB	042H
	DB	08aH
	DB	042H
	DB	06aH
	DB	04aH
	DB	08aH
	DB	042H
	DB	08aH
	DB	04aH
	DB	06aH
	DB	042H
	DB	08aH
	DB	042H
	DB	08aH
	DB	04aH
	DB	08aH
	DB	042H
	DB	08aH
	DB	04aH
	DB	06bH
	DB	042H
	DB	08bH
	DB	042H
	DB	08aH
	DB	042H
	DB	08aH
	DB	042H
	DB	06aH
	DB	042H
	DB	08aH
	DB	042H
	DB	08aH
	DB	042H
	DB	08aH
	DB	042H
	DB	06aH
	DB	042H
	DB	08aH
	DB	04aH
	DB	08aH
	DB	042H
	DB	08aH
	DB	042H
	DB	06aH
	DB	042H
	DB	06aH
	DB	042H
	DB	06bH
	DB	042H
	DB	08aH
	DB	042H
	DB	08aH
	DB	042H
	DB	06aH
	DB	042H
	DB	08aH
	DB	042H
	DB	08bH
	DB	04aH
	DB	06aH
	DB	042H
	DB	08aH
	DB	042H
	DB	06aH
	DB	042H
	DB	08bH
	DB	04aH
	DB	06aH
	DB	042H
	DB	06aH
	DB	042H
	DB	08aH
	DB	04aH
	DB	06aH
	DB	042H
	DB	08aH
	DB	042H
	DB	08aH
	DB	04aH
	DB	06aH
	DB	042H
	DB	06aH
	DB	042H
	DB	08bH
	DB	04aH
	DB	06aH
	DB	042H
	DB	06aH
	DB	042H
	DB	08aH
	DB	042H
	DB	08aH
	DB	042H
	DB	0ccH
	DB	052H
	DB	0c7H
	DB	031H
	DB	0e7H
	DB	031H
	DB	08H
	DB	03aH
	DB	0cbH
	DB	052H
	DB	08bH
	DB	04aH
	DB	0c7H
	DB	031H
	DB	0a7H
	DB	031H
	DB	0a7H
	DB	031H
	DB	0ccH
	DB	052H
	DB	08aH
	DB	042H
	DB	06aH
	DB	04aH
	DB	08aH
	DB	04aH
	DB	08aH
	DB	04aH
	DB	06aH
	DB	04aH
	DB	08aH
	DB	04aH
	DB	06aH
	DB	042H
	DB	06aH
	DB	04aH
	DB	08aH
	DB	04aH
	DB	08aH
	DB	04aH
	DB	06aH
	DB	04aH
	DB	08aH
	DB	04aH
	DB	08aH
	DB	04aH
	DB	06aH
	DB	04aH
	DB	08aH
	DB	04aH
	DB	08aH
	DB	042H
	DB	06aH
	DB	04aH
	DB	08aH
	DB	04aH
	DB	06aH
	DB	04aH
	DB	08aH
	DB	04aH
	DB	08aH
	DB	04aH
	DB	06aH
	DB	042H
	DB	06aH
	DB	04aH
	DB	06aH
	DB	04aH
	DB	08aH
	DB	042H
	DB	06aH
	DB	04aH
	DB	06aH
	DB	04aH
	DB	08aH
	DB	042H
	DB	08aH
	DB	04aH
	DB	06aH
	DB	04aH
	DB	08aH
	DB	04aH
	DB	06aH
	DB	042H
	DB	06aH
	DB	04aH
	DB	08aH
	DB	042H
	DB	08aH
	DB	04aH
	DB	06aH
	DB	042H
	DB	08aH
	DB	04aH
	DB	06aH
	DB	04aH
	DB	06aH
	DB	042H
	DB	08aH
	DB	04aH
	DB	08aH
	DB	04aH
	DB	08aH
	DB	042H
	DB	08aH
	DB	04aH
	DB	06aH
	DB	042H
	DB	08aH
	DB	04aH
	DB	08aH
	DB	04aH
	DB	06aH
	DB	042H
	DB	08aH
	DB	04aH
	DB	06aH
	DB	04aH
	DB	08aH
	DB	04aH
	DB	08aH
	DB	04aH
	DB	06aH
	DB	04aH
	DB	08aH
	DB	042H
	DB	08aH
	DB	042H
	DB	06aH
	DB	04aH
	DB	06aH
	DB	042H
	DB	08aH
	DB	04aH
	DB	08aH
	DB	04aH
	DB	06aH
	DB	042H
	DB	08aH
	DB	04aH
	DB	08aH
	DB	04aH
	DB	06aH
	DB	042H
	DB	08aH
	DB	042H
	DB	08aH
	DB	04aH
	DB	06aH
	DB	04aH
	DB	08aH
	DB	042H
	DB	06aH
	DB	04aH
	DB	06aH
	DB	04aH
	DB	08aH
	DB	04aH
	DB	08aH
	DB	042H
	DB	06aH
	DB	042H
	DB	08aH
	DB	04aH
	DB	06aH
	DB	04aH
	DB	08aH
	DB	042H
	DB	06aH
	DB	04aH
	DB	08aH
	DB	04aH
	DB	08aH
	DB	042H
	DB	06aH
	DB	04aH
	DB	08aH
	DB	04aH
	DB	06aH
	DB	042H
	DB	06aH
	DB	04aH
	DB	06aH
	DB	04aH
	DB	06aH
	DB	042H
	DB	08aH
	DB	04aH
	DB	06aH
	DB	04aH
	DB	08aH
	DB	04aH
	DB	06aH
	DB	042H
	DB	06aH
	DB	04aH
	DB	08aH
	DB	04aH
	DB	06aH
	DB	042H
	DB	06aH
	DB	04aH
	DB	06aH
	DB	04aH
	DB	06aH
	DB	042H
	DB	06aH
	DB	04aH
	DB	08aH
	DB	04aH
	DB	08aH
	DB	04aH
	DB	08aH
	DB	04aH
	DB	08aH
	DB	04aH
	DB	08aH
	DB	04aH
	DB	06aH
	DB	04aH
	DB	08aH
	DB	04aH
	DB	08aH
	DB	042H
	DB	06aH
	DB	04aH
	DB	08aH
	DB	04aH
	DB	08aH
	DB	042H
	DB	06aH
	DB	04aH
	DB	08aH
	DB	042H
	DB	08aH
	DB	04aH
	DB	08aH
	DB	042H
	DB	06aH
	DB	04aH
	DB	08aH
	DB	04aH
	DB	06aH
	DB	04aH
	DB	06aH
	DB	042H
	DB	08aH
	DB	042H
	DB	08aH
	DB	04aH
	DB	06aH
	DB	04aH
	DB	08aH
	DB	04aH
	DB	08aH
	DB	04aH
	DB	06aH
	DB	04aH
	DB	08aH
	DB	042H
	DB	0ccH
	DB	052H
	DB	0c8H
	DB	031H
	DB	0c7H
	DB	031H
	DB	0e8H
	DB	039H
	DB	0abH
	DB	052H
	DB	06aH
	DB	042H
	DB	0a7H
	DB	031H
	DB	0a7H
	DB	029H
	DB	0c7H
	DB	031H
	DB	0cbH
	DB	052H
	DB	08aH
	DB	042H
	DB	06aH
	DB	042H
	DB	06aH
	DB	04aH
	DB	06aH
	DB	042H
	DB	06aH
	DB	042H
	DB	06aH
	DB	04aH
	DB	06aH
	DB	042H
	DB	06aH
	DB	04aH
	DB	06aH
	DB	042H
	DB	06aH
	DB	04aH
	DB	06aH
	DB	04aH
	DB	06aH
	DB	042H
	DB	06aH
	DB	042H
	DB	06bH
	DB	04aH
	DB	06aH
	DB	04aH
	DB	06aH
	DB	04aH
	DB	06aH
	DB	042H
	DB	06aH
	DB	04aH
	DB	06aH
	DB	042H
	DB	06aH
	DB	04aH
	DB	06aH
	DB	042H
	DB	06aH
	DB	04aH
	DB	06aH
	DB	04aH
	DB	06aH
	DB	04aH
	DB	06aH
	DB	042H
	DB	06aH
	DB	04aH
	DB	06aH
	DB	04aH
	DB	06aH
	DB	042H
	DB	06aH
	DB	04aH
	DB	06aH
	DB	042H
	DB	06aH
	DB	04aH
	DB	06aH
	DB	04aH
	DB	06aH
	DB	04aH
	DB	06aH
	DB	04aH
	DB	06aH
	DB	04aH
	DB	06aH
	DB	042H
	DB	06aH
	DB	042H
	DB	06aH
	DB	04aH
	DB	06aH
	DB	04aH
	DB	06aH
	DB	04aH
	DB	06aH
	DB	042H
	DB	06aH
	DB	04aH
	DB	06aH
	DB	04aH
	DB	06aH
	DB	042H
	DB	06aH
	DB	04aH
	DB	06aH
	DB	04aH
	DB	06aH
	DB	042H
	DB	06aH
	DB	042H
	DB	06aH
	DB	042H
	DB	06aH
	DB	04aH
	DB	06aH
	DB	042H
	DB	06aH
	DB	04aH
	DB	06aH
	DB	04aH
	DB	06aH
	DB	042H
	DB	06aH
	DB	04aH
	DB	06aH
	DB	04aH
	DB	06aH
	DB	04aH
	DB	06aH
	DB	042H
	DB	06aH
	DB	042H
	DB	06aH
	DB	04aH
	DB	06aH
	DB	04aH
	DB	06aH
	DB	042H
	DB	06aH
	DB	04aH
	DB	06aH
	DB	04aH
	DB	06aH
	DB	042H
	DB	06aH
	DB	042H
	DB	06aH
	DB	04aH
	DB	06aH
	DB	04aH
	DB	06aH
	DB	04aH
	DB	06aH
	DB	04aH
	DB	06aH
	DB	042H
	DB	06aH
	DB	04aH
	DB	06aH
	DB	04aH
	DB	06aH
	DB	04aH
	DB	06aH
	DB	04aH
	DB	06aH
	DB	042H
	DB	06aH
	DB	04aH
	DB	06aH
	DB	04aH
	DB	06aH
	DB	04aH
	DB	06aH
	DB	042H
	DB	06aH
	DB	04aH
	DB	06aH
	DB	042H
	DB	06aH
	DB	042H
	DB	06aH
	DB	04aH
	DB	06aH
	DB	04aH
	DB	06aH
	DB	04aH
	DB	06aH
	DB	04aH
	DB	06aH
	DB	04aH
	DB	06aH
	DB	042H
	DB	06aH
	DB	04aH
	DB	06aH
	DB	04aH
	DB	08aH
	DB	04aH
	DB	06aH
	DB	042H
	DB	06aH
	DB	04aH
	DB	06aH
	DB	042H
	DB	06aH
	DB	04aH
	DB	06aH
	DB	04aH
	DB	06aH
	DB	042H
	DB	06aH
	DB	04aH
	DB	06aH
	DB	04aH
	DB	06bH
	DB	04aH
	DB	06aH
	DB	04aH
	DB	06aH
	DB	042H
	DB	06aH
	DB	04aH
	DB	06aH
	DB	04aH
	DB	06aH
	DB	042H
	DB	06aH
	DB	04aH
	DB	06aH
	DB	04aH
	DB	06aH
	DB	04aH
	DB	06aH
	DB	042H
	DB	06aH
	DB	042H
	DB	06aH
	DB	04aH
	DB	06aH
	DB	04aH
	DB	06aH
	DB	04aH
	DB	06aH
	DB	042H
	DB	06aH
	DB	042H
	DB	06aH
	DB	04aH
	DB	06aH
	DB	04aH
	DB	06aH
	DB	042H
	DB	08aH
	DB	04aH
	DB	0cbH
	DB	052H
	DB	0e8H
	DB	039H
	DB	0c8H
	DB	031H
	DB	0c7H
	DB	031H
	DB	0abH
	DB	04aH
	DB	04aH
	DB	042H
	DB	086H
	DB	029H
	DB	0c7H
	DB	031H
	DB	0c8H
	DB	031H
	DB	0cbH
	DB	052H
	DB	08aH
	DB	042H
	DB	06aH
	DB	04aH
	DB	06aH
	DB	042H
	DB	06aH
	DB	042H
	DB	06aH
	DB	04aH
	DB	06aH
	DB	042H
	DB	06aH
	DB	042H
	DB	06aH
	DB	042H
	DB	06aH
	DB	042H
	DB	06aH
	DB	042H
	DB	06aH
	DB	042H
	DB	06aH
	DB	042H
	DB	06aH
	DB	042H
	DB	06aH
	DB	042H
	DB	06aH
	DB	042H
	DB	06aH
	DB	042H
	DB	06aH
	DB	04aH
	DB	06aH
	DB	042H
	DB	06aH
	DB	042H
	DB	06aH
	DB	042H
	DB	06aH
	DB	042H
	DB	06aH
	DB	042H
	DB	08aH
	DB	042H
	DB	06aH
	DB	042H
	DB	06aH
	DB	042H
	DB	08aH
	DB	042H
	DB	06aH
	DB	042H
	DB	06aH
	DB	042H
	DB	06aH
	DB	042H
	DB	06aH
	DB	042H
	DB	06aH
	DB	042H
	DB	06aH
	DB	042H
	DB	06aH
	DB	042H
	DB	06aH
	DB	042H
	DB	06aH
	DB	04aH
	DB	06aH
	DB	042H
	DB	06aH
	DB	04aH
	DB	06aH
	DB	042H
	DB	06aH
	DB	042H
	DB	06aH
	DB	042H
	DB	06aH
	DB	042H
	DB	06aH
	DB	042H
	DB	06aH
	DB	042H
	DB	06aH
	DB	042H
	DB	06aH
	DB	042H
	DB	06aH
	DB	042H
	DB	06aH
	DB	04aH
	DB	06aH
	DB	042H
	DB	06aH
	DB	04aH
	DB	06aH
	DB	042H
	DB	06aH
	DB	042H
	DB	06aH
	DB	042H
	DB	06aH
	DB	042H
	DB	06aH
	DB	042H
	DB	08aH
	DB	04aH
	DB	06aH
	DB	042H
	DB	06aH
	DB	042H
	DB	06aH
	DB	04aH
	DB	06aH
	DB	042H
	DB	06aH
	DB	042H
	DB	06aH
	DB	042H
	DB	06aH
	DB	042H
	DB	06aH
	DB	042H
	DB	06aH
	DB	04aH
	DB	06aH
	DB	042H
	DB	06aH
	DB	042H
	DB	06aH
	DB	04aH
	DB	06aH
	DB	042H
	DB	06aH
	DB	042H
	DB	06aH
	DB	042H
	DB	06aH
	DB	042H
	DB	06aH
	DB	042H
	DB	06aH
	DB	042H
	DB	06aH
	DB	042H
	DB	06aH
	DB	042H
	DB	06aH
	DB	042H
	DB	06aH
	DB	042H
	DB	06aH
	DB	042H
	DB	06aH
	DB	042H
	DB	08aH
	DB	042H
	DB	06aH
	DB	04aH
	DB	06aH
	DB	042H
	DB	06aH
	DB	042H
	DB	06aH
	DB	042H
	DB	06aH
	DB	042H
	DB	06aH
	DB	042H
	DB	08aH
	DB	042H
	DB	06aH
	DB	042H
	DB	06aH
	DB	042H
	DB	06aH
	DB	042H
	DB	06aH
	DB	042H
	DB	06aH
	DB	042H
	DB	06aH
	DB	042H
	DB	06aH
	DB	042H
	DB	06aH
	DB	042H
	DB	06aH
	DB	042H
	DB	06aH
	DB	042H
	DB	06aH
	DB	042H
	DB	06aH
	DB	042H
	DB	06aH
	DB	042H
	DB	06aH
	DB	042H
	DB	06aH
	DB	042H
	DB	06aH
	DB	04aH
	DB	06aH
	DB	042H
	DB	06aH
	DB	042H
	DB	06aH
	DB	042H
	DB	06aH
	DB	042H
	DB	06aH
	DB	042H
	DB	06aH
	DB	042H
	DB	06aH
	DB	042H
	DB	06aH
	DB	042H
	DB	08aH
	DB	042H
	DB	06aH
	DB	04aH
	DB	06aH
	DB	042H
	DB	06aH
	DB	042H
	DB	06aH
	DB	042H
	DB	06aH
	DB	042H
	DB	06aH
	DB	042H
	DB	06aH
	DB	042H
	DB	08aH
	DB	04aH
	DB	0cbH
	DB	052H
	DB	0e8H
	DB	039H
	DB	0e8H
	DB	031H
	DB	0c7H
	DB	031H
	DB	06aH
	DB	042H
	DB	06aH
	DB	042H
	DB	0a7H
	DB	031H
	DB	0a7H
	DB	031H
	DB	0c7H
	DB	031H
	DB	0cbH
	DB	052H
	DB	06aH
	DB	04aH
	DB	06aH
	DB	042H
	DB	06aH
	DB	04aH
	DB	06aH
	DB	042H
	DB	06aH
	DB	04aH
	DB	06aH
	DB	04aH
	DB	06aH
	DB	042H
	DB	06aH
	DB	04aH
	DB	06aH
	DB	04aH
	DB	08aH
	DB	04aH
	DB	06aH
	DB	04aH
	DB	06aH
	DB	042H
	DB	06aH
	DB	04aH
	DB	06aH
	DB	042H
	DB	08aH
	DB	04aH
	DB	06aH
	DB	042H
	DB	06aH
	DB	042H
	DB	06aH
	DB	04aH
	DB	08aH
	DB	04aH
	DB	06aH
	DB	042H
	DB	06aH
	DB	04aH
	DB	06aH
	DB	042H
	DB	06aH
	DB	04aH
	DB	06aH
	DB	04aH
	DB	06aH
	DB	04aH
	DB	06aH
	DB	04aH
	DB	08aH
	DB	042H
	DB	06aH
	DB	04aH
	DB	06aH
	DB	04aH
	DB	06aH
	DB	042H
	DB	06aH
	DB	04aH
	DB	08aH
	DB	042H
	DB	06aH
	DB	042H
	DB	08aH
	DB	04aH
	DB	08aH
	DB	042H
	DB	06aH
	DB	04aH
	DB	08aH
	DB	042H
	DB	08aH
	DB	04aH
	DB	06aH
	DB	042H
	DB	06aH
	DB	042H
	DB	08aH
	DB	04aH
	DB	06aH
	DB	042H
	DB	06aH
	DB	04aH
	DB	08aH
	DB	04aH
	DB	06aH
	DB	042H
	DB	06aH
	DB	04aH
	DB	06aH
	DB	042H
	DB	08aH
	DB	04aH
	DB	06aH
	DB	042H
	DB	06aH
	DB	042H
	DB	06aH
	DB	04aH
	DB	08aH
	DB	04aH
	DB	06aH
	DB	042H
	DB	06aH
	DB	042H
	DB	06aH
	DB	04aH
	DB	06aH
	DB	042H
	DB	08aH
	DB	042H
	DB	06aH
	DB	04aH
	DB	06aH
	DB	04aH
	DB	08aH
	DB	04aH
	DB	06aH
	DB	042H
	DB	06aH
	DB	04aH
	DB	06aH
	DB	042H
	DB	06aH
	DB	042H
	DB	08aH
	DB	04aH
	DB	06aH
	DB	04aH
	DB	08aH
	DB	042H
	DB	06aH
	DB	04aH
	DB	06aH
	DB	042H
	DB	08aH
	DB	04aH
	DB	06aH
	DB	04aH
	DB	08aH
	DB	042H
	DB	08aH
	DB	042H
	DB	06aH
	DB	04aH
	DB	06aH
	DB	042H
	DB	08aH
	DB	04aH
	DB	06aH
	DB	042H
	DB	06aH
	DB	042H
	DB	06aH
	DB	04aH
	DB	06aH
	DB	042H
	DB	08aH
	DB	04aH
	DB	06aH
	DB	04aH
	DB	08aH
	DB	042H
	DB	06aH
	DB	04aH
	DB	06aH
	DB	042H
	DB	06aH
	DB	042H
	DB	06aH
	DB	042H
	DB	06aH
	DB	04aH
	DB	08aH
	DB	042H
	DB	06aH
	DB	04aH
	DB	06aH
	DB	042H
	DB	06aH
	DB	04aH
	DB	08aH
	DB	04aH
	DB	06aH
	DB	042H
	DB	06aH
	DB	04aH
	DB	06aH
	DB	04aH
	DB	08aH
	DB	042H
	DB	06aH
	DB	04aH
	DB	06aH
	DB	042H
	DB	06aH
	DB	042H
	DB	06aH
	DB	04aH
	DB	06aH
	DB	04aH
	DB	08aH
	DB	042H
	DB	06aH
	DB	04aH
	DB	06aH
	DB	042H
	DB	06aH
	DB	04aH
	DB	06aH
	DB	04aH
	DB	06aH
	DB	04aH
	DB	06aH
	DB	042H
	DB	06aH
	DB	04aH
	DB	08aH
	DB	04aH
	DB	06aH
	DB	042H
	DB	06aH
	DB	042H
	DB	08aH
	DB	04aH
	DB	06aH
	DB	04aH
	DB	06aH
	DB	042H
	DB	08aH
	DB	04aH
	DB	06aH
	DB	04aH
	DB	06aH
	DB	042H
	DB	06aH
	DB	042H
	DB	0cbH
	DB	052H
	DB	0e8H
	DB	031H
	DB	0c8H
	DB	031H
	DB	0c7H
	DB	031H
	DB	08aH
	DB	04aH
	DB	06aH
	DB	04aH
	DB	0a7H
	DB	031H
	DB	0a7H
	DB	031H
	DB	0a7H
	DB	031H
	DB	0cbH
	DB	052H
	DB	08aH
	DB	042H
	DB	06aH
	DB	04aH
	DB	06aH
	DB	042H
	DB	06aH
	DB	042H
	DB	08aH
	DB	04aH
	DB	06aH
	DB	042H
	DB	08aH
	DB	04aH
	DB	06aH
	DB	042H
	DB	06aH
	DB	042H
	DB	06aH
	DB	04aH
	DB	06aH
	DB	042H
	DB	06aH
	DB	042H
	DB	06aH
	DB	04aH
	DB	06aH
	DB	04aH
	DB	06aH
	DB	042H
	DB	06aH
	DB	042H
	DB	06aH
	DB	042H
	DB	06aH
	DB	04aH
	DB	06aH
	DB	042H
	DB	08aH
	DB	04aH
	DB	06aH
	DB	042H
	DB	06aH
	DB	042H
	DB	06aH
	DB	042H
	DB	06aH
	DB	042H
	DB	06aH
	DB	04aH
	DB	06aH
	DB	042H
	DB	06aH
	DB	04aH
	DB	08aH
	DB	04aH
	DB	06aH
	DB	042H
	DB	06aH
	DB	042H
	DB	06aH
	DB	04aH
	DB	06aH
	DB	042H
	DB	06aH
	DB	04aH
	DB	06aH
	DB	042H
	DB	06aH
	DB	042H
	DB	06aH
	DB	042H
	DB	06aH
	DB	04aH
	DB	06aH
	DB	042H
	DB	06aH
	DB	04aH
	DB	06aH
	DB	04aH
	DB	06aH
	DB	042H
	DB	06aH
	DB	042H
	DB	06aH
	DB	04aH
	DB	06aH
	DB	04aH
	DB	08aH
	DB	042H
	DB	06aH
	DB	042H
	DB	06aH
	DB	042H
	DB	06aH
	DB	04aH
	DB	06aH
	DB	042H
	DB	06aH
	DB	042H
	DB	06aH
	DB	04aH
	DB	06aH
	DB	04aH
	DB	06aH
	DB	042H
	DB	06aH
	DB	04aH
	DB	06aH
	DB	042H
	DB	06aH
	DB	042H
	DB	08aH
	DB	04aH
	DB	06aH
	DB	042H
	DB	06aH
	DB	042H
	DB	06aH
	DB	042H
	DB	06aH
	DB	04aH
	DB	06aH
	DB	04aH
	DB	06aH
	DB	042H
	DB	08aH
	DB	04aH
	DB	06aH
	DB	042H
	DB	06aH
	DB	042H
	DB	06aH
	DB	042H
	DB	06aH
	DB	042H
	DB	06aH
	DB	04aH
	DB	06aH
	DB	04aH
	DB	06aH
	DB	042H
	DB	06aH
	DB	04aH
	DB	06aH
	DB	04aH
	DB	06aH
	DB	042H
	DB	06aH
	DB	04aH
	DB	06aH
	DB	04aH
	DB	06aH
	DB	042H
	DB	08aH
	DB	04aH
	DB	06aH
	DB	04aH
	DB	06aH
	DB	042H
	DB	06aH
	DB	042H
	DB	06aH
	DB	042H
	DB	06aH
	DB	04aH
	DB	08aH
	DB	042H
	DB	06aH
	DB	04aH
	DB	06aH
	DB	04aH
	DB	06aH
	DB	042H
	DB	06aH
	DB	042H
	DB	06aH
	DB	04aH
	DB	06aH
	DB	042H
	DB	06aH
	DB	042H
	DB	08aH
	DB	04aH
	DB	06aH
	DB	04aH
	DB	06aH
	DB	042H
	DB	06aH
	DB	04aH
	DB	06aH
	DB	042H
	DB	06aH
	DB	042H
	DB	06aH
	DB	04aH
	DB	06aH
	DB	04aH
	DB	06aH
	DB	042H
	DB	06aH
	DB	042H
	DB	06aH
	DB	042H
	DB	06aH
	DB	042H
	DB	08aH
	DB	04aH
	DB	06aH
	DB	04aH
	DB	06aH
	DB	042H
	DB	08aH
	DB	042H
	DB	06aH
	DB	04aH
	DB	06aH
	DB	04aH
	DB	08aH
	DB	042H
	DB	06aH
	DB	042H
	DB	06aH
	DB	04aH
	DB	06aH
	DB	042H
	DB	06aH
	DB	04aH
	DB	06aH
	DB	042H
	DB	06aH
	DB	04aH
	DB	06aH
	DB	042H
	DB	08aH
	DB	042H
	DB	06aH
	DB	04aH
	DB	08aH
	DB	042H
	DB	0cbH
	DB	052H
	DB	0c7H
	DB	031H
	DB	0c8H
	DB	031H
	DB	0e8H
	DB	039H
	DB	0cbH
	DB	052H
	DB	0abH
	DB	04aH
	DB	0a7H
	DB	029H
	DB	0a7H
	DB	031H
	DB	0a7H
	DB	029H
	DB	0abH
	DB	04aH
	DB	08aH
	DB	042H
	DB	06aH
	DB	042H
	DB	06aH
	DB	04aH
	DB	08aH
	DB	042H
	DB	06aH
	DB	04aH
	DB	06aH
	DB	042H
	DB	06aH
	DB	042H
	DB	06aH
	DB	04aH
	DB	06aH
	DB	042H
	DB	08aH
	DB	042H
	DB	06aH
	DB	042H
	DB	08aH
	DB	04aH
	DB	06aH
	DB	042H
	DB	06aH
	DB	042H
	DB	08aH
	DB	04aH
	DB	06aH
	DB	042H
	DB	06aH
	DB	04aH
	DB	06aH
	DB	042H
	DB	06aH
	DB	042H
	DB	06aH
	DB	042H
	DB	06aH
	DB	04aH
	DB	06aH
	DB	04aH
	DB	06aH
	DB	042H
	DB	06aH
	DB	042H
	DB	08aH
	DB	042H
	DB	06aH
	DB	042H
	DB	06aH
	DB	042H
	DB	06aH
	DB	042H
	DB	08aH
	DB	042H
	DB	06aH
	DB	04aH
	DB	06aH
	DB	042H
	DB	06aH
	DB	042H
	DB	08aH
	DB	04aH
	DB	06aH
	DB	04aH
	DB	06aH
	DB	042H
	DB	06aH
	DB	042H
	DB	06aH
	DB	04aH
	DB	06aH
	DB	042H
	DB	06aH
	DB	042H
	DB	08aH
	DB	042H
	DB	06aH
	DB	04aH
	DB	06aH
	DB	04aH
	DB	08aH
	DB	042H
	DB	06aH
	DB	042H
	DB	06aH
	DB	04aH
	DB	06aH
	DB	04aH
	DB	06aH
	DB	04aH
	DB	06aH
	DB	042H
	DB	06aH
	DB	042H
	DB	06aH
	DB	04aH
	DB	08aH
	DB	042H
	DB	06aH
	DB	042H
	DB	06aH
	DB	042H
	DB	06aH
	DB	04aH
	DB	08aH
	DB	042H
	DB	06aH
	DB	04aH
	DB	06aH
	DB	042H
	DB	06aH
	DB	042H
	DB	06aH
	DB	04aH
	DB	08aH
	DB	042H
	DB	06aH
	DB	042H
	DB	06aH
	DB	042H
	DB	08aH
	DB	04aH
	DB	06aH
	DB	04aH
	DB	06aH
	DB	042H
	DB	06aH
	DB	04aH
	DB	06aH
	DB	042H
	DB	06aH
	DB	042H
	DB	08aH
	DB	042H
	DB	06aH
	DB	042H
	DB	06aH
	DB	042H
	DB	06aH
	DB	04aH
	DB	06aH
	DB	042H
	DB	08aH
	DB	042H
	DB	06aH
	DB	042H
	DB	06aH
	DB	042H
	DB	06aH
	DB	042H
	DB	06aH
	DB	042H
	DB	06aH
	DB	042H
	DB	06aH
	DB	04aH
	DB	06aH
	DB	04aH
	DB	06aH
	DB	042H
	DB	06aH
	DB	04aH
	DB	06aH
	DB	042H
	DB	08aH
	DB	042H
	DB	06aH
	DB	04aH
	DB	08aH
	DB	04aH
	DB	06aH
	DB	042H
	DB	06aH
	DB	04aH
	DB	06aH
	DB	042H
	DB	06aH
	DB	042H
	DB	06aH
	DB	042H
	DB	06aH
	DB	04aH
	DB	08aH
	DB	042H
	DB	06aH
	DB	04aH
	DB	06aH
	DB	042H
	DB	08aH
	DB	042H
	DB	06aH
	DB	04aH
	DB	08aH
	DB	04aH
	DB	06aH
	DB	042H
	DB	08aH
	DB	04aH
	DB	06aH
	DB	04aH
	DB	06aH
	DB	042H
	DB	06aH
	DB	042H
	DB	06aH
	DB	042H
	DB	08aH
	DB	042H
	DB	06aH
	DB	04aH
	DB	06aH
	DB	042H
	DB	06aH
	DB	042H
	DB	06aH
	DB	04aH
	DB	06aH
	DB	042H
	DB	06aH
	DB	042H
	DB	06aH
	DB	04aH
	DB	06aH
	DB	042H
	DB	06aH
	DB	042H
	DB	06aH
	DB	042H
	DB	06aH
	DB	042H
	DB	06aH
	DB	04aH
	DB	06aH
	DB	042H
	DB	08aH
	DB	04aH
	DB	0abH
	DB	04aH
	DB	0a7H
	DB	031H
	DB	0a7H
	DB	031H
	DB	0e8H
	DB	031H
	DB	0abH
	DB	04aH
	DB	06aH
	DB	042H
	DB	0c7H
	DB	031H
	DB	0a7H
	DB	031H
	DB	086H
	DB	029H
	DB	029H
	DB	042H
	DB	08aH
	DB	04aH
	DB	06aH
	DB	042H
	DB	06aH
	DB	042H
	DB	06aH
	DB	04aH
	DB	06aH
	DB	042H
	DB	06aH
	DB	042H
	DB	06aH
	DB	04aH
	DB	06aH
	DB	042H
	DB	06aH
	DB	04aH
	DB	06aH
	DB	04aH
	DB	06aH
	DB	04aH
	DB	06aH
	DB	042H
	DB	08aH
	DB	04aH
	DB	06aH
	DB	042H
	DB	06aH
	DB	042H
	DB	06aH
	DB	04aH
	DB	06aH
	DB	042H
	DB	08aH
	DB	04aH
	DB	06aH
	DB	042H
	DB	06aH
	DB	042H
	DB	08aH
	DB	04aH
	DB	06aH
	DB	04aH
	DB	06aH
	DB	042H
	DB	06aH
	DB	04aH
	DB	06aH
	DB	04aH
	DB	08aH
	DB	042H
	DB	06aH
	DB	04aH
	DB	06aH
	DB	042H
	DB	06aH
	DB	042H
	DB	06aH
	DB	04aH
	DB	08aH
	DB	04aH
	DB	06aH
	DB	042H
	DB	06aH
	DB	042H
	DB	06aH
	DB	04aH
	DB	08aH
	DB	042H
	DB	06aH
	DB	04aH
	DB	06aH
	DB	04aH
	DB	08aH
	DB	042H
	DB	06aH
	DB	042H
	DB	06aH
	DB	04aH
	DB	08aH
	DB	042H
	DB	06aH
	DB	042H
	DB	06aH
	DB	042H
	DB	06aH
	DB	042H
	DB	06aH
	DB	042H
	DB	06aH
	DB	042H
	DB	08aH
	DB	042H
	DB	06aH
	DB	04aH
	DB	06aH
	DB	042H
	DB	08aH
	DB	04aH
	DB	06aH
	DB	04aH
	DB	06aH
	DB	042H
	DB	08aH
	DB	04aH
	DB	06aH
	DB	042H
	DB	06aH
	DB	04aH
	DB	06aH
	DB	04aH
	DB	06aH
	DB	042H
	DB	06aH
	DB	04aH
	DB	06aH
	DB	042H
	DB	06aH
	DB	04aH
	DB	06aH
	DB	042H
	DB	06aH
	DB	04aH
	DB	06aH
	DB	042H
	DB	06aH
	DB	042H
	DB	06aH
	DB	04aH
	DB	06aH
	DB	042H
	DB	08aH
	DB	04aH
	DB	06aH
	DB	04aH
	DB	06aH
	DB	04aH
	DB	06aH
	DB	042H
	DB	08aH
	DB	04aH
	DB	06aH
	DB	04aH
	DB	06aH
	DB	042H
	DB	06aH
	DB	04aH
	DB	06aH
	DB	04aH
	DB	08aH
	DB	042H
	DB	06aH
	DB	04aH
	DB	06aH
	DB	04aH
	DB	08aH
	DB	042H
	DB	06aH
	DB	042H
	DB	08aH
	DB	04aH
	DB	08aH
	DB	042H
	DB	06aH
	DB	042H
	DB	06aH
	DB	042H
	DB	06aH
	DB	042H
	DB	06aH
	DB	042H
	DB	06aH
	DB	04aH
	DB	08aH
	DB	042H
	DB	06aH
	DB	042H
	DB	06aH
	DB	04aH
	DB	06aH
	DB	042H
	DB	06aH
	DB	042H
	DB	06aH
	DB	04aH
	DB	06aH
	DB	042H
	DB	06aH
	DB	042H
	DB	06aH
	DB	04aH
	DB	06aH
	DB	042H
	DB	06aH
	DB	042H
	DB	06aH
	DB	04aH
	DB	06aH
	DB	042H
	DB	06aH
	DB	042H
	DB	08aH
	DB	04aH
	DB	06aH
	DB	04aH
	DB	06aH
	DB	042H
	DB	06aH
	DB	042H
	DB	06aH
	DB	04aH
	DB	06aH
	DB	042H
	DB	06aH
	DB	042H
	DB	08aH
	DB	042H
	DB	06aH
	DB	04aH
	DB	06aH
	DB	042H
	DB	08aH
	DB	04aH
	DB	06aH
	DB	042H
	DB	08aH
	DB	04aH
	DB	06aH
	DB	04aH
	DB	06aH
	DB	042H
	DB	06aH
	DB	04aH
	DB	06aH
	DB	042H
	DB	06aH
	DB	04aH
	DB	08aH
	DB	04aH
	DB	049H
	DB	042H
	DB	0c8H
	DB	031H
	DB	0c7H
	DB	031H
	DB	0c7H
	DB	031H
	DB	0abH
	DB	04aH
	DB	06aH
	DB	042H
	DB	0c7H
	DB	031H
	DB	0a7H
	DB	031H
	DB	0a7H
	DB	031H
	DB	0c7H
	DB	031H
	DB	06aH
	DB	042H
	DB	08aH
	DB	04aH
	DB	06aH
	DB	042H
	DB	08aH
	DB	042H
	DB	06aH
	DB	04aH
	DB	08aH
	DB	04aH
	DB	06aH
	DB	042H
	DB	08aH
	DB	042H
	DB	089H
	DB	042H
	DB	08aH
	DB	042H
	DB	08aH
	DB	042H
	DB	069H
	DB	042H
	DB	06aH
	DB	04aH
	DB	08aH
	DB	042H
	DB	08aH
	DB	042H
	DB	06aH
	DB	04aH
	DB	08aH
	DB	04aH
	DB	08aH
	DB	042H
	DB	08aH
	DB	04aH
	DB	06aH
	DB	042H
	DB	08aH
	DB	042H
	DB	08aH
	DB	042H
	DB	08aH
	DB	04aH
	DB	08aH
	DB	042H
	DB	06aH
	DB	042H
	DB	08aH
	DB	04aH
	DB	08aH
	DB	042H
	DB	06aH
	DB	04aH
	DB	08aH
	DB	042H
	DB	08aH
	DB	042H
	DB	08aH
	DB	04aH
	DB	08aH
	DB	04aH
	DB	06aH
	DB	042H
	DB	08aH
	DB	042H
	DB	08aH
	DB	042H
	DB	08aH
	DB	04aH
	DB	08aH
	DB	042H
	DB	08aH
	DB	042H
	DB	06aH
	DB	04aH
	DB	08aH
	DB	04aH
	DB	08aH
	DB	04aH
	DB	08aH
	DB	042H
	DB	08aH
	DB	04aH
	DB	08aH
	DB	04aH
	DB	06aH
	DB	042H
	DB	08aH
	DB	042H
	DB	06aH
	DB	04aH
	DB	08aH
	DB	042H
	DB	08aH
	DB	042H
	DB	08aH
	DB	04aH
	DB	06aH
	DB	04aH
	DB	06aH
	DB	042H
	DB	08aH
	DB	042H
	DB	08aH
	DB	042H
	DB	08aH
	DB	042H
	DB	08aH
	DB	042H
	DB	06aH
	DB	04aH
	DB	08aH
	DB	042H
	DB	08aH
	DB	042H
	DB	08aH
	DB	04aH
	DB	06aH
	DB	042H
	DB	08aH
	DB	04aH
	DB	08aH
	DB	042H
	DB	08aH
	DB	042H
	DB	08aH
	DB	04aH
	DB	08aH
	DB	042H
	DB	06aH
	DB	042H
	DB	06aH
	DB	04aH
	DB	08aH
	DB	042H
	DB	08aH
	DB	042H
	DB	06aH
	DB	042H
	DB	08aH
	DB	04aH
	DB	06aH
	DB	042H
	DB	069H
	DB	042H
	DB	08aH
	DB	04aH
	DB	08aH
	DB	042H
	DB	06aH
	DB	042H
	DB	08aH
	DB	04aH
	DB	08aH
	DB	042H
	DB	06aH
	DB	042H
	DB	06aH
	DB	04aH
	DB	08aH
	DB	042H
	DB	08aH
	DB	04aH
	DB	08aH
	DB	04aH
	DB	06aH
	DB	042H
	DB	089H
	DB	04aH
	DB	06aH
	DB	042H
	DB	08aH
	DB	042H
	DB	08aH
	DB	04aH
	DB	08aH
	DB	04aH
	DB	08aH
	DB	04aH
	DB	08aH
	DB	042H
	DB	08aH
	DB	04aH
	DB	08aH
	DB	042H
	DB	08aH
	DB	042H
	DB	06aH
	DB	04aH
	DB	06aH
	DB	042H
	DB	08aH
	DB	042H
	DB	08aH
	DB	042H
	DB	08aH
	DB	04aH
	DB	06aH
	DB	042H
	DB	08aH
	DB	042H
	DB	08aH
	DB	04aH
	DB	08aH
	DB	04aH
	DB	08aH
	DB	04aH
	DB	08aH
	DB	042H
	DB	08aH
	DB	04aH
	DB	08aH
	DB	042H
	DB	08aH
	DB	04aH
	DB	06aH
	DB	042H
	DB	08aH
	DB	04aH
	DB	08aH
	DB	042H
	DB	08aH
	DB	042H
	DB	08aH
	DB	04aH
	DB	08aH
	DB	04aH
	DB	08aH
	DB	042H
	DB	08aH
	DB	04aH
	DB	06aH
	DB	042H
	DB	08aH
	DB	042H
	DB	049H
	DB	042H
	DB	08H
	DB	03aH
	DB	0e8H
	DB	031H
	DB	0c7H
	DB	031H
	DB	0e8H
	DB	039H
	DB	08aH
	DB	04aH
	DB	029H
	DB	042H
	DB	0e8H
	DB	031H
	DB	0a7H
	DB	029H
	DB	0c7H
	DB	031H
	DB	0a7H
	DB	029H
	DB	0c7H
	DB	031H
	DB	08H
	DB	03aH
	DB	029H
	DB	03aH
	DB	029H
	DB	03aH
	DB	029H
	DB	03aH
	DB	029H
	DB	03aH
	DB	029H
	DB	03aH
	DB	029H
	DB	03aH
	DB	029H
	DB	03aH
	DB	029H
	DB	03aH
	DB	029H
	DB	03aH
	DB	029H
	DB	03aH
	DB	029H
	DB	03aH
	DB	029H
	DB	03aH
	DB	028H
	DB	03aH
	DB	029H
	DB	03aH
	DB	029H
	DB	03aH
	DB	028H
	DB	03aH
	DB	029H
	DB	03aH
	DB	029H
	DB	03aH
	DB	029H
	DB	03aH
	DB	029H
	DB	03aH
	DB	029H
	DB	03aH
	DB	028H
	DB	03aH
	DB	029H
	DB	03aH
	DB	029H
	DB	03aH
	DB	028H
	DB	03aH
	DB	029H
	DB	03aH
	DB	029H
	DB	03aH
	DB	029H
	DB	03aH
	DB	029H
	DB	03aH
	DB	029H
	DB	03aH
	DB	029H
	DB	03aH
	DB	028H
	DB	03aH
	DB	029H
	DB	03aH
	DB	029H
	DB	03aH
	DB	029H
	DB	03aH
	DB	029H
	DB	03aH
	DB	029H
	DB	03aH
	DB	029H
	DB	03aH
	DB	029H
	DB	03aH
	DB	029H
	DB	03aH
	DB	029H
	DB	03aH
	DB	029H
	DB	03aH
	DB	029H
	DB	03aH
	DB	029H
	DB	03aH
	DB	028H
	DB	03aH
	DB	029H
	DB	03aH
	DB	029H
	DB	03aH
	DB	029H
	DB	03aH
	DB	029H
	DB	03aH
	DB	029H
	DB	03aH
	DB	028H
	DB	03aH
	DB	029H
	DB	042H
	DB	029H
	DB	03aH
	DB	029H
	DB	03aH
	DB	029H
	DB	03aH
	DB	029H
	DB	03aH
	DB	028H
	DB	03aH
	DB	029H
	DB	03aH
	DB	029H
	DB	03aH
	DB	029H
	DB	03aH
	DB	028H
	DB	03aH
	DB	029H
	DB	03aH
	DB	029H
	DB	03aH
	DB	028H
	DB	03aH
	DB	029H
	DB	03aH
	DB	029H
	DB	03aH
	DB	028H
	DB	03aH
	DB	029H
	DB	03aH
	DB	029H
	DB	03aH
	DB	028H
	DB	03aH
	DB	029H
	DB	03aH
	DB	029H
	DB	03aH
	DB	029H
	DB	03aH
	DB	029H
	DB	03aH
	DB	029H
	DB	03aH
	DB	028H
	DB	03aH
	DB	029H
	DB	03aH
	DB	029H
	DB	03aH
	DB	029H
	DB	03aH
	DB	029H
	DB	03aH
	DB	028H
	DB	03aH
	DB	029H
	DB	03aH
	DB	029H
	DB	03aH
	DB	029H
	DB	03aH
	DB	029H
	DB	03aH
	DB	029H
	DB	03aH
	DB	028H
	DB	03aH
	DB	029H
	DB	03aH
	DB	029H
	DB	03aH
	DB	029H
	DB	03aH
	DB	029H
	DB	03aH
	DB	028H
	DB	03aH
	DB	029H
	DB	03aH
	DB	029H
	DB	03aH
	DB	029H
	DB	03aH
	DB	028H
	DB	03aH
	DB	029H
	DB	03aH
	DB	029H
	DB	03aH
	DB	028H
	DB	03aH
	DB	029H
	DB	03aH
	DB	029H
	DB	03aH
	DB	028H
	DB	03aH
	DB	029H
	DB	03aH
	DB	029H
	DB	03aH
	DB	029H
	DB	03aH
	DB	029H
	DB	03aH
	DB	029H
	DB	03aH
	DB	028H
	DB	03aH
	DB	029H
	DB	03aH
	DB	029H
	DB	03aH
	DB	029H
	DB	03aH
	DB	028H
	DB	03aH
	DB	029H
	DB	03aH
	DB	029H
	DB	03aH
	DB	029H
	DB	03aH
	DB	029H
	DB	03aH
	DB	028H
	DB	03aH
	DB	0e8H
	DB	031H
	DB	0e8H
	DB	031H
	DB	0c8H
	DB	031H
	DB	0c7H
	DB	031H
	DB	049H
	DB	042H
	DB	04aH
	DB	042H
	DB	0cdH
	DB	0abH
	DB	06aH
	DB	042H
	DB	0a7H
	DB	031H
	DB	0a7H
	DB	031H
	DB	0c7H
	DB	031H
	DB	0a7H
	DB	031H
	DB	0c8H
	DB	031H
	DB	0a7H
	DB	031H
	DB	0a6H
	DB	031H
	DB	0e7H
	DB	039H
	DB	0c7H
	DB	031H
	DB	0c7H
	DB	031H
	DB	0c7H
	DB	031H
	DB	0c7H
	DB	031H
	DB	0e8H
	DB	039H
	DB	0e8H
	DB	039H
	DB	0e7H
	DB	039H
	DB	0e8H
	DB	039H
	DB	0c7H
	DB	031H
	DB	0e8H
	DB	039H
	DB	0e8H
	DB	039H
	DB	0c7H
	DB	031H
	DB	028H
	DB	03aH
	DB	08H
	DB	03aH
	DB	0e8H
	DB	031H
	DB	08H
	DB	03aH
	DB	0e8H
	DB	039H
	DB	0e8H
	DB	039H
	DB	029H
	DB	042H
	DB	0e7H
	DB	031H
	DB	0e8H
	DB	039H
	DB	08H
	DB	03aH
	DB	08H
	DB	03aH
	DB	029H
	DB	042H
	DB	0e8H
	DB	039H
	DB	0e8H
	DB	031H
	DB	029H
	DB	03aH
	DB	0e8H
	DB	039H
	DB	08H
	DB	03aH
	DB	08H
	DB	03aH
	DB	0e8H
	DB	039H
	DB	029H
	DB	042H
	DB	08H
	DB	03aH
	DB	08H
	DB	03aH
	DB	08H
	DB	03aH
	DB	0e8H
	DB	031H
	DB	08H
	DB	03aH
	DB	08H
	DB	03aH
	DB	0e8H
	DB	039H
	DB	028H
	DB	03aH
	DB	0e8H
	DB	039H
	DB	08H
	DB	03aH
	DB	08H
	DB	03aH
	DB	0e8H
	DB	039H
	DB	028H
	DB	03aH
	DB	08H
	DB	03aH
	DB	0e8H
	DB	031H
	DB	08H
	DB	03aH
	DB	08H
	DB	03aH
	DB	08H
	DB	03aH
	DB	08H
	DB	03aH
	DB	0e8H
	DB	031H
	DB	08H
	DB	03aH
	DB	08H
	DB	03aH
	DB	0e8H
	DB	039H
	DB	029H
	DB	042H
	DB	08H
	DB	03aH
	DB	0e8H
	DB	039H
	DB	09H
	DB	03aH
	DB	08H
	DB	03aH
	DB	049H
	DB	042H
	DB	08H
	DB	03aH
	DB	08H
	DB	03aH
	DB	09H
	DB	03aH
	DB	0e8H
	DB	039H
	DB	08H
	DB	03aH
	DB	029H
	DB	042H
	DB	08H
	DB	03aH
	DB	08H
	DB	03aH
	DB	029H
	DB	03aH
	DB	08H
	DB	03aH
	DB	029H
	DB	042H
	DB	08H
	DB	03aH
	DB	0e8H
	DB	039H
	DB	08H
	DB	03aH
	DB	08H
	DB	03aH
	DB	029H
	DB	042H
	DB	029H
	DB	03aH
	DB	0e8H
	DB	039H
	DB	029H
	DB	042H
	DB	028H
	DB	03aH
	DB	029H
	DB	042H
	DB	029H
	DB	042H
	DB	0e8H
	DB	031H
	DB	08H
	DB	03aH
	DB	029H
	DB	03aH
	DB	029H
	DB	042H
	DB	029H
	DB	042H
	DB	0e8H
	DB	039H
	DB	08H
	DB	03aH
	DB	029H
	DB	042H
	DB	08H
	DB	03aH
	DB	029H
	DB	042H
	DB	028H
	DB	03aH
	DB	08H
	DB	03aH
	DB	029H
	DB	042H
	DB	029H
	DB	03aH
	DB	08H
	DB	03aH
	DB	08H
	DB	03aH
	DB	0e8H
	DB	031H
	DB	08H
	DB	03aH
	DB	08H
	DB	03aH
	DB	08H
	DB	03aH
	DB	08H
	DB	03aH
	DB	0e7H
	DB	031H
	DB	0e8H
	DB	039H
	DB	08H
	DB	03aH
	DB	0e8H
	DB	039H
	DB	0e8H
	DB	039H
	DB	0e8H
	DB	031H
	DB	0c7H
	DB	031H
	DB	0e8H
	DB	039H
	DB	0c7H
	DB	031H
	DB	0e8H
	DB	039H
	DB	0c8H
	DB	039H
	DB	0a7H
	DB	029H
	DB	0c7H
	DB	031H
	DB	0e8H
	DB	039H
	DB	0abH
	DB	04aH
	DB	0cdH
	DB	0abH
	DB	0cdH
	DB	0abH
	DB	049H
	DB	042H
	DB	06aH
	DB	042H
	DB	0c7H
	DB	031H
	DB	087H
	DB	029H
	DB	0c7H
	DB	031H
	DB	0c7H
	DB	031H
	DB	0c8H
	DB	031H
	DB	0c7H
	DB	031H
	DB	087H
	DB	029H
	DB	0a7H
	DB	031H
	DB	0c7H
	DB	031H
	DB	0c8H
	DB	039H
	DB	0c7H
	DB	031H
	DB	0a7H
	DB	029H
	DB	0e7H
	DB	031H
	DB	08H
	DB	03aH
	DB	0e8H
	DB	031H
	DB	0e8H
	DB	039H
	DB	0c7H
	DB	031H
	DB	0c8H
	DB	031H
	DB	0e8H
	DB	039H
	DB	08H
	DB	03aH
	DB	0e8H
	DB	039H
	DB	0e8H
	DB	031H
	DB	0c7H
	DB	031H
	DB	08H
	DB	03aH
	DB	029H
	DB	03aH
	DB	08H
	DB	03aH
	DB	08H
	DB	03aH
	DB	0c8H
	DB	031H
	DB	0e8H
	DB	039H
	DB	029H
	DB	03aH
	DB	08H
	DB	03aH
	DB	08H
	DB	03aH
	DB	0e7H
	DB	031H
	DB	0c8H
	DB	031H
	DB	029H
	DB	042H
	DB	09H
	DB	03aH
	DB	08H
	DB	03aH
	DB	08H
	DB	03aH
	DB	0e8H
	DB	031H
	DB	029H
	DB	03aH
	DB	09H
	DB	03aH
	DB	08H
	DB	03aH
	DB	08H
	DB	03aH
	DB	0e8H
	DB	031H
	DB	08H
	DB	03aH
	DB	029H
	DB	042H
	DB	08H
	DB	03aH
	DB	08H
	DB	03aH
	DB	0e8H
	DB	039H
	DB	0e8H
	DB	031H
	DB	08H
	DB	03aH
	DB	09H
	DB	03aH
	DB	08H
	DB	03aH
	DB	08H
	DB	03aH
	DB	0e8H
	DB	039H
	DB	08H
	DB	03aH
	DB	08H
	DB	03aH
	DB	08H
	DB	03aH
	DB	08H
	DB	03aH
	DB	0e8H
	DB	039H
	DB	08H
	DB	03aH
	DB	08H
	DB	03aH
	DB	08H
	DB	03aH
	DB	09H
	DB	03aH
	DB	0e8H
	DB	031H
	DB	0e8H
	DB	031H
	DB	029H
	DB	042H
	DB	09H
	DB	03aH
	DB	08H
	DB	03aH
	DB	08H
	DB	03aH
	DB	08H
	DB	032H
	DB	08H
	DB	03aH
	DB	09H
	DB	03aH
	DB	029H
	DB	03aH
	DB	08H
	DB	03aH
	DB	0e8H
	DB	031H
	DB	08H
	DB	03aH
	DB	029H
	DB	042H
	DB	029H
	DB	03aH
	DB	08H
	DB	03aH
	DB	0e8H
	DB	039H
	DB	08H
	DB	03aH
	DB	09H
	DB	03aH
	DB	08H
	DB	03aH
	DB	028H
	DB	03aH
	DB	08H
	DB	03aH
	DB	0e8H
	DB	031H
	DB	029H
	DB	042H
	DB	029H
	DB	042H
	DB	08H
	DB	03aH
	DB	08H
	DB	03aH
	DB	0e8H
	DB	031H
	DB	08H
	DB	03aH
	DB	029H
	DB	03aH
	DB	08H
	DB	03aH
	DB	08H
	DB	03aH
	DB	08H
	DB	03aH
	DB	08H
	DB	032H
	DB	09H
	DB	03aH
	DB	029H
	DB	042H
	DB	09H
	DB	03aH
	DB	0e8H
	DB	039H
	DB	0e8H
	DB	031H
	DB	029H
	DB	03aH
	DB	029H
	DB	042H
	DB	08H
	DB	03aH
	DB	0e8H
	DB	039H
	DB	0e8H
	DB	031H
	DB	08H
	DB	03aH
	DB	029H
	DB	042H
	DB	09H
	DB	03aH
	DB	08H
	DB	03aH
	DB	0c7H
	DB	031H
	DB	0c8H
	DB	031H
	DB	08H
	DB	03aH
	DB	0e8H
	DB	031H
	DB	0e8H
	DB	039H
	DB	0c7H
	DB	031H
	DB	0a7H
	DB	031H
	DB	0c7H
	DB	031H
	DB	0c8H
	DB	031H
	DB	0e7H
	DB	031H
	DB	0c7H
	DB	031H
	DB	0c7H
	DB	031H
	DB	08bH
	DB	04aH
	DB	08bH
	DB	04aH
	DB	0cdH
	DB	0abH
	DB	0cdH
	DB	0abH
	DB	0cdH
	DB	0abH
	DB	049H
	DB	042H
	DB	06aH
	DB	04aH
	DB	09H
	DB	03aH
	DB	0c7H
	DB	031H
	DB	0c7H
	DB	031H
	DB	0a7H
	DB	031H
	DB	0c7H
	DB	031H
	DB	0a7H
	DB	029H
	DB	0a7H
	DB	029H
	DB	0c7H
	DB	031H
	DB	0e8H
	DB	039H
	DB	0c7H
	DB	031H
	DB	0c7H
	DB	031H
	DB	0c7H
	DB	031H
	DB	0e8H
	DB	031H
	DB	0e8H
	DB	039H
	DB	0e8H
	DB	031H
	DB	0e8H
	DB	031H
	DB	08H
	DB	03aH
	DB	0c8H
	DB	031H
	DB	08H
	DB	03aH
	DB	0e8H
	DB	039H
	DB	0e8H
	DB	039H
	DB	0c8H
	DB	031H
	DB	0e7H
	DB	031H
	DB	08H
	DB	03aH
	DB	0e8H
	DB	039H
	DB	0e8H
	DB	031H
	DB	0e8H
	DB	039H
	DB	0e8H
	DB	031H
	DB	08H
	DB	03aH
	DB	08H
	DB	03aH
	DB	0e8H
	DB	039H
	DB	0e8H
	DB	031H
	DB	0c7H
	DB	031H
	DB	0e8H
	DB	039H
	DB	028H
	DB	03aH
	DB	0e8H
	DB	039H
	DB	0e8H
	DB	031H
	DB	0e8H
	DB	039H
	DB	0e8H
	DB	039H
	DB	08H
	DB	03aH
	DB	08H
	DB	03aH
	DB	08H
	DB	03aH
	DB	08H
	DB	03aH
	DB	0e8H
	DB	039H
	DB	08H
	DB	03aH
	DB	09H
	DB	03aH
	DB	08H
	DB	03aH
	DB	0e8H
	DB	031H
	DB	0e8H
	DB	031H
	DB	0e8H
	DB	039H
	DB	028H
	DB	03aH
	DB	09H
	DB	03aH
	DB	08H
	DB	03aH
	DB	09H
	DB	03aH
	DB	0e8H
	DB	031H
	DB	08H
	DB	03aH
	DB	09H
	DB	03aH
	DB	09H
	DB	03aH
	DB	08H
	DB	03aH
	DB	0e8H
	DB	031H
	DB	0e8H
	DB	039H
	DB	029H
	DB	03aH
	DB	08H
	DB	03aH
	DB	0e8H
	DB	031H
	DB	08H
	DB	03aH
	DB	0e8H
	DB	039H
	DB	09H
	DB	03aH
	DB	029H
	DB	03aH
	DB	09H
	DB	03aH
	DB	09H
	DB	03aH
	DB	0e8H
	DB	039H
	DB	08H
	DB	03aH
	DB	09H
	DB	03aH
	DB	08H
	DB	03aH
	DB	08H
	DB	03aH
	DB	0e8H
	DB	039H
	DB	08H
	DB	03aH
	DB	029H
	DB	03aH
	DB	08H
	DB	03aH
	DB	09H
	DB	03aH
	DB	08H
	DB	032H
	DB	0e8H
	DB	031H
	DB	09H
	DB	03aH
	DB	08H
	DB	03aH
	DB	0e8H
	DB	039H
	DB	08H
	DB	03aH
	DB	08H
	DB	03aH
	DB	029H
	DB	03aH
	DB	028H
	DB	03aH
	DB	08H
	DB	03aH
	DB	08H
	DB	03aH
	DB	0e8H
	DB	039H
	DB	08H
	DB	03aH
	DB	08H
	DB	03aH
	DB	09H
	DB	03aH
	DB	08H
	DB	03aH
	DB	0e8H
	DB	039H
	DB	08H
	DB	03aH
	DB	08H
	DB	03aH
	DB	08H
	DB	03aH
	DB	08H
	DB	03aH
	DB	0e8H
	DB	039H
	DB	0e8H
	DB	039H
	DB	08H
	DB	03aH
	DB	08H
	DB	03aH
	DB	0e8H
	DB	031H
	DB	0e8H
	DB	039H
	DB	0e8H
	DB	031H
	DB	0e8H
	DB	039H
	DB	08H
	DB	03aH
	DB	08H
	DB	03aH
	DB	0e8H
	DB	031H
	DB	0e8H
	DB	031H
	DB	0c8H
	DB	031H
	DB	08H
	DB	03aH
	DB	0e8H
	DB	039H
	DB	0e7H
	DB	031H
	DB	0c7H
	DB	031H
	DB	0a7H
	DB	031H
	DB	0e8H
	DB	031H
	DB	08H
	DB	03aH
	DB	06aH
	DB	042H
	DB	08bH
	DB	04aH
	DB	069H
	DB	042H
	DB	0cdH
	DB	0abH
	DB	0cdH
	DB	0abH
	DB	0cdH
	DB	0abH
	DB	0cdH
	DB	0abH
	DB	0cdH
	DB	0abH
	DB	049H
	DB	042H
	DB	06aH
	DB	042H
	DB	049H
	DB	042H
	DB	06aH
	DB	042H
	DB	08aH
	DB	04aH
	DB	08bH
	DB	04aH
	DB	08aH
	DB	04aH
	DB	06aH
	DB	042H
	DB	06aH
	DB	042H
	DB	06aH
	DB	04aH
	DB	08aH
	DB	04aH
	DB	08aH
	DB	04aH
	DB	06aH
	DB	04aH
	DB	04aH
	DB	042H
	DB	06aH
	DB	04aH
	DB	0aaH
	DB	04aH
	DB	08aH
	DB	04aH
	DB	08aH
	DB	04aH
	DB	04aH
	DB	042H
	DB	08aH
	DB	042H
	DB	08aH
	DB	04aH
	DB	08bH
	DB	04aH
	DB	08bH
	DB	04aH
	DB	06aH
	DB	04aH
	DB	06aH
	DB	042H
	DB	08aH
	DB	04aH
	DB	06aH
	DB	042H
	DB	08aH
	DB	04aH
	DB	08aH
	DB	04aH
	DB	04aH
	DB	042H
	DB	08aH
	DB	04aH
	DB	0abH
	DB	04aH
	DB	06aH
	DB	04aH
	DB	06aH
	DB	04aH
	DB	06aH
	DB	042H
	DB	06aH
	DB	042H
	DB	06aH
	DB	04aH
	DB	06aH
	DB	04aH
	DB	08aH
	DB	04aH
	DB	06aH
	DB	042H
	DB	06aH
	DB	042H
	DB	08aH
	DB	04aH
	DB	08bH
	DB	04aH
	DB	0abH
	DB	04aH
	DB	08bH
	DB	04aH
	DB	04aH
	DB	042H
	DB	08aH
	DB	04aH
	DB	0abH
	DB	04aH
	DB	08aH
	DB	04aH
	DB	08aH
	DB	04aH
	DB	06aH
	DB	04aH
	DB	06aH
	DB	042H
	DB	0abH
	DB	04aH
	DB	08bH
	DB	04aH
	DB	08bH
	DB	04aH
	DB	08aH
	DB	04aH
	DB	06aH
	DB	042H
	DB	0abH
	DB	04aH
	DB	0abH
	DB	04aH
	DB	08bH
	DB	04aH
	DB	06aH
	DB	04aH
	DB	06aH
	DB	042H
	DB	08bH
	DB	04aH
	DB	0abH
	DB	04aH
	DB	0abH
	DB	052H
	DB	0abH
	DB	04aH
	DB	06aH
	DB	042H
	DB	06aH
	DB	04aH
	DB	08aH
	DB	04aH
	DB	0abH
	DB	052H
	DB	0cbH
	DB	052H
	DB	06aH
	DB	04aH
	DB	08aH
	DB	042H
	DB	08bH
	DB	04aH
	DB	08bH
	DB	04aH
	DB	0abH
	DB	04aH
	DB	08bH
	DB	04aH
	DB	06aH
	DB	042H
	DB	08bH
	DB	04aH
	DB	08bH
	DB	04aH
	DB	08aH
	DB	04aH
	DB	0abH
	DB	04aH
	DB	08aH
	DB	04aH
	DB	08aH
	DB	04aH
	DB	08bH
	DB	04aH
	DB	0abH
	DB	04aH
	DB	0abH
	DB	04aH
	DB	08aH
	DB	04aH
	DB	06aH
	DB	04aH
	DB	08bH
	DB	04aH
	DB	0abH
	DB	04aH
	DB	0abH
	DB	04aH
	DB	08bH
	DB	04aH
	DB	06aH
	DB	04aH
	DB	06aH
	DB	04aH
	DB	08bH
	DB	04aH
	DB	0abH
	DB	04aH
	DB	0abH
	DB	04aH
	DB	08aH
	DB	04aH
	DB	08bH
	DB	04aH
	DB	0abH
	DB	04aH
	DB	0abH
	DB	04aH
	DB	0abH
	DB	04aH
	DB	08aH
	DB	04aH
	DB	06aH
	DB	04aH
	DB	0abH
	DB	04aH
	DB	0abH
	DB	04aH
	DB	0abH
	DB	04aH
	DB	08bH
	DB	04aH
	DB	06aH
	DB	042H
	DB	08bH
	DB	04aH
	DB	0abH
	DB	04aH
	DB	0abH
	DB	04aH
	DB	0abH
	DB	052H
	DB	08aH
	DB	04aH
	DB	08aH
	DB	04aH
	DB	0abH
	DB	04aH
	DB	0abH
	DB	04aH
	DB	0abH
	DB	04aH
	DB	08bH
	DB	04aH
	DB	08aH
	DB	04aH
	DB	08bH
	DB	04aH
	DB	08bH
	DB	04aH
	DB	06aH
	DB	04aH
	DB	0cdH
	DB	0abH
	DB	0cdH
	DB	0abH
	DB	0cdH
	DB	0abH
	DB	0cdH
	DB	0abH
	DB	0cdH
	DB	0abH
	DB	0cdH
	DB	0abH
	DB	0cdH
	DB	0abH
	DB	0cdH
	DB	0abH
	DB	029H
	DB	03aH
	DB	0e8H
	DB	039H
	DB	029H
	DB	03aH
	DB	049H
	DB	042H
	DB	029H
	DB	03aH
	DB	049H
	DB	042H
	DB	08H
	DB	03aH
	DB	0e8H
	DB	031H
	DB	04aH
	DB	042H
	DB	04aH
	DB	042H
	DB	09H
	DB	03aH
	DB	029H
	DB	03aH
	DB	029H
	DB	03aH
	DB	049H
	DB	042H
	DB	049H
	DB	042H
	DB	029H
	DB	042H
	DB	029H
	DB	03aH
	DB	08H
	DB	03aH
	DB	049H
	DB	042H
	DB	06aH
	DB	042H
	DB	049H
	DB	03aH
	DB	049H
	DB	042H
	DB	09H
	DB	03aH
	DB	09H
	DB	03aH
	DB	049H
	DB	042H
	DB	029H
	DB	03aH
	DB	029H
	DB	03aH
	DB	029H
	DB	03aH
	DB	09H
	DB	03aH
	DB	029H
	DB	042H
	DB	049H
	DB	042H
	DB	049H
	DB	03aH
	DB	029H
	DB	03aH
	DB	09H
	DB	03aH
	DB	029H
	DB	03aH
	DB	06aH
	DB	042H
	DB	029H
	DB	03aH
	DB	04aH
	DB	042H
	DB	029H
	DB	042H
	DB	029H
	DB	03aH
	DB	04aH
	DB	042H
	DB	049H
	DB	042H
	DB	049H
	DB	042H
	DB	029H
	DB	03aH
	DB	09H
	DB	03aH
	DB	06aH
	DB	042H
	DB	04aH
	DB	042H
	DB	029H
	DB	042H
	DB	049H
	DB	042H
	DB	09H
	DB	03aH
	DB	049H
	DB	03aH
	DB	049H
	DB	042H
	DB	029H
	DB	042H
	DB	04aH
	DB	042H
	DB	029H
	DB	03aH
	DB	028H
	DB	03aH
	DB	049H
	DB	042H
	DB	049H
	DB	042H
	DB	049H
	DB	042H
	DB	04aH
	DB	042H
	DB	029H
	DB	03aH
	DB	049H
	DB	042H
	DB	06aH
	DB	042H
	DB	049H
	DB	042H
	DB	049H
	DB	042H
	DB	08H
	DB	03aH
	DB	029H
	DB	03aH
	DB	06aH
	DB	042H
	DB	049H
	DB	042H
	DB	049H
	DB	042H
	DB	09H
	DB	03aH
	DB	029H
	DB	03aH
	DB	06aH
	DB	042H
	DB	049H
	DB	042H
	DB	049H
	DB	042H
	DB	029H
	DB	042H
	DB	029H
	DB	03aH
	DB	04aH
	DB	042H
	DB	04aH
	DB	042H
	DB	049H
	DB	042H
	DB	04aH
	DB	042H
	DB	09H
	DB	03aH
	DB	049H
	DB	042H
	DB	06aH
	DB	042H
	DB	04aH
	DB	042H
	DB	04aH
	DB	042H
	DB	09H
	DB	03aH
	DB	049H
	DB	042H
	DB	08aH
	DB	042H
	DB	04aH
	DB	042H
	DB	049H
	DB	042H
	DB	04aH
	DB	042H
	DB	029H
	DB	03aH
	DB	049H
	DB	042H
	DB	06aH
	DB	042H
	DB	049H
	DB	042H
	DB	02aH
	DB	042H
	DB	09H
	DB	03aH
	DB	049H
	DB	042H
	DB	06aH
	DB	042H
	DB	049H
	DB	042H
	DB	04aH
	DB	042H
	DB	049H
	DB	03aH
	DB	029H
	DB	042H
	DB	06aH
	DB	042H
	DB	06aH
	DB	042H
	DB	06aH
	DB	042H
	DB	029H
	DB	042H
	DB	029H
	DB	03aH
	DB	04aH
	DB	042H
	DB	04aH
	DB	042H
	DB	049H
	DB	042H
	DB	04aH
	DB	042H
	DB	029H
	DB	03aH
	DB	049H
	DB	042H
	DB	06aH
	DB	04aH
	DB	06aH
	DB	042H
	DB	06aH
	DB	042H
	DB	029H
	DB	042H
	DB	049H
	DB	03aH
	DB	0cdH
	DB	0abH
	DB	0cdH
	DB	0abH
	DB	0cdH
	DB	0abH
	DB	0cdH
	DB	0abH
	DB	0cdH
	DB	0abH
?_down_btn_disabled_alpha_channel@@3QBEB DB 00H		; _down_btn_disabled_alpha_channel
	DB	00H
	DB	00H
	DB	0ffH
	DB	0ffH
	DB	0ffH
	DB	0ffH
	DB	0ffH
	DB	0ffH
	DB	0ffH
	DB	0ffH
	DB	0ffH
	DB	0ffH
	DB	0ffH
	DB	0ffH
	DB	0ffH
	DB	0ffH
	DB	0ffH
	DB	0ffH
	DB	0ffH
	DB	0ffH
	DB	0ffH
	DB	0ffH
	DB	0ffH
	DB	0ffH
	DB	0ffH
	DB	0ffH
	DB	0ffH
	DB	0ffH
	DB	0ffH
	DB	0ffH
	DB	0ffH
	DB	0ffH
	DB	0ffH
	DB	0ffH
	DB	0ffH
	DB	0ffH
	DB	0ffH
	DB	0ffH
	DB	0ffH
	DB	0ffH
	DB	0ffH
	DB	0ffH
	DB	0ffH
	DB	0ffH
	DB	0ffH
	DB	0ffH
	DB	0ffH
	DB	0ffH
	DB	0ffH
	DB	0ffH
	DB	0ffH
	DB	0ffH
	DB	0ffH
	DB	0ffH
	DB	0ffH
	DB	0ffH
	DB	0ffH
	DB	0ffH
	DB	0ffH
	DB	0ffH
	DB	0ffH
	DB	0ffH
	DB	0ffH
	DB	0ffH
	DB	0ffH
	DB	0ffH
	DB	0ffH
	DB	0ffH
	DB	0ffH
	DB	0ffH
	DB	0ffH
	DB	0ffH
	DB	0ffH
	DB	0ffH
	DB	0ffH
	DB	0ffH
	DB	0ffH
	DB	0ffH
	DB	0ffH
	DB	0ffH
	DB	0ffH
	DB	0ffH
	DB	0ffH
	DB	0ffH
	DB	0ffH
	DB	0ffH
	DB	0ffH
	DB	0ffH
	DB	0ffH
	DB	0ffH
	DB	0ffH
	DB	0ffH
	DB	0ffH
	DB	0ffH
	DB	0ffH
	DB	0ffH
	DB	0ffH
	DB	0ffH
	DB	0ffH
	DB	0ffH
	DB	0ffH
	DB	0ffH
	DB	0ffH
	DB	0ffH
	DB	0ffH
	DB	0ffH
	DB	0ffH
	DB	0ffH
	DB	0ffH
	DB	0ffH
	DB	0ffH
	DB	0ffH
	DB	0ffH
	DB	0ffH
	DB	0ffH
	DB	0ffH
	DB	0ffH
	DB	0ffH
	DB	0ffH
	DB	0ffH
	DB	0ffH
	DB	0ffH
	DB	0ffH
	DB	0ffH
	DB	0ffH
	DB	0ffH
	DB	00H
	DB	00H
	DB	00H
	DB	00H
	DB	00H
	DB	0ffH
	DB	0ffH
	DB	0ffH
	DB	0ffH
	DB	0ffH
	DB	0ffH
	DB	0ffH
	DB	0ffH
	DB	0ffH
	DB	0ffH
	DB	0ffH
	DB	0ffH
	DB	0ffH
	DB	0ffH
	DB	0ffH
	DB	0ffH
	DB	0ffH
	DB	0ffH
	DB	0ffH
	DB	0ffH
	DB	0ffH
	DB	0ffH
	DB	0ffH
	DB	0ffH
	DB	0ffH
	DB	0ffH
	DB	0ffH
	DB	0ffH
	DB	0ffH
	DB	0ffH
	DB	0ffH
	DB	0ffH
	DB	0ffH
	DB	0ffH
	DB	0ffH
	DB	0ffH
	DB	0ffH
	DB	0ffH
	DB	0ffH
	DB	0ffH
	DB	0ffH
	DB	0ffH
	DB	0ffH
	DB	0ffH
	DB	0ffH
	DB	0ffH
	DB	0ffH
	DB	0ffH
	DB	0ffH
	DB	0ffH
	DB	0ffH
	DB	0ffH
	DB	0ffH
	DB	0ffH
	DB	0ffH
	DB	0ffH
	DB	0ffH
	DB	0ffH
	DB	0ffH
	DB	0ffH
	DB	0ffH
	DB	0ffH
	DB	0ffH
	DB	0ffH
	DB	0ffH
	DB	0ffH
	DB	0ffH
	DB	0ffH
	DB	0ffH
	DB	0ffH
	DB	0ffH
	DB	0ffH
	DB	0ffH
	DB	0ffH
	DB	0ffH
	DB	0ffH
	DB	0ffH
	DB	0ffH
	DB	0ffH
	DB	0ffH
	DB	0ffH
	DB	0ffH
	DB	0ffH
	DB	0ffH
	DB	0ffH
	DB	0ffH
	DB	0ffH
	DB	0ffH
	DB	0ffH
	DB	0ffH
	DB	0ffH
	DB	0ffH
	DB	0ffH
	DB	0ffH
	DB	0ffH
	DB	0ffH
	DB	0ffH
	DB	0ffH
	DB	0ffH
	DB	0ffH
	DB	0ffH
	DB	0ffH
	DB	0ffH
	DB	0ffH
	DB	0ffH
	DB	0ffH
	DB	0ffH
	DB	0ffH
	DB	0ffH
	DB	0ffH
	DB	0ffH
	DB	0ffH
	DB	0ffH
	DB	0ffH
	DB	0ffH
	DB	0ffH
	DB	0ffH
	DB	0ffH
	DB	0ffH
	DB	0ffH
	DB	0ffH
	DB	0ffH
	DB	0ffH
	DB	0ffH
	DB	0ffH
	DB	0ffH
	DB	00H
	DB	00H
	DB	00H
	DB	0ffH
	DB	0ffH
	DB	0ffH
	DB	0ffH
	DB	0ffH
	DB	0ffH
	DB	0ffH
	DB	0ffH
	DB	0ffH
	DB	0ffH
	DB	0ffH
	DB	0ffH
	DB	0ffH
	DB	0ffH
	DB	0ffH
	DB	0ffH
	DB	0ffH
	DB	0ffH
	DB	0ffH
	DB	0ffH
	DB	0ffH
	DB	0ffH
	DB	0ffH
	DB	0ffH
	DB	0ffH
	DB	0ffH
	DB	0ffH
	DB	0ffH
	DB	0ffH
	DB	0ffH
	DB	0ffH
	DB	0ffH
	DB	0ffH
	DB	0ffH
	DB	0ffH
	DB	0ffH
	DB	0ffH
	DB	0ffH
	DB	0ffH
	DB	0ffH
	DB	0ffH
	DB	0ffH
	DB	0ffH
	DB	0ffH
	DB	0ffH
	DB	0ffH
	DB	0ffH
	DB	0ffH
	DB	0ffH
	DB	0ffH
	DB	0ffH
	DB	0ffH
	DB	0ffH
	DB	0ffH
	DB	0ffH
	DB	0ffH
	DB	0ffH
	DB	0ffH
	DB	0ffH
	DB	0ffH
	DB	0ffH
	DB	0ffH
	DB	0ffH
	DB	0ffH
	DB	0ffH
	DB	0ffH
	DB	0ffH
	DB	0ffH
	DB	0ffH
	DB	0ffH
	DB	0ffH
	DB	0ffH
	DB	0ffH
	DB	0ffH
	DB	0ffH
	DB	0ffH
	DB	0ffH
	DB	0ffH
	DB	0ffH
	DB	0ffH
	DB	0ffH
	DB	0ffH
	DB	0ffH
	DB	0ffH
	DB	0ffH
	DB	0ffH
	DB	0ffH
	DB	0ffH
	DB	0ffH
	DB	0ffH
	DB	0ffH
	DB	0ffH
	DB	0ffH
	DB	0ffH
	DB	0ffH
	DB	0ffH
	DB	0ffH
	DB	0ffH
	DB	0ffH
	DB	0ffH
	DB	0ffH
	DB	0ffH
	DB	0ffH
	DB	0ffH
	DB	0ffH
	DB	0ffH
	DB	0ffH
	DB	0ffH
	DB	0ffH
	DB	0ffH
	DB	0ffH
	DB	0ffH
	DB	0ffH
	DB	0ffH
	DB	0ffH
	DB	0ffH
	DB	0ffH
	DB	0ffH
	DB	0ffH
	DB	0ffH
	DB	0ffH
	DB	0ffH
	DB	0ffH
	DB	0ffH
	DB	0ffH
	DB	0ffH
	DB	0ffH
	DB	0ffH
	DB	00H
	DB	0ffH
	DB	0ffH
	DB	0ffH
	DB	0ffH
	DB	0ffH
	DB	0ffH
	DB	0ffH
	DB	0ffH
	DB	0ffH
	DB	0ffH
	DB	0ffH
	DB	0ffH
	DB	0ffH
	DB	0ffH
	DB	0ffH
	DB	0ffH
	DB	0ffH
	DB	0ffH
	DB	0ffH
	DB	0ffH
	DB	0ffH
	DB	0ffH
	DB	0ffH
	DB	0ffH
	DB	0ffH
	DB	0ffH
	DB	0ffH
	DB	0ffH
	DB	0ffH
	DB	0ffH
	DB	0ffH
	DB	0ffH
	DB	0ffH
	DB	0ffH
	DB	0ffH
	DB	0ffH
	DB	0ffH
	DB	0ffH
	DB	0ffH
	DB	0ffH
	DB	0ffH
	DB	0ffH
	DB	0ffH
	DB	0ffH
	DB	0ffH
	DB	0ffH
	DB	0ffH
	DB	0ffH
	DB	0ffH
	DB	0ffH
	DB	0ffH
	DB	0ffH
	DB	0ffH
	DB	0ffH
	DB	0ffH
	DB	0ffH
	DB	0ffH
	DB	0ffH
	DB	0ffH
	DB	0ffH
	DB	0ffH
	DB	0ffH
	DB	0ffH
	DB	0ffH
	DB	0ffH
	DB	0ffH
	DB	0ffH
	DB	0ffH
	DB	0ffH
	DB	0ffH
	DB	0ffH
	DB	0ffH
	DB	0ffH
	DB	0ffH
	DB	0ffH
	DB	0ffH
	DB	0ffH
	DB	0ffH
	DB	0ffH
	DB	0ffH
	DB	0ffH
	DB	0ffH
	DB	0ffH
	DB	0ffH
	DB	0ffH
	DB	0ffH
	DB	0ffH
	DB	0ffH
	DB	0ffH
	DB	0ffH
	DB	0ffH
	DB	0ffH
	DB	0ffH
	DB	0ffH
	DB	0ffH
	DB	0ffH
	DB	0ffH
	DB	0ffH
	DB	0ffH
	DB	0ffH
	DB	0ffH
	DB	0ffH
	DB	0ffH
	DB	0ffH
	DB	0ffH
	DB	0ffH
	DB	0ffH
	DB	0ffH
	DB	0ffH
	DB	0ffH
	DB	0ffH
	DB	0ffH
	DB	0ffH
	DB	0ffH
	DB	0ffH
	DB	0ffH
	DB	0ffH
	DB	0ffH
	DB	0ffH
	DB	0ffH
	DB	0ffH
	DB	0ffH
	DB	0ffH
	DB	0ffH
	DB	0ffH
	DB	0ffH
	DB	0ffH
	DB	0ffH
	DB	0ffH
	DB	0ffH
	DB	0ffH
	DB	0ffH
	DB	0ffH
	DB	0ffH
	DB	0ffH
	DB	0ffH
	DB	0ffH
	DB	0ffH
	DB	0ffH
	DB	0ffH
	DB	0ffH
	DB	0ffH
	DB	0ffH
	DB	0ffH
	DB	0ffH
	DB	0ffH
	DB	0ffH
	DB	0ffH
	DB	0ffH
	DB	0ffH
	DB	0ffH
	DB	0ffH
	DB	0ffH
	DB	0ffH
	DB	0ffH
	DB	0ffH
	DB	0ffH
	DB	0ffH
	DB	0ffH
	DB	0ffH
	DB	0ffH
	DB	0ffH
	DB	0ffH
	DB	0ffH
	DB	0ffH
	DB	0ffH
	DB	0ffH
	DB	0ffH
	DB	0ffH
	DB	0ffH
	DB	0ffH
	DB	0ffH
	DB	0ffH
	DB	0ffH
	DB	0ffH
	DB	0ffH
	DB	0ffH
	DB	0ffH
	DB	0ffH
	DB	0ffH
	DB	0ffH
	DB	0ffH
	DB	0ffH
	DB	0ffH
	DB	0ffH
	DB	0ffH
	DB	0ffH
	DB	0ffH
	DB	0ffH
	DB	0ffH
	DB	0ffH
	DB	0ffH
	DB	0ffH
	DB	0ffH
	DB	0ffH
	DB	0ffH
	DB	0ffH
	DB	0ffH
	DB	0ffH
	DB	0ffH
	DB	0ffH
	DB	0ffH
	DB	0ffH
	DB	0ffH
	DB	0ffH
	DB	0ffH
	DB	0ffH
	DB	0ffH
	DB	0ffH
	DB	0ffH
	DB	0ffH
	DB	0ffH
	DB	0ffH
	DB	0ffH
	DB	0ffH
	DB	0ffH
	DB	0ffH
	DB	0ffH
	DB	0ffH
	DB	0ffH
	DB	0ffH
	DB	0ffH
	DB	0ffH
	DB	0ffH
	DB	0ffH
	DB	0ffH
	DB	0ffH
	DB	0ffH
	DB	0ffH
	DB	0ffH
	DB	0ffH
	DB	0ffH
	DB	0ffH
	DB	0ffH
	DB	0ffH
	DB	0ffH
	DB	0ffH
	DB	0ffH
	DB	0ffH
	DB	0ffH
	DB	0ffH
	DB	0ffH
	DB	0ffH
	DB	0ffH
	DB	0ffH
	DB	0ffH
	DB	0ffH
	DB	0ffH
	DB	0ffH
	DB	0ffH
	DB	0ffH
	DB	0ffH
	DB	0ffH
	DB	0ffH
	DB	0ffH
	DB	0ffH
	DB	0ffH
	DB	0ffH
	DB	0ffH
	DB	0ffH
	DB	0ffH
	DB	0ffH
	DB	0ffH
	DB	0ffH
	DB	0ffH
	DB	0ffH
	DB	0ffH
	DB	0ffH
	DB	0ffH
	DB	0ffH
	DB	0ffH
	DB	0ffH
	DB	0ffH
	DB	0ffH
	DB	0ffH
	DB	0ffH
	DB	0ffH
	DB	0ffH
	DB	0ffH
	DB	0ffH
	DB	0ffH
	DB	0ffH
	DB	0ffH
	DB	0ffH
	DB	0ffH
	DB	0ffH
	DB	0ffH
	DB	0ffH
	DB	0ffH
	DB	0ffH
	DB	0ffH
	DB	0ffH
	DB	0ffH
	DB	0ffH
	DB	0ffH
	DB	0ffH
	DB	0ffH
	DB	0ffH
	DB	0ffH
	DB	0ffH
	DB	0ffH
	DB	0ffH
	DB	0ffH
	DB	0ffH
	DB	0ffH
	DB	0ffH
	DB	0ffH
	DB	0ffH
	DB	0ffH
	DB	0ffH
	DB	0ffH
	DB	0ffH
	DB	0ffH
	DB	0ffH
	DB	0ffH
	DB	0ffH
	DB	0ffH
	DB	0ffH
	DB	0ffH
	DB	0ffH
	DB	0ffH
	DB	0ffH
	DB	0ffH
	DB	0ffH
	DB	0ffH
	DB	0ffH
	DB	0ffH
	DB	0ffH
	DB	0ffH
	DB	0ffH
	DB	0ffH
	DB	0ffH
	DB	0ffH
	DB	0ffH
	DB	0ffH
	DB	0ffH
	DB	0ffH
	DB	0ffH
	DB	0ffH
	DB	0ffH
	DB	0ffH
	DB	0ffH
	DB	0ffH
	DB	0ffH
	DB	0ffH
	DB	0ffH
	DB	0ffH
	DB	0ffH
	DB	0ffH
	DB	0ffH
	DB	0ffH
	DB	0ffH
	DB	0ffH
	DB	0ffH
	DB	0ffH
	DB	0ffH
	DB	0ffH
	DB	0ffH
	DB	0ffH
	DB	0ffH
	DB	0ffH
	DB	0ffH
	DB	0ffH
	DB	0ffH
	DB	0ffH
	DB	0ffH
	DB	0ffH
	DB	0ffH
	DB	0ffH
	DB	0ffH
	DB	0ffH
	DB	0ffH
	DB	0ffH
	DB	0ffH
	DB	0ffH
	DB	0ffH
	DB	0ffH
	DB	0ffH
	DB	0ffH
	DB	0ffH
	DB	0ffH
	DB	0ffH
	DB	0ffH
	DB	0ffH
	DB	0ffH
	DB	0ffH
	DB	0ffH
	DB	0ffH
	DB	0ffH
	DB	0ffH
	DB	0ffH
	DB	0ffH
	DB	0ffH
	DB	0ffH
	DB	0ffH
	DB	0ffH
	DB	0ffH
	DB	0ffH
	DB	0ffH
	DB	0ffH
	DB	0ffH
	DB	0ffH
	DB	0ffH
	DB	0ffH
	DB	0ffH
	DB	0ffH
	DB	0ffH
	DB	0ffH
	DB	0ffH
	DB	0ffH
	DB	0ffH
	DB	0ffH
	DB	0ffH
	DB	0ffH
	DB	0ffH
	DB	0ffH
	DB	0ffH
	DB	0ffH
	DB	0ffH
	DB	0ffH
	DB	0ffH
	DB	0ffH
	DB	0ffH
	DB	0ffH
	DB	0ffH
	DB	0ffH
	DB	0ffH
	DB	0ffH
	DB	0ffH
	DB	0ffH
	DB	0ffH
	DB	0ffH
	DB	0ffH
	DB	0ffH
	DB	0ffH
	DB	0ffH
	DB	0ffH
	DB	0ffH
	DB	0ffH
	DB	0ffH
	DB	0ffH
	DB	0ffH
	DB	0ffH
	DB	0ffH
	DB	0ffH
	DB	0ffH
	DB	0ffH
	DB	0ffH
	DB	0ffH
	DB	0ffH
	DB	0ffH
	DB	0ffH
	DB	0ffH
	DB	0ffH
	DB	0ffH
	DB	0ffH
	DB	0ffH
	DB	0ffH
	DB	0ffH
	DB	0ffH
	DB	0ffH
	DB	0ffH
	DB	0ffH
	DB	0ffH
	DB	0ffH
	DB	0ffH
	DB	0ffH
	DB	0ffH
	DB	0ffH
	DB	0ffH
	DB	0ffH
	DB	0ffH
	DB	0ffH
	DB	0ffH
	DB	0ffH
	DB	0ffH
	DB	0ffH
	DB	0ffH
	DB	0ffH
	DB	0ffH
	DB	0ffH
	DB	0ffH
	DB	0ffH
	DB	0ffH
	DB	0ffH
	DB	0ffH
	DB	0ffH
	DB	0ffH
	DB	0ffH
	DB	0ffH
	DB	0ffH
	DB	0ffH
	DB	0ffH
	DB	0ffH
	DB	0ffH
	DB	0ffH
	DB	0ffH
	DB	0ffH
	DB	0ffH
	DB	0ffH
	DB	0ffH
	DB	0ffH
	DB	0ffH
	DB	0ffH
	DB	0ffH
	DB	0ffH
	DB	0ffH
	DB	0ffH
	DB	0ffH
	DB	0ffH
	DB	0ffH
	DB	0ffH
	DB	0ffH
	DB	0ffH
	DB	0ffH
	DB	0ffH
	DB	0ffH
	DB	0ffH
	DB	0ffH
	DB	0ffH
	DB	0ffH
	DB	0ffH
	DB	0ffH
	DB	0ffH
	DB	0ffH
	DB	0ffH
	DB	0ffH
	DB	0ffH
	DB	0ffH
	DB	0ffH
	DB	0ffH
	DB	0ffH
	DB	0ffH
	DB	0ffH
	DB	0ffH
	DB	0ffH
	DB	0ffH
	DB	0ffH
	DB	0ffH
	DB	0ffH
	DB	0ffH
	DB	0ffH
	DB	0ffH
	DB	0ffH
	DB	0ffH
	DB	0ffH
	DB	0ffH
	DB	0ffH
	DB	0ffH
	DB	0ffH
	DB	0ffH
	DB	0ffH
	DB	0ffH
	DB	0ffH
	DB	0ffH
	DB	0ffH
	DB	0ffH
	DB	0ffH
	DB	0ffH
	DB	0ffH
	DB	0ffH
	DB	0ffH
	DB	0ffH
	DB	0ffH
	DB	0ffH
	DB	0ffH
	DB	0ffH
	DB	0ffH
	DB	0ffH
	DB	0ffH
	DB	0ffH
	DB	0ffH
	DB	0ffH
	DB	0ffH
	DB	0ffH
	DB	0ffH
	DB	0ffH
	DB	0ffH
	DB	0ffH
	DB	0ffH
	DB	0ffH
	DB	0ffH
	DB	0ffH
	DB	0ffH
	DB	0ffH
	DB	0ffH
	DB	0ffH
	DB	0ffH
	DB	0ffH
	DB	0ffH
	DB	0ffH
	DB	0ffH
	DB	0ffH
	DB	0ffH
	DB	0ffH
	DB	0ffH
	DB	0ffH
	DB	0ffH
	DB	0ffH
	DB	0ffH
	DB	0ffH
	DB	0ffH
	DB	0ffH
	DB	0ffH
	DB	0ffH
	DB	0ffH
	DB	0ffH
	DB	0ffH
	DB	0ffH
	DB	0ffH
	DB	0ffH
	DB	0ffH
	DB	0ffH
	DB	0ffH
	DB	0ffH
	DB	0ffH
	DB	0ffH
	DB	0ffH
	DB	0ffH
	DB	0ffH
	DB	0ffH
	DB	0ffH
	DB	0ffH
	DB	0ffH
	DB	0ffH
	DB	0ffH
	DB	0ffH
	DB	0ffH
	DB	0ffH
	DB	0ffH
	DB	0ffH
	DB	0ffH
	DB	0ffH
	DB	0ffH
	DB	0ffH
	DB	0ffH
	DB	0ffH
	DB	0ffH
	DB	0ffH
	DB	0ffH
	DB	0ffH
	DB	0ffH
	DB	0ffH
	DB	0ffH
	DB	0ffH
	DB	0ffH
	DB	0ffH
	DB	0ffH
	DB	0ffH
	DB	0ffH
	DB	0ffH
	DB	0ffH
	DB	0ffH
	DB	0ffH
	DB	0ffH
	DB	0ffH
	DB	0ffH
	DB	0ffH
	DB	0ffH
	DB	0ffH
	DB	0ffH
	DB	0ffH
	DB	0ffH
	DB	0ffH
	DB	0ffH
	DB	0ffH
	DB	0ffH
	DB	0ffH
	DB	0ffH
	DB	0ffH
	DB	0ffH
	DB	0ffH
	DB	0ffH
	DB	0ffH
	DB	0ffH
	DB	0ffH
	DB	0ffH
	DB	0ffH
	DB	0ffH
	DB	0ffH
	DB	0ffH
	DB	0ffH
	DB	0ffH
	DB	0ffH
	DB	0ffH
	DB	0ffH
	DB	0ffH
	DB	0ffH
	DB	0ffH
	DB	0ffH
	DB	0ffH
	DB	0ffH
	DB	0ffH
	DB	0ffH
	DB	0ffH
	DB	0ffH
	DB	0ffH
	DB	0ffH
	DB	0ffH
	DB	0ffH
	DB	0ffH
	DB	0ffH
	DB	0ffH
	DB	0ffH
	DB	0ffH
	DB	0ffH
	DB	0ffH
	DB	0ffH
	DB	0ffH
	DB	0ffH
	DB	0ffH
	DB	0ffH
	DB	0ffH
	DB	0ffH
	DB	0ffH
	DB	0ffH
	DB	0ffH
	DB	0ffH
	DB	0ffH
	DB	0ffH
	DB	0ffH
	DB	0ffH
	DB	0ffH
	DB	0ffH
	DB	0ffH
	DB	0ffH
	DB	0ffH
	DB	0ffH
	DB	0ffH
	DB	0ffH
	DB	0ffH
	DB	0ffH
	DB	0ffH
	DB	0ffH
	DB	0ffH
	DB	0ffH
	DB	0ffH
	DB	0ffH
	DB	0ffH
	DB	0ffH
	DB	0ffH
	DB	0ffH
	DB	0ffH
	DB	0ffH
	DB	0ffH
	DB	0ffH
	DB	0ffH
	DB	0ffH
	DB	0ffH
	DB	0ffH
	DB	0ffH
	DB	0ffH
	DB	0ffH
	DB	0ffH
	DB	0ffH
	DB	0ffH
	DB	0ffH
	DB	0ffH
	DB	0ffH
	DB	0ffH
	DB	0ffH
	DB	0ffH
	DB	0ffH
	DB	0ffH
	DB	0ffH
	DB	0ffH
	DB	0ffH
	DB	0ffH
	DB	0ffH
	DB	0ffH
	DB	0ffH
	DB	0ffH
	DB	0ffH
	DB	0ffH
	DB	0ffH
	DB	0ffH
	DB	0ffH
	DB	0ffH
	DB	0ffH
	DB	0ffH
	DB	0ffH
	DB	0ffH
	DB	0ffH
	DB	0ffH
	DB	0ffH
	DB	0ffH
	DB	0ffH
	DB	0ffH
	DB	0ffH
	DB	0ffH
	DB	0ffH
	DB	0ffH
	DB	0ffH
	DB	0ffH
	DB	0ffH
	DB	0ffH
	DB	0ffH
	DB	0ffH
	DB	0ffH
	DB	0ffH
	DB	0ffH
	DB	0ffH
	DB	0ffH
	DB	0ffH
	DB	0ffH
	DB	0ffH
	DB	0ffH
	DB	0ffH
	DB	0ffH
	DB	0ffH
	DB	0ffH
	DB	0ffH
	DB	0ffH
	DB	0ffH
	DB	0ffH
	DB	0ffH
	DB	0ffH
	DB	0ffH
	DB	0ffH
	DB	0ffH
	DB	0ffH
	DB	0ffH
	DB	0ffH
	DB	0ffH
	DB	0ffH
	DB	0ffH
	DB	0ffH
	DB	0ffH
	DB	0ffH
	DB	0ffH
	DB	0ffH
	DB	0ffH
	DB	0ffH
	DB	0ffH
	DB	0ffH
	DB	0ffH
	DB	0ffH
	DB	0ffH
	DB	0ffH
	DB	0ffH
	DB	0ffH
	DB	0ffH
	DB	0ffH
	DB	0ffH
	DB	0ffH
	DB	0ffH
	DB	0ffH
	DB	0ffH
	DB	0ffH
	DB	0ffH
	DB	0ffH
	DB	0ffH
	DB	0ffH
	DB	0ffH
	DB	0ffH
	DB	0ffH
	DB	0ffH
	DB	0ffH
	DB	0ffH
	DB	0ffH
	DB	0ffH
	DB	0ffH
	DB	0ffH
	DB	0ffH
	DB	0ffH
	DB	0ffH
	DB	0ffH
	DB	0ffH
	DB	0ffH
	DB	0ffH
	DB	0ffH
	DB	0ffH
	DB	0ffH
	DB	0ffH
	DB	0ffH
	DB	0ffH
	DB	0ffH
	DB	0ffH
	DB	0ffH
	DB	0ffH
	DB	0ffH
	DB	0ffH
	DB	0ffH
	DB	0ffH
	DB	0ffH
	DB	0ffH
	DB	0ffH
	DB	0ffH
	DB	0ffH
	DB	0ffH
	DB	0ffH
	DB	0ffH
	DB	0ffH
	DB	0ffH
	DB	0ffH
	DB	0ffH
	DB	0ffH
	DB	0ffH
	DB	0ffH
	DB	0ffH
	DB	0ffH
	DB	0ffH
	DB	0ffH
	DB	0ffH
	DB	0ffH
	DB	0ffH
	DB	0ffH
	DB	0ffH
	DB	0ffH
	DB	0ffH
	DB	0ffH
	DB	0ffH
	DB	0ffH
	DB	0ffH
	DB	0ffH
	DB	0ffH
	DB	0ffH
	DB	0ffH
	DB	0ffH
	DB	0ffH
	DB	0ffH
	DB	0ffH
	DB	0ffH
	DB	0ffH
	DB	0ffH
	DB	0ffH
	DB	0ffH
	DB	0ffH
	DB	0ffH
	DB	0ffH
	DB	0ffH
	DB	0ffH
	DB	0ffH
	DB	0ffH
	DB	0ffH
	DB	0ffH
	DB	0ffH
	DB	0ffH
	DB	0ffH
	DB	0ffH
	DB	0ffH
	DB	0ffH
	DB	0ffH
	DB	0ffH
	DB	0ffH
	DB	0ffH
	DB	0ffH
	DB	0ffH
	DB	0ffH
	DB	0ffH
	DB	0ffH
	DB	0ffH
	DB	0ffH
	DB	0ffH
	DB	0ffH
	DB	0ffH
	DB	0ffH
	DB	0ffH
	DB	0ffH
	DB	0ffH
	DB	0ffH
	DB	0ffH
	DB	0ffH
	DB	0ffH
	DB	0ffH
	DB	0ffH
	DB	0ffH
	DB	0ffH
	DB	0ffH
	DB	0ffH
	DB	0ffH
	DB	0ffH
	DB	0ffH
	DB	0ffH
	DB	0ffH
	DB	0ffH
	DB	0ffH
	DB	0ffH
	DB	0ffH
	DB	0ffH
	DB	0ffH
	DB	0ffH
	DB	0ffH
	DB	0ffH
	DB	0ffH
	DB	0ffH
	DB	0ffH
	DB	0ffH
	DB	0ffH
	DB	0ffH
	DB	0ffH
	DB	0ffH
	DB	0ffH
	DB	0ffH
	DB	0ffH
	DB	0ffH
	DB	0ffH
	DB	0ffH
	DB	0ffH
	DB	0ffH
	DB	0ffH
	DB	0ffH
	DB	0ffH
	DB	0ffH
	DB	0ffH
	DB	0ffH
	DB	0ffH
	DB	0ffH
	DB	0ffH
	DB	0ffH
	DB	0ffH
	DB	0ffH
	DB	0ffH
	DB	0ffH
	DB	0ffH
	DB	0ffH
	DB	0ffH
	DB	0ffH
	DB	0ffH
	DB	0ffH
	DB	0ffH
	DB	0ffH
	DB	0ffH
	DB	0ffH
	DB	0ffH
	DB	0ffH
	DB	0ffH
	DB	0ffH
	DB	0ffH
	DB	0ffH
	DB	0ffH
	DB	0ffH
	DB	0ffH
	DB	0ffH
	DB	0ffH
	DB	0ffH
	DB	0ffH
	DB	0ffH
	DB	0ffH
	DB	0ffH
	DB	0ffH
	DB	0ffH
	DB	0ffH
	DB	0ffH
	DB	0ffH
	DB	0ffH
	DB	0ffH
	DB	0ffH
	DB	0ffH
	DB	0ffH
	DB	0ffH
	DB	0ffH
	DB	0ffH
	DB	0ffH
	DB	0ffH
	DB	0ffH
	DB	0ffH
	DB	0ffH
	DB	0ffH
	DB	0ffH
	DB	0ffH
	DB	0ffH
	DB	0ffH
	DB	0ffH
	DB	0ffH
	DB	0ffH
	DB	0ffH
	DB	0ffH
	DB	0ffH
	DB	0ffH
	DB	0ffH
	DB	0ffH
	DB	0ffH
	DB	0ffH
	DB	0ffH
	DB	0ffH
	DB	0ffH
	DB	0ffH
	DB	0ffH
	DB	0ffH
	DB	0ffH
	DB	0ffH
	DB	0ffH
	DB	0ffH
	DB	0ffH
	DB	0ffH
	DB	0ffH
	DB	0ffH
	DB	0ffH
	DB	0ffH
	DB	0ffH
	DB	0ffH
	DB	0ffH
	DB	0ffH
	DB	0ffH
	DB	0ffH
	DB	0ffH
	DB	0ffH
	DB	0ffH
	DB	0ffH
	DB	0ffH
	DB	0ffH
	DB	0ffH
	DB	0ffH
	DB	0ffH
	DB	0ffH
	DB	0ffH
	DB	0ffH
	DB	0ffH
	DB	0ffH
	DB	0ffH
	DB	0ffH
	DB	0ffH
	DB	0ffH
	DB	0ffH
	DB	0ffH
	DB	0ffH
	DB	0ffH
	DB	0ffH
	DB	0ffH
	DB	0ffH
	DB	0ffH
	DB	0ffH
	DB	0ffH
	DB	0ffH
	DB	0ffH
	DB	0ffH
	DB	0ffH
	DB	0ffH
	DB	0ffH
	DB	0ffH
	DB	0ffH
	DB	0ffH
	DB	0ffH
	DB	0ffH
	DB	0ffH
	DB	0ffH
	DB	0ffH
	DB	0ffH
	DB	0ffH
	DB	0ffH
	DB	0ffH
	DB	0ffH
	DB	0ffH
	DB	0ffH
	DB	0ffH
	DB	0ffH
	DB	0ffH
	DB	0ffH
	DB	0ffH
	DB	0ffH
	DB	0ffH
	DB	0ffH
	DB	0ffH
	DB	0ffH
	DB	0ffH
	DB	0ffH
	DB	0ffH
	DB	0ffH
	DB	0ffH
	DB	0ffH
	DB	0ffH
	DB	0ffH
	DB	0ffH
	DB	0ffH
	DB	0ffH
	DB	0ffH
	DB	0ffH
	DB	0ffH
	DB	0ffH
	DB	0ffH
	DB	0ffH
	DB	0ffH
	DB	0ffH
	DB	0ffH
	DB	0ffH
	DB	0ffH
	DB	0ffH
	DB	0ffH
	DB	0ffH
	DB	0ffH
	DB	0ffH
	DB	0ffH
	DB	0ffH
	DB	0ffH
	DB	0ffH
	DB	0ffH
	DB	0ffH
	DB	0ffH
	DB	0ffH
	DB	0ffH
	DB	0ffH
	DB	0ffH
	DB	0ffH
	DB	0ffH
	DB	0ffH
	DB	0ffH
	DB	0ffH
	DB	0ffH
	DB	0ffH
	DB	0ffH
	DB	0ffH
	DB	0ffH
	DB	0ffH
	DB	0ffH
	DB	0ffH
	DB	0ffH
	DB	0ffH
	DB	0ffH
	DB	0ffH
	DB	0ffH
	DB	0ffH
	DB	0ffH
	DB	0ffH
	DB	0ffH
	DB	0ffH
	DB	0ffH
	DB	0ffH
	DB	0ffH
	DB	0ffH
	DB	0ffH
	DB	0ffH
	DB	0ffH
	DB	0ffH
	DB	0ffH
	DB	0ffH
	DB	0ffH
	DB	0ffH
	DB	0ffH
	DB	0ffH
	DB	0ffH
	DB	0ffH
	DB	0ffH
	DB	0ffH
	DB	0ffH
	DB	0ffH
	DB	0ffH
	DB	0ffH
	DB	0ffH
	DB	0ffH
	DB	0ffH
	DB	0ffH
	DB	0ffH
	DB	0ffH
	DB	0ffH
	DB	0ffH
	DB	0ffH
	DB	0ffH
	DB	0ffH
	DB	0ffH
	DB	0ffH
	DB	0ffH
	DB	0ffH
	DB	0ffH
	DB	0ffH
	DB	0ffH
	DB	0ffH
	DB	0ffH
	DB	0ffH
	DB	0ffH
	DB	0ffH
	DB	0ffH
	DB	0ffH
	DB	0ffH
	DB	0ffH
	DB	0ffH
	DB	0ffH
	DB	0ffH
	DB	0ffH
	DB	0ffH
	DB	0ffH
	DB	0ffH
	DB	0ffH
	DB	0ffH
	DB	0ffH
	DB	0ffH
	DB	0ffH
	DB	0ffH
	DB	0ffH
	DB	0ffH
	DB	0ffH
	DB	0ffH
	DB	0ffH
	DB	0ffH
	DB	0ffH
	DB	0ffH
	DB	0ffH
	DB	0ffH
	DB	0ffH
	DB	0ffH
	DB	0ffH
	DB	0ffH
	DB	0ffH
	DB	0ffH
	DB	0ffH
	DB	0ffH
	DB	0ffH
	DB	0ffH
	DB	0ffH
	DB	0ffH
	DB	0ffH
	DB	0ffH
	DB	0ffH
	DB	0ffH
	DB	0ffH
	DB	0ffH
	DB	0ffH
	DB	0ffH
	DB	0ffH
	DB	0ffH
	DB	0ffH
	DB	0ffH
	DB	0ffH
	DB	0ffH
	DB	0ffH
	DB	0ffH
	DB	0ffH
	DB	0ffH
	DB	0ffH
	DB	0ffH
	DB	0ffH
	DB	0ffH
	DB	0ffH
	DB	0ffH
	DB	0ffH
	DB	0ffH
	DB	0ffH
	DB	0ffH
	DB	0ffH
	DB	0ffH
	DB	0ffH
	DB	0ffH
	DB	0ffH
	DB	0ffH
	DB	0ffH
	DB	0ffH
	DB	0ffH
	DB	0ffH
	DB	0ffH
	DB	0ffH
	DB	0ffH
	DB	0ffH
	DB	0ffH
	DB	0ffH
	DB	0ffH
	DB	0ffH
	DB	0ffH
	DB	0ffH
	DB	0ffH
	DB	0ffH
	DB	0ffH
	DB	0ffH
	DB	0ffH
	DB	0ffH
	DB	0ffH
	DB	0ffH
	DB	0ffH
	DB	0ffH
	DB	0ffH
	DB	0ffH
	DB	0ffH
	DB	0ffH
	DB	0ffH
	DB	0ffH
	DB	0ffH
	DB	0ffH
	DB	0ffH
	DB	0ffH
	DB	0ffH
	DB	0ffH
	DB	0ffH
	DB	0ffH
	DB	0ffH
	DB	0ffH
	DB	0ffH
	DB	0ffH
	DB	0ffH
	DB	0ffH
	DB	0ffH
	DB	0ffH
	DB	0ffH
	DB	0ffH
	DB	0ffH
	DB	0ffH
	DB	0ffH
	DB	0ffH
	DB	0ffH
	DB	0ffH
	DB	0ffH
	DB	0ffH
	DB	0ffH
	DB	0ffH
	DB	0ffH
	DB	0ffH
	DB	0ffH
	DB	0ffH
	DB	0ffH
	DB	0ffH
	DB	0ffH
	DB	0ffH
	DB	0ffH
	DB	0ffH
	DB	0ffH
	DB	0ffH
	DB	0ffH
	DB	0ffH
	DB	0ffH
	DB	0ffH
	DB	0ffH
	DB	0ffH
	DB	0ffH
	DB	0ffH
	DB	0ffH
	DB	0ffH
	DB	0ffH
	DB	0ffH
	DB	0ffH
	DB	0ffH
	DB	0ffH
	DB	0ffH
	DB	0ffH
	DB	0ffH
	DB	0ffH
	DB	0ffH
	DB	0ffH
	DB	0ffH
	DB	0ffH
	DB	0ffH
	DB	0ffH
	DB	0ffH
	DB	0ffH
	DB	0ffH
	DB	0ffH
	DB	0ffH
	DB	0ffH
	DB	0ffH
	DB	0ffH
	DB	0ffH
	DB	0ffH
	DB	0ffH
	DB	0ffH
	DB	0ffH
	DB	0ffH
	DB	0ffH
	DB	0ffH
	DB	0ffH
	DB	0ffH
	DB	0ffH
	DB	0ffH
	DB	0ffH
	DB	0ffH
	DB	0ffH
	DB	0ffH
	DB	0ffH
	DB	0ffH
	DB	0ffH
	DB	0ffH
	DB	0ffH
	DB	0ffH
	DB	0ffH
	DB	0ffH
	DB	0ffH
	DB	0ffH
	DB	0ffH
	DB	0ffH
	DB	0ffH
	DB	0ffH
	DB	0ffH
	DB	0ffH
	DB	0ffH
	DB	0ffH
	DB	0ffH
	DB	0ffH
	DB	0ffH
	DB	0ffH
	DB	0ffH
	DB	0ffH
	DB	0ffH
	DB	0ffH
	DB	0ffH
	DB	0ffH
	DB	0ffH
	DB	0ffH
	DB	0ffH
	DB	0ffH
	DB	0ffH
	DB	0ffH
	DB	0ffH
	DB	0ffH
	DB	0ffH
	DB	0ffH
	DB	0ffH
	DB	0ffH
	DB	0ffH
	DB	0ffH
	DB	0ffH
	DB	0ffH
	DB	0ffH
	DB	0ffH
	DB	0ffH
	DB	0ffH
	DB	0ffH
	DB	0ffH
	DB	0ffH
	DB	0ffH
	DB	0ffH
	DB	0ffH
	DB	0ffH
	DB	0ffH
	DB	0ffH
	DB	0ffH
	DB	0ffH
	DB	0ffH
	DB	0ffH
	DB	0ffH
	DB	0ffH
	DB	0ffH
	DB	0ffH
	DB	0ffH
	DB	0ffH
	DB	0ffH
	DB	0ffH
	DB	0ffH
	DB	0ffH
	DB	0ffH
	DB	0ffH
	DB	0ffH
	DB	0ffH
	DB	0ffH
	DB	0ffH
	DB	0ffH
	DB	0ffH
	DB	0ffH
	DB	0ffH
	DB	0ffH
	DB	0ffH
	DB	0ffH
	DB	0ffH
	DB	0ffH
	DB	0ffH
	DB	0ffH
	DB	0ffH
	DB	0ffH
	DB	0ffH
	DB	0ffH
	DB	0ffH
	DB	0ffH
	DB	0ffH
	DB	0ffH
	DB	0ffH
	DB	0ffH
	DB	0ffH
	DB	0ffH
	DB	0ffH
	DB	0ffH
	DB	0ffH
	DB	0ffH
	DB	0ffH
	DB	0ffH
	DB	0ffH
	DB	0ffH
	DB	0ffH
	DB	0ffH
	DB	0ffH
	DB	0ffH
	DB	0ffH
	DB	0ffH
	DB	0ffH
	DB	0ffH
	DB	0ffH
	DB	0ffH
	DB	0ffH
	DB	0ffH
	DB	0ffH
	DB	0ffH
	DB	0ffH
	DB	0ffH
	DB	0ffH
	DB	0ffH
	DB	0ffH
	DB	0ffH
	DB	0ffH
	DB	0ffH
	DB	0ffH
	DB	0ffH
	DB	0ffH
	DB	0ffH
	DB	0ffH
	DB	0ffH
	DB	0ffH
	DB	0ffH
	DB	0ffH
	DB	0ffH
	DB	0ffH
	DB	0ffH
	DB	0ffH
	DB	0ffH
	DB	0ffH
	DB	0ffH
	DB	0ffH
	DB	0ffH
	DB	0ffH
	DB	0ffH
	DB	0ffH
	DB	0ffH
	DB	0ffH
	DB	0ffH
	DB	0ffH
	DB	0ffH
	DB	0ffH
	DB	0ffH
	DB	0ffH
	DB	0ffH
	DB	0ffH
	DB	0ffH
	DB	0ffH
	DB	0ffH
	DB	0ffH
	DB	0ffH
	DB	0ffH
	DB	0ffH
	DB	0ffH
	DB	0ffH
	DB	0ffH
	DB	0ffH
	DB	0ffH
	DB	0ffH
	DB	0ffH
	DB	0ffH
	DB	0ffH
	DB	0ffH
	DB	0ffH
	DB	0ffH
	DB	0ffH
	DB	0ffH
	DB	0ffH
	DB	0ffH
	DB	0ffH
	DB	0ffH
	DB	0ffH
	DB	0ffH
	DB	0ffH
	DB	0ffH
	DB	0ffH
	DB	0ffH
	DB	0ffH
	DB	0ffH
	DB	0ffH
	DB	0ffH
	DB	0ffH
	DB	0ffH
	DB	0ffH
	DB	0ffH
	DB	0ffH
	DB	0ffH
	DB	0ffH
	DB	0ffH
	DB	0ffH
	DB	0ffH
	DB	0ffH
	DB	0ffH
	DB	0ffH
	DB	0ffH
	DB	0ffH
	DB	0ffH
	DB	0ffH
	DB	0ffH
	DB	0ffH
	DB	0ffH
	DB	0ffH
	DB	0ffH
	DB	0ffH
	DB	0ffH
	DB	0ffH
	DB	0ffH
	DB	0ffH
	DB	0ffH
	DB	0ffH
	DB	0ffH
	DB	0ffH
	DB	0ffH
	DB	0ffH
	DB	0ffH
	DB	0ffH
	DB	0ffH
	DB	0ffH
	DB	0ffH
	DB	0ffH
	DB	0ffH
	DB	0ffH
	DB	0ffH
	DB	0ffH
	DB	0ffH
	DB	0ffH
	DB	0ffH
	DB	0ffH
	DB	0ffH
	DB	0ffH
	DB	0ffH
	DB	0ffH
	DB	0ffH
	DB	0ffH
	DB	0ffH
	DB	0ffH
	DB	0ffH
	DB	0ffH
	DB	0ffH
	DB	0ffH
	DB	0ffH
	DB	0ffH
	DB	0ffH
	DB	0ffH
	DB	0ffH
	DB	0ffH
	DB	0ffH
	DB	0ffH
	DB	0ffH
	DB	0ffH
	DB	0ffH
	DB	0ffH
	DB	0ffH
	DB	0ffH
	DB	0ffH
	DB	0ffH
	DB	0ffH
	DB	0ffH
	DB	0ffH
	DB	0ffH
	DB	0ffH
	DB	0ffH
	DB	0ffH
	DB	0ffH
	DB	0ffH
	DB	0ffH
	DB	0ffH
	DB	0ffH
	DB	0ffH
	DB	0ffH
	DB	0ffH
	DB	0ffH
	DB	0ffH
	DB	0ffH
	DB	0ffH
	DB	0ffH
	DB	0ffH
	DB	0ffH
	DB	0ffH
	DB	0ffH
	DB	0ffH
	DB	0ffH
	DB	0ffH
	DB	0ffH
	DB	0ffH
	DB	0ffH
	DB	0ffH
	DB	0ffH
	DB	0ffH
	DB	0ffH
	DB	0ffH
	DB	0ffH
	DB	0ffH
	DB	0ffH
	DB	0ffH
	DB	0ffH
	DB	0ffH
	DB	0ffH
	DB	0ffH
	DB	0ffH
	DB	0ffH
	DB	0ffH
	DB	0ffH
	DB	0ffH
	DB	0ffH
	DB	0ffH
	DB	0ffH
	DB	0ffH
	DB	0ffH
	DB	0ffH
	DB	0ffH
	DB	0ffH
	DB	0ffH
	DB	0ffH
	DB	0ffH
	DB	0ffH
	DB	0ffH
	DB	0ffH
	DB	0ffH
	DB	0ffH
	DB	0ffH
	DB	0ffH
	DB	0ffH
	DB	0ffH
	DB	0ffH
	DB	0ffH
	DB	0ffH
	DB	0ffH
	DB	0ffH
	DB	0ffH
	DB	0ffH
	DB	0ffH
	DB	0ffH
	DB	0ffH
	DB	0ffH
	DB	0ffH
	DB	0ffH
	DB	0ffH
	DB	0ffH
	DB	0ffH
	DB	0ffH
	DB	0ffH
	DB	0ffH
	DB	0ffH
	DB	0ffH
	DB	0ffH
	DB	0ffH
	DB	0ffH
	DB	0ffH
	DB	0ffH
	DB	0ffH
	DB	0ffH
	DB	0ffH
	DB	0ffH
	DB	0ffH
	DB	0ffH
	DB	0ffH
	DB	0ffH
	DB	0ffH
	DB	0ffH
	DB	0ffH
	DB	0ffH
	DB	0ffH
	DB	0ffH
	DB	0ffH
	DB	0ffH
	DB	0ffH
	DB	0ffH
	DB	0ffH
	DB	0ffH
	DB	0ffH
	DB	0ffH
	DB	0ffH
	DB	0ffH
	DB	0ffH
	DB	0ffH
	DB	0ffH
	DB	0ffH
	DB	0ffH
	DB	0ffH
	DB	0ffH
	DB	0ffH
	DB	0ffH
	DB	0ffH
	DB	0ffH
	DB	0ffH
	DB	0ffH
	DB	0ffH
	DB	0ffH
	DB	0ffH
	DB	0ffH
	DB	0ffH
	DB	0ffH
	DB	0ffH
	DB	0ffH
	DB	0ffH
	DB	0ffH
	DB	0ffH
	DB	0ffH
	DB	0ffH
	DB	0ffH
	DB	0ffH
	DB	0ffH
	DB	0ffH
	DB	0ffH
	DB	0ffH
	DB	0ffH
	DB	0ffH
	DB	0ffH
	DB	0ffH
	DB	0ffH
	DB	0ffH
	DB	0ffH
	DB	0ffH
	DB	0ffH
	DB	0ffH
	DB	0ffH
	DB	0ffH
	DB	0ffH
	DB	0ffH
	DB	0ffH
	DB	0ffH
	DB	0ffH
	DB	0ffH
	DB	0ffH
	DB	0ffH
	DB	0ffH
	DB	0ffH
	DB	0ffH
	DB	0ffH
	DB	0ffH
	DB	0ffH
	DB	0ffH
	DB	0ffH
	DB	0ffH
	DB	0ffH
	DB	0ffH
	DB	0ffH
	DB	0ffH
	DB	0ffH
	DB	0ffH
	DB	0ffH
	DB	0ffH
	DB	0ffH
	DB	0ffH
	DB	0ffH
	DB	0ffH
	DB	0ffH
	DB	0ffH
	DB	0ffH
	DB	0ffH
	DB	0ffH
	DB	0ffH
	DB	0ffH
	DB	0ffH
	DB	0ffH
	DB	0ffH
	DB	0ffH
	DB	0ffH
	DB	0ffH
	DB	0ffH
	DB	0ffH
	DB	0ffH
	DB	0ffH
	DB	0ffH
	DB	0ffH
	DB	0ffH
	DB	0ffH
	DB	0ffH
	DB	0ffH
	DB	0ffH
	DB	0ffH
	DB	0ffH
	DB	0ffH
	DB	0ffH
	DB	0ffH
	DB	0ffH
	DB	0ffH
	DB	0ffH
	DB	0ffH
	DB	0ffH
	DB	0ffH
	DB	0ffH
	DB	0ffH
	DB	0ffH
	DB	0ffH
	DB	0ffH
	DB	0ffH
	DB	0ffH
	DB	0ffH
	DB	0ffH
	DB	0ffH
	DB	0ffH
	DB	0ffH
	DB	0ffH
	DB	0ffH
	DB	0ffH
	DB	0ffH
	DB	0ffH
	DB	0ffH
	DB	0ffH
	DB	0ffH
	DB	0ffH
	DB	0ffH
	DB	0ffH
	DB	0ffH
	DB	0ffH
	DB	0ffH
	DB	0ffH
	DB	0ffH
	DB	0ffH
	DB	0ffH
	DB	0ffH
	DB	0ffH
	DB	0ffH
	DB	0ffH
	DB	0ffH
	DB	0ffH
	DB	0ffH
	DB	0ffH
	DB	0ffH
	DB	0ffH
	DB	0ffH
	DB	0ffH
	DB	0ffH
	DB	0ffH
	DB	0ffH
	DB	0ffH
	DB	0ffH
	DB	0ffH
	DB	0ffH
	DB	0ffH
	DB	0ffH
	DB	0ffH
	DB	0ffH
	DB	0ffH
	DB	0ffH
	DB	0ffH
	DB	0ffH
	DB	0ffH
	DB	0ffH
	DB	0ffH
	DB	0ffH
	DB	0ffH
	DB	0ffH
	DB	0ffH
	DB	0ffH
	DB	0ffH
	DB	0ffH
	DB	0ffH
	DB	0ffH
	DB	0ffH
	DB	0ffH
	DB	0ffH
	DB	0ffH
	DB	0ffH
	DB	0ffH
	DB	0ffH
	DB	0ffH
	DB	0ffH
	DB	0ffH
	DB	0ffH
	DB	0ffH
	DB	0ffH
	DB	0ffH
	DB	0ffH
	DB	0ffH
	DB	0ffH
	DB	0ffH
	DB	0ffH
	DB	0ffH
	DB	0ffH
	DB	0ffH
	DB	0ffH
	DB	0ffH
	DB	0ffH
	DB	0ffH
	DB	0ffH
	DB	0ffH
	DB	0ffH
	DB	0ffH
	DB	0ffH
	DB	0ffH
	DB	0ffH
	DB	0ffH
	DB	0ffH
	DB	0ffH
	DB	0ffH
	DB	0ffH
	DB	0ffH
	DB	0ffH
	DB	0ffH
	DB	0ffH
	DB	0ffH
	DB	0ffH
	DB	0ffH
	DB	0ffH
	DB	0ffH
	DB	0ffH
	DB	0ffH
	DB	0ffH
	DB	0ffH
	DB	0ffH
	DB	0ffH
	DB	0ffH
	DB	0ffH
	DB	0ffH
	DB	0ffH
	DB	0ffH
	DB	0ffH
	DB	0ffH
	DB	0ffH
	DB	0ffH
	DB	0ffH
	DB	0ffH
	DB	0ffH
	DB	0ffH
	DB	0ffH
	DB	0ffH
	DB	0ffH
	DB	0ffH
	DB	0ffH
	DB	0ffH
	DB	0ffH
	DB	0ffH
	DB	0ffH
	DB	0ffH
	DB	0ffH
	DB	0ffH
	DB	0ffH
	DB	0ffH
	DB	0ffH
	DB	0ffH
	DB	0ffH
	DB	0ffH
	DB	0ffH
	DB	0ffH
	DB	0ffH
	DB	0ffH
	DB	0ffH
	DB	0ffH
	DB	0ffH
	DB	0ffH
	DB	0ffH
	DB	0ffH
	DB	0ffH
	DB	0ffH
	DB	0ffH
	DB	0ffH
	DB	0ffH
	DB	0ffH
	DB	0ffH
	DB	0ffH
	DB	0ffH
	DB	0ffH
	DB	0ffH
	DB	0ffH
	DB	0ffH
	DB	0ffH
	DB	0ffH
	DB	0ffH
	DB	0ffH
	DB	0ffH
	DB	0ffH
	DB	0ffH
	DB	0ffH
	DB	0ffH
	DB	0ffH
	DB	0ffH
	DB	0ffH
	DB	0ffH
	DB	0ffH
	DB	0ffH
	DB	0ffH
	DB	0ffH
	DB	0ffH
	DB	0ffH
	DB	0ffH
	DB	0ffH
	DB	0ffH
	DB	0ffH
	DB	0ffH
	DB	0ffH
	DB	0ffH
	DB	0ffH
	DB	0ffH
	DB	0ffH
	DB	0ffH
	DB	0ffH
	DB	0ffH
	DB	0ffH
	DB	0ffH
	DB	0ffH
	DB	0ffH
	DB	0ffH
	DB	0ffH
	DB	0ffH
	DB	0ffH
	DB	0ffH
	DB	0ffH
	DB	0ffH
	DB	0ffH
	DB	0ffH
	DB	0ffH
	DB	0ffH
	DB	0ffH
	DB	0ffH
	DB	0ffH
	DB	0ffH
	DB	0ffH
	DB	0ffH
	DB	0ffH
	DB	0ffH
	DB	0ffH
	DB	0ffH
	DB	0ffH
	DB	0ffH
	DB	0ffH
	DB	0ffH
	DB	0ffH
	DB	0ffH
	DB	0ffH
	DB	0ffH
	DB	0ffH
	DB	0ffH
	DB	0ffH
	DB	0ffH
	DB	0ffH
	DB	0ffH
	DB	0ffH
	DB	0ffH
	DB	0ffH
	DB	0ffH
	DB	0ffH
	DB	0ffH
	DB	0ffH
	DB	0ffH
	DB	0ffH
	DB	0ffH
	DB	0ffH
	DB	0ffH
	DB	0ffH
	DB	0ffH
	DB	0ffH
	DB	0ffH
	DB	0ffH
	DB	0ffH
	DB	0ffH
	DB	0ffH
	DB	0ffH
	DB	0ffH
	DB	0ffH
	DB	0ffH
	DB	0ffH
	DB	0ffH
	DB	0ffH
	DB	0ffH
	DB	0ffH
	DB	0ffH
	DB	0ffH
	DB	0ffH
	DB	0ffH
	DB	0ffH
	DB	0ffH
	DB	0ffH
	DB	0ffH
	DB	0ffH
	DB	0ffH
	DB	0ffH
	DB	0ffH
	DB	0ffH
	DB	0ffH
	DB	0ffH
	DB	0ffH
	DB	0ffH
	DB	0ffH
	DB	0ffH
	DB	0ffH
	DB	0ffH
	DB	0ffH
	DB	0ffH
	DB	0ffH
	DB	0ffH
	DB	0ffH
	DB	0ffH
	DB	0ffH
	DB	0ffH
	DB	0ffH
	DB	0ffH
	DB	0ffH
	DB	0ffH
	DB	0ffH
	DB	0ffH
	DB	0ffH
	DB	0ffH
	DB	0ffH
	DB	0ffH
	DB	0ffH
	DB	0ffH
	DB	0ffH
	DB	0ffH
	DB	0ffH
	DB	0ffH
	DB	0ffH
	DB	0ffH
	DB	0ffH
	DB	0ffH
	DB	0ffH
	DB	0ffH
	DB	0ffH
	DB	0ffH
	DB	0ffH
	DB	0ffH
	DB	0ffH
	DB	0ffH
	DB	0ffH
	DB	0ffH
	DB	0ffH
	DB	0ffH
	DB	0ffH
	DB	0ffH
	DB	0ffH
	DB	0ffH
	DB	0ffH
	DB	0ffH
	DB	0ffH
	DB	0ffH
	DB	0ffH
	DB	0ffH
	DB	0ffH
	DB	0ffH
	DB	0ffH
	DB	0ffH
	DB	0ffH
	DB	0ffH
	DB	0ffH
	DB	0ffH
	DB	0ffH
	DB	0ffH
	DB	0ffH
	DB	0ffH
	DB	0ffH
	DB	0ffH
	DB	0ffH
	DB	0ffH
	DB	0ffH
	DB	0ffH
	DB	0ffH
	DB	0ffH
	DB	0ffH
	DB	0ffH
	DB	0ffH
	DB	0ffH
	DB	0ffH
	DB	0ffH
	DB	0ffH
	DB	0ffH
	DB	0ffH
	DB	0ffH
	DB	0ffH
	DB	0ffH
	DB	0ffH
	DB	0ffH
	DB	0ffH
	DB	0ffH
	DB	0ffH
	DB	0ffH
	DB	0ffH
	DB	0ffH
	DB	0ffH
	DB	0ffH
	DB	0ffH
	DB	0ffH
	DB	0ffH
	DB	0ffH
	DB	0ffH
	DB	0ffH
	DB	0ffH
	DB	0ffH
	DB	0ffH
	DB	0ffH
	DB	0ffH
	DB	0ffH
	DB	0ffH
	DB	0ffH
	DB	0ffH
	DB	0ffH
	DB	0ffH
	DB	0ffH
	DB	0ffH
	DB	0ffH
	DB	0ffH
	DB	0ffH
	DB	0ffH
	DB	0ffH
	DB	0ffH
	DB	0ffH
	DB	0ffH
	DB	0ffH
	DB	0ffH
	DB	0ffH
	DB	0ffH
	DB	0ffH
	DB	0ffH
	DB	0ffH
	DB	0ffH
	DB	0ffH
	DB	0ffH
	DB	0ffH
	DB	0ffH
	DB	0ffH
	DB	0ffH
	DB	0ffH
	DB	0ffH
	DB	0ffH
	DB	0ffH
	DB	0ffH
	DB	0ffH
	DB	0ffH
	DB	0ffH
	DB	0ffH
	DB	0ffH
	DB	0ffH
	DB	0ffH
	DB	0ffH
	DB	0ffH
	DB	0ffH
	DB	0ffH
	DB	0ffH
	DB	0ffH
	DB	0ffH
	DB	0ffH
	DB	0ffH
	DB	0ffH
	DB	0ffH
	DB	0ffH
	DB	0ffH
	DB	0ffH
	DB	0ffH
	DB	0ffH
	DB	0ffH
	DB	0ffH
	DB	0ffH
	DB	0ffH
	DB	0ffH
	DB	0ffH
	DB	0ffH
	DB	0ffH
	DB	0ffH
	DB	0ffH
	DB	0ffH
	DB	0ffH
	DB	0ffH
	DB	0ffH
	DB	0ffH
	DB	0ffH
	DB	0ffH
	DB	0ffH
	DB	0ffH
	DB	0ffH
	DB	0ffH
	DB	0ffH
	DB	0ffH
	DB	0ffH
	DB	0ffH
	DB	0ffH
	DB	0ffH
	DB	0ffH
	DB	0ffH
	DB	0ffH
	DB	0ffH
	DB	0ffH
	DB	0ffH
	DB	0ffH
	DB	0ffH
	DB	0ffH
	DB	0ffH
	DB	0ffH
	DB	0ffH
	DB	0ffH
	DB	0ffH
	DB	0ffH
	DB	0ffH
	DB	0ffH
	DB	0ffH
	DB	0ffH
	DB	0ffH
	DB	0ffH
	DB	0ffH
	DB	0ffH
	DB	0ffH
	DB	0ffH
	DB	0ffH
	DB	0ffH
	DB	0ffH
	DB	0ffH
	DB	0ffH
	DB	0ffH
	DB	0ffH
	DB	0ffH
	DB	0ffH
	DB	0ffH
	DB	0ffH
	DB	0ffH
	DB	0ffH
	DB	0ffH
	DB	0ffH
	DB	0ffH
	DB	0ffH
	DB	0ffH
	DB	0ffH
	DB	0ffH
	DB	0ffH
	DB	0ffH
	DB	0ffH
	DB	0ffH
	DB	0ffH
	DB	0ffH
	DB	0ffH
	DB	0ffH
	DB	0ffH
	DB	0ffH
	DB	0ffH
	DB	0ffH
	DB	0ffH
	DB	0ffH
	DB	0ffH
	DB	0ffH
	DB	0ffH
	DB	0ffH
	DB	0ffH
	DB	0ffH
	DB	0ffH
	DB	0ffH
	DB	0ffH
	DB	0ffH
	DB	0ffH
	DB	0ffH
	DB	0ffH
	DB	0ffH
	DB	0ffH
	DB	0ffH
	DB	0ffH
	DB	0ffH
	DB	0ffH
	DB	0ffH
	DB	0ffH
	DB	0ffH
	DB	0ffH
	DB	0ffH
	DB	0ffH
	DB	0ffH
	DB	0ffH
	DB	0ffH
	DB	0ffH
	DB	0ffH
	DB	0ffH
	DB	0ffH
	DB	0ffH
	DB	0ffH
	DB	0ffH
	DB	0ffH
	DB	0ffH
	DB	0ffH
	DB	0ffH
	DB	0ffH
	DB	0ffH
	DB	0ffH
	DB	0ffH
	DB	0ffH
	DB	0ffH
	DB	0ffH
	DB	0ffH
	DB	0ffH
	DB	0ffH
	DB	0ffH
	DB	0ffH
	DB	0ffH
	DB	0ffH
	DB	0ffH
	DB	0ffH
	DB	0ffH
	DB	0ffH
	DB	0ffH
	DB	0ffH
	DB	0ffH
	DB	0ffH
	DB	0ffH
	DB	0ffH
	DB	0ffH
	DB	0ffH
	DB	0ffH
	DB	0ffH
	DB	0ffH
	DB	0ffH
	DB	0ffH
	DB	0ffH
	DB	0ffH
	DB	0ffH
	DB	0ffH
	DB	0ffH
	DB	0ffH
	DB	0ffH
	DB	0ffH
	DB	0ffH
	DB	0ffH
	DB	0ffH
	DB	0ffH
	DB	0ffH
	DB	0ffH
	DB	0ffH
	DB	0ffH
	DB	0ffH
	DB	0ffH
	DB	0ffH
	DB	0ffH
	DB	0ffH
	DB	0ffH
	DB	0ffH
	DB	0ffH
	DB	0ffH
	DB	0ffH
	DB	0ffH
	DB	0ffH
	DB	0ffH
	DB	0ffH
	DB	0ffH
	DB	0ffH
	DB	0ffH
	DB	0ffH
	DB	0ffH
	DB	0ffH
	DB	0ffH
	DB	0ffH
	DB	0ffH
	DB	0ffH
	DB	0ffH
	DB	0ffH
	DB	0ffH
	DB	0ffH
	DB	0ffH
	DB	0ffH
	DB	0ffH
	DB	0ffH
	DB	0ffH
	DB	0ffH
	DB	0ffH
	DB	0ffH
	DB	0ffH
	DB	0ffH
	DB	0ffH
	DB	0ffH
	DB	0ffH
	DB	0ffH
	DB	0ffH
	DB	0ffH
	DB	0ffH
	DB	0ffH
	DB	0ffH
	DB	0ffH
	DB	0ffH
	DB	0ffH
	DB	0ffH
	DB	0ffH
	DB	0ffH
	DB	0ffH
	DB	0ffH
	DB	0ffH
	DB	0ffH
	DB	0ffH
	DB	0ffH
	DB	0ffH
	DB	0ffH
	DB	0ffH
	DB	0ffH
	DB	0ffH
	DB	0ffH
	DB	0ffH
	DB	0ffH
	DB	0ffH
	DB	0ffH
	DB	0ffH
	DB	0ffH
	DB	0ffH
	DB	0ffH
	DB	0ffH
	DB	0ffH
	DB	0ffH
	DB	0ffH
	DB	0ffH
	DB	0ffH
	DB	0ffH
	DB	0ffH
	DB	0ffH
	DB	0ffH
	DB	0ffH
	DB	0ffH
	DB	0ffH
	DB	0ffH
	DB	0ffH
	DB	0ffH
	DB	0ffH
	DB	0ffH
	DB	0ffH
	DB	0ffH
	DB	0ffH
	DB	0ffH
	DB	0ffH
	DB	0ffH
	DB	0ffH
	DB	0ffH
	DB	0ffH
	DB	0ffH
	DB	0ffH
	DB	0ffH
	DB	0ffH
	DB	0ffH
	DB	0ffH
	DB	0ffH
	DB	0ffH
	DB	0ffH
	DB	0ffH
	DB	0ffH
	DB	0ffH
	DB	0ffH
	DB	0ffH
	DB	0ffH
	DB	0ffH
	DB	0ffH
	DB	0ffH
	DB	0ffH
	DB	0ffH
	DB	0ffH
	DB	0ffH
	DB	0ffH
	DB	0ffH
	DB	0ffH
	DB	0ffH
	DB	0ffH
	DB	0ffH
	DB	0ffH
	DB	0ffH
	DB	0ffH
	DB	0ffH
	DB	0ffH
	DB	0ffH
	DB	0ffH
	DB	0ffH
	DB	0ffH
	DB	0ffH
	DB	0ffH
	DB	0ffH
	DB	0ffH
	DB	0ffH
	DB	0ffH
	DB	0ffH
	DB	0ffH
	DB	0ffH
	DB	0ffH
	DB	0ffH
	DB	0ffH
	DB	0ffH
	DB	0ffH
	DB	0ffH
	DB	0ffH
	DB	0ffH
	DB	0ffH
	DB	0ffH
	DB	0ffH
	DB	0ffH
	DB	0ffH
	DB	0ffH
	DB	0ffH
	DB	0ffH
	DB	0ffH
	DB	0ffH
	DB	0ffH
	DB	0ffH
	DB	0ffH
	DB	0ffH
	DB	0ffH
	DB	0ffH
	DB	0ffH
	DB	0ffH
	DB	0ffH
	DB	0ffH
	DB	0ffH
	DB	0ffH
	DB	0ffH
	DB	0ffH
	DB	0ffH
	DB	0ffH
	DB	0ffH
	DB	0ffH
	DB	0ffH
	DB	0ffH
	DB	0ffH
	DB	0ffH
	DB	0ffH
	DB	0ffH
	DB	0ffH
	DB	0ffH
	DB	0ffH
	DB	0ffH
	DB	0ffH
	DB	0ffH
	DB	0ffH
	DB	0ffH
	DB	0ffH
	DB	0ffH
	DB	0ffH
	DB	0ffH
	DB	0ffH
	DB	0ffH
	DB	0ffH
	DB	0ffH
	DB	0ffH
	DB	0ffH
	DB	0ffH
	DB	0ffH
	DB	0ffH
	DB	0ffH
	DB	0ffH
	DB	0ffH
	DB	0ffH
	DB	0ffH
	DB	0ffH
	DB	0ffH
	DB	0ffH
	DB	0ffH
	DB	0ffH
	DB	0ffH
	DB	0ffH
	DB	0ffH
	DB	0ffH
	DB	0ffH
	DB	0ffH
	DB	0ffH
	DB	0ffH
	DB	0ffH
	DB	0ffH
	DB	0ffH
	DB	0ffH
	DB	0ffH
	DB	0ffH
	DB	0ffH
	DB	0ffH
	DB	0ffH
	DB	0ffH
	DB	0ffH
	DB	0ffH
	DB	0ffH
	DB	0ffH
	DB	0ffH
	DB	0ffH
	DB	0ffH
	DB	0ffH
	DB	0ffH
	DB	0ffH
	DB	0ffH
	DB	0ffH
	DB	0ffH
	DB	0ffH
	DB	0ffH
	DB	0ffH
	DB	0ffH
	DB	0ffH
	DB	0ffH
	DB	0ffH
	DB	0ffH
	DB	0ffH
	DB	0ffH
	DB	0ffH
	DB	0ffH
	DB	0ffH
	DB	0ffH
	DB	0ffH
	DB	0ffH
	DB	0ffH
	DB	0ffH
	DB	0ffH
	DB	0ffH
	DB	0ffH
	DB	0ffH
	DB	0ffH
	DB	0ffH
	DB	0ffH
	DB	0ffH
	DB	0ffH
	DB	0ffH
	DB	0ffH
	DB	0ffH
	DB	0ffH
	DB	0ffH
	DB	0ffH
	DB	0ffH
	DB	0ffH
	DB	0ffH
	DB	0ffH
	DB	0ffH
	DB	0ffH
	DB	0ffH
	DB	0ffH
	DB	0ffH
	DB	0ffH
	DB	0ffH
	DB	0ffH
	DB	0ffH
	DB	0ffH
	DB	0ffH
	DB	0ffH
	DB	0ffH
	DB	0ffH
	DB	0ffH
	DB	0ffH
	DB	0ffH
	DB	0ffH
	DB	0ffH
	DB	0ffH
	DB	0ffH
	DB	0ffH
	DB	0ffH
	DB	0ffH
	DB	0ffH
	DB	0ffH
	DB	0ffH
	DB	0ffH
	DB	0ffH
	DB	0ffH
	DB	0ffH
	DB	0ffH
	DB	0ffH
	DB	0ffH
	DB	0ffH
	DB	0ffH
	DB	0ffH
	DB	0ffH
	DB	0ffH
	DB	0ffH
	DB	0ffH
	DB	0ffH
	DB	0ffH
	DB	0ffH
	DB	0ffH
	DB	0ffH
	DB	0ffH
	DB	0ffH
	DB	0ffH
	DB	0ffH
	DB	0ffH
	DB	0ffH
	DB	0ffH
	DB	0ffH
	DB	0ffH
	DB	0ffH
	DB	0ffH
	DB	0ffH
	DB	0ffH
	DB	0ffH
	DB	0ffH
	DB	0ffH
	DB	0ffH
	DB	0ffH
	DB	0ffH
	DB	0ffH
	DB	0ffH
	DB	0ffH
	DB	0ffH
	DB	0ffH
	DB	0ffH
	DB	0ffH
	DB	0ffH
	DB	0ffH
	DB	0ffH
	DB	0ffH
	DB	0ffH
	DB	0ffH
	DB	0ffH
	DB	0ffH
	DB	0ffH
	DB	0ffH
	DB	0ffH
	DB	0ffH
	DB	0ffH
	DB	0ffH
	DB	0ffH
	DB	0ffH
	DB	0ffH
	DB	0ffH
	DB	0ffH
	DB	0ffH
	DB	0ffH
	DB	0ffH
	DB	0ffH
	DB	0ffH
	DB	0ffH
	DB	0ffH
	DB	0ffH
	DB	0ffH
	DB	0ffH
	DB	0ffH
	DB	0ffH
	DB	0ffH
	DB	0ffH
	DB	0ffH
	DB	0ffH
	DB	0ffH
	DB	0ffH
	DB	0ffH
	DB	0ffH
	DB	0ffH
	DB	0ffH
	DB	0ffH
	DB	0ffH
	DB	0ffH
	DB	0ffH
	DB	0ffH
	DB	0ffH
	DB	0ffH
	DB	0ffH
	DB	0ffH
	DB	0ffH
	DB	0ffH
	DB	0ffH
	DB	0ffH
	DB	0ffH
	DB	0ffH
	DB	0ffH
	DB	0ffH
	DB	0ffH
	DB	0ffH
	DB	0ffH
	DB	0ffH
	DB	0ffH
	DB	0ffH
	DB	0ffH
	DB	0ffH
	DB	0ffH
	DB	0ffH
	DB	0ffH
	DB	0ffH
	DB	0ffH
	DB	0ffH
	DB	0ffH
	DB	0ffH
	DB	0ffH
	DB	0ffH
	DB	0ffH
	DB	0ffH
	DB	0ffH
	DB	0ffH
	DB	0ffH
	DB	0ffH
	DB	0ffH
	DB	0ffH
	DB	0ffH
	DB	0ffH
	DB	0ffH
	DB	0ffH
	DB	0ffH
	DB	0ffH
	DB	0ffH
	DB	0ffH
	DB	0ffH
	DB	0ffH
	DB	0ffH
	DB	0ffH
	DB	0ffH
	DB	0ffH
	DB	0ffH
	DB	0ffH
	DB	0ffH
	DB	0ffH
	DB	0ffH
	DB	0ffH
	DB	0ffH
	DB	0ffH
	DB	0ffH
	DB	0ffH
	DB	0ffH
	DB	0ffH
	DB	0ffH
	DB	0ffH
	DB	0ffH
	DB	0ffH
	DB	0ffH
	DB	0ffH
	DB	0ffH
	DB	0ffH
	DB	0ffH
	DB	0ffH
	DB	0ffH
	DB	0ffH
	DB	0ffH
	DB	0ffH
	DB	0ffH
	DB	0ffH
	DB	0ffH
	DB	0ffH
	DB	0ffH
	DB	0ffH
	DB	0ffH
	DB	0ffH
	DB	0ffH
	DB	0ffH
	DB	0ffH
	DB	0ffH
	DB	0ffH
	DB	0ffH
	DB	0ffH
	DB	0ffH
	DB	0ffH
	DB	0ffH
	DB	0ffH
	DB	0ffH
	DB	0ffH
	DB	0ffH
	DB	0ffH
	DB	0ffH
	DB	0ffH
	DB	0ffH
	DB	0ffH
	DB	0ffH
	DB	0ffH
	DB	0ffH
	DB	0ffH
	DB	0ffH
	DB	0ffH
	DB	0ffH
	DB	0ffH
	DB	0ffH
	DB	0ffH
	DB	0ffH
	DB	0ffH
	DB	0ffH
	DB	0ffH
	DB	0ffH
	DB	0ffH
	DB	0ffH
	DB	0ffH
	DB	0ffH
	DB	0ffH
	DB	0ffH
	DB	0ffH
	DB	0ffH
	DB	0ffH
	DB	0ffH
	DB	0ffH
	DB	0ffH
	DB	0ffH
	DB	0ffH
	DB	0ffH
	DB	0ffH
	DB	0ffH
	DB	0ffH
	DB	0ffH
	DB	0ffH
	DB	0ffH
	DB	0ffH
	DB	0ffH
	DB	0ffH
	DB	0ffH
	DB	0ffH
	DB	0ffH
	DB	0ffH
	DB	0ffH
	DB	0ffH
	DB	0ffH
	DB	0ffH
	DB	0ffH
	DB	0ffH
	DB	0ffH
	DB	0ffH
	DB	0ffH
	DB	0ffH
	DB	0ffH
	DB	0ffH
	DB	0ffH
	DB	0ffH
	DB	0ffH
	DB	0ffH
	DB	0ffH
	DB	0ffH
	DB	0ffH
	DB	0ffH
	DB	0ffH
	DB	0ffH
	DB	0ffH
	DB	0ffH
	DB	0ffH
	DB	0ffH
	DB	0ffH
	DB	0ffH
	DB	0ffH
	DB	0ffH
	DB	0ffH
	DB	0ffH
	DB	0ffH
	DB	0ffH
	DB	0ffH
	DB	0ffH
	DB	0ffH
	DB	0ffH
	DB	0ffH
	DB	0ffH
	DB	0ffH
	DB	0ffH
	DB	0ffH
	DB	0ffH
	DB	0ffH
	DB	0ffH
	DB	0ffH
	DB	0ffH
	DB	0ffH
	DB	0ffH
	DB	0ffH
	DB	0ffH
	DB	0ffH
	DB	0ffH
	DB	0ffH
	DB	0ffH
	DB	0ffH
	DB	0ffH
	DB	0ffH
	DB	0ffH
	DB	0ffH
	DB	0ffH
	DB	0ffH
	DB	0ffH
	DB	0ffH
	DB	0ffH
	DB	0ffH
	DB	0ffH
	DB	0ffH
	DB	0ffH
	DB	0ffH
	DB	0ffH
	DB	0ffH
	DB	0ffH
	DB	0ffH
	DB	0ffH
	DB	0ffH
	DB	0ffH
	DB	0ffH
	DB	0ffH
	DB	0ffH
	DB	0ffH
	DB	0ffH
	DB	0ffH
	DB	0ffH
	DB	0ffH
	DB	0ffH
	DB	0ffH
	DB	0ffH
	DB	0ffH
	DB	0ffH
	DB	0ffH
	DB	0ffH
	DB	0ffH
	DB	0ffH
	DB	0ffH
	DB	0ffH
	DB	0ffH
	DB	0ffH
	DB	0ffH
	DB	0ffH
	DB	0ffH
	DB	0ffH
	DB	0ffH
	DB	0ffH
	DB	0ffH
	DB	0ffH
	DB	0ffH
	DB	0ffH
	DB	0ffH
	DB	0ffH
	DB	0ffH
	DB	0ffH
	DB	0ffH
	DB	0ffH
	DB	0ffH
	DB	0ffH
	DB	0ffH
	DB	0ffH
	DB	0ffH
	DB	0ffH
	DB	0ffH
	DB	0ffH
	DB	0ffH
	DB	0ffH
	DB	0ffH
	DB	0ffH
	DB	0ffH
	DB	0ffH
	DB	0ffH
	DB	0ffH
	DB	0ffH
	DB	0ffH
	DB	0ffH
	DB	0ffH
	DB	0ffH
	DB	0ffH
	DB	0ffH
	DB	0ffH
	DB	0ffH
	DB	0ffH
	DB	0ffH
	DB	0ffH
	DB	0ffH
	DB	0ffH
	DB	0ffH
	DB	0ffH
	DB	0ffH
	DB	0ffH
	DB	0ffH
	DB	0ffH
	DB	0ffH
	DB	0ffH
	DB	0ffH
	DB	0ffH
	DB	0ffH
	DB	0ffH
	DB	0ffH
	DB	0ffH
	DB	0ffH
	DB	0ffH
	DB	0ffH
	DB	0ffH
	DB	0ffH
	DB	0ffH
	DB	0ffH
	DB	0ffH
	DB	0ffH
	DB	0ffH
	DB	0ffH
	DB	0ffH
	DB	0ffH
	DB	0ffH
	DB	0ffH
	DB	0ffH
	DB	0ffH
	DB	0ffH
	DB	0ffH
	DB	0ffH
	DB	0ffH
	DB	0ffH
	DB	0ffH
	DB	0ffH
	DB	0ffH
	DB	0ffH
	DB	0ffH
	DB	0ffH
	DB	0ffH
	DB	0ffH
	DB	0ffH
	DB	0ffH
	DB	0ffH
	DB	0ffH
	DB	0ffH
	DB	0ffH
	DB	0ffH
	DB	0ffH
	DB	0ffH
	DB	0ffH
	DB	0ffH
	DB	0ffH
	DB	0ffH
	DB	0ffH
	DB	0ffH
	DB	0ffH
	DB	0ffH
	DB	0ffH
	DB	0ffH
	DB	0ffH
	DB	0ffH
	DB	0ffH
	DB	0ffH
	DB	0ffH
	DB	0ffH
	DB	0ffH
	DB	0ffH
	DB	0ffH
	DB	0ffH
	DB	0ffH
	DB	0ffH
	DB	0ffH
	DB	0ffH
	DB	0ffH
	DB	0ffH
	DB	0ffH
	DB	0ffH
	DB	0ffH
	DB	0ffH
	DB	0ffH
	DB	0ffH
	DB	0ffH
	DB	0ffH
	DB	0ffH
	DB	0ffH
	DB	0ffH
	DB	0ffH
	DB	0ffH
	DB	0ffH
	DB	0ffH
	DB	0ffH
	DB	0ffH
	DB	0ffH
	DB	0ffH
	DB	0ffH
	DB	0ffH
	DB	0ffH
	DB	0ffH
	DB	0ffH
	DB	0ffH
	DB	0ffH
	DB	0ffH
	DB	0ffH
	DB	0ffH
	DB	0ffH
	DB	0ffH
	DB	0ffH
	DB	0ffH
	DB	0ffH
	DB	0ffH
	DB	0ffH
	DB	0ffH
	DB	0ffH
	DB	0ffH
	DB	0ffH
	DB	0ffH
	DB	0ffH
	DB	0ffH
	DB	0ffH
	DB	0ffH
	DB	0ffH
	DB	0ffH
	DB	0ffH
	DB	0ffH
	DB	0ffH
	DB	0ffH
	DB	0ffH
	DB	0ffH
	DB	0ffH
	DB	0ffH
	DB	0ffH
	DB	0ffH
	DB	0ffH
	DB	0ffH
	DB	0ffH
	DB	0ffH
	DB	0ffH
	DB	0ffH
	DB	0ffH
	DB	0ffH
	DB	0ffH
	DB	0ffH
	DB	0ffH
	DB	0ffH
	DB	0ffH
	DB	0ffH
	DB	0ffH
	DB	0ffH
	DB	0ffH
	DB	0ffH
	DB	0ffH
	DB	0ffH
	DB	0ffH
	DB	0ffH
	DB	0ffH
	DB	0ffH
	DB	0ffH
	DB	0ffH
	DB	0ffH
	DB	0ffH
	DB	0ffH
	DB	0ffH
	DB	0ffH
	DB	0ffH
	DB	0ffH
	DB	0ffH
	DB	0ffH
	DB	0ffH
	DB	0ffH
	DB	0ffH
	DB	0ffH
	DB	0ffH
	DB	0ffH
	DB	0ffH
	DB	0ffH
	DB	0ffH
	DB	0ffH
	DB	0ffH
	DB	0ffH
	DB	0ffH
	DB	0ffH
	DB	0ffH
	DB	0ffH
	DB	0ffH
	DB	0ffH
	DB	0ffH
	DB	0ffH
	DB	0ffH
	DB	0ffH
	DB	0ffH
	DB	0ffH
	DB	0ffH
	DB	0ffH
	DB	0ffH
	DB	0ffH
	DB	0ffH
	DB	0ffH
	DB	0ffH
	DB	0ffH
	DB	0ffH
	DB	0ffH
	DB	0ffH
	DB	0ffH
	DB	0ffH
	DB	0ffH
	DB	0ffH
	DB	0ffH
	DB	0ffH
	DB	0ffH
	DB	0ffH
	DB	0ffH
	DB	0ffH
	DB	0ffH
	DB	0ffH
	DB	0ffH
	DB	0ffH
	DB	0ffH
	DB	0ffH
	DB	0ffH
	DB	0ffH
	DB	0ffH
	DB	0ffH
	DB	0ffH
	DB	0ffH
	DB	0ffH
	DB	0ffH
	DB	0ffH
	DB	0ffH
	DB	0ffH
	DB	0ffH
	DB	0ffH
	DB	0ffH
	DB	0ffH
	DB	0ffH
	DB	0ffH
	DB	0ffH
	DB	0ffH
	DB	0ffH
	DB	0ffH
	DB	0ffH
	DB	0ffH
	DB	0ffH
	DB	0ffH
	DB	0ffH
	DB	0ffH
	DB	0ffH
	DB	0ffH
	DB	0ffH
	DB	0ffH
	DB	0ffH
	DB	0ffH
	DB	0ffH
	DB	0ffH
	DB	0ffH
	DB	0ffH
	DB	0ffH
	DB	0ffH
	DB	0ffH
	DB	0ffH
	DB	0ffH
	DB	0ffH
	DB	0ffH
	DB	0ffH
	DB	0ffH
	DB	0ffH
	DB	0ffH
	DB	0ffH
	DB	0ffH
	DB	0ffH
	DB	0ffH
	DB	0ffH
	DB	0ffH
	DB	0ffH
	DB	0ffH
	DB	0ffH
	DB	0ffH
	DB	0ffH
	DB	0ffH
	DB	0ffH
	DB	0ffH
	DB	0ffH
	DB	0ffH
	DB	0ffH
	DB	0ffH
	DB	0ffH
	DB	0ffH
	DB	0ffH
	DB	0ffH
	DB	0ffH
	DB	0ffH
	DB	0ffH
	DB	0ffH
	DB	0ffH
	DB	0ffH
	DB	0ffH
	DB	0ffH
	DB	0ffH
	DB	0ffH
	DB	0ffH
	DB	0ffH
	DB	0ffH
	DB	0ffH
	DB	0ffH
	DB	0ffH
	DB	0ffH
	DB	0ffH
	DB	0ffH
	DB	0ffH
	DB	0ffH
	DB	0ffH
	DB	0ffH
	DB	0ffH
	DB	0ffH
	DB	0ffH
	DB	0ffH
	DB	0ffH
	DB	0ffH
	DB	0ffH
	DB	0ffH
	DB	0ffH
	DB	0ffH
	DB	0ffH
	DB	0ffH
	DB	0ffH
	DB	0ffH
	DB	0ffH
	DB	0ffH
	DB	0ffH
	DB	0ffH
	DB	0ffH
	DB	0ffH
	DB	0ffH
	DB	0ffH
	DB	0ffH
	DB	0ffH
	DB	0ffH
	DB	0ffH
	DB	0ffH
	DB	0ffH
	DB	0ffH
	DB	0ffH
	DB	0ffH
	DB	0ffH
	DB	0ffH
	DB	0ffH
	DB	0ffH
	DB	0ffH
	DB	0ffH
	DB	0ffH
	DB	0ffH
	DB	0ffH
	DB	0ffH
	DB	0ffH
	DB	0ffH
	DB	0ffH
	DB	0ffH
	DB	0ffH
	DB	0ffH
	DB	0ffH
	DB	0ffH
	DB	0ffH
	DB	0ffH
	DB	0ffH
	DB	0ffH
	DB	0ffH
	DB	0ffH
	DB	0ffH
	DB	0ffH
	DB	0ffH
	DB	0ffH
	DB	0ffH
	DB	0ffH
	DB	0ffH
	DB	0ffH
	DB	0ffH
	DB	0ffH
	DB	0ffH
	DB	0ffH
	DB	0ffH
	DB	0ffH
	DB	0ffH
	DB	0ffH
	DB	0ffH
	DB	0ffH
	DB	0ffH
	DB	0ffH
	DB	0ffH
	DB	0ffH
	DB	0ffH
	DB	0ffH
	DB	0ffH
	DB	0ffH
	DB	0ffH
	DB	0ffH
	DB	0ffH
	DB	0ffH
	DB	0ffH
	DB	0ffH
	DB	0ffH
	DB	0ffH
	DB	0ffH
	DB	0ffH
	DB	0ffH
	DB	0ffH
	DB	0ffH
	DB	0ffH
	DB	0ffH
	DB	0ffH
	DB	0ffH
	DB	0ffH
	DB	0ffH
	DB	0ffH
	DB	0ffH
	DB	0ffH
	DB	0ffH
	DB	0ffH
	DB	0ffH
	DB	0ffH
	DB	0ffH
	DB	0ffH
	DB	0ffH
	DB	0ffH
	DB	0ffH
	DB	0ffH
	DB	0ffH
	DB	0ffH
	DB	0ffH
	DB	0ffH
	DB	0ffH
	DB	0ffH
	DB	0ffH
	DB	0ffH
	DB	0ffH
	DB	0ffH
	DB	0ffH
	DB	0ffH
	DB	0ffH
	DB	0ffH
	DB	0ffH
	DB	0ffH
	DB	0ffH
	DB	0ffH
	DB	0ffH
	DB	0ffH
	DB	0ffH
	DB	0ffH
	DB	0ffH
	DB	0ffH
	DB	0ffH
	DB	0ffH
	DB	0ffH
	DB	0ffH
	DB	0ffH
	DB	0ffH
	DB	0ffH
	DB	0ffH
	DB	0ffH
	DB	0ffH
	DB	0ffH
	DB	0ffH
	DB	0ffH
	DB	0ffH
	DB	0ffH
	DB	0ffH
	DB	0ffH
	DB	0ffH
	DB	0ffH
	DB	0ffH
	DB	0ffH
	DB	0ffH
	DB	0ffH
	DB	0ffH
	DB	0ffH
	DB	0ffH
	DB	0ffH
	DB	0ffH
	DB	0ffH
	DB	0ffH
	DB	0ffH
	DB	0ffH
	DB	0ffH
	DB	0ffH
	DB	0ffH
	DB	0ffH
	DB	0ffH
	DB	0ffH
	DB	0ffH
	DB	0ffH
	DB	0ffH
	DB	0ffH
	DB	0ffH
	DB	0ffH
	DB	0ffH
	DB	0ffH
	DB	0ffH
	DB	0ffH
	DB	0ffH
	DB	0ffH
	DB	0ffH
	DB	0ffH
	DB	0ffH
	DB	0ffH
	DB	0ffH
	DB	0ffH
	DB	0ffH
	DB	0ffH
	DB	0ffH
	DB	0ffH
	DB	0ffH
	DB	0ffH
	DB	0ffH
	DB	0ffH
	DB	0ffH
	DB	0ffH
	DB	0ffH
	DB	0ffH
	DB	0ffH
	DB	0ffH
	DB	0ffH
	DB	0ffH
	DB	0ffH
	DB	0ffH
	DB	0ffH
	DB	0ffH
	DB	0ffH
	DB	0ffH
	DB	0ffH
	DB	0ffH
	DB	0ffH
	DB	0ffH
	DB	0ffH
	DB	0ffH
	DB	0ffH
	DB	0ffH
	DB	0ffH
	DB	0ffH
	DB	0ffH
	DB	0ffH
	DB	0ffH
	DB	0ffH
	DB	0ffH
	DB	0ffH
	DB	0ffH
	DB	0ffH
	DB	0ffH
	DB	0ffH
	DB	0ffH
	DB	0ffH
	DB	0ffH
	DB	0ffH
	DB	0ffH
	DB	0ffH
	DB	0ffH
	DB	0ffH
	DB	0ffH
	DB	0ffH
	DB	0ffH
	DB	0ffH
	DB	0ffH
	DB	0ffH
	DB	0ffH
	DB	0ffH
	DB	0ffH
	DB	0ffH
	DB	0ffH
	DB	0ffH
	DB	0ffH
	DB	0ffH
	DB	0ffH
	DB	0ffH
	DB	0ffH
	DB	0ffH
	DB	0ffH
	DB	0ffH
	DB	0ffH
	DB	0ffH
	DB	0ffH
	DB	0ffH
	DB	0ffH
	DB	0ffH
	DB	0ffH
	DB	0ffH
	DB	0ffH
	DB	0ffH
	DB	0ffH
	DB	0ffH
	DB	0ffH
	DB	0ffH
	DB	0ffH
	DB	0ffH
	DB	0ffH
	DB	0ffH
	DB	0ffH
	DB	0ffH
	DB	0ffH
	DB	0ffH
	DB	0ffH
	DB	0ffH
	DB	0ffH
	DB	0ffH
	DB	0ffH
	DB	0ffH
	DB	0ffH
	DB	0ffH
	DB	0ffH
	DB	0ffH
	DB	0ffH
	DB	0ffH
	DB	0ffH
	DB	0ffH
	DB	0ffH
	DB	0ffH
	DB	0ffH
	DB	0ffH
	DB	0ffH
	DB	0ffH
	DB	0ffH
	DB	0ffH
	DB	0ffH
	DB	0ffH
	DB	0ffH
	DB	0ffH
	DB	0ffH
	DB	0ffH
	DB	0ffH
	DB	0ffH
	DB	0ffH
	DB	0ffH
	DB	0ffH
	DB	0ffH
	DB	0ffH
	DB	0ffH
	DB	0ffH
	DB	0ffH
	DB	0ffH
	DB	0ffH
	DB	0ffH
	DB	0ffH
	DB	0ffH
	DB	0ffH
	DB	0ffH
	DB	0ffH
	DB	0ffH
	DB	0ffH
	DB	0ffH
	DB	0ffH
	DB	0ffH
	DB	0ffH
	DB	0ffH
	DB	0ffH
	DB	0ffH
	DB	0ffH
	DB	0ffH
	DB	0ffH
	DB	0ffH
	DB	0ffH
	DB	0ffH
	DB	0ffH
	DB	0ffH
	DB	0ffH
	DB	0ffH
	DB	0ffH
	DB	0ffH
	DB	0ffH
	DB	0ffH
	DB	0ffH
	DB	0ffH
	DB	0ffH
	DB	0ffH
	DB	0ffH
	DB	0ffH
	DB	0ffH
	DB	0ffH
	DB	0ffH
	DB	0ffH
	DB	0ffH
	DB	0ffH
	DB	0ffH
	DB	0ffH
	DB	0ffH
	DB	0ffH
	DB	0ffH
	DB	0ffH
	DB	0ffH
	DB	0ffH
	DB	0ffH
	DB	0ffH
	DB	0ffH
	DB	0ffH
	DB	0ffH
	DB	0ffH
	DB	0ffH
	DB	0ffH
	DB	0ffH
	DB	0ffH
	DB	0ffH
	DB	0ffH
	DB	0ffH
	DB	0ffH
	DB	0ffH
	DB	0ffH
	DB	0ffH
	DB	0ffH
	DB	0ffH
	DB	0ffH
	DB	0ffH
	DB	0ffH
	DB	0ffH
	DB	0ffH
	DB	0ffH
	DB	0ffH
	DB	0ffH
	DB	0ffH
	DB	0ffH
	DB	0ffH
	DB	0ffH
	DB	0ffH
	DB	0ffH
	DB	0ffH
	DB	0ffH
	DB	0ffH
	DB	0ffH
	DB	0ffH
	DB	0ffH
	DB	0ffH
	DB	0ffH
	DB	0ffH
	DB	0ffH
	DB	0ffH
	DB	0ffH
	DB	0ffH
	DB	0ffH
	DB	0ffH
	DB	0ffH
	DB	0ffH
	DB	0ffH
	DB	0ffH
	DB	0ffH
	DB	0ffH
	DB	0ffH
	DB	0ffH
	DB	0ffH
	DB	0ffH
	DB	0ffH
	DB	0ffH
	DB	0ffH
	DB	0ffH
	DB	0ffH
	DB	0ffH
	DB	0ffH
	DB	0ffH
	DB	0ffH
	DB	0ffH
	DB	0ffH
	DB	0ffH
	DB	0ffH
	DB	0ffH
	DB	0ffH
	DB	0ffH
	DB	0ffH
	DB	0ffH
	DB	0ffH
	DB	0ffH
	DB	0ffH
	DB	0ffH
	DB	0ffH
	DB	0ffH
	DB	0ffH
	DB	0ffH
	DB	0ffH
	DB	0ffH
	DB	0ffH
	DB	0ffH
	DB	0ffH
	DB	0ffH
	DB	0ffH
	DB	0ffH
	DB	0ffH
	DB	0ffH
	DB	0ffH
	DB	0ffH
	DB	0ffH
	DB	0ffH
	DB	0ffH
	DB	0ffH
	DB	0ffH
	DB	0ffH
	DB	0ffH
	DB	0ffH
	DB	0ffH
	DB	0ffH
	DB	0ffH
	DB	0ffH
	DB	0ffH
	DB	0ffH
	DB	0ffH
	DB	0ffH
	DB	0ffH
	DB	0ffH
	DB	0ffH
	DB	0ffH
	DB	0ffH
	DB	0ffH
	DB	0ffH
	DB	0ffH
	DB	0ffH
	DB	0ffH
	DB	0ffH
	DB	0ffH
	DB	0ffH
	DB	0ffH
	DB	0ffH
	DB	0ffH
	DB	0ffH
	DB	0ffH
	DB	0ffH
	DB	0ffH
	DB	0ffH
	DB	0ffH
	DB	0ffH
	DB	0ffH
	DB	0ffH
	DB	0ffH
	DB	0ffH
	DB	0ffH
	DB	0ffH
	DB	0ffH
	DB	0ffH
	DB	0ffH
	DB	0ffH
	DB	0ffH
	DB	0ffH
	DB	0ffH
	DB	0ffH
	DB	0ffH
	DB	0ffH
	DB	0ffH
	DB	0ffH
	DB	0ffH
	DB	0ffH
	DB	0ffH
	DB	0ffH
	DB	0ffH
	DB	0ffH
	DB	0ffH
	DB	0ffH
	DB	0ffH
	DB	0ffH
	DB	0ffH
	DB	0ffH
	DB	0ffH
	DB	0ffH
	DB	0ffH
	DB	0ffH
	DB	0ffH
	DB	0ffH
	DB	0ffH
	DB	0ffH
	DB	0ffH
	DB	0ffH
	DB	0ffH
	DB	0ffH
	DB	0ffH
	DB	0ffH
	DB	0ffH
	DB	0ffH
	DB	0ffH
	DB	0ffH
	DB	0ffH
	DB	0ffH
	DB	0ffH
	DB	0ffH
	DB	0ffH
	DB	0ffH
	DB	0ffH
	DB	0ffH
	DB	0ffH
	DB	0ffH
	DB	0ffH
	DB	0ffH
	DB	0ffH
	DB	0ffH
	DB	0ffH
	DB	0ffH
	DB	0ffH
	DB	0ffH
	DB	0ffH
	DB	0ffH
	DB	0ffH
	DB	0ffH
	DB	0ffH
	DB	0ffH
	DB	0ffH
	DB	0ffH
	DB	0ffH
	DB	0ffH
	DB	0ffH
	DB	0ffH
	DB	0ffH
	DB	0ffH
	DB	0ffH
	DB	0ffH
	DB	0ffH
	DB	0ffH
	DB	0ffH
	DB	0ffH
	DB	0ffH
	DB	0ffH
	DB	0ffH
	DB	0ffH
	DB	0ffH
	DB	0ffH
	DB	0ffH
	DB	0ffH
	DB	0ffH
	DB	0ffH
	DB	0ffH
	DB	0ffH
	DB	0ffH
	DB	0ffH
	DB	0ffH
	DB	0ffH
	DB	0ffH
	DB	0ffH
	DB	0ffH
	DB	0ffH
	DB	0ffH
	DB	0ffH
	DB	0ffH
	DB	0ffH
	DB	0ffH
	DB	0ffH
	DB	0ffH
	DB	0ffH
	DB	0ffH
	DB	0ffH
	DB	0ffH
	DB	0ffH
	DB	0ffH
	DB	0ffH
	DB	0ffH
	DB	0ffH
	DB	0ffH
	DB	0ffH
	DB	0ffH
	DB	0ffH
	DB	0ffH
	DB	0ffH
	DB	0ffH
	DB	0ffH
	DB	0ffH
	DB	0ffH
	DB	0ffH
	DB	0ffH
	DB	0ffH
	DB	0ffH
	DB	0ffH
	DB	0ffH
	DB	0ffH
	DB	0ffH
	DB	0ffH
	DB	0ffH
	DB	0ffH
	DB	0ffH
	DB	0ffH
	DB	0ffH
	DB	0ffH
	DB	0ffH
	DB	0ffH
	DB	0ffH
	DB	0ffH
	DB	0ffH
	DB	0ffH
	DB	0ffH
	DB	0ffH
	DB	0ffH
	DB	0ffH
	DB	0ffH
	DB	0ffH
	DB	0ffH
	DB	0ffH
	DB	0ffH
	DB	0ffH
	DB	0ffH
	DB	0ffH
	DB	0ffH
	DB	0ffH
	DB	0ffH
	DB	0ffH
	DB	0ffH
	DB	0ffH
	DB	0ffH
	DB	0ffH
	DB	0ffH
	DB	0ffH
	DB	0ffH
	DB	0ffH
	DB	0ffH
	DB	0ffH
	DB	0ffH
	DB	0ffH
	DB	0ffH
	DB	0ffH
	DB	0ffH
	DB	0ffH
	DB	0ffH
	DB	0ffH
	DB	0ffH
	DB	0ffH
	DB	0ffH
	DB	0ffH
	DB	0ffH
	DB	0ffH
	DB	0ffH
	DB	0ffH
	DB	0ffH
	DB	0ffH
	DB	0ffH
	DB	0ffH
	DB	0ffH
	DB	0ffH
	DB	0ffH
	DB	0ffH
	DB	0ffH
	DB	0ffH
	DB	0ffH
	DB	0ffH
	DB	0ffH
	DB	0ffH
	DB	0ffH
	DB	0ffH
	DB	0ffH
	DB	0ffH
	DB	0ffH
	DB	0ffH
	DB	0ffH
	DB	0ffH
	DB	0ffH
	DB	0ffH
	DB	0ffH
	DB	0ffH
	DB	0ffH
	DB	0ffH
	DB	0ffH
	DB	0ffH
	DB	0ffH
	DB	0ffH
	DB	0ffH
	DB	0ffH
	DB	0ffH
	DB	0ffH
	DB	0ffH
	DB	0ffH
	DB	0ffH
	DB	0ffH
	DB	0ffH
	DB	0ffH
	DB	0ffH
	DB	0ffH
	DB	0ffH
	DB	0ffH
	DB	0ffH
	DB	0ffH
	DB	0ffH
	DB	0ffH
	DB	0ffH
	DB	0ffH
	DB	0ffH
	DB	0ffH
	DB	0ffH
	DB	0ffH
	DB	0ffH
	DB	0ffH
	DB	0ffH
	DB	0ffH
	DB	0ffH
	DB	0ffH
	DB	0ffH
	DB	0ffH
	DB	0ffH
	DB	0ffH
	DB	0ffH
	DB	0ffH
	DB	0ffH
	DB	0ffH
	DB	0ffH
	DB	0ffH
	DB	0ffH
	DB	0ffH
	DB	0ffH
	DB	0ffH
	DB	0ffH
	DB	0ffH
	DB	0ffH
	DB	0ffH
	DB	0ffH
	DB	0ffH
	DB	0ffH
	DB	0ffH
	DB	0ffH
	DB	0ffH
	DB	0ffH
	DB	0ffH
	DB	0ffH
	DB	0ffH
	DB	0ffH
	DB	0ffH
	DB	0ffH
	DB	0ffH
	DB	0ffH
	DB	0ffH
	DB	0ffH
	DB	0ffH
	DB	0ffH
	DB	0ffH
	DB	0ffH
	DB	0ffH
	DB	0ffH
	DB	0ffH
	DB	0ffH
	DB	0ffH
	DB	0ffH
	DB	0ffH
	DB	0ffH
	DB	0ffH
	DB	0ffH
	DB	0ffH
	DB	0ffH
	DB	0ffH
	DB	0ffH
	DB	0ffH
	DB	0ffH
	DB	0ffH
	DB	0ffH
	DB	0ffH
	DB	0ffH
	DB	0ffH
	DB	0ffH
	DB	0ffH
	DB	0ffH
	DB	0ffH
	DB	0ffH
	DB	0ffH
	DB	0ffH
	DB	0ffH
	DB	0ffH
	DB	0ffH
	DB	0ffH
	DB	0ffH
	DB	0ffH
	DB	0ffH
	DB	0ffH
	DB	0ffH
	DB	0ffH
	DB	0ffH
	DB	0ffH
	DB	0ffH
	DB	0ffH
	DB	0ffH
	DB	0ffH
	DB	0ffH
	DB	0ffH
	DB	0ffH
	DB	0ffH
	DB	0ffH
	DB	0ffH
	DB	0ffH
	DB	0ffH
	DB	0ffH
	DB	0ffH
	DB	0ffH
	DB	0ffH
	DB	0ffH
	DB	0ffH
	DB	0ffH
	DB	0ffH
	DB	0ffH
	DB	0ffH
	DB	0ffH
	DB	0ffH
	DB	0ffH
	DB	0ffH
	DB	0ffH
	DB	0ffH
	DB	0ffH
	DB	0ffH
	DB	0ffH
	DB	0ffH
	DB	0ffH
	DB	0ffH
	DB	0ffH
	DB	0ffH
	DB	0ffH
	DB	0ffH
	DB	0ffH
	DB	0ffH
	DB	0ffH
	DB	0ffH
	DB	0ffH
	DB	0ffH
	DB	0ffH
	DB	0ffH
	DB	0ffH
	DB	0ffH
	DB	0ffH
	DB	0ffH
	DB	0ffH
	DB	0ffH
	DB	0ffH
	DB	0ffH
	DB	0ffH
	DB	0ffH
	DB	0ffH
	DB	0ffH
	DB	0ffH
	DB	0ffH
	DB	0ffH
	DB	0ffH
	DB	0ffH
	DB	0ffH
	DB	0ffH
	DB	0ffH
	DB	0ffH
	DB	0ffH
	DB	0ffH
	DB	0ffH
	DB	0ffH
	DB	0ffH
	DB	0ffH
	DB	0ffH
	DB	0ffH
	DB	0ffH
	DB	0ffH
	DB	0ffH
	DB	0ffH
	DB	0ffH
	DB	0ffH
	DB	0ffH
	DB	0ffH
	DB	0ffH
	DB	0ffH
	DB	0ffH
	DB	0ffH
	DB	0ffH
	DB	0ffH
	DB	0ffH
	DB	0ffH
	DB	0ffH
	DB	0ffH
	DB	0ffH
	DB	0ffH
	DB	0ffH
	DB	0ffH
	DB	0ffH
	DB	0ffH
	DB	0ffH
	DB	0ffH
	DB	0ffH
	DB	0ffH
	DB	0ffH
	DB	0ffH
	DB	0ffH
	DB	0ffH
	DB	0ffH
	DB	0ffH
	DB	0ffH
	DB	0ffH
	DB	0ffH
	DB	0ffH
	DB	0ffH
	DB	0ffH
	DB	0ffH
	DB	0ffH
	DB	0ffH
	DB	0ffH
	DB	0ffH
	DB	0ffH
	DB	0ffH
	DB	0ffH
	DB	0ffH
	DB	0ffH
	DB	0ffH
	DB	0ffH
	DB	0ffH
	DB	0ffH
	DB	0ffH
	DB	0ffH
	DB	0ffH
	DB	0ffH
	DB	0ffH
	DB	0ffH
	DB	0ffH
	DB	0ffH
	DB	0ffH
	DB	0ffH
	DB	0ffH
	DB	0ffH
	DB	0ffH
	DB	0ffH
	DB	0ffH
	DB	0ffH
	DB	0ffH
	DB	0ffH
	DB	0ffH
	DB	0ffH
	DB	0ffH
	DB	0ffH
	DB	0ffH
	DB	0ffH
	DB	0ffH
	DB	0ffH
	DB	0ffH
	DB	0ffH
	DB	0ffH
	DB	0ffH
	DB	0ffH
	DB	0ffH
	DB	0ffH
	DB	0ffH
	DB	0ffH
	DB	0ffH
	DB	0ffH
	DB	0ffH
	DB	0ffH
	DB	0ffH
	DB	0ffH
	DB	0ffH
	DB	0ffH
	DB	0ffH
	DB	0ffH
	DB	0ffH
	DB	0ffH
	DB	0ffH
	DB	0ffH
	DB	0ffH
	DB	0ffH
	DB	0ffH
	DB	0ffH
	DB	0ffH
	DB	0ffH
	DB	0ffH
	DB	0ffH
	DB	0ffH
	DB	0ffH
	DB	0ffH
	DB	0ffH
	DB	0ffH
	DB	0ffH
	DB	0ffH
	DB	0ffH
	DB	0ffH
	DB	0ffH
	DB	0ffH
	DB	0ffH
	DB	0ffH
	DB	0ffH
	DB	0ffH
	DB	0ffH
	DB	0ffH
	DB	0ffH
	DB	0ffH
	DB	0ffH
	DB	0ffH
	DB	0ffH
	DB	0ffH
	DB	0ffH
	DB	0ffH
	DB	0ffH
	DB	0ffH
	DB	0ffH
	DB	0ffH
	DB	0ffH
	DB	0ffH
	DB	0ffH
	DB	0ffH
	DB	0ffH
	DB	0ffH
	DB	0ffH
	DB	0ffH
	DB	0ffH
	DB	0ffH
	DB	0ffH
	DB	0ffH
	DB	0ffH
	DB	0ffH
	DB	0ffH
	DB	0ffH
	DB	0ffH
	DB	0ffH
	DB	0ffH
	DB	0ffH
	DB	0ffH
	DB	0ffH
	DB	0ffH
	DB	0ffH
	DB	0ffH
	DB	0ffH
	DB	0ffH
	DB	0ffH
	DB	0ffH
	DB	0ffH
	DB	0ffH
	DB	0ffH
	DB	0ffH
	DB	0ffH
	DB	0ffH
	DB	0ffH
	DB	0ffH
	DB	0ffH
	DB	0ffH
	DB	0ffH
	DB	0ffH
	DB	0ffH
	DB	0ffH
	DB	0ffH
	DB	0ffH
	DB	0ffH
	DB	0ffH
	DB	0ffH
	DB	0ffH
	DB	0ffH
	DB	0ffH
	DB	0ffH
	DB	0ffH
	DB	0ffH
	DB	0ffH
	DB	0ffH
	DB	0ffH
	DB	0ffH
	DB	0ffH
	DB	0ffH
	DB	0ffH
	DB	0ffH
	DB	0ffH
	DB	0ffH
	DB	0ffH
	DB	0ffH
	DB	0ffH
	DB	0ffH
	DB	0ffH
	DB	0ffH
	DB	0ffH
	DB	0ffH
	DB	0ffH
	DB	0ffH
	DB	0ffH
	DB	0ffH
	DB	0ffH
	DB	0ffH
	DB	0ffH
	DB	0ffH
	DB	0ffH
	DB	0ffH
	DB	0ffH
	DB	0ffH
	DB	0ffH
	DB	0ffH
	DB	0ffH
	DB	0ffH
	DB	0ffH
	DB	0ffH
	DB	0ffH
	DB	0ffH
	DB	0ffH
	DB	0ffH
	DB	0ffH
	DB	0ffH
	DB	0ffH
	DB	0ffH
	DB	0ffH
	DB	0ffH
	DB	0ffH
	DB	0ffH
	DB	0ffH
	DB	0ffH
	DB	0ffH
	DB	0ffH
	DB	0ffH
	DB	0ffH
	DB	0ffH
	DB	0ffH
	DB	0ffH
	DB	0ffH
	DB	0ffH
	DB	0ffH
	DB	0ffH
	DB	0ffH
	DB	0ffH
	DB	0ffH
	DB	0ffH
	DB	0ffH
	DB	0ffH
	DB	0ffH
	DB	0ffH
	DB	0ffH
	DB	0ffH
	DB	0ffH
	DB	0ffH
	DB	0ffH
	DB	0ffH
	DB	0ffH
	DB	0ffH
	DB	0ffH
	DB	0ffH
	DB	0ffH
	DB	0ffH
	DB	0ffH
	DB	0ffH
	DB	0ffH
	DB	0ffH
	DB	0ffH
	DB	0ffH
	DB	0ffH
	DB	0ffH
	DB	0ffH
	DB	0ffH
	DB	0ffH
	DB	0ffH
	DB	0ffH
	DB	0ffH
	DB	0ffH
	DB	0ffH
	DB	0ffH
	DB	0ffH
	DB	0ffH
	DB	0ffH
	DB	0ffH
	DB	0ffH
	DB	0ffH
	DB	0ffH
	DB	0ffH
	DB	0ffH
	DB	0ffH
	DB	0ffH
	DB	0ffH
	DB	0ffH
	DB	0ffH
	DB	0ffH
	DB	0ffH
	DB	0ffH
	DB	0ffH
	DB	0ffH
	DB	0ffH
	DB	0ffH
	DB	0ffH
	DB	0ffH
	DB	0ffH
	DB	0ffH
	DB	0ffH
	DB	0ffH
	DB	0ffH
	DB	0ffH
	DB	0ffH
	DB	0ffH
	DB	0ffH
	DB	0ffH
	DB	0ffH
	DB	0ffH
	DB	0ffH
	DB	0ffH
	DB	0ffH
	DB	0ffH
	DB	0ffH
	DB	0ffH
	DB	0ffH
	DB	0ffH
	DB	0ffH
	DB	0ffH
	DB	0ffH
	DB	0ffH
	DB	0ffH
	DB	0ffH
	DB	0ffH
	DB	0ffH
	DB	0ffH
	DB	0ffH
	DB	0ffH
	DB	0ffH
	DB	0ffH
	DB	0ffH
	DB	0ffH
	DB	0ffH
	DB	0ffH
	DB	0ffH
	DB	0ffH
	DB	0ffH
	DB	0ffH
	DB	0ffH
	DB	0ffH
	DB	0ffH
	DB	0ffH
	DB	0ffH
	DB	0ffH
	DB	0ffH
	DB	0ffH
	DB	0ffH
	DB	0ffH
	DB	0ffH
	DB	0ffH
	DB	0ffH
	DB	0ffH
	DB	0ffH
	DB	0ffH
	DB	0ffH
	DB	0ffH
	DB	0ffH
	DB	0ffH
	DB	0ffH
	DB	0ffH
	DB	0ffH
	DB	0ffH
	DB	0ffH
	DB	0ffH
	DB	0ffH
	DB	0ffH
	DB	0ffH
	DB	0ffH
	DB	0ffH
	DB	0ffH
	DB	0ffH
	DB	0ffH
	DB	0ffH
	DB	0ffH
	DB	0ffH
	DB	0ffH
	DB	0ffH
	DB	0ffH
	DB	0ffH
	DB	0ffH
	DB	0ffH
	DB	0ffH
	DB	0ffH
	DB	0ffH
	DB	0ffH
	DB	0ffH
	DB	0ffH
	DB	0ffH
	DB	0ffH
	DB	0ffH
	DB	0ffH
	DB	0ffH
	DB	0ffH
	DB	0ffH
	DB	0ffH
	DB	0ffH
	DB	0ffH
	DB	0ffH
	DB	0ffH
	DB	0ffH
	DB	0ffH
	DB	0ffH
	DB	0ffH
	DB	0ffH
	DB	0ffH
	DB	0ffH
	DB	0ffH
	DB	0ffH
	DB	0ffH
	DB	0ffH
	DB	0ffH
	DB	0ffH
	DB	0ffH
	DB	0ffH
	DB	0ffH
	DB	0ffH
	DB	0ffH
	DB	0ffH
	DB	0ffH
	DB	0ffH
	DB	0ffH
	DB	0ffH
	DB	0ffH
	DB	0ffH
	DB	0ffH
	DB	0ffH
	DB	0ffH
	DB	0ffH
	DB	0ffH
	DB	0ffH
	DB	0ffH
	DB	0ffH
	DB	0ffH
	DB	0ffH
	DB	0ffH
	DB	0ffH
	DB	0ffH
	DB	0ffH
	DB	0ffH
	DB	0ffH
	DB	0ffH
	DB	0ffH
	DB	0ffH
	DB	0ffH
	DB	0ffH
	DB	0ffH
	DB	0ffH
	DB	0ffH
	DB	0ffH
	DB	0ffH
	DB	0ffH
	DB	0ffH
	DB	0ffH
	DB	0ffH
	DB	0ffH
	DB	0ffH
	DB	0ffH
	DB	0ffH
	DB	0ffH
	DB	0ffH
	DB	0ffH
	DB	0ffH
	DB	0ffH
	DB	0ffH
	DB	0ffH
	DB	0ffH
	DB	0ffH
	DB	0ffH
	DB	0ffH
	DB	0ffH
	DB	0ffH
	DB	0ffH
	DB	0ffH
	DB	0ffH
	DB	0ffH
	DB	0ffH
	DB	0ffH
	DB	0ffH
	DB	0ffH
	DB	0ffH
	DB	0ffH
	DB	0ffH
	DB	0ffH
	DB	0ffH
	DB	0ffH
	DB	0ffH
	DB	0ffH
	DB	0ffH
	DB	0ffH
	DB	0ffH
	DB	0ffH
	DB	0ffH
	DB	0ffH
	DB	0ffH
	DB	0ffH
	DB	0ffH
	DB	0ffH
	DB	0ffH
	DB	0ffH
	DB	0ffH
	DB	0ffH
	DB	0ffH
	DB	0ffH
	DB	0ffH
	DB	0ffH
	DB	0ffH
	DB	0ffH
	DB	0ffH
	DB	0ffH
	DB	0ffH
	DB	0ffH
	DB	0ffH
	DB	0ffH
	DB	0ffH
	DB	0ffH
	DB	0ffH
	DB	0ffH
	DB	0ffH
	DB	0ffH
	DB	0ffH
	DB	0ffH
	DB	0ffH
	DB	0ffH
	DB	0ffH
	DB	0ffH
	DB	0ffH
	DB	0ffH
	DB	0ffH
	DB	0ffH
	DB	0ffH
	DB	0ffH
	DB	0ffH
	DB	0ffH
	DB	0ffH
	DB	0ffH
	DB	0ffH
	DB	0ffH
	DB	0ffH
	DB	0ffH
	DB	0ffH
	DB	0ffH
	DB	0ffH
	DB	0ffH
	DB	0ffH
	DB	0ffH
	DB	0ffH
	DB	0ffH
	DB	0ffH
	DB	0ffH
	DB	0ffH
	DB	0ffH
	DB	0ffH
	DB	0ffH
	DB	0ffH
	DB	0ffH
	DB	0ffH
	DB	0ffH
	DB	0ffH
	DB	0ffH
	DB	0ffH
	DB	0ffH
	DB	0ffH
	DB	0ffH
	DB	0ffH
	DB	0ffH
	DB	0ffH
	DB	0ffH
	DB	0ffH
	DB	0ffH
	DB	0ffH
	DB	0ffH
	DB	0ffH
	DB	0ffH
	DB	0ffH
	DB	0ffH
	DB	0ffH
	DB	0ffH
	DB	0ffH
	DB	0ffH
	DB	0ffH
	DB	0ffH
	DB	0ffH
	DB	0ffH
	DB	0ffH
	DB	0ffH
	DB	0ffH
	DB	0ffH
	DB	0ffH
	DB	0ffH
	DB	0ffH
	DB	0ffH
	DB	0ffH
	DB	0ffH
	DB	0ffH
	DB	0ffH
	DB	0ffH
	DB	0ffH
	DB	0ffH
	DB	0ffH
	DB	0ffH
	DB	0ffH
	DB	0ffH
	DB	0ffH
	DB	0ffH
	DB	0ffH
	DB	0ffH
	DB	0ffH
	DB	0ffH
	DB	0ffH
	DB	0ffH
	DB	0ffH
	DB	0ffH
	DB	0ffH
	DB	0ffH
	DB	0ffH
	DB	0ffH
	DB	0ffH
	DB	0ffH
	DB	0ffH
	DB	0ffH
	DB	0ffH
	DB	0ffH
	DB	0ffH
	DB	0ffH
	DB	0ffH
	DB	0ffH
	DB	0ffH
	DB	0ffH
	DB	0ffH
	DB	0ffH
	DB	0ffH
	DB	0ffH
	DB	0ffH
	DB	0ffH
	DB	0ffH
	DB	0ffH
	DB	0ffH
	DB	0ffH
	DB	0ffH
	DB	0ffH
	DB	0ffH
	DB	0ffH
	DB	0ffH
	DB	0ffH
	DB	0ffH
	DB	0ffH
	DB	0ffH
	DB	0ffH
	DB	0ffH
	DB	0ffH
	DB	0ffH
	DB	0ffH
	DB	0ffH
	DB	0ffH
	DB	0ffH
	DB	0ffH
	DB	0ffH
	DB	0ffH
	DB	0ffH
	DB	0ffH
	DB	0ffH
	DB	0ffH
	DB	0ffH
	DB	0ffH
	DB	0ffH
	DB	0ffH
	DB	0ffH
	DB	0ffH
	DB	0ffH
	DB	0ffH
	DB	0ffH
	DB	0ffH
	DB	0ffH
	DB	0ffH
	DB	0ffH
	DB	0ffH
	DB	0ffH
	DB	0ffH
	DB	0ffH
	DB	0ffH
	DB	0ffH
	DB	0ffH
	DB	0ffH
	DB	0ffH
	DB	0ffH
	DB	0ffH
	DB	0ffH
	DB	0ffH
	DB	0ffH
	DB	0ffH
	DB	0ffH
	DB	0ffH
	DB	0ffH
	DB	0ffH
	DB	0ffH
	DB	0ffH
	DB	0ffH
	DB	0ffH
	DB	0ffH
	DB	0ffH
	DB	0ffH
	DB	0ffH
	DB	0ffH
	DB	0ffH
	DB	0ffH
	DB	0ffH
	DB	0ffH
	DB	0ffH
	DB	0ffH
	DB	0ffH
	DB	0ffH
	DB	0ffH
	DB	0ffH
	DB	0ffH
	DB	0ffH
	DB	0ffH
	DB	0ffH
	DB	0ffH
	DB	0ffH
	DB	0ffH
	DB	0ffH
	DB	0ffH
	DB	0ffH
	DB	0ffH
	DB	0ffH
	DB	0ffH
	DB	0ffH
	DB	0ffH
	DB	0ffH
	DB	0ffH
	DB	0ffH
	DB	0ffH
	DB	0ffH
	DB	0ffH
	DB	0ffH
	DB	0ffH
	DB	0ffH
	DB	0ffH
	DB	0ffH
	DB	0ffH
	DB	0ffH
	DB	0ffH
	DB	0ffH
	DB	0ffH
	DB	0ffH
	DB	0ffH
	DB	0ffH
	DB	0ffH
	DB	0ffH
	DB	0ffH
	DB	0ffH
	DB	0ffH
	DB	0ffH
	DB	0ffH
	DB	0ffH
	DB	0ffH
	DB	0ffH
	DB	0ffH
	DB	0ffH
	DB	0ffH
	DB	0ffH
	DB	0ffH
	DB	0ffH
	DB	0ffH
	DB	0ffH
	DB	0ffH
	DB	0ffH
	DB	0ffH
	DB	0ffH
	DB	0ffH
	DB	0ffH
	DB	0ffH
	DB	0ffH
	DB	0ffH
	DB	0ffH
	DB	0ffH
	DB	0ffH
	DB	0ffH
	DB	0ffH
	DB	0ffH
	DB	0ffH
	DB	0ffH
	DB	0ffH
	DB	0ffH
	DB	0ffH
	DB	0ffH
	DB	0ffH
	DB	0ffH
	DB	0ffH
	DB	0ffH
	DB	0ffH
	DB	0ffH
	DB	0ffH
	DB	0ffH
	DB	0ffH
	DB	0ffH
	DB	0ffH
	DB	0ffH
	DB	0ffH
	DB	0ffH
	DB	0ffH
	DB	0ffH
	DB	0ffH
	DB	0ffH
	DB	0ffH
	DB	0ffH
	DB	0ffH
	DB	0ffH
	DB	0ffH
	DB	0ffH
	DB	0ffH
	DB	0ffH
	DB	0ffH
	DB	0ffH
	DB	0ffH
	DB	0ffH
	DB	0ffH
	DB	0ffH
	DB	0ffH
	DB	0ffH
	DB	0ffH
	DB	0ffH
	DB	0ffH
	DB	0ffH
	DB	0ffH
	DB	0ffH
	DB	0ffH
	DB	0ffH
	DB	0ffH
	DB	0ffH
	DB	0ffH
	DB	0ffH
	DB	0ffH
	DB	0ffH
	DB	0ffH
	DB	0ffH
	DB	0ffH
	DB	0ffH
	DB	0ffH
	DB	0ffH
	DB	0ffH
	DB	0ffH
	DB	0ffH
	DB	0ffH
	DB	0ffH
	DB	0ffH
	DB	0ffH
	DB	0ffH
	DB	0ffH
	DB	0ffH
	DB	0ffH
	DB	0ffH
	DB	0ffH
	DB	0ffH
	DB	0ffH
	DB	0ffH
	DB	0ffH
	DB	0ffH
	DB	0ffH
	DB	0ffH
	DB	0ffH
	DB	0ffH
	DB	0ffH
	DB	0ffH
	DB	0ffH
	DB	0ffH
	DB	0ffH
	DB	0ffH
	DB	0ffH
	DB	0ffH
	DB	0ffH
	DB	0ffH
	DB	0ffH
	DB	0ffH
	DB	0ffH
	DB	0ffH
	DB	0ffH
	DB	0ffH
	DB	0ffH
	DB	0ffH
	DB	0ffH
	DB	0ffH
	DB	0ffH
	DB	0ffH
	DB	0ffH
	DB	0ffH
	DB	0ffH
	DB	0ffH
	DB	0ffH
	DB	0ffH
	DB	0ffH
	DB	0ffH
	DB	0ffH
	DB	0ffH
	DB	0ffH
	DB	0ffH
	DB	0ffH
	DB	0ffH
	DB	0ffH
	DB	0ffH
	DB	0ffH
	DB	0ffH
	DB	0ffH
	DB	0ffH
	DB	0ffH
	DB	0ffH
	DB	0ffH
	DB	0ffH
	DB	0ffH
	DB	0ffH
	DB	0ffH
	DB	0ffH
	DB	0ffH
	DB	0ffH
	DB	0ffH
	DB	0ffH
	DB	0ffH
	DB	0ffH
	DB	0ffH
	DB	0ffH
	DB	0ffH
	DB	0ffH
	DB	0ffH
	DB	0ffH
	DB	0ffH
	DB	0ffH
	DB	0ffH
	DB	0ffH
	DB	0ffH
	DB	0ffH
	DB	0ffH
	DB	0ffH
	DB	0ffH
	DB	0ffH
	DB	0ffH
	DB	0ffH
	DB	0ffH
	DB	0ffH
	DB	0ffH
	DB	0ffH
	DB	0ffH
	DB	0ffH
	DB	0ffH
	DB	0ffH
	DB	0ffH
	DB	0ffH
	DB	0ffH
	DB	0ffH
	DB	0ffH
	DB	0ffH
	DB	0ffH
	DB	0ffH
	DB	0ffH
	DB	0ffH
	DB	0ffH
	DB	0ffH
	DB	0ffH
	DB	0ffH
	DB	0ffH
	DB	0ffH
	DB	0ffH
	DB	0ffH
	DB	0ffH
	DB	0ffH
	DB	0ffH
	DB	0ffH
	DB	0ffH
	DB	0ffH
	DB	0ffH
	DB	0ffH
	DB	0ffH
	DB	0ffH
	DB	0ffH
	DB	0ffH
	DB	0ffH
	DB	0ffH
	DB	0ffH
	DB	0ffH
	DB	0ffH
	DB	0ffH
	DB	0ffH
	DB	0ffH
	DB	0ffH
	DB	0ffH
	DB	0ffH
	DB	0ffH
	DB	0ffH
	DB	0ffH
	DB	0ffH
	DB	0ffH
	DB	0ffH
	DB	0ffH
	DB	0ffH
	DB	0ffH
	DB	0ffH
	DB	0ffH
	DB	0ffH
	DB	0ffH
	DB	0ffH
	DB	0ffH
	DB	0ffH
	DB	0ffH
	DB	0ffH
	DB	0ffH
	DB	0ffH
	DB	0ffH
	DB	0ffH
	DB	0ffH
	DB	0ffH
	DB	0ffH
	DB	0ffH
	DB	0ffH
	DB	0ffH
	DB	0ffH
	DB	0ffH
	DB	0ffH
	DB	0ffH
	DB	0ffH
	DB	0ffH
	DB	0ffH
	DB	0ffH
	DB	0ffH
	DB	0ffH
	DB	0ffH
	DB	0ffH
	DB	0ffH
	DB	0ffH
	DB	0ffH
	DB	0ffH
	DB	0ffH
	DB	0ffH
	DB	0ffH
	DB	0ffH
	DB	0ffH
	DB	0ffH
	DB	0ffH
	DB	0ffH
	DB	0ffH
	DB	0ffH
	DB	0ffH
	DB	0ffH
	DB	0ffH
	DB	0ffH
	DB	0ffH
	DB	0ffH
	DB	0ffH
	DB	0ffH
	DB	0ffH
	DB	0ffH
	DB	0ffH
	DB	0ffH
	DB	0ffH
	DB	0ffH
	DB	0ffH
	DB	0ffH
	DB	0ffH
	DB	0ffH
	DB	0ffH
	DB	0ffH
	DB	0ffH
	DB	0ffH
	DB	0ffH
	DB	0ffH
	DB	0ffH
	DB	0ffH
	DB	0ffH
	DB	0ffH
	DB	0ffH
	DB	0ffH
	DB	0ffH
	DB	0ffH
	DB	0ffH
	DB	0ffH
	DB	0ffH
	DB	0ffH
	DB	0ffH
	DB	0ffH
	DB	0ffH
	DB	0ffH
	DB	0ffH
	DB	0ffH
	DB	0ffH
	DB	0ffH
	DB	0ffH
	DB	0ffH
	DB	0ffH
	DB	0ffH
	DB	0ffH
	DB	0ffH
	DB	0ffH
	DB	0ffH
	DB	0ffH
	DB	0ffH
	DB	0ffH
	DB	0ffH
	DB	0ffH
	DB	0ffH
	DB	0ffH
	DB	0ffH
	DB	0ffH
	DB	0ffH
	DB	0ffH
	DB	0ffH
	DB	0ffH
	DB	0ffH
	DB	0ffH
	DB	0ffH
	DB	0ffH
	DB	0ffH
	DB	0ffH
	DB	0ffH
	DB	0ffH
	DB	0ffH
	DB	0ffH
	DB	0ffH
	DB	0ffH
	DB	0ffH
	DB	0ffH
	DB	0ffH
	DB	0ffH
	DB	0ffH
	DB	0ffH
	DB	0ffH
	DB	0ffH
	DB	0ffH
	DB	0ffH
	DB	0ffH
	DB	0ffH
	DB	0ffH
	DB	0ffH
	DB	0ffH
	DB	0ffH
	DB	0ffH
	DB	0ffH
	DB	0ffH
	DB	0ffH
	DB	0ffH
	DB	0ffH
	DB	0ffH
	DB	0ffH
	DB	0ffH
	DB	0ffH
	DB	0ffH
	DB	0ffH
	DB	0ffH
	DB	0ffH
	DB	0ffH
	DB	0ffH
	DB	0ffH
	DB	0ffH
	DB	0ffH
	DB	0ffH
	DB	0ffH
	DB	0ffH
	DB	0ffH
	DB	0ffH
	DB	0ffH
	DB	0ffH
	DB	0ffH
	DB	0ffH
	DB	0ffH
	DB	0ffH
	DB	0ffH
	DB	0ffH
	DB	0ffH
	DB	0ffH
	DB	0ffH
	DB	0ffH
	DB	0ffH
	DB	0ffH
	DB	0ffH
	DB	0ffH
	DB	0ffH
	DB	0ffH
	DB	0ffH
	DB	0ffH
	DB	0ffH
	DB	0ffH
	DB	0ffH
	DB	0ffH
	DB	0ffH
	DB	0ffH
	DB	0ffH
	DB	0ffH
	DB	0ffH
	DB	0ffH
	DB	0ffH
	DB	0ffH
	DB	0ffH
	DB	0ffH
	DB	0ffH
	DB	0ffH
	DB	0ffH
	DB	0ffH
	DB	0ffH
	DB	0ffH
	DB	0ffH
	DB	0ffH
	DB	0ffH
	DB	0ffH
	DB	0ffH
	DB	0ffH
	DB	0ffH
	DB	0ffH
	DB	0ffH
	DB	0ffH
	DB	0ffH
	DB	0ffH
	DB	0ffH
	DB	0ffH
	DB	0ffH
	DB	0ffH
	DB	0ffH
	DB	0ffH
	DB	0ffH
	DB	0ffH
	DB	0ffH
	DB	0ffH
	DB	0ffH
	DB	0ffH
	DB	0ffH
	DB	0ffH
	DB	0ffH
	DB	0ffH
	DB	0ffH
	DB	0ffH
	DB	0ffH
	DB	0ffH
	DB	0ffH
	DB	0ffH
	DB	0ffH
	DB	0ffH
	DB	0ffH
	DB	0ffH
	DB	0ffH
	DB	0ffH
	DB	0ffH
	DB	0ffH
	DB	0ffH
	DB	0ffH
	DB	0ffH
	DB	0ffH
	DB	0ffH
	DB	0ffH
	DB	0ffH
	DB	0ffH
	DB	0ffH
	DB	0ffH
	DB	0ffH
	DB	0ffH
	DB	0ffH
	DB	0ffH
	DB	0ffH
	DB	0ffH
	DB	0ffH
	DB	0ffH
	DB	0ffH
	DB	0ffH
	DB	0ffH
	DB	0ffH
	DB	0ffH
	DB	0ffH
	DB	0ffH
	DB	0ffH
	DB	0ffH
	DB	0ffH
	DB	0ffH
	DB	0ffH
	DB	0ffH
	DB	0ffH
	DB	0ffH
	DB	0ffH
	DB	0ffH
	DB	0ffH
	DB	0ffH
	DB	0ffH
	DB	0ffH
	DB	0ffH
	DB	0ffH
	DB	0ffH
	DB	0ffH
	DB	0ffH
	DB	0ffH
	DB	0ffH
	DB	0ffH
	DB	0ffH
	DB	0ffH
	DB	0ffH
	DB	0ffH
	DB	0ffH
	DB	0ffH
	DB	0ffH
	DB	0ffH
	DB	0ffH
	DB	0ffH
	DB	0ffH
	DB	0ffH
	DB	0ffH
	DB	0ffH
	DB	0ffH
	DB	0ffH
	DB	0ffH
	DB	0ffH
	DB	0ffH
	DB	0ffH
	DB	0ffH
	DB	0ffH
	DB	0ffH
	DB	0ffH
	DB	0ffH
	DB	0ffH
	DB	0ffH
	DB	0ffH
	DB	0ffH
	DB	0ffH
	DB	0ffH
	DB	0ffH
	DB	0ffH
	DB	0ffH
	DB	0ffH
	DB	0ffH
	DB	0ffH
	DB	0ffH
	DB	0ffH
	DB	0ffH
	DB	0ffH
	DB	0ffH
	DB	0ffH
	DB	0ffH
	DB	0ffH
	DB	0ffH
	DB	0ffH
	DB	0ffH
	DB	0ffH
	DB	0ffH
	DB	0ffH
	DB	0ffH
	DB	0ffH
	DB	0ffH
	DB	0ffH
	DB	0ffH
	DB	0ffH
	DB	0ffH
	DB	0ffH
	DB	0ffH
	DB	0ffH
	DB	0ffH
	DB	0ffH
	DB	0ffH
	DB	0ffH
	DB	0ffH
	DB	0ffH
	DB	0ffH
	DB	0ffH
	DB	0ffH
	DB	0ffH
	DB	0ffH
	DB	0ffH
	DB	0ffH
	DB	0ffH
	DB	0ffH
	DB	0ffH
	DB	0ffH
	DB	0ffH
	DB	0ffH
	DB	0ffH
	DB	0ffH
	DB	0ffH
	DB	0ffH
	DB	0ffH
	DB	0ffH
	DB	0ffH
	DB	0ffH
	DB	0ffH
	DB	0ffH
	DB	0ffH
	DB	0ffH
	DB	0ffH
	DB	0ffH
	DB	0ffH
	DB	0ffH
	DB	0ffH
	DB	0ffH
	DB	0ffH
	DB	0ffH
	DB	0ffH
	DB	0ffH
	DB	0ffH
	DB	0ffH
	DB	0ffH
	DB	0ffH
	DB	0ffH
	DB	0ffH
	DB	0ffH
	DB	0ffH
	DB	0ffH
	DB	0ffH
	DB	0ffH
	DB	0ffH
	DB	0ffH
	DB	0ffH
	DB	0ffH
	DB	0ffH
	DB	0ffH
	DB	0ffH
	DB	0ffH
	DB	0ffH
	DB	0ffH
	DB	0ffH
	DB	0ffH
	DB	0ffH
	DB	0ffH
	DB	0ffH
	DB	0ffH
	DB	0ffH
	DB	0ffH
	DB	0ffH
	DB	0ffH
	DB	0ffH
	DB	0ffH
	DB	0ffH
	DB	0ffH
	DB	0ffH
	DB	0ffH
	DB	0ffH
	DB	0ffH
	DB	0ffH
	DB	0ffH
	DB	0ffH
	DB	0ffH
	DB	0ffH
	DB	0ffH
	DB	0ffH
	DB	0ffH
	DB	0ffH
	DB	0ffH
	DB	0ffH
	DB	0ffH
	DB	0ffH
	DB	0ffH
	DB	0ffH
	DB	0ffH
	DB	0ffH
	DB	0ffH
	DB	0ffH
	DB	0ffH
	DB	0ffH
	DB	0ffH
	DB	0ffH
	DB	0ffH
	DB	0ffH
	DB	0ffH
	DB	0ffH
	DB	0ffH
	DB	0ffH
	DB	0ffH
	DB	0ffH
	DB	0ffH
	DB	0ffH
	DB	0ffH
	DB	0ffH
	DB	0ffH
	DB	0ffH
	DB	0ffH
	DB	0ffH
	DB	0ffH
	DB	0ffH
	DB	0ffH
	DB	0ffH
	DB	0ffH
	DB	0ffH
	DB	0ffH
	DB	0ffH
	DB	0ffH
	DB	0ffH
	DB	0ffH
	DB	0ffH
	DB	0ffH
	DB	0ffH
	DB	0ffH
	DB	0ffH
	DB	0ffH
	DB	0ffH
	DB	0ffH
	DB	0ffH
	DB	0ffH
	DB	0ffH
	DB	0ffH
	DB	0ffH
	DB	0ffH
	DB	0ffH
	DB	0ffH
	DB	0ffH
	DB	0ffH
	DB	0ffH
	DB	0ffH
	DB	0ffH
	DB	0ffH
	DB	0ffH
	DB	0ffH
	DB	0ffH
	DB	0ffH
	DB	0ffH
	DB	0ffH
	DB	0ffH
	DB	0ffH
	DB	0ffH
	DB	0ffH
	DB	0ffH
	DB	0ffH
	DB	0ffH
	DB	0ffH
	DB	0ffH
	DB	0ffH
	DB	0ffH
	DB	0ffH
	DB	0ffH
	DB	0ffH
	DB	0ffH
	DB	0ffH
	DB	0ffH
	DB	0ffH
	DB	0ffH
	DB	0ffH
	DB	0ffH
	DB	0ffH
	DB	0ffH
	DB	0ffH
	DB	0ffH
	DB	0ffH
	DB	0ffH
	DB	0ffH
	DB	0ffH
	DB	0ffH
	DB	0ffH
	DB	0ffH
	DB	0ffH
	DB	0ffH
	DB	0ffH
	DB	0ffH
	DB	0ffH
	DB	0ffH
	DB	0ffH
	DB	0ffH
	DB	0ffH
	DB	0ffH
	DB	0ffH
	DB	0ffH
	DB	0ffH
	DB	0ffH
	DB	0ffH
	DB	0ffH
	DB	0ffH
	DB	0ffH
	DB	0ffH
	DB	0ffH
	DB	0ffH
	DB	0ffH
	DB	0ffH
	DB	0ffH
	DB	0ffH
	DB	0ffH
	DB	0ffH
	DB	0ffH
	DB	0ffH
	DB	0ffH
	DB	0ffH
	DB	0ffH
	DB	0ffH
	DB	0ffH
	DB	0ffH
	DB	0ffH
	DB	0ffH
	DB	0ffH
	DB	0ffH
	DB	0ffH
	DB	0ffH
	DB	0ffH
	DB	0ffH
	DB	0ffH
	DB	0ffH
	DB	0ffH
	DB	0ffH
	DB	0ffH
	DB	0ffH
	DB	0ffH
	DB	0ffH
	DB	0ffH
	DB	0ffH
	DB	0ffH
	DB	0ffH
	DB	0ffH
	DB	0ffH
	DB	0ffH
	DB	0ffH
	DB	0ffH
	DB	0ffH
	DB	0ffH
	DB	0ffH
	DB	0ffH
	DB	0ffH
	DB	0ffH
	DB	0ffH
	DB	0ffH
	DB	0ffH
	DB	0ffH
	DB	0ffH
	DB	0ffH
	DB	0ffH
	DB	0ffH
	DB	0ffH
	DB	0ffH
	DB	0ffH
	DB	0ffH
	DB	0ffH
	DB	0ffH
	DB	0ffH
	DB	0ffH
	DB	0ffH
	DB	0ffH
	DB	0ffH
	DB	0ffH
	DB	0ffH
	DB	0ffH
	DB	0ffH
	DB	0ffH
	DB	0ffH
	DB	0ffH
	DB	0ffH
	DB	0ffH
	DB	0ffH
	DB	0ffH
	DB	0ffH
	DB	0ffH
	DB	0ffH
	DB	0ffH
	DB	0ffH
	DB	0ffH
	DB	0ffH
	DB	0ffH
	DB	0ffH
	DB	0ffH
	DB	0ffH
	DB	0ffH
	DB	0ffH
	DB	0ffH
	DB	0ffH
	DB	0ffH
	DB	0ffH
	DB	0ffH
	DB	0ffH
	DB	0ffH
	DB	0ffH
	DB	0ffH
	DB	0ffH
	DB	0ffH
	DB	0ffH
	DB	0ffH
	DB	0ffH
	DB	0ffH
	DB	0ffH
	DB	0ffH
	DB	0ffH
	DB	0ffH
	DB	0ffH
	DB	0ffH
	DB	0ffH
	DB	0ffH
	DB	0ffH
	DB	0ffH
	DB	0ffH
	DB	0ffH
	DB	0ffH
	DB	0ffH
	DB	0ffH
	DB	0ffH
	DB	0ffH
	DB	0ffH
	DB	0ffH
	DB	0ffH
	DB	0ffH
	DB	0ffH
	DB	0ffH
	DB	0ffH
	DB	0ffH
	DB	0ffH
	DB	0ffH
	DB	0ffH
	DB	0ffH
	DB	0ffH
	DB	0ffH
	DB	0ffH
	DB	0ffH
	DB	0ffH
	DB	0ffH
	DB	0ffH
	DB	0ffH
	DB	0ffH
	DB	0ffH
	DB	0ffH
	DB	0ffH
	DB	0ffH
	DB	0ffH
	DB	0ffH
	DB	0ffH
	DB	0ffH
	DB	0ffH
	DB	0ffH
	DB	0ffH
	DB	00H
	DB	0ffH
	DB	0ffH
	DB	0ffH
	DB	0ffH
	DB	0ffH
	DB	0ffH
	DB	0ffH
	DB	0ffH
	DB	0ffH
	DB	0ffH
	DB	0ffH
	DB	0ffH
	DB	0ffH
	DB	0ffH
	DB	0ffH
	DB	0ffH
	DB	0ffH
	DB	0ffH
	DB	0ffH
	DB	0ffH
	DB	0ffH
	DB	0ffH
	DB	0ffH
	DB	0ffH
	DB	0ffH
	DB	0ffH
	DB	0ffH
	DB	0ffH
	DB	0ffH
	DB	0ffH
	DB	0ffH
	DB	0ffH
	DB	0ffH
	DB	0ffH
	DB	0ffH
	DB	0ffH
	DB	0ffH
	DB	0ffH
	DB	0ffH
	DB	0ffH
	DB	0ffH
	DB	0ffH
	DB	0ffH
	DB	0ffH
	DB	0ffH
	DB	0ffH
	DB	0ffH
	DB	0ffH
	DB	0ffH
	DB	0ffH
	DB	0ffH
	DB	0ffH
	DB	0ffH
	DB	0ffH
	DB	0ffH
	DB	0ffH
	DB	0ffH
	DB	0ffH
	DB	0ffH
	DB	0ffH
	DB	0ffH
	DB	0ffH
	DB	0ffH
	DB	0ffH
	DB	0ffH
	DB	0ffH
	DB	0ffH
	DB	0ffH
	DB	0ffH
	DB	0ffH
	DB	0ffH
	DB	0ffH
	DB	0ffH
	DB	0ffH
	DB	0ffH
	DB	0ffH
	DB	0ffH
	DB	0ffH
	DB	0ffH
	DB	0ffH
	DB	0ffH
	DB	0ffH
	DB	0ffH
	DB	0ffH
	DB	0ffH
	DB	0ffH
	DB	0ffH
	DB	0ffH
	DB	0ffH
	DB	0ffH
	DB	0ffH
	DB	0ffH
	DB	0ffH
	DB	0ffH
	DB	0ffH
	DB	0ffH
	DB	0ffH
	DB	0ffH
	DB	0ffH
	DB	0ffH
	DB	0ffH
	DB	0ffH
	DB	0ffH
	DB	0ffH
	DB	0ffH
	DB	0ffH
	DB	0ffH
	DB	0ffH
	DB	0ffH
	DB	0ffH
	DB	0ffH
	DB	0ffH
	DB	0ffH
	DB	0ffH
	DB	0ffH
	DB	0ffH
	DB	0ffH
	DB	0ffH
	DB	0ffH
	DB	0ffH
	DB	0ffH
	DB	0ffH
	DB	0ffH
	DB	0ffH
	DB	0ffH
	DB	0ffH
	DB	0ffH
	DB	0ffH
	DB	00H
	DB	00H
	DB	0ffH
	DB	0ffH
	DB	0ffH
	DB	0ffH
	DB	0ffH
	DB	0ffH
	DB	0ffH
	DB	0ffH
	DB	0ffH
	DB	0ffH
	DB	0ffH
	DB	0ffH
	DB	0ffH
	DB	0ffH
	DB	0ffH
	DB	0ffH
	DB	0ffH
	DB	0ffH
	DB	0ffH
	DB	0ffH
	DB	0ffH
	DB	0ffH
	DB	0ffH
	DB	0ffH
	DB	0ffH
	DB	0ffH
	DB	0ffH
	DB	0ffH
	DB	0ffH
	DB	0ffH
	DB	0ffH
	DB	0ffH
	DB	0ffH
	DB	0ffH
	DB	0ffH
	DB	0ffH
	DB	0ffH
	DB	0ffH
	DB	0ffH
	DB	0ffH
	DB	0ffH
	DB	0ffH
	DB	0ffH
	DB	0ffH
	DB	0ffH
	DB	0ffH
	DB	0ffH
	DB	0ffH
	DB	0ffH
	DB	0ffH
	DB	0ffH
	DB	0ffH
	DB	0ffH
	DB	0ffH
	DB	0ffH
	DB	0ffH
	DB	0ffH
	DB	0ffH
	DB	0ffH
	DB	0ffH
	DB	0ffH
	DB	0ffH
	DB	0ffH
	DB	0ffH
	DB	0ffH
	DB	0ffH
	DB	0ffH
	DB	0ffH
	DB	0ffH
	DB	0ffH
	DB	0ffH
	DB	0ffH
	DB	0ffH
	DB	0ffH
	DB	0ffH
	DB	0ffH
	DB	0ffH
	DB	0ffH
	DB	0ffH
	DB	0ffH
	DB	0ffH
	DB	0ffH
	DB	0ffH
	DB	0ffH
	DB	0ffH
	DB	0ffH
	DB	0ffH
	DB	0ffH
	DB	0ffH
	DB	0ffH
	DB	0ffH
	DB	0ffH
	DB	0ffH
	DB	0ffH
	DB	0ffH
	DB	0ffH
	DB	0ffH
	DB	0ffH
	DB	0ffH
	DB	0ffH
	DB	0ffH
	DB	0ffH
	DB	0ffH
	DB	0ffH
	DB	0ffH
	DB	0ffH
	DB	0ffH
	DB	0ffH
	DB	0ffH
	DB	0ffH
	DB	0ffH
	DB	0ffH
	DB	0ffH
	DB	0ffH
	DB	0ffH
	DB	0ffH
	DB	0ffH
	DB	0ffH
	DB	0ffH
	DB	0ffH
	DB	0ffH
	DB	0ffH
	DB	0ffH
	DB	0ffH
	DB	0ffH
	DB	0ffH
	DB	0ffH
	DB	0ffH
	DB	00H
	DB	00H
	DB	00H
	DB	0ffH
	DB	0ffH
	DB	0ffH
	DB	0ffH
	DB	0ffH
	DB	0ffH
	DB	0ffH
	DB	0ffH
	DB	0ffH
	DB	0ffH
	DB	0ffH
	DB	0ffH
	DB	0ffH
	DB	0ffH
	DB	0ffH
	DB	0ffH
	DB	0ffH
	DB	0ffH
	DB	0ffH
	DB	0ffH
	DB	0ffH
	DB	0ffH
	DB	0ffH
	DB	0ffH
	DB	0ffH
	DB	0ffH
	DB	0ffH
	DB	0ffH
	DB	0ffH
	DB	0ffH
	DB	0ffH
	DB	0ffH
	DB	0ffH
	DB	0ffH
	DB	0ffH
	DB	0ffH
	DB	0ffH
	DB	0ffH
	DB	0ffH
	DB	0ffH
	DB	0ffH
	DB	0ffH
	DB	0ffH
	DB	0ffH
	DB	0ffH
	DB	0ffH
	DB	0ffH
	DB	0ffH
	DB	0ffH
	DB	0ffH
	DB	0ffH
	DB	0ffH
	DB	0ffH
	DB	0ffH
	DB	0ffH
	DB	0ffH
	DB	0ffH
	DB	0ffH
	DB	0ffH
	DB	0ffH
	DB	0ffH
	DB	0ffH
	DB	0ffH
	DB	0ffH
	DB	0ffH
	DB	0ffH
	DB	0ffH
	DB	0ffH
	DB	0ffH
	DB	0ffH
	DB	0ffH
	DB	0ffH
	DB	0ffH
	DB	0ffH
	DB	0ffH
	DB	0ffH
	DB	0ffH
	DB	0ffH
	DB	0ffH
	DB	0ffH
	DB	0ffH
	DB	0ffH
	DB	0ffH
	DB	0ffH
	DB	0ffH
	DB	0ffH
	DB	0ffH
	DB	0ffH
	DB	0ffH
	DB	0ffH
	DB	0ffH
	DB	0ffH
	DB	0ffH
	DB	0ffH
	DB	0ffH
	DB	0ffH
	DB	0ffH
	DB	0ffH
	DB	0ffH
	DB	0ffH
	DB	0ffH
	DB	0ffH
	DB	0ffH
	DB	0ffH
	DB	0ffH
	DB	0ffH
	DB	0ffH
	DB	0ffH
	DB	0ffH
	DB	0ffH
	DB	0ffH
	DB	0ffH
	DB	0ffH
	DB	0ffH
	DB	0ffH
	DB	0ffH
	DB	0ffH
	DB	0ffH
	DB	0ffH
	DB	0ffH
	DB	0ffH
	DB	0ffH
	DB	0ffH
	DB	0ffH
	DB	0ffH
	DB	0ffH
	DB	00H
	DB	00H
	DB	00H
	DB	00H
	DB	00H
	DB	0ffH
	DB	0ffH
	DB	0ffH
	DB	0ffH
	DB	0ffH
	DB	0ffH
	DB	0ffH
	DB	0ffH
	DB	0ffH
	DB	0ffH
	DB	0ffH
	DB	0ffH
	DB	0ffH
	DB	0ffH
	DB	0ffH
	DB	0ffH
	DB	0ffH
	DB	0ffH
	DB	0ffH
	DB	0ffH
	DB	0ffH
	DB	0ffH
	DB	0ffH
	DB	0ffH
	DB	0ffH
	DB	0ffH
	DB	0ffH
	DB	0ffH
	DB	0ffH
	DB	0ffH
	DB	0ffH
	DB	0ffH
	DB	0ffH
	DB	0ffH
	DB	0ffH
	DB	0ffH
	DB	0ffH
	DB	0ffH
	DB	0ffH
	DB	0ffH
	DB	0ffH
	DB	0ffH
	DB	0ffH
	DB	0ffH
	DB	0ffH
	DB	0ffH
	DB	0ffH
	DB	0ffH
	DB	0ffH
	DB	0ffH
	DB	0ffH
	DB	0ffH
	DB	0ffH
	DB	0ffH
	DB	0ffH
	DB	0ffH
	DB	0ffH
	DB	0ffH
	DB	0ffH
	DB	0ffH
	DB	0ffH
	DB	0ffH
	DB	0ffH
	DB	0ffH
	DB	0ffH
	DB	0ffH
	DB	0ffH
	DB	0ffH
	DB	0ffH
	DB	0ffH
	DB	0ffH
	DB	0ffH
	DB	0ffH
	DB	0ffH
	DB	0ffH
	DB	0ffH
	DB	0ffH
	DB	0ffH
	DB	0ffH
	DB	0ffH
	DB	0ffH
	DB	0ffH
	DB	0ffH
	DB	0ffH
	DB	0ffH
	DB	0ffH
	DB	0ffH
	DB	0ffH
	DB	0ffH
	DB	0ffH
	DB	0ffH
	DB	0ffH
	DB	0ffH
	DB	0ffH
	DB	0ffH
	DB	0ffH
	DB	0ffH
	DB	0ffH
	DB	0ffH
	DB	0ffH
	DB	0ffH
	DB	0ffH
	DB	0ffH
	DB	0ffH
	DB	0ffH
	DB	0ffH
	DB	0ffH
	DB	0ffH
	DB	0ffH
	DB	0ffH
	DB	0ffH
	DB	0ffH
	DB	0ffH
	DB	0ffH
	DB	0ffH
	DB	0ffH
	DB	0ffH
	DB	0ffH
	DB	0ffH
	DB	0ffH
	DB	0ffH
	DB	0ffH
	DB	0ffH
	DB	0ffH
	DB	00H
	DB	00H
	DB	00H
	DB	00H
	DB	00H
	DB	00H
	DB	00H
	DB	00H
	DB	0ffH
	DB	0ffH
	DB	0ffH
	DB	0ffH
	DB	0ffH
	DB	0ffH
	DB	0ffH
	DB	0ffH
	DB	0ffH
	DB	0ffH
	DB	0ffH
	DB	0ffH
	DB	0ffH
	DB	0ffH
	DB	0ffH
	DB	0ffH
	DB	0ffH
	DB	0ffH
	DB	0ffH
	DB	0ffH
	DB	0ffH
	DB	0ffH
	DB	0ffH
	DB	0ffH
	DB	0ffH
	DB	0ffH
	DB	0ffH
	DB	0ffH
	DB	0ffH
	DB	0ffH
	DB	0ffH
	DB	0ffH
	DB	0ffH
	DB	0ffH
	DB	0ffH
	DB	0ffH
	DB	0ffH
	DB	0ffH
	DB	0ffH
	DB	0ffH
	DB	0ffH
	DB	0ffH
	DB	0ffH
	DB	0ffH
	DB	0ffH
	DB	0ffH
	DB	0ffH
	DB	0ffH
	DB	0ffH
	DB	0ffH
	DB	0ffH
	DB	0ffH
	DB	0ffH
	DB	0ffH
	DB	0ffH
	DB	0ffH
	DB	0ffH
	DB	0ffH
	DB	0ffH
	DB	0ffH
	DB	0ffH
	DB	0ffH
	DB	0ffH
	DB	0ffH
	DB	0ffH
	DB	0ffH
	DB	0ffH
	DB	0ffH
	DB	0ffH
	DB	0ffH
	DB	0ffH
	DB	0ffH
	DB	0ffH
	DB	0ffH
	DB	0ffH
	DB	0ffH
	DB	0ffH
	DB	0ffH
	DB	0ffH
	DB	0ffH
	DB	0ffH
	DB	0ffH
	DB	0ffH
	DB	0ffH
	DB	0ffH
	DB	0ffH
	DB	0ffH
	DB	0ffH
	DB	0ffH
	DB	0ffH
	DB	0ffH
	DB	0ffH
	DB	0ffH
	DB	0ffH
	DB	0ffH
	DB	0ffH
	DB	0ffH
	DB	0ffH
	DB	0ffH
	DB	0ffH
	DB	0ffH
	DB	0ffH
	DB	0ffH
	DB	0ffH
	DB	0ffH
	DB	0ffH
	DB	0ffH
	DB	0ffH
	DB	0ffH
	DB	0ffH
	DB	0ffH
	DB	0ffH
	DB	0ffH
	DB	0ffH
	DB	0ffH
	DB	0ffH
	DB	0ffH
	DB	0ffH
	DB	0ffH
	DB	0ffH
	DB	00H
	DB	00H
	DB	00H
	DB	00H
	DB	00H
CONST	ENDS
END
