; Listing generated by Microsoft (R) Optimizing Compiler Version 19.00.24210.0 

	TITLE	C:\MyFiles\SoftwareTeam\Technologies_Boards\Graphic\TouchGFX\Scope\Project\Oscilloscope\Graphic\generated\fonts\src\Font_Asap_Regular_13_4bpp.cpp
	.686P
	.XMM
	include listing.inc
	.model	flat

INCLUDELIB MSVCRTD
INCLUDELIB OLDNAMES

PUBLIC	?unicodes_Asap_Regular_13_4bpp@@3QBEB		; unicodes_Asap_Regular_13_4bpp
CONST	SEGMENT
?unicodes_Asap_Regular_13_4bpp@@3QBEB DB 0c3H		; unicodes_Asap_Regular_13_4bpp
	DB	0a6H
	DB	03aH
	DB	0e5H
	DB	07eH
	DB	061H
	DB	0e4H
	DB	00H
	DB	00H
	DB	0a2H
	DB	00H
	DB	00H
	DB	048H
	DB	00H
	DB	00H
	DB	0cH
	DB	00H
	DB	060H
	DB	07H
	DB	00H
	DB	0c0H
	DB	01H
	DB	00H
	DB	0a3H
	DB	00H
	DB	00H
	DB	03aH
	DB	00H
	DB	010H
	DB	0cH
	DB	00H
	DB	070H
	DB	06H
	DB	00H
	DB	0c0H
	DB	00H
	DB	00H
	DB	040H
	DB	00H
	DB	00H
	DB	020H
	DB	0fcH
	DB	01bH
	DB	00H
	DB	07dH
	DB	080H
	DB	0cH
	DB	0e4H
	DB	00H
	DB	0e0H
	DB	073H
	DB	0bH
	DB	00H
	DB	05cH
	DB	0a7H
	DB	00H
	DB	0b0H
	DB	076H
	DB	0bH
	DB	00H
	DB	05cH
	DB	0e4H
	DB	00H
	DB	0e0H
	DB	03H
	DB	07dH
	DB	080H
	DB	0cH
	DB	020H
	DB	0fcH
	DB	01bH
	DB	00H
	DB	082H
	DB	0ebH
	DB	02H
	DB	030H
	DB	046H
	DB	02eH
	DB	00H
	DB	00H
	DB	0e0H
	DB	02H
	DB	00H
	DB	00H
	DB	02eH
	DB	00H
	DB	00H
	DB	0e0H
	DB	02H
	DB	00H
	DB	00H
	DB	02eH
	DB	00H
	DB	00H
	DB	0e0H
	DB	02H
	DB	00H
	DB	00H
	DB	02eH
	DB	00H
	DB	0f5H
	DB	0ffH
	DB	0ffH
	DB	04H
	DB	080H
	DB	0feH
	DB	03cH
	DB	00H
	DB	016H
	DB	060H
	DB	0eH
	DB	00H
	DB	00H
	DB	0f1H
	DB	00H
	DB	00H
	DB	080H
	DB	0bH
	DB	00H
	DB	040H
	DB	02eH
	DB	00H
	DB	020H
	DB	04eH
	DB	00H
	DB	00H
	DB	07dH
	DB	00H
	DB	00H
	DB	09aH
	DB	00H
	DB	00H
	DB	0f4H
	DB	0ffH
	DB	0efH
	DB	01H
	DB	0b0H
	DB	0feH
	DB	02cH
	DB	00H
	DB	02H
	DB	080H
	DB	0bH
	DB	00H
	DB	00H
	DB	07aH
	DB	00H
	DB	090H
	DB	0dfH
	DB	01H
	DB	00H
	DB	00H
	DB	0b9H
	DB	00H
	DB	00H
	DB	010H
	DB	0fH
	DB	00H
	DB	00H
	DB	0f1H
	DB	010H
	DB	04H
	DB	0a0H
	DB	0bH
	DB	0c2H
	DB	0ffH
	DB	01aH
	DB	00H
	DB	00H
	DB	00H
	DB	08aH
	DB	00H
	DB	00H
	DB	0f6H
	DB	09H
	DB	00H
	DB	0d2H
	DB	099H
	DB	00H
	DB	0c0H
	DB	084H
	DB	09H
	DB	080H
	DB	09H
	DB	098H
	DB	040H
	DB	0dH
	DB	080H
	DB	09H
	DB	0faH
	DB	0ffH
	DB	0ffH
	DB	09H
	DB	00H
	DB	080H
	DB	09H
	DB	00H
	DB	00H
	DB	087H
	DB	00H
	DB	080H
	DB	0ffH
	DB	08fH
	DB	00H
	DB	07aH
	DB	00H
	DB	00H
	DB	0b0H
	DB	06H
	DB	00H
	DB	00H
	DB	0fbH
	DB	0aeH
	DB	01H
	DB	00H
	DB	010H
	DB	0d9H
	DB	00H
	DB	00H
	DB	00H
	DB	01fH
	DB	00H
	DB	00H
	DB	0f0H
	DB	011H
	DB	05H
	DB	0a0H
	DB	0dH
	DB	0c2H
	DB	0efH
	DB	02bH
	DB	00H
	DB	00H
	DB	050H
	DB	03eH
	DB	00H
	DB	070H
	DB	04eH
	DB	00H
	DB	050H
	DB	01eH
	DB	00H
	DB	00H
	DB	06dH
	DB	00H
	DB	00H
	DB	0f2H
	DB	0ecH
	DB	04dH
	DB	050H
	DB	02dH
	DB	050H
	DB	0eH
	DB	0c4H
	DB	00H
	DB	0e0H
	DB	02H
	DB	04eH
	DB	050H
	DB	0eH
	DB	040H
	DB	0fdH
	DB	03cH
	DB	00H
	DB	0f3H
	DB	0ffH
	DB	0ffH
	DB	04H
	DB	00H
	DB	030H
	DB	0fH
	DB	00H
	DB	00H
	DB	08bH
	DB	00H
	DB	00H
	DB	0f3H
	DB	01H
	DB	00H
	DB	0a0H
	DB	08H
	DB	00H
	DB	020H
	DB	01fH
	DB	00H
	DB	00H
	DB	09aH
	DB	00H
	DB	00H
	DB	0f2H
	DB	02H
	DB	00H
	DB	090H
	DB	09H
	DB	00H
	DB	00H
	DB	030H
	DB	0fcH
	DB	03cH
	DB	00H
	DB	06dH
	DB	060H
	DB	0dH
	DB	0e0H
	DB	03H
	DB	0f2H
	DB	00H
	DB	0d8H
	DB	0c5H
	DB	07H
	DB	070H
	DB	07aH
	DB	06dH
	DB	030H
	DB	0eH
	DB	010H
	DB	02fH
	DB	0d4H
	DB	00H
	DB	0e0H
	DB	014H
	DB	04fH
	DB	050H
	DB	01fH
	DB	040H
	DB	0fdH
	DB	04dH
	DB	00H
	DB	030H
	DB	0fcH
	DB	03cH
	DB	010H
	DB	04eH
	DB	050H
	DB	0eH
	DB	0d3H
	DB	00H
	DB	0d0H
	DB	013H
	DB	04fH
	DB	020H
	DB	04eH
	DB	040H
	DB	0edH
	DB	0fcH
	DB	02H
	DB	00H
	DB	060H
	DB	0cH
	DB	00H
	DB	020H
	DB	04eH
	DB	00H
	DB	040H
	DB	06eH
	DB	00H
	DB	030H
	DB	05dH
	DB	00H
	DB	00H
	DB	0e4H
	DB	061H
	DB	00H
	DB	00H
	DB	00H
	DB	061H
	DB	0e4H
	DB	0e4H
	DB	061H
	DB	00H
	DB	00H
	DB	00H
	DB	00H
	DB	0c4H
	DB	0a6H
	DB	02aH
	DB	00H
	DB	0d6H
	DB	0ffH
	DB	02cH
	DB	070H
	DB	05eH
	DB	011H
	DB	025H
	DB	0f0H
	DB	05H
	DB	00H
	DB	00H
	DB	0f3H
	DB	00H
	DB	00H
	DB	00H
	DB	0f4H
	DB	00H
	DB	00H
	DB	00H
	DB	0f3H
	DB	00H
	DB	00H
	DB	00H
	DB	0f0H
	DB	05H
	DB	00H
	DB	00H
	DB	080H
	DB	05eH
	DB	011H
	DB	045H
	DB	00H
	DB	0d7H
	DB	0ffH
	DB	03cH
	DB	0faH
	DB	0ffH
	DB	0ffH
	DB	0dH
	DB	00H
	DB	02fH
	DB	00H
	DB	00H
	DB	0f0H
	DB	02H
	DB	00H
	DB	00H
	DB	02fH
	DB	00H
	DB	00H
	DB	0f0H
	DB	02H
	DB	00H
	DB	00H
	DB	02fH
	DB	00H
	DB	00H
	DB	0f0H
	DB	02H
	DB	00H
	DB	00H
	DB	02fH
	DB	00H
	DB	00H
	DB	0e0H
	DB	02H
	DB	00H
	DB	0a2H
	DB	0aaH
	DB	0aaH
	DB	0aaH
	DB	01H
	DB	020H
	DB	0fbH
	DB	07eH
	DB	0e0H
	DB	07H
	DB	021H
	DB	0f3H
	DB	00H
	DB	00H
	DB	0d5H
	DB	00H
	DB	00H
	DB	0f3H
	DB	00H
	DB	00H
	DB	0e0H
	DB	07H
	DB	030H
	DB	030H
	DB	0ebH
	DB	09eH
	DB	030H
	DB	0fcH
	DB	0ffH
	DB	0cH
	DB	06eH
	DB	071H
	DB	0eH
	DB	0f1H
	DB	01H
	DB	0f1H
	DB	00H
	DB	06eH
	DB	060H
	DB	0dH
	DB	040H
	DB	0ffH
	DB	02cH
	DB	00H
	DB	07cH
	DB	00H
	DB	00H
	DB	080H
	DB	0ffH
	DB	08cH
	DB	030H
	DB	03dH
	DB	041H
	DB	08dH
	DB	0c7H
	DB	01H
	DB	0c1H
	DB	017H
	DB	0ebH
	DB	0dfH
	DB	08H
	DB	03cH
	DB	00H
	DB	00H
	DB	04cH
	DB	00H
	DB	00H
	DB	04cH
	DB	00H
	DB	00H
	DB	08cH
	DB	0fcH
	DB	09H
	DB	0acH
	DB	011H
	DB	03eH
	DB	04cH
	DB	00H
	DB	05cH
	DB	04cH
	DB	00H
	DB	05cH
	DB	04cH
	DB	00H
	DB	05cH
	DB	04cH
	DB	00H
	DB	05cH
	DB	03cH
	DB	00H
	DB	04bH
	DB	04dH
	DB	014H
	DB	00H
	DB	03cH
	DB	04dH
	DB	04dH
	DB	04dH
	DB	04dH
	DB	04dH
	DB	03cH
	DB	0e0H
	DB	0c6H
	DB	08eH
	DB	00H
	DB	08eH
	DB	010H
	DB	02fH
	DB	0e0H
	DB	03H
	DB	0d0H
	DB	04H
	DB	03eH
	DB	00H
	DB	04dH
	DB	0e0H
	DB	03H
	DB	0d0H
	DB	04H
	DB	03eH
	DB	00H
	DB	04dH
	DB	0d0H
	DB	02H
	DB	0c0H
	DB	03H
	DB	020H
	DB	0ebH
	DB	06dH
	DB	00H
	DB	07cH
	DB	020H
	DB	03eH
	DB	0f2H
	DB	00H
	DB	090H
	DB	038H
	DB	0eH
	DB	00H
	DB	0a7H
	DB	0f2H
	DB	00H
	DB	090H
	DB	09H
	DB	07dH
	DB	020H
	DB	04eH
	DB	020H
	DB	0ebH
	DB	06dH
	DB	00H
	DB	0e0H
	DB	0d6H
	DB	07eH
	DB	00H
	DB	09eH
	DB	010H
	DB	04eH
	DB	0e0H
	DB	03H
	DB	080H
	DB	09H
	DB	03eH
	DB	00H
	DB	0a7H
	DB	0e0H
	DB	03H
	DB	090H
	DB	09H
	DB	07eH
	DB	020H
	DB	04eH
	DB	0e0H
	DB	0eaH
	DB	07eH
	DB	00H
	DB	03eH
	DB	00H
	DB	00H
	DB	0e0H
	DB	03H
	DB	00H
	DB	00H
	DB	02dH
	DB	00H
	DB	00H
	DB	07dH
	DB	05eH
	DB	09dH
	DB	02H
	DB	04dH
	DB	00H
	DB	04dH
	DB	00H
	DB	04dH
	DB	00H
	DB	04dH
	DB	00H
	DB	03cH
	DB	00H
	DB	090H
	DB	0efH
	DB	044H
	DB	01dH
	DB	01H
	DB	0f3H
	DB	05H
	DB	00H
	DB	0b4H
	DB	04eH
	DB	00H
	DB	060H
	DB	02cH
	DB	02H
	DB	0b8H
	DB	0d4H
	DB	0cfH
	DB	02H
	DB	030H
	DB	03H
	DB	00H
	DB	078H
	DB	00H
	DB	0f7H
	DB	0bfH
	DB	00H
	DB	079H
	DB	00H
	DB	090H
	DB	07H
	DB	00H
	DB	079H
	DB	00H
	DB	090H
	DB	07H
	DB	00H
	DB	098H
	DB	00H
	DB	020H
	DB	0ddH
	DB	00H
	DB	0f0H
	DB	00H
	DB	0e0H
	DB	01H
	DB	01fH
	DB	00H
	DB	02fH
	DB	0f0H
	DB	01H
	DB	0f0H
	DB	02H
	DB	01fH
	DB	00H
	DB	02fH
	DB	0f0H
	DB	01H
	DB	0f0H
	DB	02H
	DB	04eH
	DB	060H
	DB	02fH
	DB	050H
	DB	0deH
	DB	0c8H
	DB	03H
CONST	ENDS
END
