; Listing generated by Microsoft (R) Optimizing Compiler Version 19.00.24210.0 

	TITLE	C:\MyFiles\SoftwareTeam\Technologies_Boards\Graphic\TouchGFX\Scope\Project\Oscilloscope\Graphic\generated\images\src\left_unpress_2.cpp
	.686P
	.XMM
	include listing.inc
	.model	flat

INCLUDELIB MSVCRTD
INCLUDELIB OLDNAMES

PUBLIC	?_left_unpress_2@@3QBEB				; _left_unpress_2
PUBLIC	?_left_unpress_2_alpha_channel@@3QBEB		; _left_unpress_2_alpha_channel
CONST	SEGMENT
?_left_unpress_2@@3QBEB DB 00H				; _left_unpress_2
	DB	00H
	DB	0dfH
	DB	0ffH
	DB	0dfH
	DB	0ffH
	DB	0dfH
	DB	0ffH
	DB	0ffH
	DB	0ffH
	DB	0ffH
	DB	0ffH
	DB	0ffH
	DB	0ffH
	DB	0ffH
	DB	0ffH
	DB	0ffH
	DB	0ffH
	DB	0ffH
	DB	0ffH
	DB	0ffH
	DB	0ffH
	DB	0ffH
	DB	0ffH
	DB	0ffH
	DB	0ffH
	DB	0ffH
	DB	0ffH
	DB	0ffH
	DB	0ffH
	DB	0ffH
	DB	0ffH
	DB	0ffH
	DB	0ffH
	DB	0ffH
	DB	0ffH
	DB	0ffH
	DB	0ffH
	DB	0ffH
	DB	0ffH
	DB	0ffH
	DB	0ffH
	DB	0ffH
	DB	0ffH
	DB	0ffH
	DB	0ffH
	DB	0ffH
	DB	0ffH
	DB	0ffH
	DB	0ffH
	DB	0ffH
	DB	0ffH
	DB	0ffH
	DB	0ffH
	DB	0ffH
	DB	0ffH
	DB	0ffH
	DB	0ffH
	DB	00H
	DB	00H
	DB	0beH
	DB	0ffH
	DB	0dfH
	DB	0ffH
	DB	0ffH
	DB	0ffH
	DB	0ffH
	DB	0ffH
	DB	0ffH
	DB	0ffH
	DB	0ffH
	DB	0ffH
	DB	0ffH
	DB	0ffH
	DB	0ffH
	DB	0ffH
	DB	0ffH
	DB	0ffH
	DB	0ffH
	DB	0ffH
	DB	0ffH
	DB	0ffH
	DB	0ffH
	DB	0ffH
	DB	0ffH
	DB	0ffH
	DB	0ffH
	DB	0ffH
	DB	0ffH
	DB	0ffH
	DB	0ffH
	DB	0ffH
	DB	0ffH
	DB	0ffH
	DB	0ffH
	DB	0ffH
	DB	0ffH
	DB	0ffH
	DB	0ffH
	DB	0ffH
	DB	0ffH
	DB	0ffH
	DB	0ffH
	DB	0ffH
	DB	0ffH
	DB	0ffH
	DB	0ffH
	DB	0ffH
	DB	0ffH
	DB	0ffH
	DB	0ffH
	DB	0ffH
	DB	0ffH
	DB	0ffH
	DB	0ffH
	DB	0ffH
	DB	0ffH
	DB	0ffH
	DB	0ffH
	DB	0ffH
	DB	0ffH
	DB	0ffH
	DB	0ffH
	DB	0ffH
	DB	0ffH
	DB	0ffH
	DB	0ffH
	DB	0ffH
	DB	07eH
	DB	0efH
	DB	03bH
	DB	0b6H
	DB	0d7H
	DB	07cH
	DB	076H
	DB	06cH
	DB	076H
	DB	06cH
	DB	076H
	DB	06cH
	DB	056H
	DB	064H
	DB	056H
	DB	064H
	DB	056H
	DB	064H
	DB	056H
	DB	064H
	DB	056H
	DB	064H
	DB	056H
	DB	064H
	DB	056H
	DB	064H
	DB	056H
	DB	064H
	DB	0daH
	DB	0a5H
	DB	01bH
	DB	0aeH
	DB	0f7H
	DB	07cH
	DB	036H
	DB	05cH
	DB	056H
	DB	064H
	DB	097H
	DB	06cH
	DB	05bH
	DB	0b6H
	DB	09fH
	DB	0efH
	DB	0ffH
	DB	0ffH
	DB	0ffH
	DB	0ffH
	DB	0ffH
	DB	0ffH
	DB	0ffH
	DB	0ffH
	DB	0ffH
	DB	0ffH
	DB	0ffH
	DB	0ffH
	DB	0ffH
	DB	0ffH
	DB	05eH
	DB	0efH
	DB	098H
	DB	09dH
	DB	0b3H
	DB	053H
	DB	0f4H
	DB	05bH
	DB	014H
	DB	064H
	DB	014H
	DB	064H
	DB	034H
	DB	064H
	DB	014H
	DB	064H
	DB	0d4H
	DB	04bH
	DB	0b4H
	DB	043H
	DB	094H
	DB	043H
	DB	0b4H
	DB	043H
	DB	094H
	DB	043H
	DB	094H
	DB	043H
	DB	0b7H
	DB	06cH
	DB	09fH
	DB	0f7H
	DB	0dfH
	DB	0ffH
	DB	0b9H
	DB	09dH
	DB	0d5H
	DB	053H
	DB	074H
	DB	03bH
	DB	094H
	DB	043H
	DB	094H
	DB	043H
	DB	079H
	DB	095H
	DB	05eH
	DB	0e7H
	DB	0ffH
	DB	0ffH
	DB	0ffH
	DB	0ffH
	DB	0ffH
	DB	0ffH
	DB	0ffH
	DB	0ffH
	DB	0ffH
	DB	0ffH
	DB	0ffH
	DB	0ffH
	DB	07eH
	DB	0e7H
	DB	078H
	DB	095H
	DB	0b3H
	DB	04bH
	DB	014H
	DB	05cH
	DB	014H
	DB	064H
	DB	014H
	DB	064H
	DB	014H
	DB	064H
	DB	014H
	DB	064H
	DB	014H
	DB	064H
	DB	094H
	DB	043H
	DB	0b4H
	DB	043H
	DB	094H
	DB	043H
	DB	074H
	DB	03bH
	DB	076H
	DB	064H
	DB	07eH
	DB	0efH
	DB	0ffH
	DB	0ffH
	DB	0ffH
	DB	0ffH
	DB	07cH
	DB	0beH
	DB	076H
	DB	064H
	DB	073H
	DB	03bH
	DB	0b4H
	DB	043H
	DB	094H
	DB	043H
	DB	058H
	DB	08dH
	DB	05eH
	DB	0e7H
	DB	0ffH
	DB	0ffH
	DB	0ffH
	DB	0ffH
	DB	0ffH
	DB	0ffH
	DB	0ffH
	DB	0ffH
	DB	0ffH
	DB	0ffH
	DB	0ffH
	DB	0ffH
	DB	05eH
	DB	0efH
	DB	079H
	DB	09dH
	DB	0b3H
	DB	04bH
	DB	0f4H
	DB	05bH
	DB	014H
	DB	05cH
	DB	014H
	DB	064H
	DB	014H
	DB	064H
	DB	034H
	DB	064H
	DB	014H
	DB	064H
	DB	0f4H
	DB	05bH
	DB	0b4H
	DB	04bH
	DB	054H
	DB	033H
	DB	076H
	DB	06cH
	DB	0ddH
	DB	0ceH
	DB	0ffH
	DB	0ffH
	DB	0ffH
	DB	0ffH
	DB	0bfH
	DB	0f7H
	DB	099H
	DB	095H
	DB	0d4H
	DB	04bH
	DB	094H
	DB	043H
	DB	094H
	DB	043H
	DB	094H
	DB	043H
	DB	059H
	DB	08dH
	DB	05eH
	DB	0e7H
	DB	0ffH
	DB	0ffH
	DB	0ffH
	DB	0ffH
	DB	0ffH
	DB	0ffH
	DB	0ffH
	DB	0ffH
	DB	0ffH
	DB	0ffH
	DB	0ffH
	DB	0ffH
	DB	05eH
	DB	0e7H
	DB	078H
	DB	09dH
	DB	0b3H
	DB	04bH
	DB	0f4H
	DB	05bH
	DB	014H
	DB	064H
	DB	014H
	DB	05cH
	DB	014H
	DB	064H
	DB	034H
	DB	064H
	DB	034H
	DB	06cH
	DB	014H
	DB	05cH
	DB	094H
	DB	043H
	DB	0f5H
	DB	053H
	DB	0faH
	DB	0adH
	DB	0ffH
	DB	0ffH
	DB	0ffH
	DB	0ffH
	DB	0ffH
	DB	0ffH
	DB	07bH
	DB	0beH
	DB	056H
	DB	064H
	DB	054H
	DB	03bH
	DB	094H
	DB	043H
	DB	0b4H
	DB	043H
	DB	094H
	DB	043H
	DB	059H
	DB	08dH
	DB	05eH
	DB	0e7H
	DB	0ffH
	DB	0ffH
	DB	0ffH
	DB	0ffH
	DB	0ffH
	DB	0ffH
	DB	0ffH
	DB	0ffH
	DB	0ffH
	DB	0ffH
	DB	0ffH
	DB	0ffH
	DB	07eH
	DB	0e7H
	DB	078H
	DB	09dH
	DB	0b4H
	DB	04bH
	DB	0f4H
	DB	05bH
	DB	014H
	DB	064H
	DB	014H
	DB	064H
	DB	015H
	DB	064H
	DB	014H
	DB	064H
	DB	034H
	DB	064H
	DB	0f4H
	DB	05bH
	DB	0b5H
	DB	04bH
	DB	0baH
	DB	09dH
	DB	09fH
	DB	0efH
	DB	0ffH
	DB	0ffH
	DB	0ffH
	DB	0ffH
	DB	01dH
	DB	0dfH
	DB	056H
	DB	064H
	DB	074H
	DB	03bH
	DB	094H
	DB	043H
	DB	0b4H
	DB	043H
	DB	094H
	DB	043H
	DB	094H
	DB	043H
	DB	059H
	DB	08dH
	DB	05eH
	DB	0e7H
	DB	0ffH
	DB	0ffH
	DB	0ffH
	DB	0ffH
	DB	0ffH
	DB	0ffH
	DB	0ffH
	DB	0ffH
	DB	0ffH
	DB	0ffH
	DB	0ffH
	DB	0ffH
	DB	05eH
	DB	0efH
	DB	079H
	DB	09dH
	DB	0b3H
	DB	04bH
	DB	0f4H
	DB	05bH
	DB	014H
	DB	064H
	DB	014H
	DB	064H
	DB	014H
	DB	064H
	DB	034H
	DB	064H
	DB	034H
	DB	064H
	DB	0f4H
	DB	063H
	DB	017H
	DB	085H
	DB	03dH
	DB	0dfH
	DB	0ffH
	DB	0ffH
	DB	0ffH
	DB	0ffH
	DB	0dfH
	DB	0f7H
	DB	056H
	DB	064H
	DB	094H
	DB	043H
	DB	094H
	DB	043H
	DB	0b4H
	DB	043H
	DB	094H
	DB	043H
	DB	0b4H
	DB	043H
	DB	094H
	DB	043H
	DB	059H
	DB	08dH
	DB	05eH
	DB	0e7H
	DB	0ffH
	DB	0ffH
	DB	0ffH
	DB	0ffH
	DB	0ffH
	DB	0ffH
	DB	0ffH
	DB	0ffH
	DB	0ffH
	DB	0ffH
	DB	0ffH
	DB	0ffH
	DB	07eH
	DB	0e7H
	DB	078H
	DB	09dH
	DB	0b3H
	DB	04bH
	DB	0f4H
	DB	05bH
	DB	014H
	DB	05cH
	DB	015H
	DB	064H
	DB	014H
	DB	064H
	DB	034H
	DB	064H
	DB	034H
	DB	064H
	DB	095H
	DB	074H
	DB	03eH
	DB	0e7H
	DB	0ffH
	DB	0ffH
	DB	0ffH
	DB	0ffH
	DB	09fH
	DB	0f7H
	DB	038H
	DB	085H
	DB	0b4H
	DB	043H
	DB	094H
	DB	043H
	DB	094H
	DB	043H
	DB	0b4H
	DB	043H
	DB	094H
	DB	043H
	DB	0b4H
	DB	043H
	DB	094H
	DB	043H
	DB	059H
	DB	08dH
	DB	05eH
	DB	0e7H
	DB	0ffH
	DB	0ffH
	DB	0ffH
	DB	0ffH
	DB	0ffH
	DB	0ffH
	DB	0ffH
	DB	0ffH
	DB	0ffH
	DB	0ffH
	DB	0ffH
	DB	0ffH
	DB	05eH
	DB	0e7H
	DB	078H
	DB	09dH
	DB	0b4H
	DB	04bH
	DB	0f4H
	DB	05bH
	DB	014H
	DB	064H
	DB	014H
	DB	05cH
	DB	014H
	DB	064H
	DB	014H
	DB	064H
	DB	055H
	DB	06cH
	DB	03eH
	DB	0e7H
	DB	0ffH
	DB	0ffH
	DB	0ffH
	DB	0ffH
	DB	09fH
	DB	0efH
	DB	0daH
	DB	0a5H
	DB	094H
	DB	043H
	DB	094H
	DB	043H
	DB	0b4H
	DB	043H
	DB	094H
	DB	043H
	DB	0b4H
	DB	043H
	DB	0b4H
	DB	043H
	DB	094H
	DB	04bH
	DB	094H
	DB	043H
	DB	059H
	DB	08dH
	DB	05eH
	DB	0e7H
	DB	0ffH
	DB	0ffH
	DB	0ffH
	DB	0ffH
	DB	0ffH
	DB	0ffH
	DB	0ffH
	DB	0ffH
	DB	0ffH
	DB	0ffH
	DB	0ffH
	DB	0ffH
	DB	07eH
	DB	0efH
	DB	079H
	DB	09dH
	DB	0b3H
	DB	04bH
	DB	0f4H
	DB	05bH
	DB	014H
	DB	064H
	DB	014H
	DB	064H
	DB	0f4H
	DB	05bH
	DB	055H
	DB	06cH
	DB	03aH
	DB	0beH
	DB	0ffH
	DB	0ffH
	DB	0ffH
	DB	0ffH
	DB	0ffH
	DB	0ffH
	DB	05bH
	DB	0beH
	DB	015H
	DB	054H
	DB	094H
	DB	043H
	DB	094H
	DB	043H
	DB	0b4H
	DB	043H
	DB	094H
	DB	043H
	DB	094H
	DB	043H
	DB	0b4H
	DB	043H
	DB	094H
	DB	043H
	DB	094H
	DB	043H
	DB	059H
	DB	08dH
	DB	05eH
	DB	0e7H
	DB	0ffH
	DB	0ffH
	DB	0ffH
	DB	0ffH
	DB	0ffH
	DB	0ffH
	DB	0ffH
	DB	0ffH
	DB	0ffH
	DB	0ffH
	DB	0ffH
	DB	0ffH
	DB	05eH
	DB	0e7H
	DB	078H
	DB	09dH
	DB	0b3H
	DB	04bH
	DB	0f4H
	DB	05bH
	DB	014H
	DB	064H
	DB	0f4H
	DB	05bH
	DB	055H
	DB	06cH
	DB	0d9H
	DB	0adH
	DB	0ffH
	DB	0ffH
	DB	0ffH
	DB	0ffH
	DB	0ffH
	DB	0ffH
	DB	09cH
	DB	0c6H
	DB	097H
	DB	06cH
	DB	074H
	DB	03bH
	DB	0b4H
	DB	043H
	DB	0b4H
	DB	043H
	DB	094H
	DB	04bH
	DB	0b4H
	DB	043H
	DB	0b5H
	DB	043H
	DB	094H
	DB	04bH
	DB	0b4H
	DB	043H
	DB	094H
	DB	043H
	DB	059H
	DB	08dH
	DB	05eH
	DB	0e7H
	DB	0ffH
	DB	0ffH
	DB	0ffH
	DB	0ffH
	DB	0ffH
	DB	0ffH
	DB	0ffH
	DB	0ffH
	DB	0ffH
	DB	0ffH
	DB	0ffH
	DB	0ffH
	DB	05eH
	DB	0e7H
	DB	078H
	DB	09dH
	DB	0b4H
	DB	04bH
	DB	0f4H
	DB	05bH
	DB	014H
	DB	05cH
	DB	0f4H
	DB	05bH
	DB	058H
	DB	095H
	DB	07eH
	DB	0efH
	DB	0ffH
	DB	0ffH
	DB	0ffH
	DB	0ffH
	DB	07eH
	DB	0efH
	DB	018H
	DB	085H
	DB	074H
	DB	03bH
	DB	094H
	DB	043H
	DB	0b4H
	DB	043H
	DB	094H
	DB	043H
	DB	094H
	DB	043H
	DB	0b4H
	DB	043H
	DB	094H
	DB	043H
	DB	0b4H
	DB	043H
	DB	0b4H
	DB	043H
	DB	094H
	DB	043H
	DB	059H
	DB	08dH
	DB	05eH
	DB	0e7H
	DB	0ffH
	DB	0ffH
	DB	0ffH
	DB	0ffH
	DB	0ffH
	DB	0ffH
	DB	0ffH
	DB	0ffH
	DB	0ffH
	DB	0ffH
	DB	0ffH
	DB	0ffH
	DB	07eH
	DB	0efH
	DB	078H
	DB	09dH
	DB	0b3H
	DB	04bH
	DB	0f4H
	DB	05bH
	DB	0d4H
	DB	05bH
	DB	096H
	DB	074H
	DB	05bH
	DB	0beH
	DB	0ffH
	DB	0ffH
	DB	0ffH
	DB	0ffH
	DB	0ffH
	DB	0ffH
	DB	058H
	DB	095H
	DB	0d4H
	DB	04bH
	DB	074H
	DB	03bH
	DB	0b4H
	DB	04bH
	DB	094H
	DB	043H
	DB	0b4H
	DB	043H
	DB	0b4H
	DB	043H
	DB	094H
	DB	043H
	DB	094H
	DB	043H
	DB	0b4H
	DB	043H
	DB	094H
	DB	04bH
	DB	094H
	DB	043H
	DB	059H
	DB	08dH
	DB	05eH
	DB	0e7H
	DB	0ffH
	DB	0ffH
	DB	0ffH
	DB	0ffH
	DB	0ffH
	DB	0ffH
	DB	0ffH
	DB	0ffH
	DB	0ffH
	DB	0ffH
	DB	0ffH
	DB	0ffH
	DB	07eH
	DB	0e7H
	DB	079H
	DB	09dH
	DB	0b3H
	DB	04bH
	DB	0f4H
	DB	05bH
	DB	0f4H
	DB	05bH
	DB	096H
	DB	074H
	DB	07bH
	DB	0beH
	DB	0ffH
	DB	0ffH
	DB	0ffH
	DB	0ffH
	DB	0ffH
	DB	0ffH
	DB	098H
	DB	09dH
	DB	0d4H
	DB	053H
	DB	074H
	DB	03bH
	DB	0b4H
	DB	043H
	DB	094H
	DB	043H
	DB	094H
	DB	043H
	DB	0b4H
	DB	04bH
	DB	0b5H
	DB	043H
	DB	094H
	DB	043H
	DB	0b4H
	DB	043H
	DB	0b5H
	DB	043H
	DB	094H
	DB	043H
	DB	059H
	DB	08dH
	DB	05eH
	DB	0e7H
	DB	0ffH
	DB	0ffH
	DB	0ffH
	DB	0ffH
	DB	0ffH
	DB	0ffH
	DB	0ffH
	DB	0ffH
	DB	0ffH
	DB	0ffH
	DB	0ffH
	DB	0ffH
	DB	05eH
	DB	0e7H
	DB	078H
	DB	09dH
	DB	0b3H
	DB	04bH
	DB	0f4H
	DB	05bH
	DB	014H
	DB	05cH
	DB	0f4H
	DB	05bH
	DB	037H
	DB	095H
	DB	07eH
	DB	0efH
	DB	0ffH
	DB	0ffH
	DB	0ffH
	DB	0ffH
	DB	07fH
	DB	0efH
	DB	018H
	DB	085H
	DB	094H
	DB	043H
	DB	094H
	DB	043H
	DB	0b4H
	DB	043H
	DB	094H
	DB	043H
	DB	094H
	DB	043H
	DB	0b4H
	DB	043H
	DB	094H
	DB	04bH
	DB	094H
	DB	043H
	DB	0b4H
	DB	043H
	DB	094H
	DB	043H
	DB	059H
	DB	08dH
	DB	05eH
	DB	0e7H
	DB	0ffH
	DB	0ffH
	DB	0ffH
	DB	0ffH
	DB	0ffH
	DB	0ffH
	DB	0ffH
	DB	0ffH
	DB	0ffH
	DB	0ffH
	DB	0ffH
	DB	0ffH
	DB	05eH
	DB	0efH
	DB	079H
	DB	09dH
	DB	0b3H
	DB	04bH
	DB	0f4H
	DB	05bH
	DB	014H
	DB	064H
	DB	0f4H
	DB	05bH
	DB	055H
	DB	06cH
	DB	0d9H
	DB	0adH
	DB	0ffH
	DB	0ffH
	DB	0ffH
	DB	0ffH
	DB	0ffH
	DB	0ffH
	DB	0bcH
	DB	0ceH
	DB	0b7H
	DB	074H
	DB	074H
	DB	03bH
	DB	0b4H
	DB	043H
	DB	0b4H
	DB	043H
	DB	094H
	DB	043H
	DB	0b4H
	DB	043H
	DB	0b4H
	DB	043H
	DB	094H
	DB	043H
	DB	0b4H
	DB	043H
	DB	094H
	DB	04bH
	DB	059H
	DB	08dH
	DB	05eH
	DB	0e7H
	DB	0ffH
	DB	0ffH
	DB	0ffH
	DB	0ffH
	DB	0ffH
	DB	0ffH
	DB	0ffH
	DB	0ffH
	DB	0ffH
	DB	0ffH
	DB	0ffH
	DB	0ffH
	DB	07eH
	DB	0e7H
	DB	078H
	DB	09dH
	DB	0b3H
	DB	04bH
	DB	0f4H
	DB	05bH
	DB	014H
	DB	064H
	DB	014H
	DB	064H
	DB	0f4H
	DB	05bH
	DB	055H
	DB	06cH
	DB	01aH
	DB	0b6H
	DB	0ffH
	DB	0ffH
	DB	0ffH
	DB	0ffH
	DB	0ffH
	DB	0ffH
	DB	07cH
	DB	0beH
	DB	015H
	DB	05cH
	DB	094H
	DB	043H
	DB	0b4H
	DB	043H
	DB	095H
	DB	043H
	DB	094H
	DB	043H
	DB	0b4H
	DB	043H
	DB	095H
	DB	043H
	DB	0b4H
	DB	043H
	DB	094H
	DB	043H
	DB	059H
	DB	08dH
	DB	05eH
	DB	0e7H
	DB	0ffH
	DB	0ffH
	DB	0ffH
	DB	0ffH
	DB	0ffH
	DB	0ffH
	DB	0ffH
	DB	0ffH
	DB	0ffH
	DB	0ffH
	DB	0ffH
	DB	0ffH
	DB	05eH
	DB	0efH
	DB	079H
	DB	09dH
	DB	0b3H
	DB	04bH
	DB	0f4H
	DB	05bH
	DB	014H
	DB	064H
	DB	014H
	DB	05cH
	DB	014H
	DB	064H
	DB	014H
	DB	064H
	DB	054H
	DB	06cH
	DB	01dH
	DB	0dfH
	DB	0ffH
	DB	0ffH
	DB	0ffH
	DB	0ffH
	DB	0bfH
	DB	0f7H
	DB	0faH
	DB	0adH
	DB	0b4H
	DB	043H
	DB	094H
	DB	043H
	DB	0b4H
	DB	043H
	DB	0b4H
	DB	04bH
	DB	094H
	DB	043H
	DB	094H
	DB	043H
	DB	0b4H
	DB	04bH
	DB	094H
	DB	043H
	DB	059H
	DB	08dH
	DB	05eH
	DB	0e7H
	DB	0ffH
	DB	0ffH
	DB	0ffH
	DB	0ffH
	DB	0ffH
	DB	0ffH
	DB	0ffH
	DB	0ffH
	DB	0ffH
	DB	0ffH
	DB	0ffH
	DB	0ffH
	DB	07eH
	DB	0e7H
	DB	078H
	DB	09dH
	DB	0b3H
	DB	04bH
	DB	0f4H
	DB	05bH
	DB	014H
	DB	064H
	DB	014H
	DB	064H
	DB	014H
	DB	064H
	DB	014H
	DB	064H
	DB	034H
	DB	064H
	DB	075H
	DB	074H
	DB	03dH
	DB	0dfH
	DB	0ffH
	DB	0ffH
	DB	0ffH
	DB	0ffH
	DB	09fH
	DB	0efH
	DB	059H
	DB	08dH
	DB	094H
	DB	043H
	DB	094H
	DB	043H
	DB	0b4H
	DB	043H
	DB	094H
	DB	043H
	DB	0b4H
	DB	043H
	DB	0b4H
	DB	043H
	DB	094H
	DB	043H
	DB	059H
	DB	08dH
	DB	05eH
	DB	0e7H
	DB	0ffH
	DB	0ffH
	DB	0ffH
	DB	0ffH
	DB	0ffH
	DB	0ffH
	DB	0ffH
	DB	0ffH
	DB	0ffH
	DB	0ffH
	DB	0ffH
	DB	0ffH
	DB	05eH
	DB	0e7H
	DB	079H
	DB	09dH
	DB	0b3H
	DB	04bH
	DB	0f4H
	DB	05bH
	DB	014H
	DB	05cH
	DB	014H
	DB	064H
	DB	014H
	DB	064H
	DB	034H
	DB	064H
	DB	034H
	DB	064H
	DB	0f4H
	DB	063H
	DB	017H
	DB	08dH
	DB	01dH
	DB	0dfH
	DB	0ffH
	DB	0ffH
	DB	0ffH
	DB	0ffH
	DB	0dfH
	DB	0ffH
	DB	097H
	DB	06cH
	DB	094H
	DB	043H
	DB	094H
	DB	043H
	DB	0b4H
	DB	043H
	DB	095H
	DB	043H
	DB	094H
	DB	043H
	DB	094H
	DB	043H
	DB	059H
	DB	08dH
	DB	05eH
	DB	0e7H
	DB	0ffH
	DB	0ffH
	DB	0ffH
	DB	0ffH
	DB	0ffH
	DB	0ffH
	DB	0ffH
	DB	0ffH
	DB	0ffH
	DB	0ffH
	DB	0ffH
	DB	0ffH
	DB	07eH
	DB	0efH
	DB	078H
	DB	09dH
	DB	0b4H
	DB	04bH
	DB	0f4H
	DB	05bH
	DB	014H
	DB	064H
	DB	015H
	DB	05cH
	DB	014H
	DB	064H
	DB	034H
	DB	064H
	DB	034H
	DB	06cH
	DB	0f4H
	DB	05bH
	DB	0d4H
	DB	04bH
	DB	0baH
	DB	09dH
	DB	09fH
	DB	0efH
	DB	0ffH
	DB	0ffH
	DB	0ffH
	DB	0ffH
	DB	05eH
	DB	0e7H
	DB	056H
	DB	064H
	DB	074H
	DB	03bH
	DB	094H
	DB	043H
	DB	0b4H
	DB	043H
	DB	0b4H
	DB	04bH
	DB	094H
	DB	043H
	DB	059H
	DB	08dH
	DB	05eH
	DB	0e7H
	DB	0ffH
	DB	0ffH
	DB	0ffH
	DB	0ffH
	DB	0ffH
	DB	0ffH
	DB	0ffH
	DB	0ffH
	DB	0ffH
	DB	0ffH
	DB	0ffH
	DB	0ffH
	DB	05eH
	DB	0e7H
	DB	078H
	DB	09dH
	DB	0b3H
	DB	04bH
	DB	0f4H
	DB	05bH
	DB	014H
	DB	064H
	DB	014H
	DB	064H
	DB	014H
	DB	064H
	DB	014H
	DB	064H
	DB	034H
	DB	064H
	DB	0f4H
	DB	05bH
	DB	094H
	DB	043H
	DB	0f5H
	DB	053H
	DB	0daH
	DB	0a5H
	DB	0ffH
	DB	0ffH
	DB	0ffH
	DB	0ffH
	DB	0ffH
	DB	0ffH
	DB	07cH
	DB	0c6H
	DB	056H
	DB	064H
	DB	074H
	DB	03bH
	DB	094H
	DB	043H
	DB	0b4H
	DB	043H
	DB	094H
	DB	043H
	DB	059H
	DB	08dH
	DB	05eH
	DB	0e7H
	DB	0ffH
	DB	0ffH
	DB	0ffH
	DB	0ffH
	DB	0ffH
	DB	0ffH
	DB	0ffH
	DB	0ffH
	DB	0ffH
	DB	0ffH
	DB	0ffH
	DB	0ffH
	DB	07eH
	DB	0e7H
	DB	079H
	DB	09dH
	DB	0b3H
	DB	04bH
	DB	0f4H
	DB	05bH
	DB	014H
	DB	064H
	DB	014H
	DB	05cH
	DB	014H
	DB	064H
	DB	035H
	DB	064H
	DB	034H
	DB	06cH
	DB	014H
	DB	064H
	DB	0b4H
	DB	043H
	DB	053H
	DB	033H
	DB	076H
	DB	06cH
	DB	0bcH
	DB	0ceH
	DB	0ffH
	DB	0ffH
	DB	0ffH
	DB	0ffH
	DB	0dfH
	DB	0ffH
	DB	0b9H
	DB	09dH
	DB	0d5H
	DB	04bH
	DB	094H
	DB	043H
	DB	094H
	DB	043H
	DB	094H
	DB	043H
	DB	059H
	DB	08dH
	DB	05eH
	DB	0e7H
	DB	0ffH
	DB	0ffH
	DB	0ffH
	DB	0ffH
	DB	0ffH
	DB	0ffH
	DB	0ffH
	DB	0ffH
	DB	0ffH
	DB	0ffH
	DB	0ffH
	DB	0ffH
	DB	05eH
	DB	0efH
	DB	078H
	DB	09dH
	DB	0b3H
	DB	04bH
	DB	014H
	DB	05cH
	DB	015H
	DB	064H
	DB	014H
	DB	064H
	DB	014H
	DB	064H
	DB	034H
	DB	064H
	DB	014H
	DB	064H
	DB	0d4H
	DB	053H
	DB	0b4H
	DB	043H
	DB	094H
	DB	043H
	DB	054H
	DB	03bH
	DB	056H
	DB	064H
	DB	09fH
	DB	0efH
	DB	0ffH
	DB	0ffH
	DB	0ffH
	DB	0ffH
	DB	07cH
	DB	0beH
	DB	076H
	DB	06cH
	DB	074H
	DB	03bH
	DB	0b4H
	DB	043H
	DB	094H
	DB	043H
	DB	059H
	DB	08dH
	DB	05eH
	DB	0e7H
	DB	0ffH
	DB	0ffH
	DB	0ffH
	DB	0ffH
	DB	0ffH
	DB	0ffH
	DB	0ffH
	DB	0ffH
	DB	0ffH
	DB	0ffH
	DB	0ffH
	DB	0ffH
	DB	05eH
	DB	0efH
	DB	099H
	DB	09dH
	DB	0b4H
	DB	053H
	DB	0f4H
	DB	05bH
	DB	014H
	DB	05cH
	DB	014H
	DB	064H
	DB	014H
	DB	064H
	DB	0f4H
	DB	05bH
	DB	0b4H
	DB	04bH
	DB	094H
	DB	043H
	DB	0b4H
	DB	043H
	DB	0b4H
	DB	043H
	DB	094H
	DB	043H
	DB	094H
	DB	043H
	DB	097H
	DB	06cH
	DB	07eH
	DB	0efH
	DB	09fH
	DB	0f7H
	DB	099H
	DB	09dH
	DB	0d5H
	DB	04bH
	DB	094H
	DB	043H
	DB	094H
	DB	043H
	DB	094H
	DB	043H
	DB	079H
	DB	095H
	DB	07eH
	DB	0efH
	DB	0ffH
	DB	0ffH
	DB	0ffH
	DB	0ffH
	DB	0ffH
	DB	0ffH
	DB	0ffH
	DB	0ffH
	DB	0ffH
	DB	0ffH
	DB	0ffH
	DB	0ffH
	DB	0ffH
	DB	0ffH
	DB	05eH
	DB	0e7H
	DB	01aH
	DB	0b6H
	DB	0b6H
	DB	07cH
	DB	076H
	DB	06cH
	DB	076H
	DB	06cH
	DB	076H
	DB	064H
	DB	056H
	DB	064H
	DB	056H
	DB	064H
	DB	056H
	DB	064H
	DB	056H
	DB	064H
	DB	056H
	DB	064H
	DB	056H
	DB	064H
	DB	056H
	DB	064H
	DB	056H
	DB	064H
	DB	099H
	DB	095H
	DB	0daH
	DB	0a5H
	DB	0d7H
	DB	07cH
	DB	036H
	DB	05cH
	DB	056H
	DB	064H
	DB	096H
	DB	06cH
	DB	01bH
	DB	0aeH
	DB	07eH
	DB	0efH
	DB	0ffH
	DB	0ffH
	DB	0ffH
	DB	0ffH
	DB	0ffH
	DB	0ffH
	DB	0ffH
	DB	0ffH
	DB	0bfH
	DB	0ffH
	DB	0dfH
	DB	0ffH
	DB	0ffH
	DB	0ffH
	DB	0ffH
	DB	0ffH
	DB	0ffH
	DB	0ffH
	DB	0ffH
	DB	0ffH
	DB	0ffH
	DB	0ffH
	DB	0ffH
	DB	0ffH
	DB	0ffH
	DB	0ffH
	DB	0ffH
	DB	0ffH
	DB	0ffH
	DB	0ffH
	DB	0ffH
	DB	0ffH
	DB	0ffH
	DB	0ffH
	DB	0ffH
	DB	0ffH
	DB	0ffH
	DB	0ffH
	DB	0ffH
	DB	0ffH
	DB	0ffH
	DB	0ffH
	DB	0ffH
	DB	0ffH
	DB	0ffH
	DB	0ffH
	DB	0ffH
	DB	0ffH
	DB	0ffH
	DB	0ffH
	DB	0ffH
	DB	0ffH
	DB	0ffH
	DB	0ffH
	DB	0ffH
	DB	0ffH
	DB	0ffH
	DB	0ffH
	DB	0ffH
	DB	0ffH
	DB	0ffH
	DB	0ffH
	DB	0ffH
	DB	0ffH
	DB	0ffH
	DB	0ffH
	DB	0ffH
	DB	0ffH
	DB	00H
	DB	00H
	DB	0dfH
	DB	0ffH
	DB	0dfH
	DB	0ffH
	DB	0dfH
	DB	0ffH
	DB	0ffH
	DB	0ffH
	DB	0ffH
	DB	0ffH
	DB	0ffH
	DB	0ffH
	DB	0ffH
	DB	0ffH
	DB	0ffH
	DB	0ffH
	DB	0ffH
	DB	0ffH
	DB	0ffH
	DB	0ffH
	DB	0ffH
	DB	0ffH
	DB	0ffH
	DB	0ffH
	DB	0ffH
	DB	0ffH
	DB	0ffH
	DB	0ffH
	DB	0ffH
	DB	0ffH
	DB	0ffH
	DB	0ffH
	DB	0ffH
	DB	0ffH
	DB	0ffH
	DB	0ffH
	DB	0ffH
	DB	0ffH
	DB	0ffH
	DB	0ffH
	DB	0ffH
	DB	0ffH
	DB	0ffH
	DB	0ffH
	DB	0ffH
	DB	0ffH
	DB	0ffH
	DB	0ffH
	DB	0ffH
	DB	0ffH
	DB	0ffH
	DB	0ffH
	DB	0ffH
	DB	0ffH
	DB	0ffH
	DB	0ffH
	DB	00H
	DB	00H
?_left_unpress_2_alpha_channel@@3QBEB DB 00H		; _left_unpress_2_alpha_channel
	DB	08H
	DB	024H
	DB	059H
	DB	09aH
	DB	0cfH
	DB	0ebH
	DB	0fbH
	DB	0ffH
	DB	0ffH
	DB	0ffH
	DB	0ffH
	DB	0ffH
	DB	0ffH
	DB	0ffH
	DB	0ffH
	DB	0ffH
	DB	0ffH
	DB	0ffH
	DB	0ffH
	DB	0ffH
	DB	0ffH
	DB	0f7H
	DB	0e3H
	DB	0cbH
	DB	096H
	DB	051H
	DB	01cH
	DB	04H
	DB	00H
	DB	010H
	DB	079H
	DB	0d7H
	DB	0ffH
	DB	0ffH
	DB	0ffH
	DB	0ffH
	DB	0ffH
	DB	0ffH
	DB	0ffH
	DB	0ffH
	DB	0ffH
	DB	0ffH
	DB	0ffH
	DB	0ffH
	DB	0ffH
	DB	0ffH
	DB	0ffH
	DB	0ffH
	DB	0ffH
	DB	0ffH
	DB	0ffH
	DB	0ffH
	DB	0ffH
	DB	0ffH
	DB	0ffH
	DB	0ffH
	DB	0cfH
	DB	06dH
	DB	08H
	DB	0a6H
	DB	0dbH
	DB	0fbH
	DB	0ffH
	DB	0ffH
	DB	0ffH
	DB	0ffH
	DB	0ffH
	DB	0ffH
	DB	0ffH
	DB	0ffH
	DB	0ffH
	DB	0ffH
	DB	0ffH
	DB	0ffH
	DB	0ffH
	DB	0ffH
	DB	0ffH
	DB	0ffH
	DB	0ffH
	DB	0ffH
	DB	0ffH
	DB	0ffH
	DB	0ffH
	DB	0ffH
	DB	0ffH
	DB	0ffH
	DB	0f7H
	DB	0d3H
	DB	092H
	DB	0efH
	DB	0f7H
	DB	0ffH
	DB	0ffH
	DB	0ffH
	DB	0ffH
	DB	0ffH
	DB	0ffH
	DB	0ffH
	DB	0ffH
	DB	0ffH
	DB	0ffH
	DB	0ffH
	DB	0ffH
	DB	0ffH
	DB	0ffH
	DB	0ffH
	DB	0ffH
	DB	0ffH
	DB	0ffH
	DB	0ffH
	DB	0ffH
	DB	0ffH
	DB	0ffH
	DB	0ffH
	DB	0ffH
	DB	0ffH
	DB	0fbH
	DB	0f7H
	DB	0ebH
	DB	0ffH
	DB	0ffH
	DB	0ffH
	DB	0ffH
	DB	0ffH
	DB	0ffH
	DB	0ffH
	DB	0ffH
	DB	0ffH
	DB	0ffH
	DB	0ffH
	DB	0ffH
	DB	0ffH
	DB	0ffH
	DB	0ffH
	DB	0ffH
	DB	0ffH
	DB	0ffH
	DB	0ffH
	DB	0ffH
	DB	0ffH
	DB	0ffH
	DB	0ffH
	DB	0ffH
	DB	0ffH
	DB	0ffH
	DB	0ffH
	DB	0ffH
	DB	0ffH
	DB	0ffH
	DB	0ffH
	DB	0ffH
	DB	0ffH
	DB	0ffH
	DB	0ffH
	DB	0ffH
	DB	0ffH
	DB	0ffH
	DB	0ffH
	DB	0ffH
	DB	0ffH
	DB	0ffH
	DB	0ffH
	DB	0ffH
	DB	0ffH
	DB	0ffH
	DB	0ffH
	DB	0ffH
	DB	0ffH
	DB	0ffH
	DB	0ffH
	DB	0ffH
	DB	0ffH
	DB	0ffH
	DB	0ffH
	DB	0ffH
	DB	0ffH
	DB	0ffH
	DB	0ffH
	DB	0ffH
	DB	0ffH
	DB	0ffH
	DB	0ffH
	DB	0ffH
	DB	0ffH
	DB	0ffH
	DB	0ffH
	DB	0ffH
	DB	0ffH
	DB	0ffH
	DB	0ffH
	DB	0ffH
	DB	0ffH
	DB	0ffH
	DB	0ffH
	DB	0ffH
	DB	0ffH
	DB	0ffH
	DB	0ffH
	DB	0ffH
	DB	0ffH
	DB	0ffH
	DB	0ffH
	DB	0ffH
	DB	0ffH
	DB	0ffH
	DB	0ffH
	DB	0ffH
	DB	0ffH
	DB	0ffH
	DB	0ffH
	DB	0ffH
	DB	0ffH
	DB	0ffH
	DB	0ffH
	DB	0ffH
	DB	0ffH
	DB	0ffH
	DB	0ffH
	DB	0ffH
	DB	0ffH
	DB	0ffH
	DB	0ffH
	DB	0ffH
	DB	0ffH
	DB	0ffH
	DB	0ffH
	DB	0ffH
	DB	0ffH
	DB	0ffH
	DB	0ffH
	DB	0ffH
	DB	0ffH
	DB	0ffH
	DB	0ffH
	DB	0ffH
	DB	0ffH
	DB	0ffH
	DB	0ffH
	DB	0ffH
	DB	0ffH
	DB	0ffH
	DB	0ffH
	DB	0ffH
	DB	0ffH
	DB	0ffH
	DB	0ffH
	DB	0ffH
	DB	0ffH
	DB	0ffH
	DB	0ffH
	DB	0ffH
	DB	0ffH
	DB	0ffH
	DB	0ffH
	DB	0ffH
	DB	0ffH
	DB	0ffH
	DB	0ffH
	DB	0ffH
	DB	0ffH
	DB	0ffH
	DB	0ffH
	DB	0ffH
	DB	0ffH
	DB	0ffH
	DB	0ffH
	DB	0ffH
	DB	0ffH
	DB	0ffH
	DB	0ffH
	DB	0ffH
	DB	0ffH
	DB	0ffH
	DB	0ffH
	DB	0ffH
	DB	0ffH
	DB	0ffH
	DB	0ffH
	DB	0ffH
	DB	0ffH
	DB	0ffH
	DB	0ffH
	DB	0ffH
	DB	0ffH
	DB	0ffH
	DB	0ffH
	DB	0ffH
	DB	0ffH
	DB	0ffH
	DB	0ffH
	DB	0ffH
	DB	0ffH
	DB	0ffH
	DB	0ffH
	DB	0ffH
	DB	0ffH
	DB	0ffH
	DB	0ffH
	DB	0ffH
	DB	0ffH
	DB	0ffH
	DB	0ffH
	DB	0ffH
	DB	0ffH
	DB	0ffH
	DB	0ffH
	DB	0ffH
	DB	0ffH
	DB	0ffH
	DB	0ffH
	DB	0ffH
	DB	0ffH
	DB	0ffH
	DB	0ffH
	DB	0ffH
	DB	0ffH
	DB	0ffH
	DB	0ffH
	DB	0ffH
	DB	0ffH
	DB	0ffH
	DB	0ffH
	DB	0ffH
	DB	0ffH
	DB	0ffH
	DB	0ffH
	DB	0ffH
	DB	0ffH
	DB	0ffH
	DB	0ffH
	DB	0ffH
	DB	0ffH
	DB	0ffH
	DB	0ffH
	DB	0ffH
	DB	0ffH
	DB	0ffH
	DB	0ffH
	DB	0ffH
	DB	0ffH
	DB	0ffH
	DB	0ffH
	DB	0ffH
	DB	0ffH
	DB	0ffH
	DB	0ffH
	DB	0ffH
	DB	0ffH
	DB	0ffH
	DB	0ffH
	DB	0ffH
	DB	0ffH
	DB	0ffH
	DB	0ffH
	DB	0ffH
	DB	0ffH
	DB	0ffH
	DB	0ffH
	DB	0ffH
	DB	0ffH
	DB	0ffH
	DB	0ffH
	DB	0ffH
	DB	0ffH
	DB	0ffH
	DB	0ffH
	DB	0ffH
	DB	0ffH
	DB	0ffH
	DB	0ffH
	DB	0ffH
	DB	0ffH
	DB	0ffH
	DB	0ffH
	DB	0ffH
	DB	0ffH
	DB	0ffH
	DB	0ffH
	DB	0ffH
	DB	0ffH
	DB	0ffH
	DB	0ffH
	DB	0ffH
	DB	0ffH
	DB	0ffH
	DB	0ffH
	DB	0ffH
	DB	0ffH
	DB	0ffH
	DB	0ffH
	DB	0ffH
	DB	0ffH
	DB	0ffH
	DB	0ffH
	DB	0ffH
	DB	0ffH
	DB	0ffH
	DB	0ffH
	DB	0ffH
	DB	0ffH
	DB	0ffH
	DB	0ffH
	DB	0ffH
	DB	0ffH
	DB	0ffH
	DB	0ffH
	DB	0ffH
	DB	0ffH
	DB	0ffH
	DB	0ffH
	DB	0ffH
	DB	0ffH
	DB	0ffH
	DB	0ffH
	DB	0ffH
	DB	0ffH
	DB	0ffH
	DB	0ffH
	DB	0ffH
	DB	0ffH
	DB	0ffH
	DB	0ffH
	DB	0ffH
	DB	0ffH
	DB	0ffH
	DB	0ffH
	DB	0ffH
	DB	0ffH
	DB	0ffH
	DB	0ffH
	DB	0ffH
	DB	0ffH
	DB	0ffH
	DB	0ffH
	DB	0ffH
	DB	0ffH
	DB	0ffH
	DB	0ffH
	DB	0ffH
	DB	0ffH
	DB	0ffH
	DB	0ffH
	DB	0ffH
	DB	0ffH
	DB	0ffH
	DB	0ffH
	DB	0ffH
	DB	0ffH
	DB	0ffH
	DB	0ffH
	DB	0ffH
	DB	0ffH
	DB	0ffH
	DB	0ffH
	DB	0ffH
	DB	0ffH
	DB	0ffH
	DB	0ffH
	DB	0ffH
	DB	0ffH
	DB	0ffH
	DB	0ffH
	DB	0ffH
	DB	0ffH
	DB	0ffH
	DB	0ffH
	DB	0ffH
	DB	0ffH
	DB	0ffH
	DB	0ffH
	DB	0ffH
	DB	0ffH
	DB	0ffH
	DB	0ffH
	DB	0ffH
	DB	0ffH
	DB	0ffH
	DB	0ffH
	DB	0ffH
	DB	0ffH
	DB	0ffH
	DB	0ffH
	DB	0ffH
	DB	0ffH
	DB	0ffH
	DB	0ffH
	DB	0ffH
	DB	0ffH
	DB	0ffH
	DB	0ffH
	DB	0ffH
	DB	0ffH
	DB	0ffH
	DB	0ffH
	DB	0ffH
	DB	0ffH
	DB	0ffH
	DB	0ffH
	DB	0ffH
	DB	0ffH
	DB	0ffH
	DB	0ffH
	DB	0ffH
	DB	0ffH
	DB	0ffH
	DB	0ffH
	DB	0ffH
	DB	0ffH
	DB	0ffH
	DB	0ffH
	DB	0ffH
	DB	0ffH
	DB	0ffH
	DB	0ffH
	DB	0ffH
	DB	0ffH
	DB	0ffH
	DB	0ffH
	DB	0ffH
	DB	0ffH
	DB	0ffH
	DB	0ffH
	DB	0ffH
	DB	0ffH
	DB	0ffH
	DB	0ffH
	DB	0ffH
	DB	0ffH
	DB	0ffH
	DB	0ffH
	DB	0ffH
	DB	0ffH
	DB	0ffH
	DB	0ffH
	DB	0ffH
	DB	0ffH
	DB	0ffH
	DB	0ffH
	DB	0ffH
	DB	0ffH
	DB	0ffH
	DB	0ffH
	DB	0ffH
	DB	0ffH
	DB	0ffH
	DB	0ffH
	DB	0ffH
	DB	0ffH
	DB	0ffH
	DB	0ffH
	DB	0ffH
	DB	0ffH
	DB	0ffH
	DB	0ffH
	DB	0ffH
	DB	0ffH
	DB	0ffH
	DB	0ffH
	DB	0ffH
	DB	0ffH
	DB	0ffH
	DB	0ffH
	DB	0ffH
	DB	0ffH
	DB	0ffH
	DB	0ffH
	DB	0ffH
	DB	0ffH
	DB	0ffH
	DB	0ffH
	DB	0ffH
	DB	0ffH
	DB	0ffH
	DB	0ffH
	DB	0ffH
	DB	0ffH
	DB	0ffH
	DB	0ffH
	DB	0ffH
	DB	0ffH
	DB	0ffH
	DB	0ffH
	DB	0ffH
	DB	0ffH
	DB	0ffH
	DB	0ffH
	DB	0ffH
	DB	0ffH
	DB	0ffH
	DB	0ffH
	DB	0ffH
	DB	0ffH
	DB	0ffH
	DB	0ffH
	DB	0ffH
	DB	0ffH
	DB	0ffH
	DB	0ffH
	DB	0ffH
	DB	0ffH
	DB	0ffH
	DB	0ffH
	DB	0ffH
	DB	0ffH
	DB	0ffH
	DB	0ffH
	DB	0ffH
	DB	0ffH
	DB	0ffH
	DB	0ffH
	DB	0ffH
	DB	0ffH
	DB	0ffH
	DB	0ffH
	DB	0ffH
	DB	0ffH
	DB	0ffH
	DB	0ffH
	DB	0ffH
	DB	0ffH
	DB	0ffH
	DB	0ffH
	DB	0ffH
	DB	0ffH
	DB	0ffH
	DB	0ffH
	DB	0ffH
	DB	0ffH
	DB	0ffH
	DB	0ffH
	DB	0ffH
	DB	0ffH
	DB	0ffH
	DB	0ffH
	DB	0ffH
	DB	0ffH
	DB	0ffH
	DB	0ffH
	DB	0ffH
	DB	0ffH
	DB	0ffH
	DB	0ffH
	DB	0ffH
	DB	0ffH
	DB	0ffH
	DB	0ffH
	DB	0ffH
	DB	0ffH
	DB	0ffH
	DB	0ffH
	DB	0ffH
	DB	0ffH
	DB	0ffH
	DB	0ffH
	DB	0ffH
	DB	0ffH
	DB	0ffH
	DB	0ffH
	DB	0ffH
	DB	0ffH
	DB	0ffH
	DB	0ffH
	DB	0ffH
	DB	0ffH
	DB	0ffH
	DB	0ffH
	DB	0ffH
	DB	0ffH
	DB	0ffH
	DB	0ffH
	DB	0ffH
	DB	0ffH
	DB	0ffH
	DB	0ffH
	DB	0ffH
	DB	0ffH
	DB	0ffH
	DB	0ffH
	DB	0ffH
	DB	0ffH
	DB	0ffH
	DB	0ffH
	DB	0ffH
	DB	0ffH
	DB	0ffH
	DB	0ffH
	DB	0ffH
	DB	0ffH
	DB	0ffH
	DB	0ffH
	DB	0ffH
	DB	0ffH
	DB	0ffH
	DB	0ffH
	DB	0ffH
	DB	0ffH
	DB	0ffH
	DB	0ffH
	DB	0ffH
	DB	0ffH
	DB	0ffH
	DB	0ffH
	DB	0ffH
	DB	0ffH
	DB	0ffH
	DB	0ffH
	DB	0ffH
	DB	0ffH
	DB	0ffH
	DB	0ffH
	DB	0ffH
	DB	0ffH
	DB	0ffH
	DB	0ffH
	DB	0ffH
	DB	0ffH
	DB	0ffH
	DB	0ffH
	DB	0ffH
	DB	0ffH
	DB	0ffH
	DB	0ffH
	DB	0ffH
	DB	0ffH
	DB	0ffH
	DB	0ffH
	DB	0ffH
	DB	0ffH
	DB	0ffH
	DB	0ffH
	DB	0ffH
	DB	0ffH
	DB	0ffH
	DB	0ffH
	DB	0ffH
	DB	0ffH
	DB	0ffH
	DB	0ffH
	DB	0ffH
	DB	0ffH
	DB	0ffH
	DB	0ffH
	DB	0ffH
	DB	0ffH
	DB	0ffH
	DB	0ffH
	DB	0ffH
	DB	0ffH
	DB	0ffH
	DB	0ffH
	DB	0ffH
	DB	0ffH
	DB	0ffH
	DB	0ffH
	DB	0ffH
	DB	0ffH
	DB	0ffH
	DB	0ffH
	DB	0ffH
	DB	0ffH
	DB	0ffH
	DB	0ffH
	DB	0ffH
	DB	0ffH
	DB	0ffH
	DB	0ffH
	DB	0ffH
	DB	0ffH
	DB	0ffH
	DB	0ffH
	DB	0ffH
	DB	0ffH
	DB	0ffH
	DB	0ffH
	DB	0ffH
	DB	0ffH
	DB	0ffH
	DB	0ffH
	DB	0ffH
	DB	0efH
	DB	0f7H
	DB	0ffH
	DB	0ffH
	DB	0ffH
	DB	0ffH
	DB	0ffH
	DB	0ffH
	DB	0ffH
	DB	0ffH
	DB	0ffH
	DB	0ffH
	DB	0ffH
	DB	0ffH
	DB	0ffH
	DB	0ffH
	DB	0ffH
	DB	0ffH
	DB	0ffH
	DB	0ffH
	DB	0ffH
	DB	0ffH
	DB	0ffH
	DB	0ffH
	DB	0ffH
	DB	0ffH
	DB	0ffH
	DB	0fbH
	DB	0f7H
	DB	0ebH
	DB	0aaH
	DB	0dbH
	DB	0fbH
	DB	0ffH
	DB	0ffH
	DB	0ffH
	DB	0ffH
	DB	0ffH
	DB	0ffH
	DB	0ffH
	DB	0ffH
	DB	0ffH
	DB	0ffH
	DB	0ffH
	DB	0ffH
	DB	0ffH
	DB	0ffH
	DB	0ffH
	DB	0ffH
	DB	0ffH
	DB	0ffH
	DB	0ffH
	DB	0ffH
	DB	0ffH
	DB	0ffH
	DB	0ffH
	DB	0ffH
	DB	0f7H
	DB	0d3H
	DB	096H
	DB	018H
	DB	082H
	DB	0dfH
	DB	0ffH
	DB	0ffH
	DB	0ffH
	DB	0ffH
	DB	0ffH
	DB	0ffH
	DB	0ffH
	DB	0ffH
	DB	0ffH
	DB	0ffH
	DB	0ffH
	DB	0ffH
	DB	0ffH
	DB	0ffH
	DB	0ffH
	DB	0ffH
	DB	0ffH
	DB	0ffH
	DB	0ffH
	DB	0ffH
	DB	0ffH
	DB	0ffH
	DB	0ffH
	DB	0ffH
	DB	0d7H
	DB	075H
	DB	0cH
	DB	00H
	DB	08H
	DB	02cH
	DB	069H
	DB	0aaH
	DB	0d7H
	DB	0efH
	DB	0fbH
	DB	0ffH
	DB	0ffH
	DB	0ffH
	DB	0ffH
	DB	0ffH
	DB	0ffH
	DB	0ffH
	DB	0ffH
	DB	0ffH
	DB	0ffH
	DB	0ffH
	DB	0ffH
	DB	0ffH
	DB	0ffH
	DB	0fbH
	DB	0efH
	DB	0d7H
	DB	0a2H
	DB	05dH
	DB	024H
	DB	08H
	DB	00H
CONST	ENDS
END
