; Listing generated by Microsoft (R) Optimizing Compiler Version 19.00.24210.0 

	TITLE	C:\MyFiles\SoftwareTeam\Technologies_Boards\Graphic\TouchGFX\Scope\Project\Oscilloscope\Graphic\generated\images\src\left_press_2.cpp
	.686P
	.XMM
	include listing.inc
	.model	flat

INCLUDELIB MSVCRTD
INCLUDELIB OLDNAMES

PUBLIC	?_left_press_2@@3QBEB				; _left_press_2
PUBLIC	?_left_press_2_alpha_channel@@3QBEB		; _left_press_2_alpha_channel
CONST	SEGMENT
?_left_press_2@@3QBEB DB 00H				; _left_press_2
	DB	00H
	DB	0ffH
	DB	0ffH
	DB	0f5H
	DB	0ffH
	DB	0f0H
	DB	0ffH
	DB	0edH
	DB	0ffH
	DB	0e9H
	DB	0ffH
	DB	0e4H
	DB	0ffH
	DB	0e0H
	DB	0ffH
	DB	0e0H
	DB	0ffH
	DB	0e0H
	DB	0ffH
	DB	0e0H
	DB	0ffH
	DB	0e0H
	DB	0ffH
	DB	0e0H
	DB	0ffH
	DB	0e0H
	DB	0ffH
	DB	0e0H
	DB	0ffH
	DB	0e0H
	DB	0ffH
	DB	0e0H
	DB	0ffH
	DB	0e0H
	DB	0ffH
	DB	0e0H
	DB	0ffH
	DB	0e0H
	DB	0ffH
	DB	0e0H
	DB	0ffH
	DB	0e0H
	DB	0ffH
	DB	0e1H
	DB	0ffH
	DB	0e4H
	DB	0ffH
	DB	0e7H
	DB	0ffH
	DB	0e9H
	DB	0ffH
	DB	0eaH
	DB	0ffH
	DB	0efH
	DB	0ffH
	DB	0ffH
	DB	0ffH
	DB	00H
	DB	00H
	DB	0ffH
	DB	0ffH
	DB	0edH
	DB	0ffH
	DB	0e9H
	DB	0ffH
	DB	0e7H
	DB	0ffH
	DB	0e6H
	DB	0ffH
	DB	0e7H
	DB	0ffH
	DB	0e6H
	DB	0ffH
	DB	0e3H
	DB	0ffH
	DB	0e0H
	DB	0ffH
	DB	0e0H
	DB	0ffH
	DB	0e0H
	DB	0ffH
	DB	0e0H
	DB	0ffH
	DB	0e0H
	DB	0ffH
	DB	0e0H
	DB	0ffH
	DB	0e0H
	DB	0ffH
	DB	0e0H
	DB	0ffH
	DB	0e0H
	DB	0ffH
	DB	0e0H
	DB	0ffH
	DB	0e0H
	DB	0ffH
	DB	0e0H
	DB	0ffH
	DB	0e0H
	DB	0ffH
	DB	0e0H
	DB	0ffH
	DB	0e0H
	DB	0ffH
	DB	0e0H
	DB	0ffH
	DB	0e0H
	DB	0ffH
	DB	0e0H
	DB	0ffH
	DB	0e1H
	DB	0ffH
	DB	0e4H
	DB	0ffH
	DB	0e8H
	DB	0ffH
	DB	0ffH
	DB	0ffH
	DB	0efH
	DB	0ffH
	DB	0e8H
	DB	0ffH
	DB	0e5H
	DB	0ffH
	DB	0e6H
	DB	0ffH
	DB	0aaH
	DB	0f7H
	DB	031H
	DB	0d7H
	DB	09aH
	DB	0aeH
	DB	0bcH
	DB	0aeH
	DB	0bbH
	DB	0aeH
	DB	09bH
	DB	0a6H
	DB	05aH
	DB	096H
	DB	03bH
	DB	08eH
	DB	03aH
	DB	08eH
	DB	03aH
	DB	08eH
	DB	03bH
	DB	08eH
	DB	03aH
	DB	08eH
	DB	03aH
	DB	08eH
	DB	03bH
	DB	08eH
	DB	0bbH
	DB	0aeH
	DB	04fH
	DB	0d7H
	DB	0b4H
	DB	0aeH
	DB	01cH
	DB	086H
	DB	03aH
	DB	08eH
	DB	058H
	DB	09eH
	DB	02cH
	DB	0cfH
	DB	0c4H
	DB	0f7H
	DB	0e0H
	DB	0ffH
	DB	0e0H
	DB	0ffH
	DB	0e3H
	DB	0ffH
	DB	0edH
	DB	0ffH
	DB	0e6H
	DB	0ffH
	DB	0e6H
	DB	0ffH
	DB	0e4H
	DB	0ffH
	DB	0c9H
	DB	0f7H
	DB	015H
	DB	0c7H
	DB	03fH
	DB	08eH
	DB	07fH
	DB	09eH
	DB	07fH
	DB	09eH
	DB	09fH
	DB	0a6H
	DB	09fH
	DB	0a6H
	DB	09fH
	DB	0a6H
	DB	05fH
	DB	096H
	DB	0ffH
	DB	085H
	DB	0ffH
	DB	07dH
	DB	0ffH
	DB	07dH
	DB	0ffH
	DB	075H
	DB	0ffH
	DB	07dH
	DB	07fH
	DB	09eH
	DB	0b1H
	DB	0f7H
	DB	0e0H
	DB	0ffH
	DB	052H
	DB	0d7H
	DB	07fH
	DB	09eH
	DB	0dfH
	DB	075H
	DB	0ffH
	DB	075H
	DB	0dfH
	DB	075H
	DB	0d1H
	DB	0beH
	DB	0c4H
	DB	0f7H
	DB	0e0H
	DB	0ffH
	DB	0e1H
	DB	0ffH
	DB	0e3H
	DB	0ffH
	DB	0e4H
	DB	0ffH
	DB	0e5H
	DB	0ffH
	DB	0e4H
	DB	0ffH
	DB	0c9H
	DB	0f7H
	DB	015H
	DB	0c7H
	DB	03fH
	DB	08eH
	DB	07fH
	DB	09eH
	DB	09fH
	DB	09eH
	DB	09fH
	DB	0a6H
	DB	09fH
	DB	0a6H
	DB	0bfH
	DB	0aeH
	DB	09fH
	DB	09eH
	DB	03fH
	DB	08eH
	DB	0ffH
	DB	07dH
	DB	0dfH
	DB	075H
	DB	0dfH
	DB	07dH
	DB	07dH
	DB	09eH
	DB	0cfH
	DB	0ffH
	DB	0e1H
	DB	0ffH
	DB	0e0H
	DB	0ffH
	DB	0d3H
	DB	0ffH
	DB	0ffH
	DB	0beH
	DB	0dfH
	DB	075H
	DB	0ffH
	DB	07dH
	DB	0bfH
	DB	06dH
	DB	0d2H
	DB	0b6H
	DB	0a5H
	DB	0efH
	DB	0e0H
	DB	0ffH
	DB	0e0H
	DB	0ffH
	DB	0e0H
	DB	0ffH
	DB	0e5H
	DB	0ffH
	DB	0e5H
	DB	0ffH
	DB	0e4H
	DB	0ffH
	DB	0c9H
	DB	0f7H
	DB	015H
	DB	0c7H
	DB	03fH
	DB	096H
	DB	07fH
	DB	09eH
	DB	09fH
	DB	09eH
	DB	09fH
	DB	0a6H
	DB	09fH
	DB	0a6H
	DB	0bfH
	DB	0aeH
	DB	09fH
	DB	0aeH
	DB	07fH
	DB	09eH
	DB	0ffH
	DB	07dH
	DB	0dfH
	DB	075H
	DB	0baH
	DB	0aeH
	DB	0ecH
	DB	0ffH
	DB	0e0H
	DB	0ffH
	DB	0e0H
	DB	0ffH
	DB	0e0H
	DB	0ffH
	DB	032H
	DB	0cfH
	DB	03fH
	DB	08eH
	DB	0dfH
	DB	075H
	DB	0ffH
	DB	07dH
	DB	0bfH
	DB	06dH
	DB	0d2H
	DB	0b6H
	DB	0c4H
	DB	0f7H
	DB	0e0H
	DB	0ffH
	DB	0e0H
	DB	0ffH
	DB	0e0H
	DB	0ffH
	DB	0e5H
	DB	0ffH
	DB	0e5H
	DB	0ffH
	DB	0e4H
	DB	0ffH
	DB	0c9H
	DB	0f7H
	DB	015H
	DB	0c7H
	DB	05fH
	DB	096H
	DB	07fH
	DB	09eH
	DB	07fH
	DB	09eH
	DB	09fH
	DB	0a6H
	DB	09fH
	DB	0a6H
	DB	09fH
	DB	0aeH
	DB	0bfH
	DB	0aeH
	DB	09fH
	DB	09eH
	DB	01fH
	DB	086H
	DB	0bfH
	DB	0aeH
	DB	0b5H
	DB	0efH
	DB	0e0H
	DB	0ffH
	DB	0e0H
	DB	0ffH
	DB	0e0H
	DB	0ffH
	DB	07bH
	DB	0dfH
	DB	07fH
	DB	09eH
	DB	0dfH
	DB	075H
	DB	0ffH
	DB	07dH
	DB	0ffH
	DB	07dH
	DB	0bfH
	DB	06dH
	DB	0d2H
	DB	0b6H
	DB	0a4H
	DB	0efH
	DB	0e0H
	DB	0ffH
	DB	0e0H
	DB	0ffH
	DB	0e0H
	DB	0ffH
	DB	0e5H
	DB	0ffH
	DB	0e5H
	DB	0ffH
	DB	0e4H
	DB	0ffH
	DB	0c9H
	DB	0f7H
	DB	015H
	DB	0c7H
	DB	03fH
	DB	08eH
	DB	07fH
	DB	09eH
	DB	07fH
	DB	09eH
	DB	09fH
	DB	0a6H
	DB	09fH
	DB	0a6H
	DB	09fH
	DB	0a6H
	DB	0bfH
	DB	0aeH
	DB	09fH
	DB	0a6H
	DB	0bfH
	DB	0aeH
	DB	08bH
	DB	0e7H
	DB	0e0H
	DB	0ffH
	DB	0e0H
	DB	0ffH
	DB	0e1H
	DB	0ffH
	DB	0d1H
	DB	0f7H
	DB	07eH
	DB	09eH
	DB	0ffH
	DB	07dH
	DB	0ffH
	DB	07dH
	DB	0ffH
	DB	07dH
	DB	0ffH
	DB	075H
	DB	0bfH
	DB	06dH
	DB	0d2H
	DB	0b6H
	DB	0a5H
	DB	0f7H
	DB	0e0H
	DB	0ffH
	DB	0e0H
	DB	0ffH
	DB	0e0H
	DB	0ffH
	DB	0e5H
	DB	0ffH
	DB	0e5H
	DB	0ffH
	DB	0e4H
	DB	0ffH
	DB	0c9H
	DB	0f7H
	DB	015H
	DB	0c7H
	DB	05fH
	DB	096H
	DB	07fH
	DB	09eH
	DB	09fH
	DB	09eH
	DB	09fH
	DB	0a6H
	DB	09fH
	DB	0a6H
	DB	09fH
	DB	0aeH
	DB	0bfH
	DB	0aeH
	DB	0dfH
	DB	0b6H
	DB	0b3H
	DB	0efH
	DB	0e5H
	DB	0ffH
	DB	0e0H
	DB	0ffH
	DB	0e0H
	DB	0ffH
	DB	0e0H
	DB	0ffH
	DB	07eH
	DB	09eH
	DB	0ffH
	DB	07dH
	DB	0dfH
	DB	075H
	DB	0ffH
	DB	07dH
	DB	0ffH
	DB	07dH
	DB	0ffH
	DB	075H
	DB	0bfH
	DB	06dH
	DB	0d2H
	DB	0b6H
	DB	0c5H
	DB	0f7H
	DB	0e0H
	DB	0ffH
	DB	0e0H
	DB	0ffH
	DB	0e0H
	DB	0ffH
	DB	0e5H
	DB	0ffH
	DB	0e5H
	DB	0ffH
	DB	0e4H
	DB	0ffH
	DB	0c9H
	DB	0f7H
	DB	015H
	DB	0c7H
	DB	03fH
	DB	096H
	DB	07fH
	DB	09eH
	DB	07fH
	DB	09eH
	DB	09fH
	DB	0a6H
	DB	09fH
	DB	0a6H
	DB	09fH
	DB	0a6H
	DB	0dfH
	DB	0b6H
	DB	0d2H
	DB	0f7H
	DB	0e3H
	DB	0ffH
	DB	0e0H
	DB	0ffH
	DB	0e0H
	DB	0ffH
	DB	0c5H
	DB	0f7H
	DB	09fH
	DB	0a6H
	DB	0ffH
	DB	07dH
	DB	0dfH
	DB	07dH
	DB	0ffH
	DB	07dH
	DB	0ffH
	DB	07dH
	DB	0dfH
	DB	07dH
	DB	0ffH
	DB	07dH
	DB	0bfH
	DB	06dH
	DB	0d2H
	DB	0b6H
	DB	0a4H
	DB	0efH
	DB	0e0H
	DB	0ffH
	DB	0e0H
	DB	0ffH
	DB	0e0H
	DB	0ffH
	DB	0e5H
	DB	0ffH
	DB	0e5H
	DB	0ffH
	DB	0e4H
	DB	0ffH
	DB	0c9H
	DB	0f7H
	DB	015H
	DB	0c7H
	DB	03fH
	DB	096H
	DB	07fH
	DB	09eH
	DB	09fH
	DB	09eH
	DB	09fH
	DB	0a6H
	DB	09fH
	DB	0a6H
	DB	0fdH
	DB	0beH
	DB	0cfH
	DB	0ffH
	DB	0e1H
	DB	0ffH
	DB	0e0H
	DB	0ffH
	DB	0e0H
	DB	0ffH
	DB	08cH
	DB	0efH
	DB	09fH
	DB	0a6H
	DB	0dfH
	DB	075H
	DB	0ffH
	DB	07dH
	DB	0ffH
	DB	07dH
	DB	0ffH
	DB	07dH
	DB	0ffH
	DB	075H
	DB	0ffH
	DB	07dH
	DB	0ffH
	DB	07dH
	DB	0bfH
	DB	06dH
	DB	0d2H
	DB	0b6H
	DB	0a4H
	DB	0f7H
	DB	0e0H
	DB	0ffH
	DB	0e0H
	DB	0ffH
	DB	0e0H
	DB	0ffH
	DB	0e5H
	DB	0ffH
	DB	0e5H
	DB	0ffH
	DB	0e4H
	DB	0ffH
	DB	0c9H
	DB	0f7H
	DB	015H
	DB	0c7H
	DB	05fH
	DB	08eH
	DB	07fH
	DB	09eH
	DB	07fH
	DB	09eH
	DB	07fH
	DB	0a6H
	DB	0ffH
	DB	0beH
	DB	0bbH
	DB	0efH
	DB	0e0H
	DB	0ffH
	DB	0e0H
	DB	0ffH
	DB	0e0H
	DB	0ffH
	DB	094H
	DB	0e7H
	DB	09fH
	DB	0aeH
	DB	0ffH
	DB	075H
	DB	0ffH
	DB	07dH
	DB	0ffH
	DB	07dH
	DB	0ffH
	DB	07dH
	DB	0dfH
	DB	075H
	DB	0ffH
	DB	07dH
	DB	0ffH
	DB	07dH
	DB	0dfH
	DB	075H
	DB	0bfH
	DB	06dH
	DB	0d2H
	DB	0b6H
	DB	0c5H
	DB	0efH
	DB	0e0H
	DB	0ffH
	DB	0e0H
	DB	0ffH
	DB	0e0H
	DB	0ffH
	DB	0e5H
	DB	0ffH
	DB	0e5H
	DB	0ffH
	DB	0e4H
	DB	0ffH
	DB	0c9H
	DB	0f7H
	DB	015H
	DB	0c7H
	DB	03fH
	DB	096H
	DB	07fH
	DB	09eH
	DB	07fH
	DB	09eH
	DB	0dfH
	DB	0b6H
	DB	093H
	DB	0e7H
	DB	0e0H
	DB	0ffH
	DB	0e0H
	DB	0ffH
	DB	0e0H
	DB	0ffH
	DB	0ecH
	DB	0ffH
	DB	0daH
	DB	0b6H
	DB	0ffH
	DB	07dH
	DB	0dfH
	DB	075H
	DB	0ffH
	DB	07dH
	DB	0ffH
	DB	07dH
	DB	0dfH
	DB	075H
	DB	0ffH
	DB	07dH
	DB	0ffH
	DB	07dH
	DB	0ffH
	DB	07dH
	DB	0ffH
	DB	075H
	DB	0bfH
	DB	06dH
	DB	0d2H
	DB	0b6H
	DB	0a5H
	DB	0f7H
	DB	0e0H
	DB	0ffH
	DB	0e0H
	DB	0ffH
	DB	0e0H
	DB	0ffH
	DB	0e5H
	DB	0ffH
	DB	0e5H
	DB	0ffH
	DB	0e4H
	DB	0ffH
	DB	0c9H
	DB	0f7H
	DB	015H
	DB	0c7H
	DB	05fH
	DB	096H
	DB	07fH
	DB	09eH
	DB	09fH
	DB	0a6H
	DB	070H
	DB	0dfH
	DB	0e1H
	DB	0ffH
	DB	0e0H
	DB	0ffH
	DB	0e0H
	DB	0ffH
	DB	0e0H
	DB	0ffH
	DB	039H
	DB	0cfH
	DB	03fH
	DB	08eH
	DB	0dfH
	DB	075H
	DB	0ffH
	DB	07dH
	DB	0ffH
	DB	07dH
	DB	0ffH
	DB	07dH
	DB	0ffH
	DB	07dH
	DB	0ffH
	DB	07dH
	DB	0dfH
	DB	07dH
	DB	0ffH
	DB	07dH
	DB	0ffH
	DB	07dH
	DB	0bfH
	DB	06dH
	DB	0d2H
	DB	0b6H
	DB	0a4H
	DB	0f7H
	DB	0e0H
	DB	0ffH
	DB	0e0H
	DB	0ffH
	DB	0e0H
	DB	0ffH
	DB	0e5H
	DB	0ffH
	DB	0e5H
	DB	0ffH
	DB	0e4H
	DB	0ffH
	DB	0c9H
	DB	0f7H
	DB	015H
	DB	0c7H
	DB	03fH
	DB	08eH
	DB	05fH
	DB	09eH
	DB	05fH
	DB	0cfH
	DB	0cdH
	DB	0ffH
	DB	0e0H
	DB	0ffH
	DB	0e0H
	DB	0ffH
	DB	0e2H
	DB	0ffH
	DB	03fH
	DB	0cfH
	DB	0bfH
	DB	0aeH
	DB	03fH
	DB	08eH
	DB	0ffH
	DB	075H
	DB	0ffH
	DB	07dH
	DB	0dfH
	DB	07dH
	DB	0ffH
	DB	075H
	DB	0ffH
	DB	07dH
	DB	0dfH
	DB	075H
	DB	0ffH
	DB	075H
	DB	0ffH
	DB	07dH
	DB	0dfH
	DB	075H
	DB	0bfH
	DB	06dH
	DB	0d2H
	DB	0b6H
	DB	0c4H
	DB	0efH
	DB	0e0H
	DB	0ffH
	DB	0e0H
	DB	0ffH
	DB	0e0H
	DB	0ffH
	DB	0e5H
	DB	0ffH
	DB	0e5H
	DB	0ffH
	DB	0e4H
	DB	0ffH
	DB	0c9H
	DB	0f7H
	DB	015H
	DB	0c7H
	DB	03fH
	DB	096H
	DB	07fH
	DB	09eH
	DB	03fH
	DB	0cfH
	DB	0cdH
	DB	0f7H
	DB	0e0H
	DB	0ffH
	DB	0e0H
	DB	0ffH
	DB	0e2H
	DB	0ffH
	DB	03fH
	DB	0cfH
	DB	0bfH
	DB	0aeH
	DB	01fH
	DB	08eH
	DB	0dfH
	DB	075H
	DB	0ffH
	DB	07dH
	DB	0ffH
	DB	07dH
	DB	0dfH
	DB	075H
	DB	0ffH
	DB	07dH
	DB	0ffH
	DB	07dH
	DB	0ffH
	DB	07dH
	DB	0ffH
	DB	07dH
	DB	0ffH
	DB	075H
	DB	0bfH
	DB	06dH
	DB	0d2H
	DB	0b6H
	DB	0a5H
	DB	0f7H
	DB	0e0H
	DB	0ffH
	DB	0e0H
	DB	0ffH
	DB	0e0H
	DB	0ffH
	DB	0e5H
	DB	0ffH
	DB	0e5H
	DB	0ffH
	DB	0e4H
	DB	0ffH
	DB	0c9H
	DB	0f7H
	DB	015H
	DB	0c7H
	DB	05fH
	DB	096H
	DB	07fH
	DB	09eH
	DB	09fH
	DB	0a6H
	DB	073H
	DB	0dfH
	DB	0e5H
	DB	0ffH
	DB	0e0H
	DB	0ffH
	DB	0e0H
	DB	0ffH
	DB	0e0H
	DB	0ffH
	DB	059H
	DB	0d7H
	DB	05fH
	DB	096H
	DB	0dfH
	DB	075H
	DB	0ffH
	DB	07dH
	DB	0ffH
	DB	07dH
	DB	0ffH
	DB	07dH
	DB	0ffH
	DB	07dH
	DB	0dfH
	DB	07dH
	DB	0ffH
	DB	07dH
	DB	0ffH
	DB	07dH
	DB	0dfH
	DB	07dH
	DB	0bfH
	DB	06dH
	DB	0d2H
	DB	0b6H
	DB	0a4H
	DB	0f7H
	DB	0e0H
	DB	0ffH
	DB	0e0H
	DB	0ffH
	DB	0e0H
	DB	0ffH
	DB	0e5H
	DB	0ffH
	DB	0e5H
	DB	0ffH
	DB	0e4H
	DB	0ffH
	DB	0c9H
	DB	0f7H
	DB	015H
	DB	0c7H
	DB	03fH
	DB	08eH
	DB	07fH
	DB	09eH
	DB	07fH
	DB	09eH
	DB	0dfH
	DB	0b6H
	DB	093H
	DB	0e7H
	DB	0e0H
	DB	0ffH
	DB	0e0H
	DB	0ffH
	DB	0e0H
	DB	0ffH
	DB	0ecH
	DB	0ffH
	DB	0daH
	DB	0b6H
	DB	0ffH
	DB	07dH
	DB	0dfH
	DB	075H
	DB	0ffH
	DB	07dH
	DB	0ffH
	DB	07dH
	DB	0dfH
	DB	075H
	DB	0ffH
	DB	075H
	DB	0ffH
	DB	07dH
	DB	0ffH
	DB	07dH
	DB	0ffH
	DB	075H
	DB	0bfH
	DB	06dH
	DB	0d2H
	DB	0b6H
	DB	0c5H
	DB	0efH
	DB	0e0H
	DB	0ffH
	DB	0e0H
	DB	0ffH
	DB	0e0H
	DB	0ffH
	DB	0e5H
	DB	0ffH
	DB	0e5H
	DB	0ffH
	DB	0e4H
	DB	0ffH
	DB	0c9H
	DB	0f7H
	DB	015H
	DB	0c7H
	DB	05fH
	DB	096H
	DB	07fH
	DB	09eH
	DB	07fH
	DB	09eH
	DB	09fH
	DB	0a6H
	DB	0ffH
	DB	0beH
	DB	09bH
	DB	0e7H
	DB	0e0H
	DB	0ffH
	DB	0e0H
	DB	0ffH
	DB	0e0H
	DB	0ffH
	DB	0b5H
	DB	0efH
	DB	0bfH
	DB	0aeH
	DB	0dfH
	DB	075H
	DB	0ffH
	DB	07dH
	DB	0ffH
	DB	07dH
	DB	0ffH
	DB	07dH
	DB	0dfH
	DB	07dH
	DB	0ffH
	DB	07dH
	DB	0ffH
	DB	075H
	DB	0ffH
	DB	07dH
	DB	0bfH
	DB	06dH
	DB	0d2H
	DB	0b6H
	DB	0a4H
	DB	0f7H
	DB	0e0H
	DB	0ffH
	DB	0e0H
	DB	0ffH
	DB	0e0H
	DB	0ffH
	DB	0e5H
	DB	0ffH
	DB	0e5H
	DB	0ffH
	DB	0e4H
	DB	0ffH
	DB	0c9H
	DB	0f7H
	DB	015H
	DB	0c7H
	DB	03fH
	DB	096H
	DB	07fH
	DB	09eH
	DB	09fH
	DB	09eH
	DB	09fH
	DB	0a6H
	DB	09fH
	DB	0a6H
	DB	0fdH
	DB	0beH
	DB	0ceH
	DB	0ffH
	DB	0e1H
	DB	0ffH
	DB	0e0H
	DB	0ffH
	DB	0e0H
	DB	0ffH
	DB	0acH
	DB	0efH
	DB	0bfH
	DB	0aeH
	DB	0dfH
	DB	075H
	DB	0ffH
	DB	07dH
	DB	0ffH
	DB	07dH
	DB	0ffH
	DB	07dH
	DB	0dfH
	DB	075H
	DB	0ffH
	DB	07dH
	DB	0dfH
	DB	07dH
	DB	0bfH
	DB	06dH
	DB	0d2H
	DB	0b6H
	DB	0a5H
	DB	0f7H
	DB	0e0H
	DB	0ffH
	DB	0e0H
	DB	0ffH
	DB	0e0H
	DB	0ffH
	DB	0e5H
	DB	0ffH
	DB	0e5H
	DB	0ffH
	DB	0e4H
	DB	0ffH
	DB	0c9H
	DB	0f7H
	DB	015H
	DB	0c7H
	DB	03fH
	DB	08eH
	DB	07fH
	DB	09eH
	DB	07fH
	DB	09eH
	DB	09fH
	DB	0a6H
	DB	09fH
	DB	0a6H
	DB	09fH
	DB	0a6H
	DB	0dfH
	DB	0b6H
	DB	0d1H
	DB	0f7H
	DB	0e3H
	DB	0ffH
	DB	0e0H
	DB	0ffH
	DB	0e0H
	DB	0ffH
	DB	0c5H
	DB	0f7H
	DB	09fH
	DB	0a6H
	DB	0ffH
	DB	07dH
	DB	0dfH
	DB	075H
	DB	0ffH
	DB	07dH
	DB	0ffH
	DB	07dH
	DB	0ffH
	DB	07dH
	DB	0ffH
	DB	075H
	DB	0bfH
	DB	06dH
	DB	0d2H
	DB	0b6H
	DB	0c4H
	DB	0efH
	DB	0e0H
	DB	0ffH
	DB	0e0H
	DB	0ffH
	DB	0e0H
	DB	0ffH
	DB	0e5H
	DB	0ffH
	DB	0e5H
	DB	0ffH
	DB	0e4H
	DB	0ffH
	DB	0c9H
	DB	0f7H
	DB	015H
	DB	0c7H
	DB	05fH
	DB	096H
	DB	07fH
	DB	09eH
	DB	07fH
	DB	09eH
	DB	09fH
	DB	0a6H
	DB	09fH
	DB	0a6H
	DB	09fH
	DB	0a6H
	DB	0bfH
	DB	0aeH
	DB	0dfH
	DB	0b6H
	DB	0b4H
	DB	0efH
	DB	0e5H
	DB	0ffH
	DB	0e0H
	DB	0ffH
	DB	0e0H
	DB	0ffH
	DB	0e0H
	DB	0ffH
	DB	09eH
	DB	0a6H
	DB	0ffH
	DB	07dH
	DB	0dfH
	DB	075H
	DB	0ffH
	DB	07dH
	DB	0ffH
	DB	07dH
	DB	0ffH
	DB	075H
	DB	0bfH
	DB	06dH
	DB	0d2H
	DB	0b6H
	DB	0a5H
	DB	0f7H
	DB	0e0H
	DB	0ffH
	DB	0e0H
	DB	0ffH
	DB	0e0H
	DB	0ffH
	DB	0e5H
	DB	0ffH
	DB	0e5H
	DB	0ffH
	DB	0e4H
	DB	0ffH
	DB	0c9H
	DB	0f7H
	DB	015H
	DB	0c7H
	DB	05fH
	DB	096H
	DB	07fH
	DB	09eH
	DB	07fH
	DB	09eH
	DB	09fH
	DB	0a6H
	DB	09fH
	DB	0a6H
	DB	09fH
	DB	0aeH
	DB	0bfH
	DB	0aeH
	DB	09fH
	DB	0a6H
	DB	0bfH
	DB	0b6H
	DB	0abH
	DB	0efH
	DB	0e0H
	DB	0ffH
	DB	0e0H
	DB	0ffH
	DB	0e1H
	DB	0ffH
	DB	0cfH
	DB	0f7H
	DB	09dH
	DB	0a6H
	DB	0ffH
	DB	07dH
	DB	0dfH
	DB	07dH
	DB	0ffH
	DB	07dH
	DB	0ffH
	DB	07dH
	DB	0bfH
	DB	06dH
	DB	0d2H
	DB	0b6H
	DB	0a4H
	DB	0f7H
	DB	0e0H
	DB	0ffH
	DB	0e0H
	DB	0ffH
	DB	0e0H
	DB	0ffH
	DB	0e5H
	DB	0ffH
	DB	0e5H
	DB	0ffH
	DB	0e4H
	DB	0ffH
	DB	0c9H
	DB	0f7H
	DB	015H
	DB	0c7H
	DB	03fH
	DB	096H
	DB	07fH
	DB	09eH
	DB	09fH
	DB	09eH
	DB	09fH
	DB	0a6H
	DB	09fH
	DB	0a6H
	DB	0bfH
	DB	0a6H
	DB	0bfH
	DB	0aeH
	DB	09fH
	DB	0a6H
	DB	01fH
	DB	086H
	DB	0bfH
	DB	0aeH
	DB	095H
	DB	0e7H
	DB	0e0H
	DB	0ffH
	DB	0e0H
	DB	0ffH
	DB	0e0H
	DB	0ffH
	DB	09bH
	DB	0e7H
	DB	07fH
	DB	09eH
	DB	0dfH
	DB	075H
	DB	0ffH
	DB	07dH
	DB	0ffH
	DB	075H
	DB	0bfH
	DB	06dH
	DB	0d2H
	DB	0b6H
	DB	0a4H
	DB	0efH
	DB	0e0H
	DB	0ffH
	DB	0e0H
	DB	0ffH
	DB	0e0H
	DB	0ffH
	DB	0e5H
	DB	0ffH
	DB	0e5H
	DB	0ffH
	DB	0e4H
	DB	0ffH
	DB	0c9H
	DB	0f7H
	DB	015H
	DB	0c7H
	DB	03fH
	DB	08eH
	DB	07fH
	DB	09eH
	DB	09fH
	DB	09eH
	DB	09fH
	DB	0a6H
	DB	09fH
	DB	0a6H
	DB	09fH
	DB	0aeH
	DB	0bfH
	DB	0aeH
	DB	07fH
	DB	09eH
	DB	01fH
	DB	086H
	DB	0dfH
	DB	075H
	DB	0baH
	DB	0aeH
	DB	0ecH
	DB	0ffH
	DB	0e0H
	DB	0ffH
	DB	0e0H
	DB	0ffH
	DB	0e0H
	DB	0ffH
	DB	052H
	DB	0d7H
	DB	05fH
	DB	096H
	DB	0dfH
	DB	075H
	DB	0ffH
	DB	07dH
	DB	0bfH
	DB	06dH
	DB	0d2H
	DB	0b6H
	DB	0c5H
	DB	0f7H
	DB	0e0H
	DB	0ffH
	DB	0e0H
	DB	0ffH
	DB	0e0H
	DB	0ffH
	DB	0e4H
	DB	0ffH
	DB	0e5H
	DB	0ffH
	DB	0e4H
	DB	0ffH
	DB	0c9H
	DB	0f7H
	DB	015H
	DB	0c7H
	DB	05fH
	DB	096H
	DB	07fH
	DB	09eH
	DB	07fH
	DB	09eH
	DB	09fH
	DB	0a6H
	DB	09fH
	DB	0a6H
	DB	09fH
	DB	0aeH
	DB	09fH
	DB	0a6H
	DB	07fH
	DB	09eH
	DB	0ffH
	DB	07dH
	DB	0ffH
	DB	075H
	DB	0dfH
	DB	07dH
	DB	07dH
	DB	09eH
	DB	0ceH
	DB	0ffH
	DB	0e1H
	DB	0ffH
	DB	0e0H
	DB	0ffH
	DB	0d3H
	DB	0ffH
	DB	0dfH
	DB	0beH
	DB	0dfH
	DB	075H
	DB	0ffH
	DB	07dH
	DB	0bfH
	DB	06dH
	DB	0d3H
	DB	0b6H
	DB	0a5H
	DB	0efH
	DB	0e0H
	DB	0ffH
	DB	0e0H
	DB	0ffH
	DB	0e0H
	DB	0ffH
	DB	0e7H
	DB	0ffH
	DB	0e6H
	DB	0ffH
	DB	0e4H
	DB	0ffH
	DB	0c9H
	DB	0f7H
	DB	015H
	DB	0c7H
	DB	03fH
	DB	08eH
	DB	07fH
	DB	09eH
	DB	07fH
	DB	0a6H
	DB	09fH
	DB	0a6H
	DB	09fH
	DB	0a6H
	DB	07fH
	DB	09eH
	DB	03fH
	DB	08eH
	DB	0ffH
	DB	07dH
	DB	0ffH
	DB	07dH
	DB	0ffH
	DB	07dH
	DB	0ffH
	DB	07dH
	DB	0ffH
	DB	07dH
	DB	07fH
	DB	09eH
	DB	0b1H
	DB	0efH
	DB	0e1H
	DB	0ffH
	DB	053H
	DB	0d7H
	DB	05fH
	DB	096H
	DB	0dfH
	DB	075H
	DB	0ffH
	DB	075H
	DB	0dfH
	DB	075H
	DB	0d1H
	DB	0b6H
	DB	0c4H
	DB	0f7H
	DB	0e0H
	DB	0ffH
	DB	0e1H
	DB	0ffH
	DB	0e3H
	DB	0ffH
	DB	0efH
	DB	0ffH
	DB	0e8H
	DB	0ffH
	DB	0e5H
	DB	0ffH
	DB	0e6H
	DB	0ffH
	DB	0abH
	DB	0f7H
	DB	012H
	DB	0cfH
	DB	09bH
	DB	0aeH
	DB	0bcH
	DB	0aeH
	DB	0bbH
	DB	0aeH
	DB	07bH
	DB	09eH
	DB	05bH
	DB	096H
	DB	03aH
	DB	08eH
	DB	03bH
	DB	08eH
	DB	03bH
	DB	08eH
	DB	03aH
	DB	08eH
	DB	03bH
	DB	08eH
	DB	03bH
	DB	08eH
	DB	03aH
	DB	08eH
	DB	0bbH
	DB	0aeH
	DB	01cH
	DB	0bfH
	DB	09bH
	DB	0a6H
	DB	01bH
	DB	086H
	DB	03bH
	DB	08eH
	DB	059H
	DB	096H
	DB	0eH
	DB	0cfH
	DB	0a4H
	DB	0efH
	DB	0e0H
	DB	0ffH
	DB	0e0H
	DB	0ffH
	DB	0e3H
	DB	0ffH
	DB	0edH
	DB	0ffH
	DB	0ffH
	DB	0ffH
	DB	0edH
	DB	0ffH
	DB	0e9H
	DB	0ffH
	DB	0e7H
	DB	0ffH
	DB	0e6H
	DB	0ffH
	DB	0e7H
	DB	0ffH
	DB	0e6H
	DB	0ffH
	DB	0e3H
	DB	0ffH
	DB	0e0H
	DB	0ffH
	DB	0e0H
	DB	0ffH
	DB	0e0H
	DB	0ffH
	DB	0e0H
	DB	0ffH
	DB	0e0H
	DB	0ffH
	DB	0e0H
	DB	0ffH
	DB	0e0H
	DB	0ffH
	DB	0e0H
	DB	0ffH
	DB	0e0H
	DB	0ffH
	DB	0e0H
	DB	0ffH
	DB	0e0H
	DB	0ffH
	DB	0e0H
	DB	0ffH
	DB	0e0H
	DB	0ffH
	DB	0e0H
	DB	0ffH
	DB	0e0H
	DB	0ffH
	DB	0e0H
	DB	0ffH
	DB	0e0H
	DB	0ffH
	DB	0e0H
	DB	0ffH
	DB	0e1H
	DB	0ffH
	DB	0e3H
	DB	0ffH
	DB	0e9H
	DB	0ffH
	DB	0ffH
	DB	0ffH
	DB	00H
	DB	00H
	DB	0ffH
	DB	0ffH
	DB	0f5H
	DB	0ffH
	DB	0f1H
	DB	0ffH
	DB	0eeH
	DB	0ffH
	DB	0eaH
	DB	0ffH
	DB	0e3H
	DB	0ffH
	DB	0e0H
	DB	0ffH
	DB	0e0H
	DB	0ffH
	DB	0e0H
	DB	0ffH
	DB	0e0H
	DB	0ffH
	DB	0e0H
	DB	0ffH
	DB	0e0H
	DB	0ffH
	DB	0e0H
	DB	0ffH
	DB	0e0H
	DB	0ffH
	DB	0e0H
	DB	0ffH
	DB	0e0H
	DB	0ffH
	DB	0e0H
	DB	0ffH
	DB	0e0H
	DB	0ffH
	DB	0e0H
	DB	0ffH
	DB	0e0H
	DB	0ffH
	DB	0e0H
	DB	0ffH
	DB	0e0H
	DB	0ffH
	DB	0e2H
	DB	0ffH
	DB	0e5H
	DB	0ffH
	DB	0e8H
	DB	0ffH
	DB	0ebH
	DB	0ffH
	DB	0f0H
	DB	0ffH
	DB	0ffH
	DB	0ffH
	DB	00H
	DB	00H
?_left_press_2_alpha_channel@@3QBEB DB 00H		; _left_press_2_alpha_channel
	DB	08H
	DB	024H
	DB	059H
	DB	09aH
	DB	0cfH
	DB	0ebH
	DB	0fbH
	DB	0ffH
	DB	0ffH
	DB	0ffH
	DB	0ffH
	DB	0ffH
	DB	0ffH
	DB	0ffH
	DB	0ffH
	DB	0ffH
	DB	0ffH
	DB	0ffH
	DB	0ffH
	DB	0ffH
	DB	0ffH
	DB	0fbH
	DB	0e3H
	DB	0cbH
	DB	092H
	DB	051H
	DB	01cH
	DB	04H
	DB	00H
	DB	0cH
	DB	082H
	DB	0dfH
	DB	0ffH
	DB	0ffH
	DB	0ffH
	DB	0ffH
	DB	0ffH
	DB	0ffH
	DB	0ffH
	DB	0ffH
	DB	0ffH
	DB	0ffH
	DB	0ffH
	DB	0ffH
	DB	0ffH
	DB	0ffH
	DB	0ffH
	DB	0ffH
	DB	0ffH
	DB	0ffH
	DB	0ffH
	DB	0ffH
	DB	0ffH
	DB	0ffH
	DB	0ffH
	DB	0ffH
	DB	0d7H
	DB	071H
	DB	00H
	DB	0a6H
	DB	0e3H
	DB	0fbH
	DB	0ffH
	DB	0ffH
	DB	0ffH
	DB	0ffH
	DB	0ffH
	DB	0ffH
	DB	0ffH
	DB	0ffH
	DB	0ffH
	DB	0ffH
	DB	0ffH
	DB	0ffH
	DB	0ffH
	DB	0ffH
	DB	0ffH
	DB	0ffH
	DB	0ffH
	DB	0ffH
	DB	0ffH
	DB	0ffH
	DB	0ffH
	DB	0ffH
	DB	0ffH
	DB	0ffH
	DB	0fbH
	DB	0dbH
	DB	08eH
	DB	0efH
	DB	0fbH
	DB	0ffH
	DB	0ffH
	DB	0ffH
	DB	0ffH
	DB	0ffH
	DB	0ffH
	DB	0ffH
	DB	0ffH
	DB	0ffH
	DB	0ffH
	DB	0ffH
	DB	0ffH
	DB	0ffH
	DB	0ffH
	DB	0ffH
	DB	0ffH
	DB	0ffH
	DB	0ffH
	DB	0ffH
	DB	0ffH
	DB	0ffH
	DB	0ffH
	DB	0ffH
	DB	0ffH
	DB	0ffH
	DB	0ffH
	DB	0f7H
	DB	0ebH
	DB	0ffH
	DB	0ffH
	DB	0ffH
	DB	0ffH
	DB	0ffH
	DB	0ffH
	DB	0ffH
	DB	0ffH
	DB	0ffH
	DB	0ffH
	DB	0ffH
	DB	0ffH
	DB	0ffH
	DB	0ffH
	DB	0ffH
	DB	0ffH
	DB	0ffH
	DB	0ffH
	DB	0ffH
	DB	0ffH
	DB	0ffH
	DB	0ffH
	DB	0ffH
	DB	0ffH
	DB	0ffH
	DB	0ffH
	DB	0ffH
	DB	0ffH
	DB	0ffH
	DB	0ffH
	DB	0ffH
	DB	0ffH
	DB	0ffH
	DB	0ffH
	DB	0ffH
	DB	0ffH
	DB	0ffH
	DB	0ffH
	DB	0ffH
	DB	0ffH
	DB	0ffH
	DB	0ffH
	DB	0ffH
	DB	0ffH
	DB	0ffH
	DB	0ffH
	DB	0ffH
	DB	0ffH
	DB	0ffH
	DB	0ffH
	DB	0ffH
	DB	0ffH
	DB	0ffH
	DB	0ffH
	DB	0ffH
	DB	0ffH
	DB	0ffH
	DB	0ffH
	DB	0ffH
	DB	0ffH
	DB	0ffH
	DB	0ffH
	DB	0ffH
	DB	0ffH
	DB	0ffH
	DB	0ffH
	DB	0ffH
	DB	0ffH
	DB	0ffH
	DB	0ffH
	DB	0ffH
	DB	0ffH
	DB	0ffH
	DB	0ffH
	DB	0ffH
	DB	0ffH
	DB	0ffH
	DB	0ffH
	DB	0ffH
	DB	0ffH
	DB	0ffH
	DB	0ffH
	DB	0ffH
	DB	0ffH
	DB	0ffH
	DB	0ffH
	DB	0ffH
	DB	0ffH
	DB	0ffH
	DB	0ffH
	DB	0ffH
	DB	0ffH
	DB	0ffH
	DB	0ffH
	DB	0ffH
	DB	0ffH
	DB	0ffH
	DB	0ffH
	DB	0ffH
	DB	0ffH
	DB	0ffH
	DB	0ffH
	DB	0ffH
	DB	0ffH
	DB	0ffH
	DB	0ffH
	DB	0ffH
	DB	0ffH
	DB	0ffH
	DB	0ffH
	DB	0ffH
	DB	0ffH
	DB	0ffH
	DB	0ffH
	DB	0ffH
	DB	0ffH
	DB	0ffH
	DB	0ffH
	DB	0ffH
	DB	0ffH
	DB	0ffH
	DB	0ffH
	DB	0ffH
	DB	0ffH
	DB	0ffH
	DB	0ffH
	DB	0ffH
	DB	0ffH
	DB	0ffH
	DB	0ffH
	DB	0ffH
	DB	0ffH
	DB	0ffH
	DB	0ffH
	DB	0ffH
	DB	0ffH
	DB	0ffH
	DB	0ffH
	DB	0ffH
	DB	0ffH
	DB	0ffH
	DB	0ffH
	DB	0ffH
	DB	0ffH
	DB	0ffH
	DB	0ffH
	DB	0ffH
	DB	0ffH
	DB	0ffH
	DB	0ffH
	DB	0ffH
	DB	0ffH
	DB	0ffH
	DB	0ffH
	DB	0ffH
	DB	0ffH
	DB	0ffH
	DB	0ffH
	DB	0ffH
	DB	0ffH
	DB	0ffH
	DB	0ffH
	DB	0ffH
	DB	0ffH
	DB	0ffH
	DB	0ffH
	DB	0ffH
	DB	0ffH
	DB	0ffH
	DB	0ffH
	DB	0ffH
	DB	0ffH
	DB	0ffH
	DB	0ffH
	DB	0ffH
	DB	0ffH
	DB	0ffH
	DB	0ffH
	DB	0ffH
	DB	0ffH
	DB	0ffH
	DB	0ffH
	DB	0ffH
	DB	0ffH
	DB	0ffH
	DB	0ffH
	DB	0ffH
	DB	0ffH
	DB	0ffH
	DB	0ffH
	DB	0ffH
	DB	0ffH
	DB	0ffH
	DB	0ffH
	DB	0ffH
	DB	0ffH
	DB	0ffH
	DB	0ffH
	DB	0ffH
	DB	0ffH
	DB	0ffH
	DB	0ffH
	DB	0ffH
	DB	0ffH
	DB	0ffH
	DB	0ffH
	DB	0ffH
	DB	0ffH
	DB	0ffH
	DB	0ffH
	DB	0ffH
	DB	0ffH
	DB	0ffH
	DB	0ffH
	DB	0ffH
	DB	0ffH
	DB	0ffH
	DB	0ffH
	DB	0ffH
	DB	0ffH
	DB	0ffH
	DB	0ffH
	DB	0ffH
	DB	0ffH
	DB	0ffH
	DB	0ffH
	DB	0ffH
	DB	0ffH
	DB	0ffH
	DB	0ffH
	DB	0ffH
	DB	0ffH
	DB	0ffH
	DB	0ffH
	DB	0ffH
	DB	0ffH
	DB	0ffH
	DB	0ffH
	DB	0ffH
	DB	0ffH
	DB	0ffH
	DB	0ffH
	DB	0ffH
	DB	0ffH
	DB	0ffH
	DB	0ffH
	DB	0ffH
	DB	0ffH
	DB	0ffH
	DB	0ffH
	DB	0ffH
	DB	0ffH
	DB	0ffH
	DB	0ffH
	DB	0ffH
	DB	0ffH
	DB	0ffH
	DB	0ffH
	DB	0ffH
	DB	0ffH
	DB	0ffH
	DB	0ffH
	DB	0ffH
	DB	0ffH
	DB	0ffH
	DB	0ffH
	DB	0ffH
	DB	0ffH
	DB	0ffH
	DB	0ffH
	DB	0ffH
	DB	0ffH
	DB	0ffH
	DB	0ffH
	DB	0ffH
	DB	0ffH
	DB	0ffH
	DB	0ffH
	DB	0ffH
	DB	0ffH
	DB	0ffH
	DB	0ffH
	DB	0ffH
	DB	0ffH
	DB	0ffH
	DB	0ffH
	DB	0ffH
	DB	0ffH
	DB	0ffH
	DB	0ffH
	DB	0ffH
	DB	0ffH
	DB	0ffH
	DB	0ffH
	DB	0ffH
	DB	0ffH
	DB	0ffH
	DB	0ffH
	DB	0ffH
	DB	0ffH
	DB	0ffH
	DB	0ffH
	DB	0ffH
	DB	0ffH
	DB	0ffH
	DB	0ffH
	DB	0ffH
	DB	0ffH
	DB	0ffH
	DB	0ffH
	DB	0ffH
	DB	0ffH
	DB	0ffH
	DB	0ffH
	DB	0ffH
	DB	0ffH
	DB	0ffH
	DB	0ffH
	DB	0ffH
	DB	0ffH
	DB	0ffH
	DB	0ffH
	DB	0ffH
	DB	0ffH
	DB	0ffH
	DB	0ffH
	DB	0ffH
	DB	0ffH
	DB	0ffH
	DB	0ffH
	DB	0ffH
	DB	0ffH
	DB	0ffH
	DB	0ffH
	DB	0ffH
	DB	0ffH
	DB	0ffH
	DB	0ffH
	DB	0ffH
	DB	0ffH
	DB	0ffH
	DB	0ffH
	DB	0ffH
	DB	0ffH
	DB	0ffH
	DB	0ffH
	DB	0ffH
	DB	0ffH
	DB	0ffH
	DB	0ffH
	DB	0ffH
	DB	0ffH
	DB	0ffH
	DB	0ffH
	DB	0ffH
	DB	0ffH
	DB	0ffH
	DB	0ffH
	DB	0ffH
	DB	0ffH
	DB	0ffH
	DB	0ffH
	DB	0ffH
	DB	0ffH
	DB	0ffH
	DB	0ffH
	DB	0ffH
	DB	0ffH
	DB	0ffH
	DB	0ffH
	DB	0ffH
	DB	0ffH
	DB	0ffH
	DB	0ffH
	DB	0ffH
	DB	0ffH
	DB	0ffH
	DB	0ffH
	DB	0ffH
	DB	0ffH
	DB	0ffH
	DB	0ffH
	DB	0ffH
	DB	0ffH
	DB	0ffH
	DB	0ffH
	DB	0ffH
	DB	0ffH
	DB	0ffH
	DB	0ffH
	DB	0ffH
	DB	0ffH
	DB	0ffH
	DB	0ffH
	DB	0ffH
	DB	0ffH
	DB	0ffH
	DB	0ffH
	DB	0ffH
	DB	0ffH
	DB	0ffH
	DB	0ffH
	DB	0ffH
	DB	0ffH
	DB	0ffH
	DB	0ffH
	DB	0ffH
	DB	0ffH
	DB	0ffH
	DB	0ffH
	DB	0ffH
	DB	0ffH
	DB	0ffH
	DB	0ffH
	DB	0ffH
	DB	0ffH
	DB	0ffH
	DB	0ffH
	DB	0ffH
	DB	0ffH
	DB	0ffH
	DB	0ffH
	DB	0ffH
	DB	0ffH
	DB	0ffH
	DB	0ffH
	DB	0ffH
	DB	0ffH
	DB	0ffH
	DB	0ffH
	DB	0ffH
	DB	0ffH
	DB	0ffH
	DB	0ffH
	DB	0ffH
	DB	0ffH
	DB	0ffH
	DB	0ffH
	DB	0ffH
	DB	0ffH
	DB	0ffH
	DB	0ffH
	DB	0ffH
	DB	0ffH
	DB	0ffH
	DB	0ffH
	DB	0ffH
	DB	0ffH
	DB	0ffH
	DB	0ffH
	DB	0ffH
	DB	0ffH
	DB	0ffH
	DB	0ffH
	DB	0ffH
	DB	0ffH
	DB	0ffH
	DB	0ffH
	DB	0ffH
	DB	0ffH
	DB	0ffH
	DB	0ffH
	DB	0ffH
	DB	0ffH
	DB	0ffH
	DB	0ffH
	DB	0ffH
	DB	0ffH
	DB	0ffH
	DB	0ffH
	DB	0ffH
	DB	0ffH
	DB	0ffH
	DB	0ffH
	DB	0ffH
	DB	0ffH
	DB	0ffH
	DB	0ffH
	DB	0ffH
	DB	0ffH
	DB	0ffH
	DB	0ffH
	DB	0ffH
	DB	0ffH
	DB	0ffH
	DB	0ffH
	DB	0ffH
	DB	0ffH
	DB	0ffH
	DB	0ffH
	DB	0ffH
	DB	0ffH
	DB	0ffH
	DB	0ffH
	DB	0ffH
	DB	0ffH
	DB	0ffH
	DB	0ffH
	DB	0ffH
	DB	0ffH
	DB	0ffH
	DB	0ffH
	DB	0ffH
	DB	0ffH
	DB	0ffH
	DB	0ffH
	DB	0ffH
	DB	0ffH
	DB	0ffH
	DB	0ffH
	DB	0ffH
	DB	0ffH
	DB	0ffH
	DB	0ffH
	DB	0ffH
	DB	0ffH
	DB	0ffH
	DB	0ffH
	DB	0ffH
	DB	0ffH
	DB	0ffH
	DB	0ffH
	DB	0ffH
	DB	0ffH
	DB	0ffH
	DB	0ffH
	DB	0ffH
	DB	0ffH
	DB	0ffH
	DB	0ffH
	DB	0ffH
	DB	0ffH
	DB	0ffH
	DB	0ffH
	DB	0ffH
	DB	0ffH
	DB	0ffH
	DB	0ffH
	DB	0ffH
	DB	0ffH
	DB	0ffH
	DB	0ffH
	DB	0ffH
	DB	0ffH
	DB	0ffH
	DB	0ffH
	DB	0ffH
	DB	0ffH
	DB	0ffH
	DB	0ffH
	DB	0ffH
	DB	0ffH
	DB	0ffH
	DB	0ffH
	DB	0ffH
	DB	0ffH
	DB	0ffH
	DB	0ffH
	DB	0ffH
	DB	0ffH
	DB	0ffH
	DB	0ffH
	DB	0ffH
	DB	0ffH
	DB	0ffH
	DB	0ffH
	DB	0ffH
	DB	0ffH
	DB	0ffH
	DB	0ffH
	DB	0ffH
	DB	0ffH
	DB	0ffH
	DB	0ffH
	DB	0ffH
	DB	0ffH
	DB	0ffH
	DB	0ffH
	DB	0ffH
	DB	0ffH
	DB	0ffH
	DB	0ffH
	DB	0ffH
	DB	0ffH
	DB	0ffH
	DB	0ffH
	DB	0ffH
	DB	0ffH
	DB	0ffH
	DB	0ffH
	DB	0ffH
	DB	0ffH
	DB	0ffH
	DB	0ffH
	DB	0ffH
	DB	0ffH
	DB	0ffH
	DB	0ffH
	DB	0ffH
	DB	0ffH
	DB	0ffH
	DB	0ffH
	DB	0ffH
	DB	0ffH
	DB	0ffH
	DB	0ffH
	DB	0ffH
	DB	0ffH
	DB	0ffH
	DB	0ffH
	DB	0ffH
	DB	0ffH
	DB	0ffH
	DB	0ffH
	DB	0ffH
	DB	0ffH
	DB	0ffH
	DB	0ffH
	DB	0ffH
	DB	0ffH
	DB	0ffH
	DB	0ffH
	DB	0ffH
	DB	0ffH
	DB	0ffH
	DB	0ffH
	DB	0ffH
	DB	0ffH
	DB	0ffH
	DB	0ffH
	DB	0ffH
	DB	0ffH
	DB	0ffH
	DB	0ffH
	DB	0ffH
	DB	0ffH
	DB	0ffH
	DB	0ffH
	DB	0ffH
	DB	0ffH
	DB	0ffH
	DB	0ffH
	DB	0ffH
	DB	0ffH
	DB	0ffH
	DB	0ffH
	DB	0ffH
	DB	0ffH
	DB	0ffH
	DB	0ffH
	DB	0ffH
	DB	0ffH
	DB	0ffH
	DB	0ffH
	DB	0ffH
	DB	0ffH
	DB	0ffH
	DB	0ffH
	DB	0ffH
	DB	0ffH
	DB	0efH
	DB	0fbH
	DB	0ffH
	DB	0ffH
	DB	0ffH
	DB	0ffH
	DB	0ffH
	DB	0ffH
	DB	0ffH
	DB	0ffH
	DB	0ffH
	DB	0ffH
	DB	0ffH
	DB	0ffH
	DB	0ffH
	DB	0ffH
	DB	0ffH
	DB	0ffH
	DB	0ffH
	DB	0ffH
	DB	0ffH
	DB	0ffH
	DB	0ffH
	DB	0ffH
	DB	0ffH
	DB	0ffH
	DB	0ffH
	DB	0ffH
	DB	0f7H
	DB	0ebH
	DB	0a6H
	DB	0e3H
	DB	0ffH
	DB	0ffH
	DB	0ffH
	DB	0ffH
	DB	0ffH
	DB	0ffH
	DB	0ffH
	DB	0ffH
	DB	0ffH
	DB	0ffH
	DB	0ffH
	DB	0ffH
	DB	0ffH
	DB	0ffH
	DB	0ffH
	DB	0ffH
	DB	0ffH
	DB	0ffH
	DB	0ffH
	DB	0ffH
	DB	0ffH
	DB	0ffH
	DB	0ffH
	DB	0ffH
	DB	0ffH
	DB	0fbH
	DB	0dbH
	DB	092H
	DB	014H
	DB	08aH
	DB	0e3H
	DB	0ffH
	DB	0ffH
	DB	0ffH
	DB	0ffH
	DB	0ffH
	DB	0ffH
	DB	0ffH
	DB	0ffH
	DB	0ffH
	DB	0ffH
	DB	0ffH
	DB	0ffH
	DB	0ffH
	DB	0ffH
	DB	0ffH
	DB	0ffH
	DB	0ffH
	DB	0ffH
	DB	0ffH
	DB	0ffH
	DB	0ffH
	DB	0ffH
	DB	0ffH
	DB	0ffH
	DB	0dbH
	DB	07dH
	DB	0cH
	DB	00H
	DB	08H
	DB	02cH
	DB	069H
	DB	0aaH
	DB	0d7H
	DB	0efH
	DB	0fbH
	DB	0ffH
	DB	0ffH
	DB	0ffH
	DB	0ffH
	DB	0ffH
	DB	0ffH
	DB	0ffH
	DB	0ffH
	DB	0ffH
	DB	0ffH
	DB	0ffH
	DB	0ffH
	DB	0ffH
	DB	0ffH
	DB	0fbH
	DB	0efH
	DB	0d7H
	DB	0a2H
	DB	05dH
	DB	024H
	DB	08H
	DB	00H
CONST	ENDS
END
