; Listing generated by Microsoft (R) Optimizing Compiler Version 19.00.24210.0 

	TITLE	C:\MyFiles\SoftwareTeam\Technologies_Boards\Graphic\TouchGFX\Scope\Project\Oscilloscope\Graphic\generated\images\src\sideslidebutton.cpp
	.686P
	.XMM
	include listing.inc
	.model	flat

INCLUDELIB MSVCRTD
INCLUDELIB OLDNAMES

PUBLIC	?_sideslidebutton@@3QBEB			; _sideslidebutton
PUBLIC	?_sideslidebutton_alpha_channel@@3QBEB		; _sideslidebutton_alpha_channel
CONST	SEGMENT
?_sideslidebutton@@3QBEB DB 05dH			; _sideslidebutton
	DB	0efH
	DB	05dH
	DB	0efH
	DB	05dH
	DB	0efH
	DB	05dH
	DB	0efH
	DB	05dH
	DB	0efH
	DB	05dH
	DB	0efH
	DB	05dH
	DB	0efH
	DB	05dH
	DB	0efH
	DB	05dH
	DB	0efH
	DB	05dH
	DB	0efH
	DB	05dH
	DB	0efH
	DB	05dH
	DB	0efH
	DB	05dH
	DB	0efH
	DB	05dH
	DB	0efH
	DB	05dH
	DB	0efH
	DB	05dH
	DB	0efH
	DB	0abH
	DB	05aH
	DB	0aaH
	DB	052H
	DB	0abH
	DB	05aH
	DB	0abH
	DB	05aH
	DB	0aaH
	DB	052H
	DB	0abH
	DB	05aH
	DB	0abH
	DB	05aH
	DB	0aaH
	DB	052H
	DB	0abH
	DB	05aH
	DB	0abH
	DB	05aH
	DB	0aaH
	DB	052H
	DB	0abH
	DB	05aH
	DB	0aaH
	DB	052H
	DB	05dH
	DB	0efH
	DB	05dH
	DB	0efH
	DB	0aaH
	DB	052H
	DB	0abH
	DB	05aH
	DB	0aaH
	DB	052H
	DB	0aaH
	DB	052H
	DB	0abH
	DB	05aH
	DB	0aaH
	DB	052H
	DB	0aaH
	DB	052H
	DB	0abH
	DB	05aH
	DB	0aaH
	DB	052H
	DB	0aaH
	DB	052H
	DB	0abH
	DB	05aH
	DB	0abH
	DB	05aH
	DB	0aaH
	DB	052H
	DB	05dH
	DB	0efH
	DB	05dH
	DB	0efH
	DB	0abH
	DB	05aH
	DB	0aaH
	DB	052H
	DB	0abH
	DB	05aH
	DB	0aaH
	DB	052H
	DB	0abH
	DB	05aH
	DB	0abH
	DB	05aH
	DB	0aaH
	DB	052H
	DB	0abH
	DB	05aH
	DB	0aaH
	DB	052H
	DB	0aaH
	DB	052H
	DB	0abH
	DB	05aH
	DB	0aaH
	DB	052H
	DB	0abH
	DB	05aH
	DB	05dH
	DB	0efH
	DB	05dH
	DB	0efH
	DB	0abH
	DB	05aH
	DB	0aaH
	DB	052H
	DB	0abH
	DB	05aH
	DB	0abH
	DB	05aH
	DB	0aaH
	DB	052H
	DB	0aaH
	DB	052H
	DB	0abH
	DB	05aH
	DB	0abH
	DB	05aH
	DB	0abH
	DB	05aH
	DB	0aaH
	DB	052H
	DB	0abH
	DB	05aH
	DB	0aaH
	DB	052H
	DB	0abH
	DB	05aH
	DB	05dH
	DB	0efH
	DB	05dH
	DB	0efH
	DB	0aaH
	DB	052H
	DB	0abH
	DB	05aH
	DB	0aaH
	DB	052H
	DB	0aaH
	DB	052H
	DB	0abH
	DB	05aH
	DB	0aaH
	DB	052H
	DB	0aaH
	DB	052H
	DB	0abH
	DB	05aH
	DB	0aaH
	DB	052H
	DB	0abH
	DB	05aH
	DB	0aaH
	DB	052H
	DB	0abH
	DB	05aH
	DB	0aaH
	DB	052H
	DB	05dH
	DB	0efH
	DB	05dH
	DB	0efH
	DB	0abH
	DB	05aH
	DB	0aaH
	DB	052H
	DB	0abH
	DB	05aH
	DB	0abH
	DB	05aH
	DB	0aaH
	DB	052H
	DB	0abH
	DB	05aH
	DB	0abH
	DB	05aH
	DB	0aaH
	DB	052H
	DB	0aaH
	DB	052H
	DB	0abH
	DB	05aH
	DB	0abH
	DB	05aH
	DB	0aaH
	DB	052H
	DB	0abH
	DB	05aH
	DB	05dH
	DB	0efH
	DB	05dH
	DB	0efH
	DB	0abH
	DB	05aH
	DB	0aaH
	DB	052H
	DB	0aaH
	DB	052H
	DB	0abH
	DB	05aH
	DB	0aaH
	DB	052H
	DB	0abH
	DB	05aH
	DB	0aaH
	DB	052H
	DB	0abH
	DB	05aH
	DB	0aaH
	DB	052H
	DB	0aaH
	DB	052H
	DB	0abH
	DB	05aH
	DB	0aaH
	DB	052H
	DB	0aaH
	DB	052H
	DB	05dH
	DB	0efH
	DB	05dH
	DB	0efH
	DB	0aaH
	DB	052H
	DB	0abH
	DB	05aH
	DB	04dH
	DB	06bH
	DB	0efH
	DB	07bH
	DB	0cfH
	DB	07bH
	DB	0cfH
	DB	07bH
	DB	0cfH
	DB	07bH
	DB	0cfH
	DB	07bH
	DB	0cfH
	DB	07bH
	DB	0efH
	DB	07bH
	DB	04dH
	DB	06bH
	DB	0abH
	DB	05aH
	DB	0abH
	DB	05aH
	DB	05dH
	DB	0efH
	DB	05dH
	DB	0efH
	DB	0abH
	DB	05aH
	DB	0cH
	DB	063H
	DB	05dH
	DB	0efH
	DB	05dH
	DB	0efH
	DB	05dH
	DB	0efH
	DB	05dH
	DB	0efH
	DB	05dH
	DB	0efH
	DB	05dH
	DB	0efH
	DB	05dH
	DB	0efH
	DB	05dH
	DB	0efH
	DB	05dH
	DB	0efH
	DB	0cH
	DB	063H
	DB	0aaH
	DB	052H
	DB	05dH
	DB	0efH
	DB	05dH
	DB	0efH
	DB	0aaH
	DB	052H
	DB	0afH
	DB	07bH
	DB	05dH
	DB	0efH
	DB	05dH
	DB	0efH
	DB	05dH
	DB	0efH
	DB	07dH
	DB	0efH
	DB	05dH
	DB	0efH
	DB	05dH
	DB	0efH
	DB	07dH
	DB	0efH
	DB	05dH
	DB	0efH
	DB	05dH
	DB	0efH
	DB	0afH
	DB	07bH
	DB	0abH
	DB	05aH
	DB	05dH
	DB	0efH
	DB	05dH
	DB	0efH
	DB	0abH
	DB	05aH
	DB	0cH
	DB	063H
	DB	07dH
	DB	0efH
	DB	05dH
	DB	0efH
	DB	05dH
	DB	0efH
	DB	07dH
	DB	0efH
	DB	05dH
	DB	0efH
	DB	05dH
	DB	0efH
	DB	07dH
	DB	0efH
	DB	05dH
	DB	0efH
	DB	05dH
	DB	0efH
	DB	0cH
	DB	063H
	DB	0abH
	DB	05aH
	DB	05dH
	DB	0efH
	DB	05dH
	DB	0efH
	DB	0aaH
	DB	052H
	DB	0abH
	DB	05aH
	DB	0ebH
	DB	05aH
	DB	0ecH
	DB	062H
	DB	0ecH
	DB	062H
	DB	0ecH
	DB	062H
	DB	0ecH
	DB	062H
	DB	0ecH
	DB	062H
	DB	0ecH
	DB	062H
	DB	0ecH
	DB	062H
	DB	0ebH
	DB	05aH
	DB	0aaH
	DB	052H
	DB	0abH
	DB	05aH
	DB	05dH
	DB	0efH
	DB	05dH
	DB	0efH
	DB	0abH
	DB	05aH
	DB	0aaH
	DB	052H
	DB	0aaH
	DB	052H
	DB	0abH
	DB	05aH
	DB	0aaH
	DB	052H
	DB	0aaH
	DB	052H
	DB	0abH
	DB	05aH
	DB	0aaH
	DB	052H
	DB	0abH
	DB	05aH
	DB	0abH
	DB	05aH
	DB	0aaH
	DB	052H
	DB	0abH
	DB	05aH
	DB	0aaH
	DB	052H
	DB	05dH
	DB	0efH
	DB	05dH
	DB	0efH
	DB	0abH
	DB	05aH
	DB	0aaH
	DB	052H
	DB	0abH
	DB	05aH
	DB	0abH
	DB	05aH
	DB	0aaH
	DB	052H
	DB	0aaH
	DB	052H
	DB	0abH
	DB	05aH
	DB	0aaH
	DB	052H
	DB	0aaH
	DB	052H
	DB	0aaH
	DB	052H
	DB	0abH
	DB	05aH
	DB	0abH
	DB	05aH
	DB	0aaH
	DB	052H
	DB	05dH
	DB	0efH
	DB	05dH
	DB	0efH
	DB	0aaH
	DB	052H
	DB	0abH
	DB	05aH
	DB	0aaH
	DB	052H
	DB	0abH
	DB	05aH
	DB	0abH
	DB	05aH
	DB	0aaH
	DB	052H
	DB	0abH
	DB	05aH
	DB	0abH
	DB	05aH
	DB	0aaH
	DB	052H
	DB	0abH
	DB	05aH
	DB	0aaH
	DB	052H
	DB	0aaH
	DB	052H
	DB	0abH
	DB	05aH
	DB	05dH
	DB	0efH
	DB	05dH
	DB	0efH
	DB	0abH
	DB	05aH
	DB	02cH
	DB	063H
	DB	05dH
	DB	0efH
	DB	05dH
	DB	0efH
	DB	05dH
	DB	0efH
	DB	05dH
	DB	0efH
	DB	05dH
	DB	0efH
	DB	05dH
	DB	0efH
	DB	05dH
	DB	0efH
	DB	05dH
	DB	0efH
	DB	05dH
	DB	0efH
	DB	02dH
	DB	06bH
	DB	0abH
	DB	05aH
	DB	05dH
	DB	0efH
	DB	05dH
	DB	0efH
	DB	0abH
	DB	05aH
	DB	0afH
	DB	07bH
	DB	05dH
	DB	0efH
	DB	07dH
	DB	0efH
	DB	05dH
	DB	0efH
	DB	05dH
	DB	0efH
	DB	07dH
	DB	0efH
	DB	05dH
	DB	0efH
	DB	07dH
	DB	0efH
	DB	05dH
	DB	0efH
	DB	05dH
	DB	0efH
	DB	0cfH
	DB	07bH
	DB	0aaH
	DB	052H
	DB	05dH
	DB	0efH
	DB	05dH
	DB	0efH
	DB	0aaH
	DB	052H
	DB	02dH
	DB	06bH
	DB	05dH
	DB	0efH
	DB	07dH
	DB	0efH
	DB	05dH
	DB	0efH
	DB	05dH
	DB	0efH
	DB	07dH
	DB	0efH
	DB	05dH
	DB	0efH
	DB	05dH
	DB	0efH
	DB	07dH
	DB	0efH
	DB	05dH
	DB	0efH
	DB	02dH
	DB	06bH
	DB	0aaH
	DB	052H
	DB	05dH
	DB	0efH
	DB	05dH
	DB	0efH
	DB	0aaH
	DB	052H
	DB	0aaH
	DB	052H
	DB	0abH
	DB	05aH
	DB	0abH
	DB	05aH
	DB	0abH
	DB	05aH
	DB	0abH
	DB	05aH
	DB	0abH
	DB	05aH
	DB	0abH
	DB	05aH
	DB	0abH
	DB	05aH
	DB	0abH
	DB	05aH
	DB	0abH
	DB	05aH
	DB	0aaH
	DB	052H
	DB	0abH
	DB	05aH
	DB	05dH
	DB	0efH
	DB	05dH
	DB	0efH
	DB	0abH
	DB	05aH
	DB	0abH
	DB	05aH
	DB	0aaH
	DB	052H
	DB	0aaH
	DB	052H
	DB	0aaH
	DB	052H
	DB	0aaH
	DB	052H
	DB	0abH
	DB	05aH
	DB	0aaH
	DB	052H
	DB	0aaH
	DB	052H
	DB	0abH
	DB	05aH
	DB	0aaH
	DB	052H
	DB	0aaH
	DB	052H
	DB	0abH
	DB	05aH
	DB	05dH
	DB	0efH
	DB	05dH
	DB	0efH
	DB	0abH
	DB	05aH
	DB	0aaH
	DB	052H
	DB	0abH
	DB	05aH
	DB	0abH
	DB	05aH
	DB	0aaH
	DB	052H
	DB	0abH
	DB	05aH
	DB	0aaH
	DB	052H
	DB	0aaH
	DB	052H
	DB	0abH
	DB	05aH
	DB	0aaH
	DB	052H
	DB	0abH
	DB	05aH
	DB	0abH
	DB	05aH
	DB	0aaH
	DB	052H
	DB	05dH
	DB	0efH
	DB	05dH
	DB	0efH
	DB	0aaH
	DB	052H
	DB	0aaH
	DB	052H
	DB	0ebH
	DB	05aH
	DB	0ecH
	DB	062H
	DB	0ecH
	DB	062H
	DB	0ebH
	DB	05aH
	DB	0ecH
	DB	062H
	DB	0ecH
	DB	062H
	DB	0ebH
	DB	05aH
	DB	0ecH
	DB	062H
	DB	0ebH
	DB	05aH
	DB	0aaH
	DB	052H
	DB	0abH
	DB	05aH
	DB	05dH
	DB	0efH
	DB	05dH
	DB	0efH
	DB	0abH
	DB	05aH
	DB	0cH
	DB	063H
	DB	05dH
	DB	0efH
	DB	05dH
	DB	0efH
	DB	05dH
	DB	0efH
	DB	05dH
	DB	0efH
	DB	05dH
	DB	0efH
	DB	05dH
	DB	0efH
	DB	05dH
	DB	0efH
	DB	05dH
	DB	0efH
	DB	05dH
	DB	0efH
	DB	0cH
	DB	063H
	DB	0abH
	DB	05aH
	DB	05dH
	DB	0efH
	DB	05dH
	DB	0efH
	DB	0abH
	DB	05aH
	DB	0afH
	DB	07bH
	DB	05dH
	DB	0efH
	DB	07dH
	DB	0efH
	DB	05dH
	DB	0efH
	DB	07dH
	DB	0efH
	DB	05dH
	DB	0efH
	DB	07dH
	DB	0efH
	DB	05dH
	DB	0efH
	DB	05dH
	DB	0efH
	DB	05dH
	DB	0efH
	DB	0afH
	DB	07bH
	DB	0aaH
	DB	052H
	DB	05dH
	DB	0efH
	DB	05dH
	DB	0efH
	DB	0aaH
	DB	052H
	DB	0cH
	DB	063H
	DB	05dH
	DB	0efH
	DB	05dH
	DB	0efH
	DB	07dH
	DB	0efH
	DB	05dH
	DB	0efH
	DB	05dH
	DB	0efH
	DB	05dH
	DB	0efH
	DB	07dH
	DB	0efH
	DB	07dH
	DB	0efH
	DB	05dH
	DB	0efH
	DB	0cH
	DB	063H
	DB	0abH
	DB	05aH
	DB	05dH
	DB	0efH
	DB	05dH
	DB	0efH
	DB	0aaH
	DB	052H
	DB	0cbH
	DB	05aH
	DB	04dH
	DB	06bH
	DB	0cfH
	DB	07bH
	DB	0cfH
	DB	07bH
	DB	0cfH
	DB	07bH
	DB	0cfH
	DB	07bH
	DB	0cfH
	DB	07bH
	DB	0cfH
	DB	07bH
	DB	0efH
	DB	07bH
	DB	04dH
	DB	06bH
	DB	0abH
	DB	05aH
	DB	0aaH
	DB	052H
	DB	05dH
	DB	0efH
	DB	05dH
	DB	0efH
	DB	0abH
	DB	05aH
	DB	0aaH
	DB	052H
	DB	0abH
	DB	05aH
	DB	0abH
	DB	05aH
	DB	0abH
	DB	05aH
	DB	0abH
	DB	05aH
	DB	0abH
	DB	05aH
	DB	0abH
	DB	05aH
	DB	0abH
	DB	05aH
	DB	0abH
	DB	05aH
	DB	0aaH
	DB	052H
	DB	0abH
	DB	05aH
	DB	0aaH
	DB	052H
	DB	05dH
	DB	0efH
	DB	05dH
	DB	0efH
	DB	0abH
	DB	05aH
	DB	0aaH
	DB	052H
	DB	0aaH
	DB	052H
	DB	0aaH
	DB	052H
	DB	0aaH
	DB	052H
	DB	0aaH
	DB	052H
	DB	0aaH
	DB	052H
	DB	0aaH
	DB	052H
	DB	0abH
	DB	05aH
	DB	0aaH
	DB	052H
	DB	0abH
	DB	05aH
	DB	0aaH
	DB	052H
	DB	0abH
	DB	05aH
	DB	05dH
	DB	0efH
	DB	05dH
	DB	0efH
	DB	0abH
	DB	05aH
	DB	0abH
	DB	05aH
	DB	0aaH
	DB	052H
	DB	0abH
	DB	05aH
	DB	0abH
	DB	05aH
	DB	0abH
	DB	05aH
	DB	0aaH
	DB	052H
	DB	0abH
	DB	05aH
	DB	0aaH
	DB	052H
	DB	0aaH
	DB	052H
	DB	0abH
	DB	05aH
	DB	0abH
	DB	05aH
	DB	0aaH
	DB	052H
	DB	05dH
	DB	0efH
	DB	05dH
	DB	0efH
	DB	0aaH
	DB	052H
	DB	0abH
	DB	05aH
	DB	0aaH
	DB	052H
	DB	0abH
	DB	05aH
	DB	0abH
	DB	05aH
	DB	0aaH
	DB	052H
	DB	0abH
	DB	05aH
	DB	0abH
	DB	05aH
	DB	0aaH
	DB	052H
	DB	0abH
	DB	05aH
	DB	0aaH
	DB	052H
	DB	0abH
	DB	05aH
	DB	0aaH
	DB	052H
	DB	05dH
	DB	0efH
	DB	05dH
	DB	0efH
	DB	0aaH
	DB	052H
	DB	0abH
	DB	05aH
	DB	0aaH
	DB	052H
	DB	0aaH
	DB	052H
	DB	0aaH
	DB	052H
	DB	0aaH
	DB	052H
	DB	0abH
	DB	05aH
	DB	0aaH
	DB	052H
	DB	0abH
	DB	05aH
	DB	0aaH
	DB	052H
	DB	0abH
	DB	05aH
	DB	0aaH
	DB	052H
	DB	0abH
	DB	05aH
	DB	05dH
	DB	0efH
	DB	05dH
	DB	0efH
	DB	0abH
	DB	05aH
	DB	0abH
	DB	05aH
	DB	0aaH
	DB	052H
	DB	0abH
	DB	05aH
	DB	0abH
	DB	05aH
	DB	0aaH
	DB	052H
	DB	0abH
	DB	05aH
	DB	0aaH
	DB	052H
	DB	0aaH
	DB	052H
	DB	0abH
	DB	05aH
	DB	0aaH
	DB	052H
	DB	0abH
	DB	05aH
	DB	0aaH
	DB	052H
	DB	05dH
	DB	0efH
	DB	05dH
	DB	0efH
	DB	0aaH
	DB	052H
	DB	0abH
	DB	05aH
	DB	0aaH
	DB	052H
	DB	0abH
	DB	05aH
	DB	0abH
	DB	05aH
	DB	0aaH
	DB	052H
	DB	0abH
	DB	05aH
	DB	0abH
	DB	05aH
	DB	0aaH
	DB	052H
	DB	0abH
	DB	05aH
	DB	0abH
	DB	05aH
	DB	0aaH
	DB	052H
	DB	0abH
	DB	05aH
	DB	05dH
	DB	0efH
	DB	05dH
	DB	0efH
	DB	05dH
	DB	0efH
	DB	05dH
	DB	0efH
	DB	05dH
	DB	0efH
	DB	05dH
	DB	0efH
	DB	05dH
	DB	0efH
	DB	05dH
	DB	0efH
	DB	05dH
	DB	0efH
	DB	05dH
	DB	0efH
	DB	05dH
	DB	0efH
	DB	05dH
	DB	0efH
	DB	05dH
	DB	0efH
	DB	05dH
	DB	0efH
	DB	05dH
	DB	0efH
	DB	05dH
	DB	0efH
	ORG $+6
?_sideslidebutton_alpha_channel@@3QBEB DB 0ffH		; _sideslidebutton_alpha_channel
	DB	0ffH
	DB	0ffH
	DB	0ffH
	DB	0ffH
	DB	0ffH
	DB	0ffH
	DB	0ffH
	DB	0ffH
	DB	0ffH
	DB	0ffH
	DB	0ffH
	DB	0ffH
	DB	0ffH
	DB	0ffH
	DB	0ffH
	DB	0ffH
	DB	0ffH
	DB	0ffH
	DB	0ffH
	DB	0ffH
	DB	0ffH
	DB	0ffH
	DB	0ffH
	DB	0ffH
	DB	0ffH
	DB	0ffH
	DB	0ffH
	DB	0ffH
	DB	0ffH
	DB	0ffH
	DB	0ffH
	DB	0ffH
	DB	0ffH
	DB	0ffH
	DB	0ffH
	DB	0ffH
	DB	0ffH
	DB	0ffH
	DB	0ffH
	DB	0ffH
	DB	0ffH
	DB	0ffH
	DB	0ffH
	DB	0ffH
	DB	0ffH
	DB	0ffH
	DB	0ffH
	DB	0ffH
	DB	0ffH
	DB	0ffH
	DB	0ffH
	DB	0ffH
	DB	0ffH
	DB	0ffH
	DB	0ffH
	DB	0ffH
	DB	0ffH
	DB	0ffH
	DB	0ffH
	DB	0ffH
	DB	0ffH
	DB	0ffH
	DB	0ffH
	DB	0ffH
	DB	0ffH
	DB	0ffH
	DB	0ffH
	DB	0ffH
	DB	0ffH
	DB	0ffH
	DB	0ffH
	DB	0ffH
	DB	0ffH
	DB	0ffH
	DB	0ffH
	DB	0ffH
	DB	0ffH
	DB	0ffH
	DB	0ffH
	DB	0ffH
	DB	0ffH
	DB	0ffH
	DB	0ffH
	DB	0ffH
	DB	0ffH
	DB	0ffH
	DB	0ffH
	DB	0ffH
	DB	0ffH
	DB	0ffH
	DB	0ffH
	DB	0ffH
	DB	0ffH
	DB	0ffH
	DB	0ffH
	DB	0ffH
	DB	0ffH
	DB	0ffH
	DB	0ffH
	DB	0ffH
	DB	0ffH
	DB	0ffH
	DB	0ffH
	DB	0ffH
	DB	0ffH
	DB	0ffH
	DB	0ffH
	DB	0ffH
	DB	0ffH
	DB	0ffH
	DB	0ffH
	DB	0ffH
	DB	0ffH
	DB	0ffH
	DB	0ffH
	DB	0ffH
	DB	0ffH
	DB	0ffH
	DB	0ffH
	DB	0ffH
	DB	0ffH
	DB	0ffH
	DB	0f3H
	DB	0efH
	DB	0efH
	DB	0efH
	DB	0efH
	DB	0efH
	DB	0efH
	DB	0efH
	DB	0f3H
	DB	0ffH
	DB	0ffH
	DB	0ffH
	DB	0ffH
	DB	0ffH
	DB	0f7H
	DB	0ffH
	DB	0ffH
	DB	0ffH
	DB	0ffH
	DB	0ffH
	DB	0ffH
	DB	0ffH
	DB	0ffH
	DB	0ffH
	DB	0f7H
	DB	0ffH
	DB	0ffH
	DB	0ffH
	DB	0ffH
	DB	0efH
	DB	0ffH
	DB	0ffH
	DB	0ffH
	DB	0ffH
	DB	0ffH
	DB	0ffH
	DB	0ffH
	DB	0ffH
	DB	0ffH
	DB	0efH
	DB	0ffH
	DB	0ffH
	DB	0ffH
	DB	0ffH
	DB	0f7H
	DB	0ffH
	DB	0ffH
	DB	0ffH
	DB	0ffH
	DB	0ffH
	DB	0ffH
	DB	0ffH
	DB	0ffH
	DB	0ffH
	DB	0f7H
	DB	0ffH
	DB	0ffH
	DB	0ffH
	DB	0ffH
	DB	0ffH
	DB	0fbH
	DB	0f7H
	DB	0f7H
	DB	0f7H
	DB	0f7H
	DB	0fbH
	DB	0f7H
	DB	0f7H
	DB	0fbH
	DB	0ffH
	DB	0ffH
	DB	0ffH
	DB	0ffH
	DB	0ffH
	DB	0ffH
	DB	0ffH
	DB	0ffH
	DB	0ffH
	DB	0ffH
	DB	0ffH
	DB	0ffH
	DB	0ffH
	DB	0ffH
	DB	0ffH
	DB	0ffH
	DB	0ffH
	DB	0ffH
	DB	0ffH
	DB	0ffH
	DB	0ffH
	DB	0ffH
	DB	0ffH
	DB	0ffH
	DB	0ffH
	DB	0ffH
	DB	0ffH
	DB	0ffH
	DB	0ffH
	DB	0ffH
	DB	0ffH
	DB	0ffH
	DB	0ffH
	DB	0ffH
	DB	0ffH
	DB	0ffH
	DB	0ffH
	DB	0ffH
	DB	0ffH
	DB	0ffH
	DB	0ffH
	DB	0ffH
	DB	0ffH
	DB	0ffH
	DB	0ffH
	DB	0ffH
	DB	0ffH
	DB	0ffH
	DB	0ffH
	DB	0ffH
	DB	0f3H
	DB	0ffH
	DB	0ffH
	DB	0ffH
	DB	0ffH
	DB	0ffH
	DB	0ffH
	DB	0ffH
	DB	0ffH
	DB	0ffH
	DB	0f7H
	DB	0ffH
	DB	0ffH
	DB	0ffH
	DB	0ffH
	DB	0efH
	DB	0ffH
	DB	0ffH
	DB	0ffH
	DB	0ffH
	DB	0ffH
	DB	0ffH
	DB	0ffH
	DB	0ffH
	DB	0ffH
	DB	0efH
	DB	0ffH
	DB	0ffH
	DB	0ffH
	DB	0ffH
	DB	0f7H
	DB	0ffH
	DB	0ffH
	DB	0ffH
	DB	0ffH
	DB	0ffH
	DB	0ffH
	DB	0ffH
	DB	0ffH
	DB	0ffH
	DB	0f3H
	DB	0ffH
	DB	0ffH
	DB	0ffH
	DB	0ffH
	DB	0ffH
	DB	0ffH
	DB	0ffH
	DB	0ffH
	DB	0ffH
	DB	0ffH
	DB	0ffH
	DB	0ffH
	DB	0ffH
	DB	0ffH
	DB	0ffH
	DB	0ffH
	DB	0ffH
	DB	0ffH
	DB	0ffH
	DB	0ffH
	DB	0ffH
	DB	0ffH
	DB	0ffH
	DB	0ffH
	DB	0ffH
	DB	0ffH
	DB	0ffH
	DB	0ffH
	DB	0ffH
	DB	0ffH
	DB	0ffH
	DB	0ffH
	DB	0ffH
	DB	0ffH
	DB	0ffH
	DB	0ffH
	DB	0ffH
	DB	0ffH
	DB	0ffH
	DB	0ffH
	DB	0ffH
	DB	0ffH
	DB	0ffH
	DB	0ffH
	DB	0ffH
	DB	0ffH
	DB	0ffH
	DB	0ffH
	DB	0ffH
	DB	0ffH
	DB	0fbH
	DB	0f7H
	DB	0fbH
	DB	0f7H
	DB	0fbH
	DB	0fbH
	DB	0f7H
	DB	0fbH
	DB	0fbH
	DB	0ffH
	DB	0ffH
	DB	0ffH
	DB	0ffH
	DB	0ffH
	DB	0f7H
	DB	0ffH
	DB	0ffH
	DB	0ffH
	DB	0ffH
	DB	0ffH
	DB	0ffH
	DB	0ffH
	DB	0ffH
	DB	0ffH
	DB	0f7H
	DB	0ffH
	DB	0ffH
	DB	0ffH
	DB	0ffH
	DB	0efH
	DB	0ffH
	DB	0ffH
	DB	0ffH
	DB	0ffH
	DB	0ffH
	DB	0ffH
	DB	0ffH
	DB	0ffH
	DB	0ffH
	DB	0efH
	DB	0ffH
	DB	0ffH
	DB	0ffH
	DB	0ffH
	DB	0f7H
	DB	0ffH
	DB	0ffH
	DB	0ffH
	DB	0ffH
	DB	0ffH
	DB	0ffH
	DB	0ffH
	DB	0ffH
	DB	0ffH
	DB	0f7H
	DB	0ffH
	DB	0ffH
	DB	0ffH
	DB	0ffH
	DB	0ffH
	DB	0f3H
	DB	0efH
	DB	0efH
	DB	0efH
	DB	0efH
	DB	0efH
	DB	0efH
	DB	0efH
	DB	0f3H
	DB	0ffH
	DB	0ffH
	DB	0ffH
	DB	0ffH
	DB	0ffH
	DB	0ffH
	DB	0ffH
	DB	0ffH
	DB	0ffH
	DB	0ffH
	DB	0ffH
	DB	0ffH
	DB	0ffH
	DB	0ffH
	DB	0ffH
	DB	0ffH
	DB	0ffH
	DB	0ffH
	DB	0ffH
	DB	0ffH
	DB	0ffH
	DB	0ffH
	DB	0ffH
	DB	0ffH
	DB	0ffH
	DB	0ffH
	DB	0ffH
	DB	0ffH
	DB	0ffH
	DB	0ffH
	DB	0ffH
	DB	0ffH
	DB	0ffH
	DB	0ffH
	DB	0ffH
	DB	0ffH
	DB	0ffH
	DB	0ffH
	DB	0ffH
	DB	0ffH
	DB	0ffH
	DB	0ffH
	DB	0ffH
	DB	0ffH
	DB	0ffH
	DB	0ffH
	DB	0ffH
	DB	0ffH
	DB	0ffH
	DB	0ffH
	DB	0ffH
	DB	0ffH
	DB	0ffH
	DB	0ffH
	DB	0ffH
	DB	0ffH
	DB	0ffH
	DB	0ffH
	DB	0ffH
	DB	0ffH
	DB	0ffH
	DB	0ffH
	DB	0ffH
	DB	0ffH
	DB	0ffH
	DB	0ffH
	DB	0ffH
	DB	0ffH
	DB	0ffH
	DB	0ffH
	DB	0ffH
	DB	0ffH
	DB	0ffH
	DB	0ffH
	DB	0ffH
	DB	0ffH
	DB	0ffH
	DB	0ffH
	DB	0ffH
	DB	0ffH
	DB	0ffH
	DB	0ffH
	DB	0ffH
	DB	0ffH
	DB	0ffH
	DB	0ffH
	DB	0ffH
	DB	0ffH
	DB	0ffH
	DB	0ffH
	DB	0ffH
	DB	0ffH
	DB	0ffH
	DB	0ffH
	DB	0ffH
	DB	0ffH
	DB	0ffH
	DB	0ffH
	DB	0ffH
	DB	0ffH
	DB	0ffH
	DB	0ffH
	DB	0ffH
	DB	0ffH
	DB	0ffH
	DB	0ffH
	DB	0ffH
	DB	0ffH
	DB	0ffH
	DB	0ffH
	DB	0ffH
	DB	0ffH
	DB	0ffH
	DB	0ffH
	DB	0ffH
	DB	0ffH
	DB	0ffH
	DB	0ffH
	DB	0ffH
	DB	0ffH
	DB	0ffH
	DB	0ffH
	DB	0ffH
CONST	ENDS
END
