; Listing generated by Microsoft (R) Optimizing Compiler Version 19.00.24210.0 

	TITLE	C:\MyFiles\SoftwareTeam\Technologies_Boards\Graphic\TouchGFX\Scope\Project\Oscilloscope\Graphic\generated\images\src\up_press_1.cpp
	.686P
	.XMM
	include listing.inc
	.model	flat

INCLUDELIB MSVCRTD
INCLUDELIB OLDNAMES

PUBLIC	?_up_press_1@@3QBEB				; _up_press_1
PUBLIC	?_up_press_1_alpha_channel@@3QBEB		; _up_press_1_alpha_channel
CONST	SEGMENT
?_up_press_1@@3QBEB DB 00H				; _up_press_1
	DB	00H
	DB	0ffH
	DB	0ffH
	DB	0efH
	DB	0ffH
	DB	0e6H
	DB	0ffH
	DB	0e4H
	DB	0ffH
	DB	0e5H
	DB	0ffH
	DB	0e5H
	DB	0ffH
	DB	0e5H
	DB	0ffH
	DB	0e5H
	DB	0ffH
	DB	0e5H
	DB	0ffH
	DB	0e5H
	DB	0ffH
	DB	0e5H
	DB	0ffH
	DB	0e5H
	DB	0ffH
	DB	0e5H
	DB	0ffH
	DB	0e5H
	DB	0ffH
	DB	0e5H
	DB	0ffH
	DB	0e5H
	DB	0ffH
	DB	0e5H
	DB	0ffH
	DB	0e5H
	DB	0ffH
	DB	0e5H
	DB	0ffH
	DB	0e5H
	DB	0ffH
	DB	0e5H
	DB	0ffH
	DB	0e5H
	DB	0ffH
	DB	0e5H
	DB	0ffH
	DB	0e5H
	DB	0ffH
	DB	0e4H
	DB	0ffH
	DB	0e6H
	DB	0ffH
	DB	0efH
	DB	0ffH
	DB	0ffH
	DB	0ffH
	DB	00H
	DB	00H
	DB	0ffH
	DB	0ffH
	DB	0edH
	DB	0ffH
	DB	0e8H
	DB	0ffH
	DB	0e6H
	DB	0ffH
	DB	0e5H
	DB	0ffH
	DB	0e5H
	DB	0ffH
	DB	0e5H
	DB	0ffH
	DB	0e5H
	DB	0ffH
	DB	0e5H
	DB	0ffH
	DB	0e5H
	DB	0ffH
	DB	0e5H
	DB	0ffH
	DB	0e5H
	DB	0ffH
	DB	0e5H
	DB	0ffH
	DB	0e5H
	DB	0ffH
	DB	0e5H
	DB	0ffH
	DB	0e5H
	DB	0ffH
	DB	0e5H
	DB	0ffH
	DB	0e5H
	DB	0ffH
	DB	0e5H
	DB	0ffH
	DB	0e5H
	DB	0ffH
	DB	0e5H
	DB	0ffH
	DB	0e5H
	DB	0ffH
	DB	0e5H
	DB	0ffH
	DB	0e5H
	DB	0ffH
	DB	0e5H
	DB	0ffH
	DB	0e5H
	DB	0ffH
	DB	0e6H
	DB	0ffH
	DB	0e8H
	DB	0ffH
	DB	0edH
	DB	0ffH
	DB	0ffH
	DB	0ffH
	DB	0f5H
	DB	0ffH
	DB	0e9H
	DB	0ffH
	DB	0e5H
	DB	0ffH
	DB	0e5H
	DB	0ffH
	DB	0e6H
	DB	0ffH
	DB	0e5H
	DB	0ffH
	DB	0e5H
	DB	0ffH
	DB	0e5H
	DB	0ffH
	DB	0e5H
	DB	0ffH
	DB	0e5H
	DB	0ffH
	DB	0e5H
	DB	0ffH
	DB	0e5H
	DB	0ffH
	DB	0e5H
	DB	0ffH
	DB	0e5H
	DB	0ffH
	DB	0e5H
	DB	0ffH
	DB	0e5H
	DB	0ffH
	DB	0e5H
	DB	0ffH
	DB	0e5H
	DB	0ffH
	DB	0e5H
	DB	0ffH
	DB	0e5H
	DB	0ffH
	DB	0e5H
	DB	0ffH
	DB	0e5H
	DB	0ffH
	DB	0e5H
	DB	0ffH
	DB	0e5H
	DB	0ffH
	DB	0e5H
	DB	0ffH
	DB	0e6H
	DB	0ffH
	DB	0e5H
	DB	0ffH
	DB	0e5H
	DB	0ffH
	DB	0e9H
	DB	0ffH
	DB	0f5H
	DB	0ffH
	DB	0f1H
	DB	0ffH
	DB	0e7H
	DB	0ffH
	DB	0e6H
	DB	0ffH
	DB	0a7H
	DB	0ffH
	DB	087H
	DB	0ffH
	DB	087H
	DB	0ffH
	DB	0a7H
	DB	0ffH
	DB	087H
	DB	0ffH
	DB	087H
	DB	0ffH
	DB	0a7H
	DB	0ffH
	DB	087H
	DB	0ffH
	DB	087H
	DB	0ffH
	DB	0a7H
	DB	0ffH
	DB	087H
	DB	0ffH
	DB	087H
	DB	0ffH
	DB	0a7H
	DB	0ffH
	DB	087H
	DB	0ffH
	DB	087H
	DB	0ffH
	DB	0a7H
	DB	0ffH
	DB	087H
	DB	0ffH
	DB	087H
	DB	0ffH
	DB	0a7H
	DB	0ffH
	DB	087H
	DB	0ffH
	DB	087H
	DB	0ffH
	DB	0a7H
	DB	0ffH
	DB	087H
	DB	0ffH
	DB	0a7H
	DB	0ffH
	DB	0e6H
	DB	0ffH
	DB	0e7H
	DB	0ffH
	DB	0f0H
	DB	0ffH
	DB	0eeH
	DB	0ffH
	DB	0e6H
	DB	0ffH
	DB	088H
	DB	0ffH
	DB	04bH
	DB	0feH
	DB	04bH
	DB	0feH
	DB	04bH
	DB	0feH
	DB	04bH
	DB	0feH
	DB	04bH
	DB	0feH
	DB	04bH
	DB	0feH
	DB	04bH
	DB	0feH
	DB	04bH
	DB	0feH
	DB	04bH
	DB	0feH
	DB	04bH
	DB	0feH
	DB	04bH
	DB	0feH
	DB	04bH
	DB	0feH
	DB	04bH
	DB	0feH
	DB	04bH
	DB	0feH
	DB	04bH
	DB	0feH
	DB	04bH
	DB	0feH
	DB	04bH
	DB	0feH
	DB	04bH
	DB	0feH
	DB	04bH
	DB	0feH
	DB	04bH
	DB	0feH
	DB	04bH
	DB	0feH
	DB	04bH
	DB	0feH
	DB	04bH
	DB	0feH
	DB	04bH
	DB	0feH
	DB	088H
	DB	0ffH
	DB	0e7H
	DB	0ffH
	DB	0edH
	DB	0ffH
	DB	0e9H
	DB	0ffH
	DB	0e7H
	DB	0ffH
	DB	0abH
	DB	0feH
	DB	0eeH
	DB	0fcH
	DB	0eeH
	DB	0fcH
	DB	0eeH
	DB	0fcH
	DB	0ceH
	DB	0fcH
	DB	0eeH
	DB	0fcH
	DB	0eeH
	DB	0fcH
	DB	0ceH
	DB	0fcH
	DB	0eeH
	DB	0fcH
	DB	0eeH
	DB	0fcH
	DB	0ceH
	DB	0fcH
	DB	0eeH
	DB	0fcH
	DB	0eeH
	DB	0fcH
	DB	0ceH
	DB	0fcH
	DB	0eeH
	DB	0fcH
	DB	0eeH
	DB	0fcH
	DB	0ceH
	DB	0fcH
	DB	0eeH
	DB	0fcH
	DB	0eeH
	DB	0fcH
	DB	0ceH
	DB	0fcH
	DB	0eeH
	DB	0fcH
	DB	0eeH
	DB	0fcH
	DB	0ceH
	DB	0fcH
	DB	0eeH
	DB	0fcH
	DB	0eeH
	DB	0fcH
	DB	0caH
	DB	0feH
	DB	0e7H
	DB	0ffH
	DB	0e9H
	DB	0ffH
	DB	0e3H
	DB	0ffH
	DB	0e7H
	DB	0ffH
	DB	0adH
	DB	0fdH
	DB	02eH
	DB	0fdH
	DB	02eH
	DB	0fdH
	DB	02eH
	DB	0fdH
	DB	02eH
	DB	0fdH
	DB	02eH
	DB	0fdH
	DB	02eH
	DB	0fdH
	DB	02eH
	DB	0fdH
	DB	02eH
	DB	0fdH
	DB	02eH
	DB	0fdH
	DB	02eH
	DB	0fdH
	DB	02eH
	DB	0fdH
	DB	0fH
	DB	0fdH
	DB	0fH
	DB	0fdH
	DB	02eH
	DB	0fdH
	DB	02eH
	DB	0fdH
	DB	02eH
	DB	0fdH
	DB	02eH
	DB	0fdH
	DB	02eH
	DB	0fdH
	DB	02eH
	DB	0fdH
	DB	02eH
	DB	0fdH
	DB	02eH
	DB	0fdH
	DB	02eH
	DB	0fdH
	DB	02eH
	DB	0fdH
	DB	02eH
	DB	0fdH
	DB	0cdH
	DB	0fdH
	DB	0e7H
	DB	0ffH
	DB	0e4H
	DB	0ffH
	DB	0e0H
	DB	0ffH
	DB	0e4H
	DB	0ffH
	DB	0aeH
	DB	0fdH
	DB	04fH
	DB	0fdH
	DB	04fH
	DB	0fdH
	DB	04fH
	DB	0fdH
	DB	04fH
	DB	0fdH
	DB	04fH
	DB	0fdH
	DB	04fH
	DB	0fdH
	DB	04fH
	DB	0fdH
	DB	04fH
	DB	0fdH
	DB	04fH
	DB	0fdH
	DB	02fH
	DB	0fdH
	DB	0b0H
	DB	0fdH
	DB	087H
	DB	0ffH
	DB	087H
	DB	0ffH
	DB	0d0H
	DB	0fdH
	DB	02fH
	DB	0fdH
	DB	04fH
	DB	0fdH
	DB	04fH
	DB	0fdH
	DB	04fH
	DB	0fdH
	DB	04fH
	DB	0fdH
	DB	04fH
	DB	0fdH
	DB	04fH
	DB	0fdH
	DB	04fH
	DB	0fdH
	DB	04fH
	DB	0fdH
	DB	04fH
	DB	0fdH
	DB	0aeH
	DB	0fdH
	DB	0e4H
	DB	0ffH
	DB	0e0H
	DB	0ffH
	DB	0e0H
	DB	0ffH
	DB	0e1H
	DB	0ffH
	DB	0adH
	DB	0fdH
	DB	06fH
	DB	0fdH
	DB	06fH
	DB	0fdH
	DB	06fH
	DB	0fdH
	DB	06fH
	DB	0fdH
	DB	06fH
	DB	0fdH
	DB	06fH
	DB	0fdH
	DB	06fH
	DB	0fdH
	DB	06fH
	DB	0fdH
	DB	030H
	DB	0fdH
	DB	08cH
	DB	0feH
	DB	02cH
	DB	0ffH
	DB	0e4H
	DB	0ffH
	DB	0e5H
	DB	0ffH
	DB	049H
	DB	0ffH
	DB	08cH
	DB	0feH
	DB	030H
	DB	0fdH
	DB	06fH
	DB	0fdH
	DB	06fH
	DB	0fdH
	DB	06fH
	DB	0fdH
	DB	06fH
	DB	0fdH
	DB	06fH
	DB	0fdH
	DB	06fH
	DB	0fdH
	DB	06fH
	DB	0fdH
	DB	06fH
	DB	0fdH
	DB	0aeH
	DB	0fdH
	DB	0e1H
	DB	0ffH
	DB	0e0H
	DB	0ffH
	DB	0e0H
	DB	0ffH
	DB	0e0H
	DB	0ffH
	DB	04aH
	DB	0fdH
	DB	06fH
	DB	0fdH
	DB	090H
	DB	0fdH
	DB	06fH
	DB	0fdH
	DB	06fH
	DB	0fdH
	DB	06fH
	DB	0fdH
	DB	06fH
	DB	0fdH
	DB	070H
	DB	0fdH
	DB	050H
	DB	0fdH
	DB	06cH
	DB	0feH
	DB	0c8H
	DB	0ffH
	DB	0e7H
	DB	0ffH
	DB	0e5H
	DB	0ffH
	DB	0e5H
	DB	0ffH
	DB	0e5H
	DB	0ffH
	DB	0c8H
	DB	0ffH
	DB	06bH
	DB	0feH
	DB	051H
	DB	0fdH
	DB	06fH
	DB	0fdH
	DB	06fH
	DB	0fdH
	DB	06fH
	DB	0fdH
	DB	06fH
	DB	0fdH
	DB	08fH
	DB	0fdH
	DB	070H
	DB	0fdH
	DB	090H
	DB	0fdH
	DB	06cH
	DB	0fdH
	DB	0e0H
	DB	0ffH
	DB	0e0H
	DB	0ffH
	DB	0e0H
	DB	0ffH
	DB	0e0H
	DB	0ffH
	DB	0c8H
	DB	0fcH
	DB	04eH
	DB	0fdH
	DB	090H
	DB	0fdH
	DB	090H
	DB	0fdH
	DB	090H
	DB	0fdH
	DB	090H
	DB	0fdH
	DB	090H
	DB	0fdH
	DB	0b0H
	DB	0fdH
	DB	0fH
	DB	0feH
	DB	0e6H
	DB	0ffH
	DB	0e5H
	DB	0ffH
	DB	0e5H
	DB	0ffH
	DB	0e5H
	DB	0ffH
	DB	0e5H
	DB	0ffH
	DB	0e5H
	DB	0ffH
	DB	0e5H
	DB	0ffH
	DB	0e4H
	DB	0ffH
	DB	0fH
	DB	0feH
	DB	0b0H
	DB	0fdH
	DB	090H
	DB	0fdH
	DB	090H
	DB	0fdH
	DB	090H
	DB	0fdH
	DB	090H
	DB	0fdH
	DB	090H
	DB	0fdH
	DB	090H
	DB	0fdH
	DB	08H
	DB	0fdH
	DB	0e0H
	DB	0ffH
	DB	0e0H
	DB	0ffH
	DB	0e0H
	DB	0ffH
	DB	0e0H
	DB	0ffH
	DB	0a6H
	DB	0fcH
	DB	0cbH
	DB	0fcH
	DB	090H
	DB	0fdH
	DB	0b1H
	DB	0fdH
	DB	0b1H
	DB	0fdH
	DB	091H
	DB	0fdH
	DB	0b0H
	DB	0fdH
	DB	04fH
	DB	0feH
	DB	0e6H
	DB	0ffH
	DB	0e5H
	DB	0ffH
	DB	0e5H
	DB	0ffH
	DB	0e6H
	DB	0ffH
	DB	0e6H
	DB	0ffH
	DB	0e6H
	DB	0ffH
	DB	0e5H
	DB	0ffH
	DB	0e5H
	DB	0ffH
	DB	0e6H
	DB	0ffH
	DB	0e5H
	DB	0ffH
	DB	08eH
	DB	0feH
	DB	0b0H
	DB	0fdH
	DB	0b1H
	DB	0fdH
	DB	0b1H
	DB	0fdH
	DB	090H
	DB	0fdH
	DB	04fH
	DB	0fdH
	DB	0dH
	DB	0fdH
	DB	0c7H
	DB	0fcH
	DB	0e0H
	DB	0ffH
	DB	0e0H
	DB	0ffH
	DB	0e0H
	DB	0ffH
	DB	0e0H
	DB	0ffH
	DB	0a7H
	DB	0fcH
	DB	049H
	DB	0fcH
	DB	0dH
	DB	0fdH
	DB	04fH
	DB	0fdH
	DB	06fH
	DB	0fdH
	DB	070H
	DB	0fdH
	DB	0ccH
	DB	0feH
	DB	0e6H
	DB	0ffH
	DB	0e5H
	DB	0ffH
	DB	0e5H
	DB	0ffH
	DB	0e5H
	DB	0ffH
	DB	0e5H
	DB	0ffH
	DB	0e7H
	DB	0ffH
	DB	0a8H
	DB	0ffH
	DB	0e5H
	DB	0ffH
	DB	0e5H
	DB	0ffH
	DB	0e5H
	DB	0ffH
	DB	0e5H
	DB	0ffH
	DB	0e6H
	DB	0ffH
	DB	0ccH
	DB	0feH
	DB	04fH
	DB	0fdH
	DB	04fH
	DB	0fdH
	DB	0eH
	DB	0fdH
	DB	0cbH
	DB	0fcH
	DB	069H
	DB	0fcH
	DB	0a7H
	DB	0fcH
	DB	0e0H
	DB	0ffH
	DB	0e0H
	DB	0ffH
	DB	0e0H
	DB	0ffH
	DB	0e0H
	DB	0ffH
	DB	0a7H
	DB	0fcH
	DB	048H
	DB	0fcH
	DB	048H
	DB	0fcH
	DB	069H
	DB	0fcH
	DB	08bH
	DB	0fcH
	DB	06cH
	DB	0feH
	DB	0caH
	DB	0ffH
	DB	0e5H
	DB	0ffH
	DB	0e5H
	DB	0ffH
	DB	0e6H
	DB	0ffH
	DB	0e5H
	DB	0ffH
	DB	04aH
	DB	0ffH
	DB	0eH
	DB	0feH
	DB	0efH
	DB	0fdH
	DB	02bH
	DB	0ffH
	DB	0e5H
	DB	0ffH
	DB	0e5H
	DB	0ffH
	DB	0e6H
	DB	0ffH
	DB	0e5H
	DB	0ffH
	DB	0c7H
	DB	0ffH
	DB	06cH
	DB	0feH
	DB	049H
	DB	0fcH
	DB	048H
	DB	0fcH
	DB	048H
	DB	0fcH
	DB	028H
	DB	0fcH
	DB	0a7H
	DB	0fcH
	DB	0e0H
	DB	0ffH
	DB	0e0H
	DB	0ffH
	DB	0e0H
	DB	0ffH
	DB	0e0H
	DB	0ffH
	DB	0a7H
	DB	0fcH
	DB	048H
	DB	0fcH
	DB	027H
	DB	0fcH
	DB	08H
	DB	0fcH
	DB	0cbH
	DB	0fdH
	DB	087H
	DB	0ffH
	DB	0e7H
	DB	0ffH
	DB	0e5H
	DB	0ffH
	DB	0e5H
	DB	0ffH
	DB	0e5H
	DB	0ffH
	DB	0c9H
	DB	0fdH
	DB	029H
	DB	0fdH
	DB	08bH
	DB	0fcH
	DB	08bH
	DB	0fcH
	DB	02aH
	DB	0fdH
	DB	0c8H
	DB	0fdH
	DB	0e7H
	DB	0ffH
	DB	0e5H
	DB	0ffH
	DB	0e5H
	DB	0ffH
	DB	0e5H
	DB	0ffH
	DB	087H
	DB	0ffH
	DB	0aaH
	DB	0fdH
	DB	08H
	DB	0fcH
	DB	027H
	DB	0fcH
	DB	047H
	DB	0fcH
	DB	0a7H
	DB	0fcH
	DB	0e0H
	DB	0ffH
	DB	0e0H
	DB	0ffH
	DB	0e0H
	DB	0ffH
	DB	0e0H
	DB	0ffH
	DB	0a7H
	DB	0fcH
	DB	027H
	DB	0fcH
	DB	029H
	DB	0fcH
	DB	0e7H
	DB	0fdH
	DB	069H
	DB	0ffH
	DB	0e5H
	DB	0ffH
	DB	0e5H
	DB	0ffH
	DB	0e5H
	DB	0ffH
	DB	0a8H
	DB	0ffH
	DB	0a6H
	DB	0feH
	DB	02aH
	DB	0fcH
	DB	08H
	DB	0fcH
	DB	027H
	DB	0fcH
	DB	027H
	DB	0fcH
	DB	08H
	DB	0fcH
	DB	09H
	DB	0fcH
	DB	069H
	DB	0feH
	DB	0a8H
	DB	0ffH
	DB	0e5H
	DB	0ffH
	DB	0e5H
	DB	0ffH
	DB	0e5H
	DB	0ffH
	DB	089H
	DB	0ffH
	DB	0e8H
	DB	0fdH
	DB	029H
	DB	0fcH
	DB	027H
	DB	0fcH
	DB	0a7H
	DB	0fcH
	DB	0e0H
	DB	0ffH
	DB	0e0H
	DB	0ffH
	DB	0e0H
	DB	0ffH
	DB	0e0H
	DB	0ffH
	DB	0a7H
	DB	0fcH
	DB	049H
	DB	0fcH
	DB	029H
	DB	0fdH
	DB	0e5H
	DB	0ffH
	DB	0e5H
	DB	0ffH
	DB	0e5H
	DB	0ffH
	DB	0e5H
	DB	0ffH
	DB	0c7H
	DB	0ffH
	DB	04bH
	DB	0feH
	DB	08H
	DB	0fcH
	DB	028H
	DB	0fcH
	DB	028H
	DB	0fcH
	DB	048H
	DB	0fcH
	DB	048H
	DB	0fcH
	DB	028H
	DB	0fcH
	DB	047H
	DB	0fcH
	DB	08H
	DB	0fcH
	DB	02aH
	DB	0feH
	DB	0a7H
	DB	0ffH
	DB	0e5H
	DB	0ffH
	DB	0e6H
	DB	0ffH
	DB	0e5H
	DB	0ffH
	DB	0e6H
	DB	0ffH
	DB	02aH
	DB	0fdH
	DB	049H
	DB	0fcH
	DB	0a7H
	DB	0fcH
	DB	0e0H
	DB	0ffH
	DB	0e0H
	DB	0ffH
	DB	0e0H
	DB	0ffH
	DB	0e0H
	DB	0ffH
	DB	0c6H
	DB	0fcH
	DB	02eH
	DB	0fdH
	DB	0e5H
	DB	0ffH
	DB	0e5H
	DB	0ffH
	DB	0e5H
	DB	0ffH
	DB	0e5H
	DB	0ffH
	DB	0e6H
	DB	0ffH
	DB	02bH
	DB	0feH
	DB	07H
	DB	0fcH
	DB	028H
	DB	0fcH
	DB	048H
	DB	0fcH
	DB	028H
	DB	0fcH
	DB	028H
	DB	0fcH
	DB	048H
	DB	0fcH
	DB	028H
	DB	0fcH
	DB	028H
	DB	0fcH
	DB	048H
	DB	0fcH
	DB	07H
	DB	0fcH
	DB	0ecH
	DB	0fdH
	DB	0e6H
	DB	0ffH
	DB	0e5H
	DB	0ffH
	DB	0e5H
	DB	0ffH
	DB	0e6H
	DB	0ffH
	DB	0e5H
	DB	0ffH
	DB	02eH
	DB	0fdH
	DB	0c6H
	DB	0fcH
	DB	0e0H
	DB	0ffH
	DB	0e0H
	DB	0ffH
	DB	0e0H
	DB	0ffH
	DB	0e0H
	DB	0ffH
	DB	0a5H
	DB	0feH
	DB	0c6H
	DB	0ffH
	DB	0e5H
	DB	0ffH
	DB	0e5H
	DB	0ffH
	DB	0e6H
	DB	0ffH
	DB	0e5H
	DB	0ffH
	DB	02eH
	DB	0fdH
	DB	048H
	DB	0fcH
	DB	028H
	DB	0fcH
	DB	048H
	DB	0fcH
	DB	047H
	DB	0fcH
	DB	027H
	DB	0fcH
	DB	048H
	DB	0fcH
	DB	047H
	DB	0fcH
	DB	028H
	DB	0fcH
	DB	048H
	DB	0fcH
	DB	028H
	DB	0fcH
	DB	048H
	DB	0fcH
	DB	048H
	DB	0fcH
	DB	0edH
	DB	0fcH
	DB	0e5H
	DB	0ffH
	DB	0e5H
	DB	0ffH
	DB	0e5H
	DB	0ffH
	DB	0e6H
	DB	0ffH
	DB	0e6H
	DB	0ffH
	DB	0a5H
	DB	0feH
	DB	0e0H
	DB	0ffH
	DB	0e0H
	DB	0ffH
	DB	0e0H
	DB	0ffH
	DB	0e0H
	DB	0ffH
	DB	0e5H
	DB	0feH
	DB	0e5H
	DB	0ffH
	DB	0e5H
	DB	0ffH
	DB	0e5H
	DB	0ffH
	DB	0e6H
	DB	0ffH
	DB	029H
	DB	0fdH
	DB	049H
	DB	0fcH
	DB	027H
	DB	0fcH
	DB	048H
	DB	0fcH
	DB	028H
	DB	0fcH
	DB	028H
	DB	0fcH
	DB	048H
	DB	0fcH
	DB	028H
	DB	0fcH
	DB	027H
	DB	0fcH
	DB	048H
	DB	0fcH
	DB	048H
	DB	0fcH
	DB	027H
	DB	0fcH
	DB	028H
	DB	0fcH
	DB	028H
	DB	0fcH
	DB	049H
	DB	0fcH
	DB	029H
	DB	0fdH
	DB	0e8H
	DB	0ffH
	DB	0e5H
	DB	0ffH
	DB	0e5H
	DB	0ffH
	DB	0e5H
	DB	0ffH
	DB	0e5H
	DB	0feH
	DB	0e0H
	DB	0ffH
	DB	0e0H
	DB	0ffH
	DB	0e0H
	DB	0ffH
	DB	0e0H
	DB	0ffH
	DB	086H
	DB	0fdH
	DB	068H
	DB	0ffH
	DB	0e6H
	DB	0ffH
	DB	069H
	DB	0ffH
	DB	0c8H
	DB	0fdH
	DB	029H
	DB	0fcH
	DB	027H
	DB	0fcH
	DB	048H
	DB	0fcH
	DB	028H
	DB	0fcH
	DB	048H
	DB	0fcH
	DB	047H
	DB	0fcH
	DB	028H
	DB	0fcH
	DB	048H
	DB	0fcH
	DB	028H
	DB	0fcH
	DB	028H
	DB	0fcH
	DB	047H
	DB	0fcH
	DB	048H
	DB	0fcH
	DB	028H
	DB	0fcH
	DB	047H
	DB	0fcH
	DB	027H
	DB	0fcH
	DB	029H
	DB	0fcH
	DB	0a8H
	DB	0fdH
	DB	0bH
	DB	0ffH
	DB	0e5H
	DB	0ffH
	DB	068H
	DB	0ffH
	DB	087H
	DB	0fdH
	DB	0e0H
	DB	0ffH
	DB	0e0H
	DB	0ffH
	DB	0e0H
	DB	0ffH
	DB	0e0H
	DB	0ffH
	DB	087H
	DB	0fcH
	DB	089H
	DB	0fdH
	DB	086H
	DB	0feH
	DB	0aaH
	DB	0fdH
	DB	08H
	DB	0fcH
	DB	028H
	DB	0fcH
	DB	028H
	DB	0fcH
	DB	048H
	DB	0fcH
	DB	028H
	DB	0fcH
	DB	027H
	DB	0fcH
	DB	048H
	DB	0fcH
	DB	048H
	DB	0fcH
	DB	027H
	DB	0fcH
	DB	048H
	DB	0fcH
	DB	028H
	DB	0fcH
	DB	048H
	DB	0fcH
	DB	028H
	DB	0fcH
	DB	048H
	DB	0fcH
	DB	048H
	DB	0fcH
	DB	028H
	DB	0fcH
	DB	028H
	DB	0fcH
	DB	08H
	DB	0fcH
	DB	02cH
	DB	0fdH
	DB	086H
	DB	0feH
	DB	0aaH
	DB	0fdH
	DB	087H
	DB	0fcH
	DB	0e0H
	DB	0ffH
	DB	0e0H
	DB	0ffH
	DB	0e0H
	DB	0ffH
	DB	0e0H
	DB	0ffH
	DB	0a7H
	DB	0fcH
	DB	08H
	DB	0fcH
	DB	0e8H
	DB	0fbH
	DB	07H
	DB	0fcH
	DB	028H
	DB	0fcH
	DB	048H
	DB	0fcH
	DB	048H
	DB	0fcH
	DB	028H
	DB	0fcH
	DB	047H
	DB	0fcH
	DB	028H
	DB	0fcH
	DB	028H
	DB	0fcH
	DB	048H
	DB	0fcH
	DB	028H
	DB	0fcH
	DB	047H
	DB	0fcH
	DB	048H
	DB	0fcH
	DB	027H
	DB	0fcH
	DB	028H
	DB	0fcH
	DB	047H
	DB	0fcH
	DB	028H
	DB	0fcH
	DB	048H
	DB	0fcH
	DB	028H
	DB	0fcH
	DB	048H
	DB	0fcH
	DB	07H
	DB	0fcH
	DB	08H
	DB	0fcH
	DB	07H
	DB	0fcH
	DB	0c7H
	DB	0fcH
	DB	0e0H
	DB	0ffH
	DB	0e1H
	DB	0ffH
	DB	0e2H
	DB	0ffH
	DB	0e0H
	DB	0ffH
	DB	06H
	DB	0fdH
	DB	028H
	DB	0fcH
	DB	028H
	DB	0fcH
	DB	028H
	DB	0fcH
	DB	028H
	DB	0fcH
	DB	028H
	DB	0fcH
	DB	027H
	DB	0fcH
	DB	028H
	DB	0fcH
	DB	028H
	DB	0fcH
	DB	028H
	DB	0fcH
	DB	027H
	DB	0fcH
	DB	028H
	DB	0fcH
	DB	028H
	DB	0fcH
	DB	028H
	DB	0fcH
	DB	028H
	DB	0fcH
	DB	028H
	DB	0fcH
	DB	027H
	DB	0fcH
	DB	028H
	DB	0fcH
	DB	028H
	DB	0fcH
	DB	027H
	DB	0fcH
	DB	027H
	DB	0fcH
	DB	028H
	DB	0fcH
	DB	028H
	DB	0fcH
	DB	028H
	DB	0fcH
	DB	028H
	DB	0fcH
	DB	026H
	DB	0fdH
	DB	0e0H
	DB	0ffH
	DB	0e3H
	DB	0ffH
	DB	0e5H
	DB	0ffH
	DB	0e0H
	DB	0ffH
	DB	063H
	DB	0feH
	DB	08H
	DB	0fcH
	DB	0e8H
	DB	0fbH
	DB	0e8H
	DB	0fbH
	DB	0e8H
	DB	0fbH
	DB	0e8H
	DB	0fbH
	DB	0e8H
	DB	0fbH
	DB	0e8H
	DB	0fbH
	DB	0e8H
	DB	0fbH
	DB	0e8H
	DB	0fbH
	DB	0e8H
	DB	0fbH
	DB	0e8H
	DB	0fbH
	DB	0e8H
	DB	0fbH
	DB	0e8H
	DB	0fbH
	DB	0e8H
	DB	0fbH
	DB	0e8H
	DB	0fbH
	DB	0e8H
	DB	0fbH
	DB	0e8H
	DB	0fbH
	DB	0e8H
	DB	0fbH
	DB	0e8H
	DB	0fbH
	DB	0e8H
	DB	0fbH
	DB	0e8H
	DB	0fbH
	DB	0e8H
	DB	0fbH
	DB	0e8H
	DB	0fbH
	DB	08H
	DB	0fcH
	DB	083H
	DB	0feH
	DB	0e0H
	DB	0ffH
	DB	0e7H
	DB	0ffH
	DB	0e8H
	DB	0ffH
	DB	0e0H
	DB	0ffH
	DB	061H
	DB	0ffH
	DB	0e4H
	DB	0fdH
	DB	0c5H
	DB	0fdH
	DB	0c5H
	DB	0fdH
	DB	0c5H
	DB	0fdH
	DB	0c4H
	DB	0fdH
	DB	0c5H
	DB	0fdH
	DB	0c5H
	DB	0fdH
	DB	0c4H
	DB	0fdH
	DB	0c5H
	DB	0fdH
	DB	0c5H
	DB	0fdH
	DB	0c4H
	DB	0fdH
	DB	0c5H
	DB	0fdH
	DB	0c4H
	DB	0fdH
	DB	0c5H
	DB	0fdH
	DB	0c5H
	DB	0fdH
	DB	0c5H
	DB	0fdH
	DB	0c5H
	DB	0fdH
	DB	0c5H
	DB	0fdH
	DB	0c5H
	DB	0fdH
	DB	0c5H
	DB	0fdH
	DB	0c5H
	DB	0fdH
	DB	0c4H
	DB	0fdH
	DB	0c5H
	DB	0fdH
	DB	0e4H
	DB	0fdH
	DB	081H
	DB	0ffH
	DB	0e0H
	DB	0ffH
	DB	0e9H
	DB	0ffH
	DB	0ebH
	DB	0ffH
	DB	0e1H
	DB	0ffH
	DB	0e0H
	DB	0ffH
	DB	081H
	DB	0ffH
	DB	081H
	DB	0ffH
	DB	081H
	DB	0ffH
	DB	081H
	DB	0ffH
	DB	081H
	DB	0ffH
	DB	081H
	DB	0ffH
	DB	081H
	DB	0ffH
	DB	081H
	DB	0ffH
	DB	081H
	DB	0ffH
	DB	081H
	DB	0ffH
	DB	081H
	DB	0ffH
	DB	081H
	DB	0ffH
	DB	081H
	DB	0ffH
	DB	081H
	DB	0ffH
	DB	081H
	DB	0ffH
	DB	081H
	DB	0ffH
	DB	081H
	DB	0ffH
	DB	081H
	DB	0ffH
	DB	081H
	DB	0ffH
	DB	081H
	DB	0ffH
	DB	081H
	DB	0ffH
	DB	081H
	DB	0ffH
	DB	081H
	DB	0ffH
	DB	081H
	DB	0ffH
	DB	0e0H
	DB	0ffH
	DB	0e1H
	DB	0ffH
	DB	0eaH
	DB	0ffH
	DB	0f0H
	DB	0ffH
	DB	0e3H
	DB	0ffH
	DB	0e0H
	DB	0ffH
	DB	0e0H
	DB	0ffH
	DB	0e0H
	DB	0ffH
	DB	0e0H
	DB	0ffH
	DB	0e0H
	DB	0ffH
	DB	0e0H
	DB	0ffH
	DB	0e0H
	DB	0ffH
	DB	0e0H
	DB	0ffH
	DB	0e0H
	DB	0ffH
	DB	0e0H
	DB	0ffH
	DB	0e0H
	DB	0ffH
	DB	0e0H
	DB	0ffH
	DB	0e0H
	DB	0ffH
	DB	0e0H
	DB	0ffH
	DB	0e0H
	DB	0ffH
	DB	0e0H
	DB	0ffH
	DB	0e0H
	DB	0ffH
	DB	0e0H
	DB	0ffH
	DB	0e0H
	DB	0ffH
	DB	0e0H
	DB	0ffH
	DB	0e0H
	DB	0ffH
	DB	0e0H
	DB	0ffH
	DB	0e0H
	DB	0ffH
	DB	0e0H
	DB	0ffH
	DB	0e0H
	DB	0ffH
	DB	0e0H
	DB	0ffH
	DB	0e4H
	DB	0ffH
	DB	0efH
	DB	0ffH
	DB	0ffH
	DB	0ffH
	DB	0e9H
	DB	0ffH
	DB	0e3H
	DB	0ffH
	DB	0e1H
	DB	0ffH
	DB	0e0H
	DB	0ffH
	DB	0e0H
	DB	0ffH
	DB	0e0H
	DB	0ffH
	DB	0e0H
	DB	0ffH
	DB	0e0H
	DB	0ffH
	DB	0e0H
	DB	0ffH
	DB	0e0H
	DB	0ffH
	DB	0e0H
	DB	0ffH
	DB	0e0H
	DB	0ffH
	DB	0e0H
	DB	0ffH
	DB	0e0H
	DB	0ffH
	DB	0e0H
	DB	0ffH
	DB	0e0H
	DB	0ffH
	DB	0e0H
	DB	0ffH
	DB	0e0H
	DB	0ffH
	DB	0e0H
	DB	0ffH
	DB	0e0H
	DB	0ffH
	DB	0e0H
	DB	0ffH
	DB	0e0H
	DB	0ffH
	DB	0e0H
	DB	0ffH
	DB	0e0H
	DB	0ffH
	DB	0e0H
	DB	0ffH
	DB	0e1H
	DB	0ffH
	DB	0e3H
	DB	0ffH
	DB	0e8H
	DB	0ffH
	DB	0ffH
	DB	0ffH
	DB	00H
	DB	00H
	DB	0ffH
	DB	0ffH
	DB	0edH
	DB	0ffH
	DB	0e3H
	DB	0ffH
	DB	0e0H
	DB	0ffH
	DB	0e0H
	DB	0ffH
	DB	0e0H
	DB	0ffH
	DB	0e0H
	DB	0ffH
	DB	0e0H
	DB	0ffH
	DB	0e0H
	DB	0ffH
	DB	0e0H
	DB	0ffH
	DB	0e0H
	DB	0ffH
	DB	0e0H
	DB	0ffH
	DB	0e0H
	DB	0ffH
	DB	0e0H
	DB	0ffH
	DB	0e0H
	DB	0ffH
	DB	0e0H
	DB	0ffH
	DB	0e0H
	DB	0ffH
	DB	0e0H
	DB	0ffH
	DB	0e0H
	DB	0ffH
	DB	0e0H
	DB	0ffH
	DB	0e0H
	DB	0ffH
	DB	0e0H
	DB	0ffH
	DB	0e0H
	DB	0ffH
	DB	0e0H
	DB	0ffH
	DB	0e0H
	DB	0ffH
	DB	0e2H
	DB	0ffH
	DB	0eeH
	DB	0ffH
	DB	0ffH
	DB	0ffH
	DB	00H
	DB	00H
?_up_press_1_alpha_channel@@3QBEB DB 00H		; _up_press_1_alpha_channel
	DB	014H
	DB	0a6H
	DB	0efH
	DB	0ffH
	DB	0ffH
	DB	0ffH
	DB	0ffH
	DB	0ffH
	DB	0ffH
	DB	0ffH
	DB	0ffH
	DB	0ffH
	DB	0ffH
	DB	0ffH
	DB	0ffH
	DB	0ffH
	DB	0ffH
	DB	0ffH
	DB	0ffH
	DB	0ffH
	DB	0ffH
	DB	0ffH
	DB	0ffH
	DB	0ffH
	DB	0ffH
	DB	0efH
	DB	0a6H
	DB	0cH
	DB	00H
	DB	08H
	DB	08aH
	DB	0e3H
	DB	0fbH
	DB	0ffH
	DB	0ffH
	DB	0ffH
	DB	0ffH
	DB	0ffH
	DB	0ffH
	DB	0ffH
	DB	0ffH
	DB	0ffH
	DB	0ffH
	DB	0ffH
	DB	0ffH
	DB	0ffH
	DB	0ffH
	DB	0ffH
	DB	0ffH
	DB	0ffH
	DB	0ffH
	DB	0ffH
	DB	0ffH
	DB	0ffH
	DB	0ffH
	DB	0fbH
	DB	0e3H
	DB	082H
	DB	08H
	DB	030H
	DB	0e3H
	DB	0ffH
	DB	0ffH
	DB	0ffH
	DB	0ffH
	DB	0ffH
	DB	0ffH
	DB	0ffH
	DB	0ffH
	DB	0ffH
	DB	0ffH
	DB	0ffH
	DB	0ffH
	DB	0ffH
	DB	0ffH
	DB	0ffH
	DB	0ffH
	DB	0ffH
	DB	0ffH
	DB	0ffH
	DB	0ffH
	DB	0ffH
	DB	0ffH
	DB	0ffH
	DB	0ffH
	DB	0ffH
	DB	0ffH
	DB	0dbH
	DB	024H
	DB	069H
	DB	0ffH
	DB	0ffH
	DB	0ffH
	DB	0ffH
	DB	0ffH
	DB	0ffH
	DB	0ffH
	DB	0ffH
	DB	0ffH
	DB	0ffH
	DB	0ffH
	DB	0ffH
	DB	0ffH
	DB	0ffH
	DB	0ffH
	DB	0ffH
	DB	0ffH
	DB	0ffH
	DB	0ffH
	DB	0ffH
	DB	0ffH
	DB	0ffH
	DB	0ffH
	DB	0ffH
	DB	0ffH
	DB	0ffH
	DB	0ffH
	DB	0ffH
	DB	059H
	DB	0aaH
	DB	0ffH
	DB	0ffH
	DB	0ffH
	DB	0ffH
	DB	0ffH
	DB	0ffH
	DB	0ffH
	DB	0ffH
	DB	0ffH
	DB	0ffH
	DB	0ffH
	DB	0ffH
	DB	0ffH
	DB	0ffH
	DB	0ffH
	DB	0ffH
	DB	0ffH
	DB	0ffH
	DB	0ffH
	DB	0ffH
	DB	0ffH
	DB	0ffH
	DB	0ffH
	DB	0ffH
	DB	0ffH
	DB	0ffH
	DB	0ffH
	DB	0ffH
	DB	09aH
	DB	0d7H
	DB	0ffH
	DB	0ffH
	DB	0ffH
	DB	0ffH
	DB	0ffH
	DB	0ffH
	DB	0ffH
	DB	0ffH
	DB	0ffH
	DB	0ffH
	DB	0ffH
	DB	0ffH
	DB	0ffH
	DB	0ffH
	DB	0ffH
	DB	0ffH
	DB	0ffH
	DB	0ffH
	DB	0ffH
	DB	0ffH
	DB	0ffH
	DB	0ffH
	DB	0ffH
	DB	0ffH
	DB	0ffH
	DB	0ffH
	DB	0ffH
	DB	0ffH
	DB	0cfH
	DB	0efH
	DB	0ffH
	DB	0ffH
	DB	0ffH
	DB	0ffH
	DB	0ffH
	DB	0ffH
	DB	0ffH
	DB	0ffH
	DB	0ffH
	DB	0ffH
	DB	0ffH
	DB	0ffH
	DB	0ffH
	DB	0ffH
	DB	0ffH
	DB	0ffH
	DB	0ffH
	DB	0ffH
	DB	0ffH
	DB	0ffH
	DB	0ffH
	DB	0ffH
	DB	0ffH
	DB	0ffH
	DB	0ffH
	DB	0ffH
	DB	0ffH
	DB	0ffH
	DB	0ebH
	DB	0fbH
	DB	0ffH
	DB	0ffH
	DB	0ffH
	DB	0ffH
	DB	0ffH
	DB	0ffH
	DB	0ffH
	DB	0ffH
	DB	0ffH
	DB	0ffH
	DB	0ffH
	DB	0ffH
	DB	0ffH
	DB	0ffH
	DB	0ffH
	DB	0ffH
	DB	0ffH
	DB	0ffH
	DB	0ffH
	DB	0ffH
	DB	0ffH
	DB	0ffH
	DB	0ffH
	DB	0ffH
	DB	0ffH
	DB	0ffH
	DB	0ffH
	DB	0ffH
	DB	0fbH
	DB	0ffH
	DB	0ffH
	DB	0ffH
	DB	0ffH
	DB	0ffH
	DB	0ffH
	DB	0ffH
	DB	0ffH
	DB	0ffH
	DB	0ffH
	DB	0ffH
	DB	0ffH
	DB	0ffH
	DB	0ffH
	DB	0ffH
	DB	0ffH
	DB	0ffH
	DB	0ffH
	DB	0ffH
	DB	0ffH
	DB	0ffH
	DB	0ffH
	DB	0ffH
	DB	0ffH
	DB	0ffH
	DB	0ffH
	DB	0ffH
	DB	0ffH
	DB	0ffH
	DB	0ffH
	DB	0ffH
	DB	0ffH
	DB	0ffH
	DB	0ffH
	DB	0ffH
	DB	0ffH
	DB	0ffH
	DB	0ffH
	DB	0ffH
	DB	0ffH
	DB	0ffH
	DB	0ffH
	DB	0ffH
	DB	0ffH
	DB	0ffH
	DB	0ffH
	DB	0ffH
	DB	0ffH
	DB	0ffH
	DB	0ffH
	DB	0ffH
	DB	0ffH
	DB	0ffH
	DB	0ffH
	DB	0ffH
	DB	0ffH
	DB	0ffH
	DB	0ffH
	DB	0ffH
	DB	0ffH
	DB	0ffH
	DB	0ffH
	DB	0ffH
	DB	0ffH
	DB	0ffH
	DB	0ffH
	DB	0ffH
	DB	0ffH
	DB	0ffH
	DB	0ffH
	DB	0ffH
	DB	0ffH
	DB	0ffH
	DB	0ffH
	DB	0ffH
	DB	0ffH
	DB	0ffH
	DB	0ffH
	DB	0ffH
	DB	0ffH
	DB	0ffH
	DB	0ffH
	DB	0ffH
	DB	0ffH
	DB	0ffH
	DB	0ffH
	DB	0ffH
	DB	0ffH
	DB	0ffH
	DB	0ffH
	DB	0ffH
	DB	0ffH
	DB	0ffH
	DB	0ffH
	DB	0ffH
	DB	0ffH
	DB	0ffH
	DB	0ffH
	DB	0ffH
	DB	0ffH
	DB	0ffH
	DB	0ffH
	DB	0ffH
	DB	0ffH
	DB	0ffH
	DB	0ffH
	DB	0ffH
	DB	0ffH
	DB	0ffH
	DB	0ffH
	DB	0ffH
	DB	0ffH
	DB	0ffH
	DB	0ffH
	DB	0ffH
	DB	0ffH
	DB	0ffH
	DB	0ffH
	DB	0ffH
	DB	0ffH
	DB	0ffH
	DB	0ffH
	DB	0ffH
	DB	0ffH
	DB	0ffH
	DB	0ffH
	DB	0ffH
	DB	0ffH
	DB	0ffH
	DB	0ffH
	DB	0ffH
	DB	0ffH
	DB	0ffH
	DB	0ffH
	DB	0ffH
	DB	0ffH
	DB	0ffH
	DB	0ffH
	DB	0ffH
	DB	0ffH
	DB	0ffH
	DB	0ffH
	DB	0ffH
	DB	0ffH
	DB	0ffH
	DB	0ffH
	DB	0ffH
	DB	0ffH
	DB	0ffH
	DB	0ffH
	DB	0ffH
	DB	0ffH
	DB	0ffH
	DB	0ffH
	DB	0ffH
	DB	0ffH
	DB	0ffH
	DB	0ffH
	DB	0ffH
	DB	0ffH
	DB	0ffH
	DB	0ffH
	DB	0ffH
	DB	0ffH
	DB	0ffH
	DB	0ffH
	DB	0ffH
	DB	0ffH
	DB	0ffH
	DB	0ffH
	DB	0ffH
	DB	0ffH
	DB	0ffH
	DB	0ffH
	DB	0ffH
	DB	0ffH
	DB	0ffH
	DB	0ffH
	DB	0ffH
	DB	0ffH
	DB	0ffH
	DB	0ffH
	DB	0ffH
	DB	0ffH
	DB	0ffH
	DB	0ffH
	DB	0ffH
	DB	0ffH
	DB	0ffH
	DB	0ffH
	DB	0ffH
	DB	0ffH
	DB	0ffH
	DB	0ffH
	DB	0ffH
	DB	0ffH
	DB	0ffH
	DB	0ffH
	DB	0ffH
	DB	0ffH
	DB	0ffH
	DB	0ffH
	DB	0ffH
	DB	0ffH
	DB	0ffH
	DB	0ffH
	DB	0ffH
	DB	0ffH
	DB	0ffH
	DB	0ffH
	DB	0ffH
	DB	0ffH
	DB	0ffH
	DB	0ffH
	DB	0ffH
	DB	0ffH
	DB	0ffH
	DB	0ffH
	DB	0ffH
	DB	0ffH
	DB	0ffH
	DB	0ffH
	DB	0ffH
	DB	0ffH
	DB	0ffH
	DB	0ffH
	DB	0ffH
	DB	0ffH
	DB	0ffH
	DB	0ffH
	DB	0ffH
	DB	0ffH
	DB	0ffH
	DB	0ffH
	DB	0ffH
	DB	0ffH
	DB	0ffH
	DB	0ffH
	DB	0ffH
	DB	0ffH
	DB	0ffH
	DB	0ffH
	DB	0ffH
	DB	0ffH
	DB	0ffH
	DB	0ffH
	DB	0ffH
	DB	0ffH
	DB	0ffH
	DB	0ffH
	DB	0ffH
	DB	0ffH
	DB	0ffH
	DB	0ffH
	DB	0ffH
	DB	0ffH
	DB	0ffH
	DB	0ffH
	DB	0ffH
	DB	0ffH
	DB	0ffH
	DB	0ffH
	DB	0ffH
	DB	0ffH
	DB	0ffH
	DB	0ffH
	DB	0ffH
	DB	0ffH
	DB	0ffH
	DB	0ffH
	DB	0ffH
	DB	0ffH
	DB	0ffH
	DB	0ffH
	DB	0ffH
	DB	0ffH
	DB	0ffH
	DB	0ffH
	DB	0ffH
	DB	0ffH
	DB	0ffH
	DB	0ffH
	DB	0ffH
	DB	0ffH
	DB	0ffH
	DB	0ffH
	DB	0ffH
	DB	0ffH
	DB	0ffH
	DB	0ffH
	DB	0ffH
	DB	0ffH
	DB	0ffH
	DB	0ffH
	DB	0ffH
	DB	0ffH
	DB	0ffH
	DB	0ffH
	DB	0ffH
	DB	0ffH
	DB	0ffH
	DB	0ffH
	DB	0ffH
	DB	0ffH
	DB	0ffH
	DB	0ffH
	DB	0ffH
	DB	0ffH
	DB	0ffH
	DB	0ffH
	DB	0ffH
	DB	0ffH
	DB	0ffH
	DB	0ffH
	DB	0ffH
	DB	0ffH
	DB	0ffH
	DB	0ffH
	DB	0ffH
	DB	0ffH
	DB	0ffH
	DB	0ffH
	DB	0ffH
	DB	0ffH
	DB	0ffH
	DB	0ffH
	DB	0ffH
	DB	0ffH
	DB	0ffH
	DB	0ffH
	DB	0ffH
	DB	0ffH
	DB	0ffH
	DB	0ffH
	DB	0ffH
	DB	0ffH
	DB	0ffH
	DB	0ffH
	DB	0ffH
	DB	0ffH
	DB	0ffH
	DB	0ffH
	DB	0ffH
	DB	0ffH
	DB	0ffH
	DB	0ffH
	DB	0ffH
	DB	0ffH
	DB	0ffH
	DB	0ffH
	DB	0ffH
	DB	0ffH
	DB	0ffH
	DB	0ffH
	DB	0ffH
	DB	0ffH
	DB	0ffH
	DB	0ffH
	DB	0ffH
	DB	0ffH
	DB	0ffH
	DB	0ffH
	DB	0ffH
	DB	0ffH
	DB	0ffH
	DB	0ffH
	DB	0ffH
	DB	0ffH
	DB	0ffH
	DB	0ffH
	DB	0ffH
	DB	0ffH
	DB	0ffH
	DB	0ffH
	DB	0ffH
	DB	0ffH
	DB	0ffH
	DB	0ffH
	DB	0ffH
	DB	0ffH
	DB	0ffH
	DB	0ffH
	DB	0ffH
	DB	0ffH
	DB	0ffH
	DB	0ffH
	DB	0ffH
	DB	0ffH
	DB	0ffH
	DB	0ffH
	DB	0ffH
	DB	0ffH
	DB	0ffH
	DB	0ffH
	DB	0ffH
	DB	0ffH
	DB	0ffH
	DB	0ffH
	DB	0ffH
	DB	0ffH
	DB	0ffH
	DB	0ffH
	DB	0ffH
	DB	0ffH
	DB	0ffH
	DB	0ffH
	DB	0ffH
	DB	0ffH
	DB	0ffH
	DB	0ffH
	DB	0ffH
	DB	0ffH
	DB	0ffH
	DB	0ffH
	DB	0ffH
	DB	0ffH
	DB	0ffH
	DB	0ffH
	DB	0ffH
	DB	0ffH
	DB	0fbH
	DB	0ffH
	DB	0ffH
	DB	0ffH
	DB	0ffH
	DB	0ffH
	DB	0ffH
	DB	0ffH
	DB	0ffH
	DB	0ffH
	DB	0ffH
	DB	0ffH
	DB	0ffH
	DB	0ffH
	DB	0ffH
	DB	0ffH
	DB	0ffH
	DB	0ffH
	DB	0ffH
	DB	0ffH
	DB	0ffH
	DB	0ffH
	DB	0ffH
	DB	0ffH
	DB	0ffH
	DB	0ffH
	DB	0ffH
	DB	0ffH
	DB	0ffH
	DB	0fbH
	DB	0efH
	DB	0ffH
	DB	0ffH
	DB	0ffH
	DB	0ffH
	DB	0ffH
	DB	0ffH
	DB	0ffH
	DB	0ffH
	DB	0ffH
	DB	0ffH
	DB	0ffH
	DB	0ffH
	DB	0ffH
	DB	0ffH
	DB	0ffH
	DB	0ffH
	DB	0ffH
	DB	0ffH
	DB	0ffH
	DB	0ffH
	DB	0ffH
	DB	0ffH
	DB	0ffH
	DB	0ffH
	DB	0ffH
	DB	0ffH
	DB	0ffH
	DB	0ffH
	DB	0e3H
	DB	0d7H
	DB	0ffH
	DB	0ffH
	DB	0ffH
	DB	0ffH
	DB	0ffH
	DB	0ffH
	DB	0ffH
	DB	0ffH
	DB	0ffH
	DB	0ffH
	DB	0ffH
	DB	0ffH
	DB	0ffH
	DB	0ffH
	DB	0ffH
	DB	0ffH
	DB	0ffH
	DB	0ffH
	DB	0ffH
	DB	0ffH
	DB	0ffH
	DB	0ffH
	DB	0ffH
	DB	0ffH
	DB	0ffH
	DB	0ffH
	DB	0ffH
	DB	0ffH
	DB	0cbH
	DB	0a2H
	DB	0ffH
	DB	0ffH
	DB	0ffH
	DB	0ffH
	DB	0ffH
	DB	0ffH
	DB	0ffH
	DB	0ffH
	DB	0ffH
	DB	0ffH
	DB	0ffH
	DB	0ffH
	DB	0ffH
	DB	0ffH
	DB	0ffH
	DB	0ffH
	DB	0ffH
	DB	0ffH
	DB	0ffH
	DB	0ffH
	DB	0ffH
	DB	0ffH
	DB	0ffH
	DB	0ffH
	DB	0ffH
	DB	0ffH
	DB	0ffH
	DB	0ffH
	DB	092H
	DB	05dH
	DB	0ffH
	DB	0ffH
	DB	0ffH
	DB	0ffH
	DB	0ffH
	DB	0ffH
	DB	0ffH
	DB	0ffH
	DB	0ffH
	DB	0ffH
	DB	0ffH
	DB	0ffH
	DB	0ffH
	DB	0ffH
	DB	0ffH
	DB	0ffH
	DB	0ffH
	DB	0ffH
	DB	0ffH
	DB	0ffH
	DB	0ffH
	DB	0ffH
	DB	0ffH
	DB	0ffH
	DB	0ffH
	DB	0ffH
	DB	0ffH
	DB	0ffH
	DB	051H
	DB	024H
	DB	0dbH
	DB	0fbH
	DB	0ffH
	DB	0ffH
	DB	0ffH
	DB	0ffH
	DB	0ffH
	DB	0ffH
	DB	0ffH
	DB	0ffH
	DB	0ffH
	DB	0ffH
	DB	0ffH
	DB	0ffH
	DB	0ffH
	DB	0ffH
	DB	0ffH
	DB	0ffH
	DB	0ffH
	DB	0ffH
	DB	0ffH
	DB	0ffH
	DB	0ffH
	DB	0ffH
	DB	0ffH
	DB	0ffH
	DB	0fbH
	DB	0d7H
	DB	01cH
	DB	08H
	DB	07dH
	DB	0dbH
	DB	0f7H
	DB	0ffH
	DB	0ffH
	DB	0ffH
	DB	0ffH
	DB	0ffH
	DB	0ffH
	DB	0ffH
	DB	0ffH
	DB	0ffH
	DB	0ffH
	DB	0ffH
	DB	0ffH
	DB	0ffH
	DB	0ffH
	DB	0ffH
	DB	0ffH
	DB	0ffH
	DB	0ffH
	DB	0ffH
	DB	0ffH
	DB	0ffH
	DB	0ffH
	DB	0f7H
	DB	0dbH
	DB	071H
	DB	04H
	DB	00H
	DB	0cH
	DB	092H
	DB	0ebH
	DB	0ffH
	DB	0ffH
	DB	0ffH
	DB	0ffH
	DB	0ffH
	DB	0ffH
	DB	0ffH
	DB	0ffH
	DB	0ffH
	DB	0ffH
	DB	0ffH
	DB	0ffH
	DB	0ffH
	DB	0ffH
	DB	0ffH
	DB	0ffH
	DB	0ffH
	DB	0ffH
	DB	0ffH
	DB	0ffH
	DB	0ffH
	DB	0ffH
	DB	0ebH
	DB	08eH
	DB	04H
	DB	00H
CONST	ENDS
END
